 pacman

 Timestamp is 541b2228 (Fri Sep 19 00:19:20 2014)

 Preferred load address is 00400000

 Start         Length     Name                   Class
 0001:00000000 000e6438H .text                   CODE
 0001:000e6440 0000c983H .text$x                 CODE
 0001:000f2dd0 00000c5eH .text$yc                CODE
 0001:000f3a30 000009d1H .text$yd                CODE
 0002:00000000 000002e4H .idata$5                DATA
 0002:000002e4 00000004H .CRT$XCA                DATA
 0002:000002e8 00000004H .CRT$XCC                DATA
 0002:000002ec 000000b0H .CRT$XCU                DATA
 0002:0000039c 00000004H .CRT$XCZ                DATA
 0002:000003a0 00000004H .CRT$XIA                DATA
 0002:000003a4 00000014H .CRT$XIC                DATA
 0002:000003b8 00000004H .CRT$XIY                DATA
 0002:000003bc 00000004H .CRT$XIZ                DATA
 0002:000003c0 00000004H .CRT$XPA                DATA
 0002:000003c4 00000008H .CRT$XPX                DATA
 0002:000003cc 00000004H .CRT$XPXA               DATA
 0002:000003d0 00000004H .CRT$XPZ                DATA
 0002:000003d4 00000004H .CRT$XTA                DATA
 0002:000003d8 00000004H .CRT$XTZ                DATA
 0002:000003e0 0001e8b0H .rdata                  DATA
 0002:0001ec90 0000005aH .rdata$debug            DATA
 0002:0001ecec 00002974H .rdata$r                DATA
 0002:00021660 00000c14H .rdata$sxdata           DATA
 0002:00022274 00000004H .rtc$IAA                DATA
 0002:00022278 0000002cH .rtc$IMZ                DATA
 0002:000222a4 00000004H .rtc$IZZ                DATA
 0002:000222a8 00000004H .rtc$TAA                DATA
 0002:000222ac 0000002cH .rtc$TMZ                DATA
 0002:000222d8 00000004H .rtc$TZZ                DATA
 0002:000222e0 0000c50cH .xdata$x                DATA
 0002:0002e7ec 00000078H .idata$2                DATA
 0002:0002e864 00000014H .idata$3                DATA
 0002:0002e878 000002e4H .idata$4                DATA
 0002:0002eb5c 00000c0eH .idata$6                DATA
 0002:0002f76a 00000000H .edata                  DATA
 0003:00000000 00002b00H .data                   DATA
 0003:00002b00 00002608H .bss                    DATA
 0004:00000000 00000928H .rsrc$01                DATA
 0004:00000930 00059a70H .rsrc$02                DATA

  Address         Publics by Value              Rva+Base       Lib:Object

 0000:00000000       __except_list              00000000     <absolute>
 0000:00000305       ___safe_se_handler_count   00000305     <absolute>
 0000:00000000       ___ImageBase               00400000     <linker-defined>
 0001:00000000       ?init@GameApplication@Pegas@@QAEXPAUHWND__@@@Z 00401000 f   game_app.obj
 0001:000002e0       ?run@GameApplication@Pegas@@QAE_NXZ 004012e0 f   game_app.obj
 0001:00000460       ?cleanup@GameApplication@Pegas@@QAEXXZ 00401460 f   game_app.obj
 0001:00000530       ?resize@GameApplication@Pegas@@QAEXHH@Z 00401530 f   game_app.obj
 0001:000005a0       ?registerResources@GameApplication@Pegas@@AAEXXZ 004015a0 f   game_app.obj
 0001:00000bd0       ?processInput@GameApplication@Pegas@@QAEXIIJ@Z 00401bd0 f   game_app.obj
 0001:00001240       ?addKeyboardController@GameApplication@Pegas@@UAEXPAVIKeyboardController@2@@Z 00402240 f   game_app.obj
 0001:000012b0       ??1?$pair@Viterator@?$_Tree@V?$_Tset_traits@PAVIKeyboardController@Pegas@@U?$less@PAVIKeyboardController@Pegas@@@std@@V?$allocator@PAVIKeyboardController@Pegas@@@4@$0A@@std@@@std@@_N@std@@QAE@XZ 004022b0 f i game_app.obj
 0001:000012f0       ?removeKeyboardController@GameApplication@Pegas@@UAEXPAVIKeyboardController@2@@Z 004022f0 f   game_app.obj
 0001:00001340       ?addMouseController@GameApplication@Pegas@@UAEXPAVIMouseController@2@@Z 00402340 f   game_app.obj
 0001:000013b0       ??1?$pair@Viterator@?$_Tree@V?$_Tset_traits@PAVIMouseController@Pegas@@U?$less@PAVIMouseController@Pegas@@@std@@V?$allocator@PAVIMouseController@Pegas@@@4@$0A@@std@@@std@@_N@std@@QAE@XZ 004023b0 f i game_app.obj
 0001:000013f0       ?removeMouseController@GameApplication@Pegas@@UAEXPAVIMouseController@2@@Z 004023f0 f   game_app.obj
 0001:00001440       ?attachProcess@GameApplication@Pegas@@UAEHV?$ptr@VProcess@Pegas@@@2@@Z 00402440 f   game_app.obj
 0001:00001500       ?terminateProcess@GameApplication@Pegas@@UAEXABH@Z 00402500 f   game_app.obj
 0001:00001550       ?addGameState@GameApplication@Pegas@@UAEXV?$ptr@VIGameState@Pegas@@@2@@Z 00402550 f   game_app.obj
 0001:00001630       ?removeState@GameApplication@Pegas@@UAEXH@Z 00402630 f   game_app.obj
 0001:00001770       ??4?$stack@V?$ptr@VIGameState@Pegas@@@Pegas@@V?$deque@V?$ptr@VIGameState@Pegas@@@Pegas@@V?$allocator@V?$ptr@VIGameState@Pegas@@@Pegas@@@std@@@std@@@std@@QAEAAV01@ABV01@@Z 00402770 f i game_app.obj
 0001:000017c0       ?changeState@GameApplication@Pegas@@UAEXH@Z 004027c0 f   game_app.obj
 0001:00001910       ?forwardToState@GameApplication@Pegas@@UAEXH@Z 00402910 f   game_app.obj
 0001:00001a60       ?backwardToPreviousState@GameApplication@Pegas@@UAEXXZ 00402a60 f   game_app.obj
 0001:00001ba0       ?handleEvent@GameApplication@Pegas@@UAEXV?$ptr@UEvent@Pegas@@@2@@Z 00402ba0 f   game_app.obj
 0001:00001de0       ?_changeState@GameApplication@Pegas@@AAEXH@Z 00402de0 f   game_app.obj
 0001:00001f10       ?_forwardToState@GameApplication@Pegas@@AAEXH@Z 00402f10 f   game_app.obj
 0001:00002030       ?_backwardToPreviousState@GameApplication@Pegas@@AAEXXZ 00403030 f   game_app.obj
 0001:00002100       ?shutdownGame@GameApplication@Pegas@@UAEXXZ 00403100 f   game_app.obj
 0001:00002140       ?createFile@GameApplication@Pegas@@UAEPAVISerializer@2@ABV?$basic_string@_WU?$char_traits@_W@std@@V?$allocator@_W@2@@std@@@Z 00403140 f   game_app.obj
 0001:00002350       ?openFile@GameApplication@Pegas@@UAEPAVISerializer@2@ABV?$basic_string@_WU?$char_traits@_W@std@@V?$allocator@_W@2@@std@@I@Z 00403350 f   game_app.obj
 0001:00002560       ?closeFile@GameApplication@Pegas@@UAEXPAVISerializer@2@@Z 00403560 f   game_app.obj
 0001:000026e0       ??1?$_Iterator@$00@?$list@V?$ptr@VFile@Pegas@@@Pegas@@V?$allocator@V?$ptr@VFile@Pegas@@@Pegas@@@std@@@std@@QAE@XZ 004036e0 f i game_app.obj
 0001:00002720       ??0?$_Const_iterator@$00@?$list@V?$ptr@VFile@Pegas@@@Pegas@@V?$allocator@V?$ptr@VFile@Pegas@@@Pegas@@@std@@@std@@QAE@ABV012@@Z 00403720 f i game_app.obj
 0001:00002780       ??1?$_Const_iterator@$00@?$list@V?$ptr@VFile@Pegas@@@Pegas@@V?$allocator@V?$ptr@VFile@Pegas@@@Pegas@@@std@@@std@@QAE@XZ 00403780 f i game_app.obj
 0001:000027c0       ??0?$_Bidit@V?$ptr@VFile@Pegas@@@Pegas@@HPBV12@ABV12@@std@@QAE@ABU01@@Z 004037c0 f i game_app.obj
 0001:00002810       ??1?$_Bidit@V?$ptr@VFile@Pegas@@@Pegas@@HPBV12@ABV12@@std@@QAE@XZ 00403810 f i game_app.obj
 0001:00002850       ??0?$_Iterator_with_base@Ubidirectional_iterator_tag@std@@V?$ptr@VFile@Pegas@@@Pegas@@HPBV34@ABV34@V_Iterator_base@2@@std@@QAE@ABU01@@Z 00403850 f i game_app.obj
 0001:000028a0       ??0_Iterator_base@std@@QAE@ABV01@@Z 004038a0 f i game_app.obj
 0001:00002900       ??4_Iterator_base@std@@QAEAAV01@ABV01@@Z 00403900 f i game_app.obj
 0001:000029e0       ?_Adopt@_Iterator_base@std@@QAEXPBV_Container_base_secure@2@@Z 004039e0 f i game_app.obj
 0001:00002ad0       ?_Orphan_me@_Iterator_base@std@@QAEXXZ 00403ad0 f i game_app.obj
 0001:00002b80       ??1?$_Iterator_with_base@Ubidirectional_iterator_tag@std@@V?$ptr@VFile@Pegas@@@Pegas@@HPBV34@ABV34@V_Iterator_base@2@@std@@QAE@XZ 00403b80 f i game_app.obj
 0001:00002bc0       ??1_Iterator_base@std@@QAE@XZ 00403bc0 f i game_app.obj
 0001:00002c80       ??4?$basic_string@_WU?$char_traits@_W@std@@V?$allocator@_W@2@@std@@QAEAAV01@ABV01@@Z 00403c80 f i game_app.obj
 0001:00002cd0       ?find@?$basic_string@_WU?$char_traits@_W@std@@V?$allocator@_W@2@@std@@QBEIPB_WI@Z 00403cd0 f i game_app.obj
 0001:00002d40       ?length@?$char_traits@_W@std@@SAIPB_W@Z 00403d40 f i game_app.obj
 0001:00002d80       ?getInstance@?$Singleton@VEventManager@Pegas@@@Pegas@@SAAAVEventManager@2@XZ 00403d80 f i game_app.obj
 0001:00002dd0       ??0?$ptr@UEvent@Pegas@@@Pegas@@QAE@ABV01@@Z 00403dd0 f i game_app.obj
 0001:00002e30       ??C?$ptr@UEvent@Pegas@@@Pegas@@QBEPAUEvent@1@XZ 00403e30 f i game_app.obj
 0001:00002e70       ??0?$ptr@VProcess@Pegas@@@Pegas@@QAE@ABV01@@Z 00403e70 f i game_app.obj
 0001:00002ed0       ?insert@?$_Tree@V?$_Tset_traits@PAVIKeyboardController@Pegas@@U?$less@PAVIKeyboardController@Pegas@@@std@@V?$allocator@PAVIKeyboardController@Pegas@@@4@$0A@@std@@@std@@QAE?AU?$pair@Viterator@?$_Tree@V?$_Tset_traits@PAVIKeyboardController@Pegas@@U?$less@PAVIKeyboardController@Pegas@@@std@@V?$allocator@PAVIKeyboardController@Pegas@@@4@$0A@@std@@@std@@_N@2@ABQAVIKeyboardController@Pegas@@@Z 00403ed0 f i game_app.obj
 0001:000032b0       ?erase@?$_Tree@V?$_Tset_traits@PAVIKeyboardController@Pegas@@U?$less@PAVIKeyboardController@Pegas@@@std@@V?$allocator@PAVIKeyboardController@Pegas@@@4@$0A@@std@@@std@@QAEIABQAVIKeyboardController@Pegas@@@Z 004042b0 f i game_app.obj
 0001:00003450       ?count@?$_Tree@V?$_Tset_traits@PAVIKeyboardController@Pegas@@U?$less@PAVIKeyboardController@Pegas@@@std@@V?$allocator@PAVIKeyboardController@Pegas@@@4@$0A@@std@@@std@@QBEIABQAVIKeyboardController@Pegas@@@Z 00404450 f i game_app.obj
 0001:00003580       ?insert@?$_Tree@V?$_Tset_traits@PAVIMouseController@Pegas@@U?$less@PAVIMouseController@Pegas@@@std@@V?$allocator@PAVIMouseController@Pegas@@@4@$0A@@std@@@std@@QAE?AU?$pair@Viterator@?$_Tree@V?$_Tset_traits@PAVIMouseController@Pegas@@U?$less@PAVIMouseController@Pegas@@@std@@V?$allocator@PAVIMouseController@Pegas@@@4@$0A@@std@@@std@@_N@2@ABQAVIMouseController@Pegas@@@Z 00404580 f i game_app.obj
 0001:00003960       ?erase@?$_Tree@V?$_Tset_traits@PAVIMouseController@Pegas@@U?$less@PAVIMouseController@Pegas@@@std@@V?$allocator@PAVIMouseController@Pegas@@@4@$0A@@std@@@std@@QAEIABQAVIMouseController@Pegas@@@Z 00404960 f i game_app.obj
 0001:00003b00       ?count@?$_Tree@V?$_Tset_traits@PAVIMouseController@Pegas@@U?$less@PAVIMouseController@Pegas@@@std@@V?$allocator@PAVIMouseController@Pegas@@@4@$0A@@std@@@std@@QBEIABQAVIMouseController@Pegas@@@Z 00404b00 f i game_app.obj
 0001:00003c30       ??A?$map@HV?$ptr@VIGameState@Pegas@@@Pegas@@U?$less@H@std@@V?$allocator@U?$pair@$$CBHV?$ptr@VIGameState@Pegas@@@Pegas@@@std@@@4@@std@@QAEAAV?$ptr@VIGameState@Pegas@@@Pegas@@ABH@Z 00404c30 f i game_app.obj
 0001:00003ea0       ?erase@?$_Tree@V?$_Tmap_traits@HV?$ptr@VIGameState@Pegas@@@Pegas@@U?$less@H@std@@V?$allocator@U?$pair@$$CBHV?$ptr@VIGameState@Pegas@@@Pegas@@@std@@@4@$0A@@std@@@std@@QAEIABH@Z 00404ea0 f i game_app.obj
 0001:00004040       ?count@?$_Tree@V?$_Tmap_traits@HV?$ptr@VIGameState@Pegas@@@Pegas@@U?$less@H@std@@V?$allocator@U?$pair@$$CBHV?$ptr@VIGameState@Pegas@@@Pegas@@@std@@@4@$0A@@std@@@std@@QBEIABH@Z 00405040 f i game_app.obj
 0001:00004170       ?empty@?$stack@V?$ptr@VIGameState@Pegas@@@Pegas@@V?$deque@V?$ptr@VIGameState@Pegas@@@Pegas@@V?$allocator@V?$ptr@VIGameState@Pegas@@@Pegas@@@std@@@std@@@std@@QBE_NXZ 00405170 f i game_app.obj
 0001:000041b0       ?size@?$stack@V?$ptr@VIGameState@Pegas@@@Pegas@@V?$deque@V?$ptr@VIGameState@Pegas@@@Pegas@@V?$allocator@V?$ptr@VIGameState@Pegas@@@Pegas@@@std@@@std@@@std@@QBEIXZ 004051b0 f i game_app.obj
 0001:000041f0       ?top@?$stack@V?$ptr@VIGameState@Pegas@@@Pegas@@V?$deque@V?$ptr@VIGameState@Pegas@@@Pegas@@V?$allocator@V?$ptr@VIGameState@Pegas@@@Pegas@@@std@@@std@@@std@@QAEAAV?$ptr@VIGameState@Pegas@@@Pegas@@XZ 004051f0 f i game_app.obj
 0001:00004230       ?push@?$stack@V?$ptr@VIGameState@Pegas@@@Pegas@@V?$deque@V?$ptr@VIGameState@Pegas@@@Pegas@@V?$allocator@V?$ptr@VIGameState@Pegas@@@Pegas@@@std@@@std@@@std@@QAEXABV?$ptr@VIGameState@Pegas@@@Pegas@@@Z 00405230 f i game_app.obj
 0001:00004280       ?pop@?$stack@V?$ptr@VIGameState@Pegas@@@Pegas@@V?$deque@V?$ptr@VIGameState@Pegas@@@Pegas@@V?$allocator@V?$ptr@VIGameState@Pegas@@@Pegas@@@std@@@std@@@std@@QAEXXZ 00405280 f i game_app.obj
 0001:000042c0       ??4?$deque@V?$ptr@VIGameState@Pegas@@@Pegas@@V?$allocator@V?$ptr@VIGameState@Pegas@@@Pegas@@@std@@@std@@QAEAAV01@ABV01@@Z 004052c0 f i game_app.obj
 0001:00004680       ??4?$ptr@VIGameState@Pegas@@@Pegas@@QAEAAV01@ABV01@@Z 00405680 f i game_app.obj
 0001:000046f0       ??C?$ptr@VIGameState@Pegas@@@Pegas@@QBEPAVIGameState@1@XZ 004056f0 f i game_app.obj
 0001:00004730       ?begin@?$list@V?$ptr@VFile@Pegas@@@Pegas@@V?$allocator@V?$ptr@VFile@Pegas@@@Pegas@@@std@@@std@@QAE?AV?$_Iterator@$00@12@XZ 00405730 f i game_app.obj
 0001:000047b0       ?end@?$list@V?$ptr@VFile@Pegas@@@Pegas@@V?$allocator@V?$ptr@VFile@Pegas@@@Pegas@@@std@@@std@@QAE?AV?$_Iterator@$00@12@XZ 004057b0 f i game_app.obj
 0001:00004820       ?push_back@?$list@V?$ptr@VFile@Pegas@@@Pegas@@V?$allocator@V?$ptr@VFile@Pegas@@@Pegas@@@std@@@std@@QAEXABV?$ptr@VFile@Pegas@@@Pegas@@@Z 00405820 f i game_app.obj
 0001:000048f0       ?erase@?$list@V?$ptr@VFile@Pegas@@@Pegas@@V?$allocator@V?$ptr@VFile@Pegas@@@Pegas@@@std@@@std@@QAE?AV?$_Iterator@$00@12@V?$_Const_iterator@$00@12@@Z 004058f0 f i game_app.obj
 0001:00004ac0       ??Diterator@?$_Tree@V?$_Tset_traits@PAVIKeyboardController@Pegas@@U?$less@PAVIKeyboardController@Pegas@@@std@@V?$allocator@PAVIKeyboardController@Pegas@@@4@$0A@@std@@@std@@QBEAAPAVIKeyboardController@Pegas@@XZ 00405ac0 f i game_app.obj
 0001:00004b00       ??Eiterator@?$_Tree@V?$_Tset_traits@PAVIKeyboardController@Pegas@@U?$less@PAVIKeyboardController@Pegas@@@std@@V?$allocator@PAVIKeyboardController@Pegas@@@4@$0A@@std@@@std@@QAEAAV012@XZ 00405b00 f i game_app.obj
 0001:00004b50       ??Diterator@?$_Tree@V?$_Tset_traits@PAVIMouseController@Pegas@@U?$less@PAVIMouseController@Pegas@@@std@@V?$allocator@PAVIMouseController@Pegas@@@4@$0A@@std@@@std@@QBEAAPAVIMouseController@Pegas@@XZ 00405b50 f i game_app.obj
 0001:00004b90       ??Eiterator@?$_Tree@V?$_Tset_traits@PAVIMouseController@Pegas@@U?$less@PAVIMouseController@Pegas@@@std@@V?$allocator@PAVIMouseController@Pegas@@@4@$0A@@std@@@std@@QAEAAV012@XZ 00405b90 f i game_app.obj
 0001:00004be0       ??0?$ptr@VFile@Pegas@@@Pegas@@QAE@PAVFile@1@PAUCounter@1@@Z 00405be0 f i game_app.obj
 0001:00004ce0       ??C?$ptr@VFile@Pegas@@@Pegas@@QBEPAVFile@1@XZ 00405ce0 f i game_app.obj
 0001:00004d20       ?get@?$ptr@VFile@Pegas@@@Pegas@@QBEPAVFile@2@XZ 00405d20 f i game_app.obj
 0001:00004d60       ??9?$_Const_iterator@$00@?$list@V?$ptr@VFile@Pegas@@@Pegas@@V?$allocator@V?$ptr@VFile@Pegas@@@Pegas@@@std@@@std@@QBE_NABV012@@Z 00405d60 f i game_app.obj
 0001:00004db0       ??D?$_Iterator@$00@?$list@V?$ptr@VFile@Pegas@@@Pegas@@V?$allocator@V?$ptr@VFile@Pegas@@@Pegas@@@std@@@std@@QBEAAV?$ptr@VFile@Pegas@@@Pegas@@XZ 00405db0 f i game_app.obj
 0001:00004df0       ??E?$_Iterator@$00@?$list@V?$ptr@VFile@Pegas@@@Pegas@@V?$allocator@V?$ptr@VFile@Pegas@@@Pegas@@@std@@@std@@QAEAAV012@XZ 00405df0 f i game_app.obj
 0001:00004e40       ??1?$pair@Viterator@?$_Tree@V?$_Tset_traits@PAVIKeyboardController@Pegas@@U?$less@PAVIKeyboardController@Pegas@@@std@@V?$allocator@PAVIKeyboardController@Pegas@@@4@$0A@@std@@@std@@V123@@std@@QAE@XZ 00405e40 f i game_app.obj
 0001:00004ed0       ??1?$pair@Vconst_iterator@?$_Tree@V?$_Tset_traits@PAVIKeyboardController@Pegas@@U?$less@PAVIKeyboardController@Pegas@@@std@@V?$allocator@PAVIKeyboardController@Pegas@@@4@$0A@@std@@@std@@V123@@std@@QAE@XZ 00405ed0 f i game_app.obj
 0001:00004f60       ??1?$pair@Viterator@?$_Tree@V?$_Tset_traits@PAVIMouseController@Pegas@@U?$less@PAVIMouseController@Pegas@@@std@@V?$allocator@PAVIMouseController@Pegas@@@4@$0A@@std@@@std@@V123@@std@@QAE@XZ 00405f60 f i game_app.obj
 0001:00004ff0       ??1?$pair@Vconst_iterator@?$_Tree@V?$_Tset_traits@PAVIMouseController@Pegas@@U?$less@PAVIMouseController@Pegas@@@std@@V?$allocator@PAVIMouseController@Pegas@@@4@$0A@@std@@@std@@V123@@std@@QAE@XZ 00405ff0 f i game_app.obj
 0001:00005080       ??4iterator@?$_Tree@V?$_Tmap_traits@HV?$ptr@VIGameState@Pegas@@@Pegas@@U?$less@H@std@@V?$allocator@U?$pair@$$CBHV?$ptr@VIGameState@Pegas@@@Pegas@@@std@@@4@$0A@@std@@@std@@QAEAAV012@ABV012@@Z 00406080 f i game_app.obj
 0001:000050d0       ??1?$pair@Viterator@?$_Tree@V?$_Tmap_traits@HV?$ptr@VIGameState@Pegas@@@Pegas@@U?$less@H@std@@V?$allocator@U?$pair@$$CBHV?$ptr@VIGameState@Pegas@@@Pegas@@@std@@@4@$0A@@std@@@std@@V123@@std@@QAE@XZ 004060d0 f i game_app.obj
 0001:00005160       ??1?$pair@Vconst_iterator@?$_Tree@V?$_Tmap_traits@HV?$ptr@VIGameState@Pegas@@@Pegas@@U?$less@H@std@@V?$allocator@U?$pair@$$CBHV?$ptr@VIGameState@Pegas@@@Pegas@@@std@@@4@$0A@@std@@@std@@V123@@std@@QAE@XZ 00406160 f i game_app.obj
 0001:000051f0       ??1?$_Deque_const_iterator@V?$ptr@VIGameState@Pegas@@@Pegas@@V?$allocator@V?$ptr@VIGameState@Pegas@@@Pegas@@@std@@$00@std@@QAE@XZ 004061f0 f i game_app.obj
 0001:00005230       ??1?$_Deque_iterator@V?$ptr@VIGameState@Pegas@@@Pegas@@V?$allocator@V?$ptr@VIGameState@Pegas@@@Pegas@@@std@@$00@std@@QAE@XZ 00406230 f i game_app.obj
 0001:00005270       ??4const_iterator@?$_Tree@V?$_Tmap_traits@HV?$ptr@VIGameState@Pegas@@@Pegas@@U?$less@H@std@@V?$allocator@U?$pair@$$CBHV?$ptr@VIGameState@Pegas@@@Pegas@@@std@@@4@$0A@@std@@@std@@QAEAAV012@ABV012@@Z 00406270 f i game_app.obj
 0001:000052d0       ??1?$_Ranit@V?$ptr@VIGameState@Pegas@@@Pegas@@HPBV12@ABV12@@std@@QAE@XZ 004062d0 f i game_app.obj
 0001:00005310       ??4?$_Bidit@U?$pair@$$CBHV?$ptr@VIGameState@Pegas@@@Pegas@@@std@@HPBU12@ABU12@@std@@QAEAAU01@ABU01@@Z 00406310 f i game_app.obj
 0001:00005360       ??1?$_Iterator_with_base@Urandom_access_iterator_tag@std@@V?$ptr@VIGameState@Pegas@@@Pegas@@HPBV34@ABV34@V_Iterator_base@2@@std@@QAE@XZ 00406360 f i game_app.obj
 0001:000053a0       ??4?$_Iterator_with_base@Ubidirectional_iterator_tag@std@@U?$pair@$$CBHV?$ptr@VIGameState@Pegas@@@Pegas@@@2@HPBU32@ABU32@V_Iterator_base@2@@std@@QAEAAU01@ABU01@@Z 004063a0 f i game_app.obj
 0001:000053f0       ?assign@?$basic_string@_WU?$char_traits@_W@std@@V?$allocator@_W@2@@std@@QAEAAV12@ABV12@@Z 004063f0 f i game_app.obj
 0001:00005440       ?find@?$basic_string@_WU?$char_traits@_W@std@@V?$allocator@_W@2@@std@@QBEIPB_WII@Z 00406440 f i game_app.obj
 0001:00005560       ?compare@?$char_traits@_W@std@@SAHPB_W0I@Z 00406560 f i game_app.obj
 0001:000055b0       _wmemcmp                   004065b0 f i game_app.obj
 0001:00005630       ?find@?$char_traits@_W@std@@SAPB_WPB_WIAB_W@Z 00406630 f i game_app.obj
 0001:00005680       _wmemchr                   00406680 f i game_app.obj
 0001:000056e0       ??R?$less@H@std@@QBE_NABH0@Z 004066e0 f i game_app.obj
 0001:00005720       ?GetRawPointer@?$ptr@UEvent@Pegas@@@Pegas@@QBEPAUEvent@2@XZ 00406720 f i game_app.obj
 0001:000057c0       ?acquire@?$ptr@UEvent@Pegas@@@Pegas@@AAEXPAUCounter@2@@Z 004067c0 f i game_app.obj
 0001:00005810       ?acquire@?$ptr@VProcess@Pegas@@@Pegas@@AAEXPAUCounter@2@@Z 00406810 f i game_app.obj
 0001:00005860       ?_Key@?$_Tree@V?$_Tset_traits@PAVIKeyboardController@Pegas@@U?$less@PAVIKeyboardController@Pegas@@@std@@V?$allocator@PAVIKeyboardController@Pegas@@@4@$0A@@std@@@std@@KAABQAVIKeyboardController@Pegas@@PAU_Node@?$_Tree_nod@V?$_Tset_traits@PAVIKeyboardController@Pegas@@U?$less@PAVIKeyboardController@Pegas@@@std@@V?$allocator@PAVIKeyboardController@Pegas@@@4@$0A@@std@@@2@@Z 00406860 f i game_app.obj
 0001:000058b0       ?equal_range@?$_Tree@V?$_Tset_traits@PAVIKeyboardController@Pegas@@U?$less@PAVIKeyboardController@Pegas@@@std@@V?$allocator@PAVIKeyboardController@Pegas@@@4@$0A@@std@@@std@@QAE?AU?$pair@Viterator@?$_Tree@V?$_Tset_traits@PAVIKeyboardController@Pegas@@U?$less@PAVIKeyboardController@Pegas@@@std@@V?$allocator@PAVIKeyboardController@Pegas@@@4@$0A@@std@@@std@@V123@@2@ABQAVIKeyboardController@Pegas@@@Z 004068b0 f i game_app.obj
 0001:00005920       ?equal_range@?$_Tree@V?$_Tset_traits@PAVIKeyboardController@Pegas@@U?$less@PAVIKeyboardController@Pegas@@@std@@V?$allocator@PAVIKeyboardController@Pegas@@@4@$0A@@std@@@std@@QBE?AU?$pair@Vconst_iterator@?$_Tree@V?$_Tset_traits@PAVIKeyboardController@Pegas@@U?$less@PAVIKeyboardController@Pegas@@@std@@V?$allocator@PAVIKeyboardController@Pegas@@@4@$0A@@std@@@std@@V123@@2@ABQAVIKeyboardController@Pegas@@@Z 00406920 f i game_app.obj
 0001:00005990       ?_Insert@?$_Tree@V?$_Tset_traits@PAVIKeyboardController@Pegas@@U?$less@PAVIKeyboardController@Pegas@@@std@@V?$allocator@PAVIKeyboardController@Pegas@@@4@$0A@@std@@@std@@IAE?AViterator@12@_NPAU_Node@?$_Tree_nod@V?$_Tset_traits@PAVIKeyboardController@Pegas@@U?$less@PAVIKeyboardController@Pegas@@@std@@V?$allocator@PAVIKeyboardController@Pegas@@@4@$0A@@std@@@2@ABQAVIKeyboardController@Pegas@@@Z 00406990 f i game_app.obj
 0001:00005e60       ??0length_error@std@@QAE@ABV?$basic_string@DU?$char_traits@D@std@@V?$allocator@D@2@@1@@Z 00406e60 f i game_app.obj
 0001:00005ec0       ??0logic_error@std@@QAE@ABV?$basic_string@DU?$char_traits@D@std@@V?$allocator@D@2@@1@@Z 00406ec0 f i game_app.obj
 0001:00005f60       ?what@logic_error@std@@UBEPBDXZ 00406f60 f i game_app.obj
 0001:00005fb0       ??_Glogic_error@std@@UAEPAXI@Z 00406fb0 f i game_app.obj
 0001:00005fb0       ??_Elogic_error@std@@UAEPAXI@Z 00406fb0 f i game_app.obj
 0001:00006010       ??1logic_error@std@@UAE@XZ 00407010 f i game_app.obj
 0001:00006070       ??1length_error@std@@UAE@XZ 00407070 f i game_app.obj
 0001:000060c0       ??_Glength_error@std@@UAEPAXI@Z 004070c0 f i game_app.obj
 0001:000060c0       ??_Elength_error@std@@UAEPAXI@Z 004070c0 f i game_app.obj
 0001:00006120       ?_Kfn@?$_Tset_traits@PAVIKeyboardController@Pegas@@U?$less@PAVIKeyboardController@Pegas@@@std@@V?$allocator@PAVIKeyboardController@Pegas@@@4@$0A@@std@@SAABQAVIKeyboardController@Pegas@@ABQAV34@@Z 00407120 f i game_app.obj
 0001:00006150       ?_Key@?$_Tree@V?$_Tset_traits@PAVIMouseController@Pegas@@U?$less@PAVIMouseController@Pegas@@@std@@V?$allocator@PAVIMouseController@Pegas@@@4@$0A@@std@@@std@@KAABQAVIMouseController@Pegas@@PAU_Node@?$_Tree_nod@V?$_Tset_traits@PAVIMouseController@Pegas@@U?$less@PAVIMouseController@Pegas@@@std@@V?$allocator@PAVIMouseController@Pegas@@@4@$0A@@std@@@2@@Z 00407150 f i game_app.obj
 0001:000061a0       ?equal_range@?$_Tree@V?$_Tset_traits@PAVIMouseController@Pegas@@U?$less@PAVIMouseController@Pegas@@@std@@V?$allocator@PAVIMouseController@Pegas@@@4@$0A@@std@@@std@@QAE?AU?$pair@Viterator@?$_Tree@V?$_Tset_traits@PAVIMouseController@Pegas@@U?$less@PAVIMouseController@Pegas@@@std@@V?$allocator@PAVIMouseController@Pegas@@@4@$0A@@std@@@std@@V123@@2@ABQAVIMouseController@Pegas@@@Z 004071a0 f i game_app.obj
 0001:00006210       ?equal_range@?$_Tree@V?$_Tset_traits@PAVIMouseController@Pegas@@U?$less@PAVIMouseController@Pegas@@@std@@V?$allocator@PAVIMouseController@Pegas@@@4@$0A@@std@@@std@@QBE?AU?$pair@Vconst_iterator@?$_Tree@V?$_Tset_traits@PAVIMouseController@Pegas@@U?$less@PAVIMouseController@Pegas@@@std@@V?$allocator@PAVIMouseController@Pegas@@@4@$0A@@std@@@std@@V123@@2@ABQAVIMouseController@Pegas@@@Z 00407210 f i game_app.obj
 0001:00006280       ?_Insert@?$_Tree@V?$_Tset_traits@PAVIMouseController@Pegas@@U?$less@PAVIMouseController@Pegas@@@std@@V?$allocator@PAVIMouseController@Pegas@@@4@$0A@@std@@@std@@IAE?AViterator@12@_NPAU_Node@?$_Tree_nod@V?$_Tset_traits@PAVIMouseController@Pegas@@U?$less@PAVIMouseController@Pegas@@@std@@V?$allocator@PAVIMouseController@Pegas@@@4@$0A@@std@@@2@ABQAVIMouseController@Pegas@@@Z 00407280 f i game_app.obj
 0001:00006750       ?_Kfn@?$_Tset_traits@PAVIMouseController@Pegas@@U?$less@PAVIMouseController@Pegas@@@std@@V?$allocator@PAVIMouseController@Pegas@@@4@$0A@@std@@SAABQAVIMouseController@Pegas@@ABQAV34@@Z 00407750 f i game_app.obj
 0001:00006780       ?_Key@?$_Tree@V?$_Tmap_traits@HV?$ptr@VIGameState@Pegas@@@Pegas@@U?$less@H@std@@V?$allocator@U?$pair@$$CBHV?$ptr@VIGameState@Pegas@@@Pegas@@@std@@@4@$0A@@std@@@std@@KAABHPAU_Node@?$_Tree_nod@V?$_Tmap_traits@HV?$ptr@VIGameState@Pegas@@@Pegas@@U?$less@H@std@@V?$allocator@U?$pair@$$CBHV?$ptr@VIGameState@Pegas@@@Pegas@@@std@@@4@$0A@@std@@@2@@Z 00407780 f i game_app.obj
 0001:000067d0       ?insert@?$_Tree@V?$_Tmap_traits@HV?$ptr@VIGameState@Pegas@@@Pegas@@U?$less@H@std@@V?$allocator@U?$pair@$$CBHV?$ptr@VIGameState@Pegas@@@Pegas@@@std@@@4@$0A@@std@@@std@@QAE?AViterator@12@Vconst_iterator@12@ABU?$pair@$$CBHV?$ptr@VIGameState@Pegas@@@Pegas@@@2@@Z 004077d0 f i game_app.obj
 0001:000073a0       ??0logic_error@std@@QAE@ABV01@@Z 004083a0 f i game_app.obj
 0001:00007440       ?lower_bound@?$_Tree@V?$_Tmap_traits@HV?$ptr@VIGameState@Pegas@@@Pegas@@U?$less@H@std@@V?$allocator@U?$pair@$$CBHV?$ptr@VIGameState@Pegas@@@Pegas@@@std@@@4@$0A@@std@@@std@@QAE?AViterator@12@ABH@Z 00408440 f i game_app.obj
 0001:000074b0       ?equal_range@?$_Tree@V?$_Tmap_traits@HV?$ptr@VIGameState@Pegas@@@Pegas@@U?$less@H@std@@V?$allocator@U?$pair@$$CBHV?$ptr@VIGameState@Pegas@@@Pegas@@@std@@@4@$0A@@std@@@std@@QAE?AU?$pair@Viterator@?$_Tree@V?$_Tmap_traits@HV?$ptr@VIGameState@Pegas@@@Pegas@@U?$less@H@std@@V?$allocator@U?$pair@$$CBHV?$ptr@VIGameState@Pegas@@@Pegas@@@std@@@4@$0A@@std@@@std@@V123@@2@ABH@Z 004084b0 f i game_app.obj
 0001:00007520       ?equal_range@?$_Tree@V?$_Tmap_traits@HV?$ptr@VIGameState@Pegas@@@Pegas@@U?$less@H@std@@V?$allocator@U?$pair@$$CBHV?$ptr@VIGameState@Pegas@@@Pegas@@@std@@@4@$0A@@std@@@std@@QBE?AU?$pair@Vconst_iterator@?$_Tree@V?$_Tmap_traits@HV?$ptr@VIGameState@Pegas@@@Pegas@@U?$less@H@std@@V?$allocator@U?$pair@$$CBHV?$ptr@VIGameState@Pegas@@@Pegas@@@std@@@4@$0A@@std@@@std@@V123@@2@ABH@Z 00408520 f i game_app.obj
 0001:00007590       ?begin@?$deque@V?$ptr@VIGameState@Pegas@@@Pegas@@V?$allocator@V?$ptr@VIGameState@Pegas@@@Pegas@@@std@@@std@@QAE?AV?$_Deque_iterator@V?$ptr@VIGameState@Pegas@@@Pegas@@V?$allocator@V?$ptr@VIGameState@Pegas@@@Pegas@@@std@@$00@2@XZ 00408590 f i game_app.obj
 0001:00007600       ?begin@?$deque@V?$ptr@VIGameState@Pegas@@@Pegas@@V?$allocator@V?$ptr@VIGameState@Pegas@@@Pegas@@@std@@@std@@QBE?AV?$_Deque_const_iterator@V?$ptr@VIGameState@Pegas@@@Pegas@@V?$allocator@V?$ptr@VIGameState@Pegas@@@Pegas@@@std@@$00@2@XZ 00408600 f i game_app.obj
 0001:00007670       ?end@?$deque@V?$ptr@VIGameState@Pegas@@@Pegas@@V?$allocator@V?$ptr@VIGameState@Pegas@@@Pegas@@@std@@@std@@QAE?AV?$_Deque_iterator@V?$ptr@VIGameState@Pegas@@@Pegas@@V?$allocator@V?$ptr@VIGameState@Pegas@@@Pegas@@@std@@$00@2@XZ 00408670 f i game_app.obj
 0001:000076e0       ?end@?$deque@V?$ptr@VIGameState@Pegas@@@Pegas@@V?$allocator@V?$ptr@VIGameState@Pegas@@@Pegas@@@std@@@std@@QBE?AV?$_Deque_const_iterator@V?$ptr@VIGameState@Pegas@@@Pegas@@V?$allocator@V?$ptr@VIGameState@Pegas@@@Pegas@@@std@@$00@2@XZ 004086e0 f i game_app.obj
 0001:00007750       ?size@?$deque@V?$ptr@VIGameState@Pegas@@@Pegas@@V?$allocator@V?$ptr@VIGameState@Pegas@@@Pegas@@@std@@@std@@QBEIXZ 00408750 f i game_app.obj
 0001:00007780       ?back@?$deque@V?$ptr@VIGameState@Pegas@@@Pegas@@V?$allocator@V?$ptr@VIGameState@Pegas@@@Pegas@@@std@@@std@@QAEAAV?$ptr@VIGameState@Pegas@@@Pegas@@XZ 00408780 f i game_app.obj
 0001:00007870       ?push_back@?$deque@V?$ptr@VIGameState@Pegas@@@Pegas@@V?$allocator@V?$ptr@VIGameState@Pegas@@@Pegas@@@std@@@std@@QAEXABV?$ptr@VIGameState@Pegas@@@Pegas@@@Z 00408870 f i game_app.obj
 0001:00007980       ?_Orphan_all@_Container_base_secure@std@@QBEXXZ 00408980 f i game_app.obj
 0001:00007a40       ?erase@?$deque@V?$ptr@VIGameState@Pegas@@@Pegas@@V?$allocator@V?$ptr@VIGameState@Pegas@@@Pegas@@@std@@@std@@QAE?AV?$_Deque_iterator@V?$ptr@VIGameState@Pegas@@@Pegas@@V?$allocator@V?$ptr@VIGameState@Pegas@@@Pegas@@@std@@$00@2@V?$_Deque_const_iterator@V?$ptr@VIGameState@Pegas@@@Pegas@@V?$allocator@V?$ptr@VIGameState@Pegas@@@Pegas@@@std@@$00@2@0@Z 00408a40 f i game_app.obj
 0001:00007fd0       ?clear@?$deque@V?$ptr@VIGameState@Pegas@@@Pegas@@V?$allocator@V?$ptr@VIGameState@Pegas@@@Pegas@@@std@@@std@@QAEXXZ 00408fd0 f i game_app.obj
 0001:00008010       ??0?$ptr@VIGameState@Pegas@@@Pegas@@QAE@XZ 00409010 f i game_app.obj
 0001:00008050       ?GetRawPointer@?$ptr@VIGameState@Pegas@@@Pegas@@QBEPAVIGameState@2@XZ 00409050 f i game_app.obj
 0001:000080f0       ?acquire@?$ptr@VIGameState@Pegas@@@Pegas@@AAEXPAUCounter@2@@Z 004090f0 f i game_app.obj
 0001:00008140       ?_Make_iter@?$list@V?$ptr@VFile@Pegas@@@Pegas@@V?$allocator@V?$ptr@VFile@Pegas@@@Pegas@@@std@@@std@@QBE?AV?$_Iterator@$00@12@V?$_Const_iterator@$00@12@@Z 00409140 f i game_app.obj
 0001:000081f0       ?_Insert@?$list@V?$ptr@VFile@Pegas@@@Pegas@@V?$allocator@V?$ptr@VFile@Pegas@@@Pegas@@@std@@@std@@QAEXV?$_Const_iterator@$00@12@ABV?$ptr@VFile@Pegas@@@Pegas@@@Z 004091f0 f i game_app.obj
 0001:000082f0       ??Fiterator@?$_Tree@V?$_Tset_traits@PAVIKeyboardController@Pegas@@U?$less@PAVIKeyboardController@Pegas@@@std@@V?$allocator@PAVIKeyboardController@Pegas@@@4@$0A@@std@@@std@@QAEAAV012@XZ 004092f0 f i game_app.obj
 0001:00008340       ??Dconst_iterator@?$_Tree@V?$_Tset_traits@PAVIKeyboardController@Pegas@@U?$less@PAVIKeyboardController@Pegas@@@std@@V?$allocator@PAVIKeyboardController@Pegas@@@4@$0A@@std@@@std@@QBEABQAVIKeyboardController@Pegas@@XZ 00409340 f i game_app.obj
 0001:00008410       ??Fiterator@?$_Tree@V?$_Tset_traits@PAVIMouseController@Pegas@@U?$less@PAVIMouseController@Pegas@@@std@@V?$allocator@PAVIMouseController@Pegas@@@4@$0A@@std@@@std@@QAEAAV012@XZ 00409410 f i game_app.obj
 0001:00008460       ??Dconst_iterator@?$_Tree@V?$_Tset_traits@PAVIMouseController@Pegas@@U?$less@PAVIMouseController@Pegas@@@std@@V?$allocator@PAVIMouseController@Pegas@@@4@$0A@@std@@@std@@QBEABQAVIMouseController@Pegas@@XZ 00409460 f i game_app.obj
 0001:00008530       ??Diterator@?$_Tree@V?$_Tmap_traits@HV?$ptr@VIGameState@Pegas@@@Pegas@@U?$less@H@std@@V?$allocator@U?$pair@$$CBHV?$ptr@VIGameState@Pegas@@@Pegas@@@std@@@4@$0A@@std@@@std@@QBEAAU?$pair@$$CBHV?$ptr@VIGameState@Pegas@@@Pegas@@@2@XZ 00409530 f i game_app.obj
 0001:00008570       ??0?$pair@$$CBHV?$ptr@VIGameState@Pegas@@@Pegas@@@std@@QAE@ABHABV?$ptr@VIGameState@Pegas@@@Pegas@@@Z 00409570 f i game_app.obj
 0001:000085d0       ?GetRawPointer@?$ptr@VFile@Pegas@@@Pegas@@QBEPAVFile@2@XZ 004095d0 f i game_app.obj
 0001:00008670       ?acquire@?$ptr@VFile@Pegas@@@Pegas@@AAEXPAUCounter@2@@Z 00409670 f i game_app.obj
 0001:000086c0       ??0?$_Deque_const_iterator@V?$ptr@VIGameState@Pegas@@@Pegas@@V?$allocator@V?$ptr@VIGameState@Pegas@@@Pegas@@@std@@$00@std@@QAE@ABV01@@Z 004096c0 f i game_app.obj
 0001:00008760       ??H?$_Deque_const_iterator@V?$ptr@VIGameState@Pegas@@@Pegas@@V?$allocator@V?$ptr@VIGameState@Pegas@@@Pegas@@@std@@$00@std@@QBE?AV01@H@Z 00409760 f i game_app.obj
 0001:00008840       ??D?$_Const_iterator@$00@?$list@V?$ptr@VFile@Pegas@@@Pegas@@V?$allocator@V?$ptr@VFile@Pegas@@@Pegas@@@std@@@std@@QBEABV?$ptr@VFile@Pegas@@@Pegas@@XZ 00409840 f i game_app.obj
 0001:00008910       ??E?$_Const_iterator@$00@?$list@V?$ptr@VFile@Pegas@@@Pegas@@V?$allocator@V?$ptr@VFile@Pegas@@@Pegas@@@std@@@std@@QAEAAV012@XZ 00409910 f i game_app.obj
 0001:000089f0       ??E?$_Const_iterator@$00@?$list@V?$ptr@VFile@Pegas@@@Pegas@@V?$allocator@V?$ptr@VFile@Pegas@@@Pegas@@@std@@@std@@QAE?AV012@H@Z 004099f0 f i game_app.obj
 0001:00008ad0       ??8?$_Const_iterator@$00@?$list@V?$ptr@VFile@Pegas@@@Pegas@@V?$allocator@V?$ptr@VFile@Pegas@@@Pegas@@@std@@@std@@QBE_NABV012@@Z 00409ad0 f i game_app.obj
 0001:00008b30       ?_Mynode@?$_Const_iterator@$00@?$list@V?$ptr@VFile@Pegas@@@Pegas@@V?$allocator@V?$ptr@VFile@Pegas@@@Pegas@@@std@@@std@@QBEPAU_Node@?$_List_nod@V?$ptr@VFile@Pegas@@@Pegas@@V?$allocator@V?$ptr@VFile@Pegas@@@Pegas@@@std@@@3@XZ 00409b30 f i game_app.obj
 0001:00008b60       ??0?$pair@Viterator@?$_Tree@V?$_Tset_traits@PAVIKeyboardController@Pegas@@U?$less@PAVIKeyboardController@Pegas@@@std@@V?$allocator@PAVIKeyboardController@Pegas@@@4@$0A@@std@@@std@@_N@std@@QAE@ABViterator@?$_Tree@V?$_Tset_traits@PAVIKeyboardController@Pegas@@U?$less@PAVIKeyboardController@Pegas@@@std@@V?$allocator@PAVIKeyboardController@Pegas@@@4@$0A@@std@@@1@AB_N@Z 00409b60 f i game_app.obj
 0001:00008bc0       ??0?$pair@Viterator@?$_Tree@V?$_Tset_traits@PAVIMouseController@Pegas@@U?$less@PAVIMouseController@Pegas@@@std@@V?$allocator@PAVIMouseController@Pegas@@@4@$0A@@std@@@std@@_N@std@@QAE@ABViterator@?$_Tree@V?$_Tset_traits@PAVIMouseController@Pegas@@U?$less@PAVIMouseController@Pegas@@@std@@V?$allocator@PAVIMouseController@Pegas@@@4@$0A@@std@@@1@AB_N@Z 00409bc0 f i game_app.obj
 0001:00008c20       ??0?$_Iterator@$00@?$list@V?$ptr@VFile@Pegas@@@Pegas@@V?$allocator@V?$ptr@VFile@Pegas@@@Pegas@@@std@@@std@@QAE@PAU_Node@?$_List_nod@V?$ptr@VFile@Pegas@@@Pegas@@V?$allocator@V?$ptr@VFile@Pegas@@@Pegas@@@std@@@2@PBV12@@Z 00409c20 f i game_app.obj
 0001:00008c70       ??1?$pair@Viterator@?$_Tree@V?$_Tmap_traits@HV?$ptr@VIGameState@Pegas@@@Pegas@@U?$less@H@std@@V?$allocator@U?$pair@$$CBHV?$ptr@VIGameState@Pegas@@@Pegas@@@std@@@4@$0A@@std@@@std@@_N@std@@QAE@XZ 00409c70 f i game_app.obj
 0001:00008cb0       ??0?$_Deque_iterator@V?$ptr@VIGameState@Pegas@@@Pegas@@V?$allocator@V?$ptr@VIGameState@Pegas@@@Pegas@@@std@@$00@std@@QAE@ABV01@@Z 00409cb0 f i game_app.obj
 0001:00008d00       ??0?$_Ranit@V?$ptr@VIGameState@Pegas@@@Pegas@@HPBV12@ABV12@@std@@QAE@XZ 00409d00 f i game_app.obj
 0001:00008d50       ??0?$_Iterator_with_base@Urandom_access_iterator_tag@std@@V?$ptr@VIGameState@Pegas@@@Pegas@@HPBV34@ABV34@V_Iterator_base@2@@std@@QAE@XZ 00409d50 f i game_app.obj
 0001:00008da0       ??0_Iterator_base@std@@QAE@XZ 00409da0 f i game_app.obj
 0001:00008de0       ?_Myval@?$_Tree@V?$_Tset_traits@PAVIKeyboardController@Pegas@@U?$less@PAVIKeyboardController@Pegas@@@std@@V?$allocator@PAVIKeyboardController@Pegas@@@4@$0A@@std@@@std@@KAAAPAVIKeyboardController@Pegas@@PAU_Node@?$_Tree_nod@V?$_Tset_traits@PAVIKeyboardController@Pegas@@U?$less@PAVIKeyboardController@Pegas@@@std@@V?$allocator@PAVIKeyboardController@Pegas@@@4@$0A@@std@@@2@@Z 00409de0 f i game_app.obj
 0001:00008e10       ?max_size@?$_Tree@V?$_Tset_traits@PAVIKeyboardController@Pegas@@U?$less@PAVIKeyboardController@Pegas@@@std@@V?$allocator@PAVIKeyboardController@Pegas@@@4@$0A@@std@@@std@@QBEIXZ 00409e10 f i game_app.obj
 0001:00008e60       ?_Eqrange@?$_Tree@V?$_Tset_traits@PAVIKeyboardController@Pegas@@U?$less@PAVIKeyboardController@Pegas@@@std@@V?$allocator@PAVIKeyboardController@Pegas@@@4@$0A@@std@@@std@@IBE?AU?$pair@Vconst_iterator@?$_Tree@V?$_Tset_traits@PAVIKeyboardController@Pegas@@U?$less@PAVIKeyboardController@Pegas@@@std@@V?$allocator@PAVIKeyboardController@Pegas@@@4@$0A@@std@@@std@@V123@@2@ABQAVIKeyboardController@Pegas@@@Z 00409e60 f i game_app.obj
 0001:00009110       ?_Eqrange@?$_Tree@V?$_Tset_traits@PAVIKeyboardController@Pegas@@U?$less@PAVIKeyboardController@Pegas@@@std@@V?$allocator@PAVIKeyboardController@Pegas@@@4@$0A@@std@@@std@@IAE?AU?$pair@Viterator@?$_Tree@V?$_Tset_traits@PAVIKeyboardController@Pegas@@U?$less@PAVIKeyboardController@Pegas@@@std@@V?$allocator@PAVIKeyboardController@Pegas@@@4@$0A@@std@@@std@@V123@@2@ABQAVIKeyboardController@Pegas@@@Z 0040a110 f i game_app.obj
 0001:000093c0       ?_Buynode@?$_Tree@V?$_Tset_traits@PAVIKeyboardController@Pegas@@U?$less@PAVIKeyboardController@Pegas@@@std@@V?$allocator@PAVIKeyboardController@Pegas@@@4@$0A@@std@@@std@@IAEPAU_Node@?$_Tree_nod@V?$_Tset_traits@PAVIKeyboardController@Pegas@@U?$less@PAVIKeyboardController@Pegas@@@std@@V?$allocator@PAVIKeyboardController@Pegas@@@4@$0A@@std@@@2@PAU342@00ABQAVIKeyboardController@Pegas@@D@Z 0040a3c0 f i game_app.obj
 0001:000094e0       ??2@YAPAXIPAX@Z            0040a4e0 f i game_app.obj
 0001:00009510       ??3@YAXPAX0@Z              0040a510 f i game_app.obj
 0001:00009540       ?_Myval@?$_Tree@V?$_Tset_traits@PAVIMouseController@Pegas@@U?$less@PAVIMouseController@Pegas@@@std@@V?$allocator@PAVIMouseController@Pegas@@@4@$0A@@std@@@std@@KAAAPAVIMouseController@Pegas@@PAU_Node@?$_Tree_nod@V?$_Tset_traits@PAVIMouseController@Pegas@@U?$less@PAVIMouseController@Pegas@@@std@@V?$allocator@PAVIMouseController@Pegas@@@4@$0A@@std@@@2@@Z 0040a540 f i game_app.obj
 0001:00009570       ?max_size@?$_Tree@V?$_Tset_traits@PAVIMouseController@Pegas@@U?$less@PAVIMouseController@Pegas@@@std@@V?$allocator@PAVIMouseController@Pegas@@@4@$0A@@std@@@std@@QBEIXZ 0040a570 f i game_app.obj
 0001:000095c0       ?_Eqrange@?$_Tree@V?$_Tset_traits@PAVIMouseController@Pegas@@U?$less@PAVIMouseController@Pegas@@@std@@V?$allocator@PAVIMouseController@Pegas@@@4@$0A@@std@@@std@@IBE?AU?$pair@Vconst_iterator@?$_Tree@V?$_Tset_traits@PAVIMouseController@Pegas@@U?$less@PAVIMouseController@Pegas@@@std@@V?$allocator@PAVIMouseController@Pegas@@@4@$0A@@std@@@std@@V123@@2@ABQAVIMouseController@Pegas@@@Z 0040a5c0 f i game_app.obj
 0001:00009870       ?_Eqrange@?$_Tree@V?$_Tset_traits@PAVIMouseController@Pegas@@U?$less@PAVIMouseController@Pegas@@@std@@V?$allocator@PAVIMouseController@Pegas@@@4@$0A@@std@@@std@@IAE?AU?$pair@Viterator@?$_Tree@V?$_Tset_traits@PAVIMouseController@Pegas@@U?$less@PAVIMouseController@Pegas@@@std@@V?$allocator@PAVIMouseController@Pegas@@@4@$0A@@std@@@std@@V123@@2@ABQAVIMouseController@Pegas@@@Z 0040a870 f i game_app.obj
 0001:00009b20       ?_Buynode@?$_Tree@V?$_Tset_traits@PAVIMouseController@Pegas@@U?$less@PAVIMouseController@Pegas@@@std@@V?$allocator@PAVIMouseController@Pegas@@@4@$0A@@std@@@std@@IAEPAU_Node@?$_Tree_nod@V?$_Tset_traits@PAVIMouseController@Pegas@@U?$less@PAVIMouseController@Pegas@@@std@@V?$allocator@PAVIMouseController@Pegas@@@4@$0A@@std@@@2@PAU342@00ABQAVIMouseController@Pegas@@D@Z 0040ab20 f i game_app.obj
 0001:00009c40       ?_Myval@?$_Tree@V?$_Tmap_traits@HV?$ptr@VIGameState@Pegas@@@Pegas@@U?$less@H@std@@V?$allocator@U?$pair@$$CBHV?$ptr@VIGameState@Pegas@@@Pegas@@@std@@@4@$0A@@std@@@std@@KAAAU?$pair@$$CBHV?$ptr@VIGameState@Pegas@@@Pegas@@@2@PAU_Node@?$_Tree_nod@V?$_Tmap_traits@HV?$ptr@VIGameState@Pegas@@@Pegas@@U?$less@H@std@@V?$allocator@U?$pair@$$CBHV?$ptr@VIGameState@Pegas@@@Pegas@@@std@@@4@$0A@@std@@@2@@Z 0040ac40 f i game_app.obj
 0001:00009c70       ?size@?$_Tree@V?$_Tmap_traits@HV?$ptr@VIGameState@Pegas@@@Pegas@@U?$less@H@std@@V?$allocator@U?$pair@$$CBHV?$ptr@VIGameState@Pegas@@@Pegas@@@std@@@4@$0A@@std@@@std@@QBEIXZ 0040ac70 f i game_app.obj
 0001:00009ca0       ?insert@?$_Tree@V?$_Tmap_traits@HV?$ptr@VIGameState@Pegas@@@Pegas@@U?$less@H@std@@V?$allocator@U?$pair@$$CBHV?$ptr@VIGameState@Pegas@@@Pegas@@@std@@@4@$0A@@std@@@std@@QAE?AU?$pair@Viterator@?$_Tree@V?$_Tmap_traits@HV?$ptr@VIGameState@Pegas@@@Pegas@@U?$less@H@std@@V?$allocator@U?$pair@$$CBHV?$ptr@VIGameState@Pegas@@@Pegas@@@std@@@4@$0A@@std@@@std@@_N@2@ABU?$pair@$$CBHV?$ptr@VIGameState@Pegas@@@Pegas@@@2@@Z 0040aca0 f i game_app.obj
 0001:0000a080       ?_Eqrange@?$_Tree@V?$_Tmap_traits@HV?$ptr@VIGameState@Pegas@@@Pegas@@U?$less@H@std@@V?$allocator@U?$pair@$$CBHV?$ptr@VIGameState@Pegas@@@Pegas@@@std@@@4@$0A@@std@@@std@@IBE?AU?$pair@Vconst_iterator@?$_Tree@V?$_Tmap_traits@HV?$ptr@VIGameState@Pegas@@@Pegas@@U?$less@H@std@@V?$allocator@U?$pair@$$CBHV?$ptr@VIGameState@Pegas@@@Pegas@@@std@@@4@$0A@@std@@@std@@V123@@2@ABH@Z 0040b080 f i game_app.obj
 0001:0000a330       ?_Eqrange@?$_Tree@V?$_Tmap_traits@HV?$ptr@VIGameState@Pegas@@@Pegas@@U?$less@H@std@@V?$allocator@U?$pair@$$CBHV?$ptr@VIGameState@Pegas@@@Pegas@@@std@@@4@$0A@@std@@@std@@IAE?AU?$pair@Viterator@?$_Tree@V?$_Tmap_traits@HV?$ptr@VIGameState@Pegas@@@Pegas@@U?$less@H@std@@V?$allocator@U?$pair@$$CBHV?$ptr@VIGameState@Pegas@@@Pegas@@@std@@@4@$0A@@std@@@std@@V123@@2@ABH@Z 0040b330 f i game_app.obj
 0001:0000a5e0       ?_Insert@?$_Tree@V?$_Tmap_traits@HV?$ptr@VIGameState@Pegas@@@Pegas@@U?$less@H@std@@V?$allocator@U?$pair@$$CBHV?$ptr@VIGameState@Pegas@@@Pegas@@@std@@@4@$0A@@std@@@std@@IAE?AViterator@12@_NPAU_Node@?$_Tree_nod@V?$_Tmap_traits@HV?$ptr@VIGameState@Pegas@@@Pegas@@U?$less@H@std@@V?$allocator@U?$pair@$$CBHV?$ptr@VIGameState@Pegas@@@Pegas@@@std@@@4@$0A@@std@@@2@ABU?$pair@$$CBHV?$ptr@VIGameState@Pegas@@@Pegas@@@2@@Z 0040b5e0 f i game_app.obj
 0001:0000aab0       ?_Lbound@?$_Tree@V?$_Tmap_traits@HV?$ptr@VIGameState@Pegas@@@Pegas@@U?$less@H@std@@V?$allocator@U?$pair@$$CBHV?$ptr@VIGameState@Pegas@@@Pegas@@@std@@@4@$0A@@std@@@std@@IBEPAU_Node@?$_Tree_nod@V?$_Tmap_traits@HV?$ptr@VIGameState@Pegas@@@Pegas@@U?$less@H@std@@V?$allocator@U?$pair@$$CBHV?$ptr@VIGameState@Pegas@@@Pegas@@@std@@@4@$0A@@std@@@2@ABH@Z 0040bab0 f i game_app.obj
 0001:0000ab80       ?_Kfn@?$_Tmap_traits@HV?$ptr@VIGameState@Pegas@@@Pegas@@U?$less@H@std@@V?$allocator@U?$pair@$$CBHV?$ptr@VIGameState@Pegas@@@Pegas@@@std@@@4@$0A@@std@@SAABHABU?$pair@$$CBHV?$ptr@VIGameState@Pegas@@@Pegas@@@2@@Z 0040bb80 f i game_app.obj
 0001:0000abb0       ?_Make_iter@?$deque@V?$ptr@VIGameState@Pegas@@@Pegas@@V?$allocator@V?$ptr@VIGameState@Pegas@@@Pegas@@@std@@@std@@QBE?AV?$_Deque_iterator@V?$ptr@VIGameState@Pegas@@@Pegas@@V?$allocator@V?$ptr@VIGameState@Pegas@@@Pegas@@@std@@$00@2@V?$_Deque_const_iterator@V?$ptr@VIGameState@Pegas@@@Pegas@@V?$allocator@V?$ptr@VIGameState@Pegas@@@Pegas@@@std@@$00@2@@Z 0040bbb0 f i game_app.obj
 0001:0000ac60       ?pop_front@?$deque@V?$ptr@VIGameState@Pegas@@@Pegas@@V?$allocator@V?$ptr@VIGameState@Pegas@@@Pegas@@@std@@@std@@QAEXXZ 0040bc60 f i game_app.obj
 0001:0000ad60       ?_Growmap@?$deque@V?$ptr@VIGameState@Pegas@@@Pegas@@V?$allocator@V?$ptr@VIGameState@Pegas@@@Pegas@@@std@@@std@@IAEXI@Z 0040bd60 f i game_app.obj
 0001:0000afc0       ?allocate@?$allocator@V?$ptr@VIGameState@Pegas@@@Pegas@@@std@@QAEPAV?$ptr@VIGameState@Pegas@@@Pegas@@I@Z 0040bfc0 f i game_app.obj
 0001:0000b010       ?construct@?$allocator@V?$ptr@VIGameState@Pegas@@@Pegas@@@std@@QAEXPAV?$ptr@VIGameState@Pegas@@@Pegas@@ABV34@@Z 0040c010 f i game_app.obj
 0001:0000b060       ??0?$ptr@VIGameState@Pegas@@@Pegas@@QAE@ABV01@@Z 0040c060 f i game_app.obj
 0001:0000b0c0       ?_Myval@?$list@V?$ptr@VFile@Pegas@@@Pegas@@V?$allocator@V?$ptr@VFile@Pegas@@@Pegas@@@std@@@std@@KAAAV?$ptr@VFile@Pegas@@@Pegas@@PAU_Node@?$_List_nod@V?$ptr@VFile@Pegas@@@Pegas@@V?$allocator@V?$ptr@VFile@Pegas@@@Pegas@@@std@@@2@@Z 0040c0c0 f i game_app.obj
 0001:0000b0f0       ?_Buynode@?$list@V?$ptr@VFile@Pegas@@@Pegas@@V?$allocator@V?$ptr@VFile@Pegas@@@Pegas@@@std@@@std@@IAEPAU_Node@?$_List_nod@V?$ptr@VFile@Pegas@@@Pegas@@V?$allocator@V?$ptr@VFile@Pegas@@@Pegas@@@std@@@2@PAU342@0ABV?$ptr@VFile@Pegas@@@Pegas@@@Z 0040c0f0 f i game_app.obj
 0001:0000b270       ?_Incsize@?$list@V?$ptr@VFile@Pegas@@@Pegas@@V?$allocator@V?$ptr@VFile@Pegas@@@Pegas@@@std@@@std@@IAEXI@Z 0040c270 f i game_app.obj
 0001:0000b350       ??Fconst_iterator@?$_Tree@V?$_Tset_traits@PAVIKeyboardController@Pegas@@U?$less@PAVIKeyboardController@Pegas@@@std@@V?$allocator@PAVIKeyboardController@Pegas@@@4@$0A@@std@@@std@@QAEAAV012@XZ 0040c350 f i game_app.obj
 0001:0000b3a0       ??Fconst_iterator@?$_Tree@V?$_Tset_traits@PAVIMouseController@Pegas@@U?$less@PAVIMouseController@Pegas@@@std@@V?$allocator@PAVIMouseController@Pegas@@@4@$0A@@std@@@std@@QAEAAV012@XZ 0040c3a0 f i game_app.obj
 0001:0000b3f0       ??0const_iterator@?$_Tree@V?$_Tmap_traits@HV?$ptr@VIGameState@Pegas@@@Pegas@@U?$less@H@std@@V?$allocator@U?$pair@$$CBHV?$ptr@VIGameState@Pegas@@@Pegas@@@std@@@4@$0A@@std@@@std@@QAE@XZ 0040c3f0 f i game_app.obj
 0001:0000b440       ??Dconst_iterator@?$_Tree@V?$_Tmap_traits@HV?$ptr@VIGameState@Pegas@@@Pegas@@U?$less@H@std@@V?$allocator@U?$pair@$$CBHV?$ptr@VIGameState@Pegas@@@Pegas@@@std@@@4@$0A@@std@@@std@@QBEABU?$pair@$$CBHV?$ptr@VIGameState@Pegas@@@Pegas@@@2@XZ 0040c440 f i game_app.obj
 0001:0000b510       ??Fconst_iterator@?$_Tree@V?$_Tmap_traits@HV?$ptr@VIGameState@Pegas@@@Pegas@@U?$less@H@std@@V?$allocator@U?$pair@$$CBHV?$ptr@VIGameState@Pegas@@@Pegas@@@std@@@4@$0A@@std@@@std@@QAEAAV012@XZ 0040c510 f i game_app.obj
 0001:0000b560       ??0?$_Deque_const_iterator@V?$ptr@VIGameState@Pegas@@@Pegas@@V?$allocator@V?$ptr@VIGameState@Pegas@@@Pegas@@@std@@$00@std@@QAE@IPBV_Container_base_secure@1@@Z 0040c560 f i game_app.obj
 0001:0000b660       ??Y?$_Deque_const_iterator@V?$ptr@VIGameState@Pegas@@@Pegas@@V?$allocator@V?$ptr@VIGameState@Pegas@@@Pegas@@@std@@$00@std@@QAEAAV01@H@Z 0040c660 f i game_app.obj
 0001:0000b7a0       ?_Getmycont@_Iterator_base@std@@QBEPBV_Container_base_secure@2@XZ 0040c7a0 f i game_app.obj
 0001:0000b7d0       ?_Has_container@_Iterator_base@std@@QBE_NXZ 0040c7d0 f i game_app.obj
 0001:0000b810       ??M?$_Deque_const_iterator@V?$ptr@VIGameState@Pegas@@@Pegas@@V?$allocator@V?$ptr@VIGameState@Pegas@@@Pegas@@@std@@$00@std@@QBE_NABV01@@Z 0040c810 f i game_app.obj
 0001:0000b870       ??0?$_Const_iterator@$00@?$list@V?$ptr@VFile@Pegas@@@Pegas@@V?$allocator@V?$ptr@VFile@Pegas@@@Pegas@@@std@@@std@@QAE@PAU_Node@?$_List_nod@V?$ptr@VFile@Pegas@@@Pegas@@V?$allocator@V?$ptr@VFile@Pegas@@@Pegas@@@std@@@2@PBV12@@Z 0040c870 f i game_app.obj
 0001:0000b910       ?_Compat@?$_Const_iterator@$00@?$list@V?$ptr@VFile@Pegas@@@Pegas@@V?$allocator@V?$ptr@VFile@Pegas@@@Pegas@@@std@@@std@@QBEXABV123@@Z 0040c910 f i game_app.obj
 0001:0000b9c0       ??0?$_Deque_iterator@V?$ptr@VIGameState@Pegas@@@Pegas@@V?$allocator@V?$ptr@VIGameState@Pegas@@@Pegas@@@std@@$00@std@@QAE@IPBV_Container_base_secure@1@@Z 0040c9c0 f i game_app.obj
 0001:0000ba10       ??D?$_Deque_iterator@V?$ptr@VIGameState@Pegas@@@Pegas@@V?$allocator@V?$ptr@VIGameState@Pegas@@@Pegas@@@std@@$00@std@@QBEAAV?$ptr@VIGameState@Pegas@@@Pegas@@XZ 0040ca10 f i game_app.obj
 0001:0000ba50       ??H?$_Deque_iterator@V?$ptr@VIGameState@Pegas@@@Pegas@@V?$allocator@V?$ptr@VIGameState@Pegas@@@Pegas@@@std@@$00@std@@QBE?AV01@H@Z 0040ca50 f i game_app.obj
 0001:0000bb30       ??G?$_Deque_iterator@V?$ptr@VIGameState@Pegas@@@Pegas@@V?$allocator@V?$ptr@VIGameState@Pegas@@@Pegas@@@std@@$00@std@@QBE?AV01@H@Z 0040cb30 f i game_app.obj
 0001:0000bc10       ??G?$_Deque_iterator@V?$ptr@VIGameState@Pegas@@@Pegas@@V?$allocator@V?$ptr@VIGameState@Pegas@@@Pegas@@@std@@$00@std@@QBEHABV?$_Deque_const_iterator@V?$ptr@VIGameState@Pegas@@@Pegas@@V?$allocator@V?$ptr@VIGameState@Pegas@@@Pegas@@@std@@$00@1@@Z 0040cc10 f i game_app.obj
 0001:0000bc60       ??0?$_Bidit@V?$ptr@VFile@Pegas@@@Pegas@@HPBV12@ABV12@@std@@QAE@XZ 0040cc60 f i game_app.obj
 0001:0000bcb0       ??0?$_Iterator_with_base@Ubidirectional_iterator_tag@std@@V?$ptr@VFile@Pegas@@@Pegas@@HPBV34@ABV34@V_Iterator_base@2@@std@@QAE@XZ 0040ccb0 f i game_app.obj
 0001:0000bd00       ?max_size@?$allocator@PAVIKeyboardController@Pegas@@@std@@QBEIXZ 0040cd00 f i game_app.obj
 0001:0000bd60       ?max_size@?$allocator@PAVIMouseController@Pegas@@@std@@QBEIXZ 0040cd60 f i game_app.obj
 0001:0000bdc0       ?max_size@?$_Tree@V?$_Tmap_traits@HV?$ptr@VIGameState@Pegas@@@Pegas@@U?$less@H@std@@V?$allocator@U?$pair@$$CBHV?$ptr@VIGameState@Pegas@@@Pegas@@@std@@@4@$0A@@std@@@std@@QBEIXZ 0040cdc0 f i game_app.obj
 0001:0000be10       ?_Buynode@?$_Tree@V?$_Tmap_traits@HV?$ptr@VIGameState@Pegas@@@Pegas@@U?$less@H@std@@V?$allocator@U?$pair@$$CBHV?$ptr@VIGameState@Pegas@@@Pegas@@@std@@@4@$0A@@std@@@std@@IAEPAU_Node@?$_Tree_nod@V?$_Tmap_traits@HV?$ptr@VIGameState@Pegas@@@Pegas@@U?$less@H@std@@V?$allocator@U?$pair@$$CBHV?$ptr@VIGameState@Pegas@@@Pegas@@@std@@@4@$0A@@std@@@2@PAU342@00ABU?$pair@$$CBHV?$ptr@VIGameState@Pegas@@@Pegas@@@2@D@Z 0040ce10 f i game_app.obj
 0001:0000bf30       ?max_size@?$deque@V?$ptr@VIGameState@Pegas@@@Pegas@@V?$allocator@V?$ptr@VIGameState@Pegas@@@Pegas@@@std@@@std@@QBEIXZ 0040cf30 f i game_app.obj
 0001:0000bf80       ?_Xlen@?$deque@V?$ptr@VIGameState@Pegas@@@Pegas@@V?$allocator@V?$ptr@VIGameState@Pegas@@@Pegas@@@std@@@std@@KAXXZ 0040cf80 f i game_app.obj
 0001:0000c030       ?allocate@?$allocator@PAV?$ptr@VIGameState@Pegas@@@Pegas@@@std@@QAEPAPAV?$ptr@VIGameState@Pegas@@@Pegas@@I@Z 0040d030 f i game_app.obj
 0001:0000c080       ?max_size@?$list@V?$ptr@VFile@Pegas@@@Pegas@@V?$allocator@V?$ptr@VFile@Pegas@@@Pegas@@@std@@@std@@QBEIXZ 0040d080 f i game_app.obj
 0001:0000c0d0       ?construct@?$allocator@V?$ptr@VFile@Pegas@@@Pegas@@@std@@QAEXPAV?$ptr@VFile@Pegas@@@Pegas@@ABV34@@Z 0040d0d0 f i game_app.obj
 0001:0000c120       ?_Dec@const_iterator@?$_Tree@V?$_Tset_traits@PAVIKeyboardController@Pegas@@U?$less@PAVIKeyboardController@Pegas@@@std@@V?$allocator@PAVIKeyboardController@Pegas@@@4@$0A@@std@@@std@@QAEXXZ 0040d120 f i game_app.obj
 0001:0000c380       ?_Dec@const_iterator@?$_Tree@V?$_Tset_traits@PAVIMouseController@Pegas@@U?$less@PAVIMouseController@Pegas@@@std@@V?$allocator@PAVIMouseController@Pegas@@@4@$0A@@std@@@std@@QAEXXZ 0040d380 f i game_app.obj
 0001:0000c5e0       ??Fiterator@?$_Tree@V?$_Tmap_traits@HV?$ptr@VIGameState@Pegas@@@Pegas@@U?$less@H@std@@V?$allocator@U?$pair@$$CBHV?$ptr@VIGameState@Pegas@@@Pegas@@@std@@@4@$0A@@std@@@std@@QAEAAV012@XZ 0040d5e0 f i game_app.obj
 0001:0000c630       ?_Dec@const_iterator@?$_Tree@V?$_Tmap_traits@HV?$ptr@VIGameState@Pegas@@@Pegas@@U?$less@H@std@@V?$allocator@U?$pair@$$CBHV?$ptr@VIGameState@Pegas@@@Pegas@@@std@@@4@$0A@@std@@@std@@QAEXXZ 0040d630 f i game_app.obj
 0001:0000c890       ??0_Node@?$_Tree_nod@V?$_Tset_traits@PAVIKeyboardController@Pegas@@U?$less@PAVIKeyboardController@Pegas@@@std@@V?$allocator@PAVIKeyboardController@Pegas@@@4@$0A@@std@@@std@@QAE@PAU012@00ABQAVIKeyboardController@Pegas@@D@Z 0040d890 f i game_app.obj
 0001:0000c900       ??0_Node@?$_Tree_nod@V?$_Tset_traits@PAVIMouseController@Pegas@@U?$less@PAVIMouseController@Pegas@@@std@@V?$allocator@PAVIMouseController@Pegas@@@4@$0A@@std@@@std@@QAE@PAU012@00ABQAVIMouseController@Pegas@@D@Z 0040d900 f i game_app.obj
 0001:0000c970       ??D?$_Deque_const_iterator@V?$ptr@VIGameState@Pegas@@@Pegas@@V?$allocator@V?$ptr@VIGameState@Pegas@@@Pegas@@@std@@$00@std@@QBEABV?$ptr@VIGameState@Pegas@@@Pegas@@XZ 0040d970 f i game_app.obj
 0001:0000ca80       ??G?$_Deque_const_iterator@V?$ptr@VIGameState@Pegas@@@Pegas@@V?$allocator@V?$ptr@VIGameState@Pegas@@@Pegas@@@std@@$00@std@@QBEHABV01@@Z 0040da80 f i game_app.obj
 0001:0000cb10       ?_Compat@?$_Deque_const_iterator@V?$ptr@VIGameState@Pegas@@@Pegas@@V?$allocator@V?$ptr@VIGameState@Pegas@@@Pegas@@@std@@$00@std@@QBEXABV12@@Z 0040db10 f i game_app.obj
 0001:0000cbc0       ??0?$pair@Viterator@?$_Tree@V?$_Tset_traits@PAVIKeyboardController@Pegas@@U?$less@PAVIKeyboardController@Pegas@@@std@@V?$allocator@PAVIKeyboardController@Pegas@@@4@$0A@@std@@@std@@V123@@std@@QAE@ABViterator@?$_Tree@V?$_Tset_traits@PAVIKeyboardController@Pegas@@U?$less@PAVIKeyboardController@Pegas@@@std@@V?$allocator@PAVIKeyboardController@Pegas@@@4@$0A@@std@@@1@0@Z 0040dbc0 f i game_app.obj
 0001:0000cc50       ??0?$pair@Vconst_iterator@?$_Tree@V?$_Tset_traits@PAVIKeyboardController@Pegas@@U?$less@PAVIKeyboardController@Pegas@@@std@@V?$allocator@PAVIKeyboardController@Pegas@@@4@$0A@@std@@@std@@V123@@std@@QAE@ABVconst_iterator@?$_Tree@V?$_Tset_traits@PAVIKeyboardController@Pegas@@U?$less@PAVIKeyboardController@Pegas@@@std@@V?$allocator@PAVIKeyboardController@Pegas@@@4@$0A@@std@@@1@0@Z 0040dc50 f i game_app.obj
 0001:0000cce0       ??0?$pair@Viterator@?$_Tree@V?$_Tset_traits@PAVIMouseController@Pegas@@U?$less@PAVIMouseController@Pegas@@@std@@V?$allocator@PAVIMouseController@Pegas@@@4@$0A@@std@@@std@@V123@@std@@QAE@ABViterator@?$_Tree@V?$_Tset_traits@PAVIMouseController@Pegas@@U?$less@PAVIMouseController@Pegas@@@std@@V?$allocator@PAVIMouseController@Pegas@@@4@$0A@@std@@@1@0@Z 0040dce0 f i game_app.obj
 0001:0000cd70       ??0?$pair@Vconst_iterator@?$_Tree@V?$_Tset_traits@PAVIMouseController@Pegas@@U?$less@PAVIMouseController@Pegas@@@std@@V?$allocator@PAVIMouseController@Pegas@@@4@$0A@@std@@@std@@V123@@std@@QAE@ABVconst_iterator@?$_Tree@V?$_Tset_traits@PAVIMouseController@Pegas@@U?$less@PAVIMouseController@Pegas@@@std@@V?$allocator@PAVIMouseController@Pegas@@@4@$0A@@std@@@1@0@Z 0040dd70 f i game_app.obj
 0001:0000ce00       ??0?$pair@Viterator@?$_Tree@V?$_Tmap_traits@HV?$ptr@VIGameState@Pegas@@@Pegas@@U?$less@H@std@@V?$allocator@U?$pair@$$CBHV?$ptr@VIGameState@Pegas@@@Pegas@@@std@@@4@$0A@@std@@@std@@V123@@std@@QAE@ABViterator@?$_Tree@V?$_Tmap_traits@HV?$ptr@VIGameState@Pegas@@@Pegas@@U?$less@H@std@@V?$allocator@U?$pair@$$CBHV?$ptr@VIGameState@Pegas@@@Pegas@@@std@@@4@$0A@@std@@@1@0@Z 0040de00 f i game_app.obj
 0001:0000ce90       ??0?$pair@Vconst_iterator@?$_Tree@V?$_Tmap_traits@HV?$ptr@VIGameState@Pegas@@@Pegas@@U?$less@H@std@@V?$allocator@U?$pair@$$CBHV?$ptr@VIGameState@Pegas@@@Pegas@@@std@@@4@$0A@@std@@@std@@V123@@std@@QAE@ABVconst_iterator@?$_Tree@V?$_Tmap_traits@HV?$ptr@VIGameState@Pegas@@@Pegas@@U?$less@H@std@@V?$allocator@U?$pair@$$CBHV?$ptr@VIGameState@Pegas@@@Pegas@@@std@@@4@$0A@@std@@@1@0@Z 0040de90 f i game_app.obj
 0001:0000cf20       ??Y?$_Deque_iterator@V?$ptr@VIGameState@Pegas@@@Pegas@@V?$allocator@V?$ptr@VIGameState@Pegas@@@Pegas@@@std@@$00@std@@QAEAAV01@H@Z 0040df20 f i game_app.obj
 0001:0000cf70       ??Z?$_Deque_iterator@V?$ptr@VIGameState@Pegas@@@Pegas@@V?$allocator@V?$ptr@VIGameState@Pegas@@@Pegas@@@std@@$00@std@@QAEAAV01@H@Z 0040df70 f i game_app.obj
 0001:0000cfc0       ??0?$pair@Viterator@?$_Tree@V?$_Tmap_traits@HV?$ptr@VIGameState@Pegas@@@Pegas@@U?$less@H@std@@V?$allocator@U?$pair@$$CBHV?$ptr@VIGameState@Pegas@@@Pegas@@@std@@@4@$0A@@std@@@std@@_N@std@@QAE@ABViterator@?$_Tree@V?$_Tmap_traits@HV?$ptr@VIGameState@Pegas@@@Pegas@@U?$less@H@std@@V?$allocator@U?$pair@$$CBHV?$ptr@VIGameState@Pegas@@@Pegas@@@std@@@4@$0A@@std@@@1@AB_N@Z 0040dfc0 f i game_app.obj
 0001:0000d020       ?max_size@?$allocator@U?$pair@$$CBHV?$ptr@VIGameState@Pegas@@@Pegas@@@std@@@std@@QBEIXZ 0040e020 f i game_app.obj
 0001:0000d080       ?max_size@?$allocator@V?$ptr@VIGameState@Pegas@@@Pegas@@@std@@QBEIXZ 0040e080 f i game_app.obj
 0001:0000d0e0       ?max_size@?$allocator@V?$ptr@VFile@Pegas@@@Pegas@@@std@@QBEIXZ 0040e0e0 f i game_app.obj
 0001:0000d140       ??0_Node@?$_Tree_nod@V?$_Tmap_traits@HV?$ptr@VIGameState@Pegas@@@Pegas@@U?$less@H@std@@V?$allocator@U?$pair@$$CBHV?$ptr@VIGameState@Pegas@@@Pegas@@@std@@@4@$0A@@std@@@std@@QAE@PAU012@00ABU?$pair@$$CBHV?$ptr@VIGameState@Pegas@@@Pegas@@@2@D@Z 0040e140 f i game_app.obj
 0001:0000d1c0       ??0?$pair@$$CBHV?$ptr@VIGameState@Pegas@@@Pegas@@@std@@QAE@ABU01@@Z 0040e1c0 f i game_app.obj
 0001:0000d220       ?registerResource@?$ResourceManager@VTextureResource@Pegas@@UIntResourceCode@2@@Pegas@@QAEPAVTextureResource@2@HABUIntResourceCode@2@@Z 0040e220 f i game_app.obj
 0001:0000d3a0       ??0out_of_range@std@@QAE@ABV?$basic_string@DU?$char_traits@D@std@@V?$allocator@D@2@@1@@Z 0040e3a0 f i game_app.obj
 0001:0000d400       ??1out_of_range@std@@UAE@XZ 0040e400 f i game_app.obj
 0001:0000d450       ??_Gout_of_range@std@@UAEPAXI@Z 0040e450 f i game_app.obj
 0001:0000d450       ??_Eout_of_range@std@@UAEPAXI@Z 0040e450 f i game_app.obj
 0001:0000d4b0       ??0out_of_range@std@@QAE@ABV01@@Z 0040e4b0 f i game_app.obj
 0001:0000d510       ?registerResource@?$ResourceManager@VFontResource@Pegas@@UFontResourceCode@2@@Pegas@@QAEPAVFontResource@2@HABUFontResourceCode@2@@Z 0040e510 f i game_app.obj
 0001:0000d6a0       ??$?0VMainMenu@Pegas@@@?$ptr@VIGameState@Pegas@@@Pegas@@QAE@PAVMainMenu@1@PAUCounter@1@@Z 0040e6a0 f i game_app.obj
 0001:0000d7a0       ??$?0VEditor@Pegas@@@?$ptr@VIGameState@Pegas@@@Pegas@@QAE@PAVEditor@1@PAUCounter@1@@Z 0040e7a0 f i game_app.obj
 0001:0000d8a0       ??$?0VGameScreen@Pegas@@@?$ptr@VIGameState@Pegas@@@Pegas@@QAE@PAVGameScreen@1@PAUCounter@1@@Z 0040e8a0 f i game_app.obj
 0001:0000d9a0       ??$?0UEvent_Game_ChangeState@Pegas@@@?$ptr@UEvent@Pegas@@@Pegas@@QAE@PAUEvent_Game_ChangeState@1@PAUCounter@1@@Z 0040e9a0 f i game_app.obj
 0001:0000daa0       ??$?0UEvent_Game_ForwardToState@Pegas@@@?$ptr@UEvent@Pegas@@@Pegas@@QAE@PAUEvent_Game_ForwardToState@1@PAUCounter@1@@Z 0040eaa0 f i game_app.obj
 0001:0000dba0       ??$?0UEvent_Game_BackwardToPreviousState@Pegas@@@?$ptr@UEvent@Pegas@@@Pegas@@QAE@PAUEvent_Game_BackwardToPreviousState@1@PAUCounter@1@@Z 0040eba0 f i game_app.obj
 0001:0000dca0       ??$?8DU?$char_traits@D@std@@V?$allocator@D@1@@std@@YA_NABV?$basic_string@DU?$char_traits@D@std@@V?$allocator@D@2@@0@0@Z 0040eca0 f i game_app.obj
 0001:0000dcf0       ??$cast@UEvent_Game_ChangeState@Pegas@@@Event@Pegas@@QAEPAUEvent_Game_ChangeState@1@XZ 0040ecf0 f i game_app.obj
 0001:0000dd20       ??$cast@UEvent_Game_ForwardToState@Pegas@@@Event@Pegas@@QAEPAUEvent_Game_ForwardToState@1@XZ 0040ed20 f i game_app.obj
 0001:0000dd50       ??$?H_WU?$char_traits@_W@std@@V?$allocator@_W@1@@std@@YA?AV?$basic_string@_WU?$char_traits@_W@std@@V?$allocator@_W@2@@0@PB_WABV10@@Z 0040ed50 f i game_app.obj
 0001:0000de20       ??$?8VFile@Pegas@@VISerializer@1@@Pegas@@YA_NABV?$ptr@VFile@Pegas@@@0@PAVISerializer@0@@Z 0040ee20 f i game_app.obj
 0001:0000de70       ??$_Debug_lt_pred@U?$less@PAVIKeyboardController@Pegas@@@std@@PAVIKeyboardController@Pegas@@PAV34@@std@@YA_NU?$less@PAVIKeyboardController@Pegas@@@0@ABQAVIKeyboardController@Pegas@@1PB_WI@Z 0040ee70 f i game_app.obj
 0001:0000def0       ??$_Distance@Viterator@?$_Tree@V?$_Tset_traits@PAVIKeyboardController@Pegas@@U?$less@PAVIKeyboardController@Pegas@@@std@@V?$allocator@PAVIKeyboardController@Pegas@@@4@$0A@@std@@@std@@I@std@@YAXViterator@?$_Tree@V?$_Tset_traits@PAVIKeyboardController@Pegas@@U?$less@PAVIKeyboardController@Pegas@@@std@@V?$allocator@PAVIKeyboardController@Pegas@@@4@$0A@@std@@@0@0AAI@Z 0040eef0 f i game_app.obj
 0001:0000dfe0       ??$_Distance@Vconst_iterator@?$_Tree@V?$_Tset_traits@PAVIKeyboardController@Pegas@@U?$less@PAVIKeyboardController@Pegas@@@std@@V?$allocator@PAVIKeyboardController@Pegas@@@4@$0A@@std@@@std@@I@std@@YAXVconst_iterator@?$_Tree@V?$_Tset_traits@PAVIKeyboardController@Pegas@@U?$less@PAVIKeyboardController@Pegas@@@std@@V?$allocator@PAVIKeyboardController@Pegas@@@4@$0A@@std@@@0@0AAI@Z 0040efe0 f i game_app.obj
 0001:0000e0d0       ??$_Debug_lt_pred@U?$less@PAVIMouseController@Pegas@@@std@@PAVIMouseController@Pegas@@PAV34@@std@@YA_NU?$less@PAVIMouseController@Pegas@@@0@ABQAVIMouseController@Pegas@@1PB_WI@Z 0040f0d0 f i game_app.obj
 0001:0000e150       ??$_Distance@Viterator@?$_Tree@V?$_Tset_traits@PAVIMouseController@Pegas@@U?$less@PAVIMouseController@Pegas@@@std@@V?$allocator@PAVIMouseController@Pegas@@@4@$0A@@std@@@std@@I@std@@YAXViterator@?$_Tree@V?$_Tset_traits@PAVIMouseController@Pegas@@U?$less@PAVIMouseController@Pegas@@@std@@V?$allocator@PAVIMouseController@Pegas@@@4@$0A@@std@@@0@0AAI@Z 0040f150 f i game_app.obj
 0001:0000e240       ??$_Distance@Vconst_iterator@?$_Tree@V?$_Tset_traits@PAVIMouseController@Pegas@@U?$less@PAVIMouseController@Pegas@@@std@@V?$allocator@PAVIMouseController@Pegas@@@4@$0A@@std@@@std@@I@std@@YAXVconst_iterator@?$_Tree@V?$_Tset_traits@PAVIMouseController@Pegas@@U?$less@PAVIMouseController@Pegas@@@std@@V?$allocator@PAVIMouseController@Pegas@@@4@$0A@@std@@@0@0AAI@Z 0040f240 f i game_app.obj
 0001:0000e330       ??$_Distance@Viterator@?$_Tree@V?$_Tmap_traits@HV?$ptr@VIGameState@Pegas@@@Pegas@@U?$less@H@std@@V?$allocator@U?$pair@$$CBHV?$ptr@VIGameState@Pegas@@@Pegas@@@std@@@4@$0A@@std@@@std@@I@std@@YAXViterator@?$_Tree@V?$_Tmap_traits@HV?$ptr@VIGameState@Pegas@@@Pegas@@U?$less@H@std@@V?$allocator@U?$pair@$$CBHV?$ptr@VIGameState@Pegas@@@Pegas@@@std@@@4@$0A@@std@@@0@0AAI@Z 0040f330 f i game_app.obj
 0001:0000e420       ??$_Distance@Vconst_iterator@?$_Tree@V?$_Tmap_traits@HV?$ptr@VIGameState@Pegas@@@Pegas@@U?$less@H@std@@V?$allocator@U?$pair@$$CBHV?$ptr@VIGameState@Pegas@@@Pegas@@@std@@@4@$0A@@std@@@std@@I@std@@YAXVconst_iterator@?$_Tree@V?$_Tmap_traits@HV?$ptr@VIGameState@Pegas@@@Pegas@@U?$less@H@std@@V?$allocator@U?$pair@$$CBHV?$ptr@VIGameState@Pegas@@@Pegas@@@std@@@4@$0A@@std@@@0@0AAI@Z 0040f420 f i game_app.obj
 0001:0000e510       ??$copy@V?$_Deque_const_iterator@V?$ptr@VIGameState@Pegas@@@Pegas@@V?$allocator@V?$ptr@VIGameState@Pegas@@@Pegas@@@std@@$00@std@@V?$_Deque_iterator@V?$ptr@VIGameState@Pegas@@@Pegas@@V?$allocator@V?$ptr@VIGameState@Pegas@@@Pegas@@@std@@$00@2@@std@@YA?AV?$_Deque_iterator@V?$ptr@VIGameState@Pegas@@@Pegas@@V?$allocator@V?$ptr@VIGameState@Pegas@@@Pegas@@@std@@$00@0@V?$_Deque_const_iterator@V?$ptr@VIGameState@Pegas@@@Pegas@@V?$allocator@V?$ptr@VIGameState@Pegas@@@Pegas@@@std@@$00@0@0V10@@Z 0040f510 f i game_app.obj
 0001:0000e690       ??$insert@V?$_Deque_const_iterator@V?$ptr@VIGameState@Pegas@@@Pegas@@V?$allocator@V?$ptr@VIGameState@Pegas@@@Pegas@@@std@@$00@std@@@?$deque@V?$ptr@VIGameState@Pegas@@@Pegas@@V?$allocator@V?$ptr@VIGameState@Pegas@@@Pegas@@@std@@@std@@QAEXV?$_Deque_const_iterator@V?$ptr@VIGameState@Pegas@@@Pegas@@V?$allocator@V?$ptr@VIGameState@Pegas@@@Pegas@@@std@@$00@1@00@Z 0040f690 f i game_app.obj
 0001:0000e7c0       ??$_Debug_lt_pred@U?$less@H@std@@HH@std@@YA_NU?$less@H@0@ABH1PB_WI@Z 0040f7c0 f i game_app.obj
 0001:0000e840       ??$_Debug_range@V?$_Deque_iterator@V?$ptr@VIGameState@Pegas@@@Pegas@@V?$allocator@V?$ptr@VIGameState@Pegas@@@Pegas@@@std@@$00@std@@@std@@YAXV?$_Deque_iterator@V?$ptr@VIGameState@Pegas@@@Pegas@@V?$allocator@V?$ptr@VIGameState@Pegas@@@Pegas@@@std@@$00@0@0PB_WI@Z 0040f840 f i game_app.obj
 0001:0000e930       ??$copy_backward@V?$_Deque_iterator@V?$ptr@VIGameState@Pegas@@@Pegas@@V?$allocator@V?$ptr@VIGameState@Pegas@@@Pegas@@@std@@$00@std@@V12@@std@@YA?AV?$_Deque_iterator@V?$ptr@VIGameState@Pegas@@@Pegas@@V?$allocator@V?$ptr@VIGameState@Pegas@@@Pegas@@@std@@$00@0@V10@00@Z 0040f930 f i game_app.obj
 0001:0000eab0       ??$copy@V?$_Deque_iterator@V?$ptr@VIGameState@Pegas@@@Pegas@@V?$allocator@V?$ptr@VIGameState@Pegas@@@Pegas@@@std@@$00@std@@V12@@std@@YA?AV?$_Deque_iterator@V?$ptr@VIGameState@Pegas@@@Pegas@@V?$allocator@V?$ptr@VIGameState@Pegas@@@Pegas@@@std@@$00@0@V10@00@Z 0040fab0 f i game_app.obj
 0001:0000ec30       ??$unchecked_uninitialized_copy@PAPAV?$ptr@VIGameState@Pegas@@@Pegas@@PAPAV12@V?$allocator@PAV?$ptr@VIGameState@Pegas@@@Pegas@@@std@@@stdext@@YAPAPAV?$ptr@VIGameState@Pegas@@@Pegas@@PAPAV12@00AAV?$allocator@PAV?$ptr@VIGameState@Pegas@@@Pegas@@@std@@@Z 0040fc30 f i game_app.obj
 0001:0000ecc0       ??$unchecked_uninitialized_fill_n@PAPAV?$ptr@VIGameState@Pegas@@@Pegas@@IPAV12@V?$allocator@PAV?$ptr@VIGameState@Pegas@@@Pegas@@@std@@@stdext@@YAXPAPAV?$ptr@VIGameState@Pegas@@@Pegas@@IABQAV12@AAV?$allocator@PAV?$ptr@VIGameState@Pegas@@@Pegas@@@std@@@Z 0040fcc0 f i game_app.obj
 0001:0000ed40       ??$_Destroy_range@V?$allocator@PAV?$ptr@VIGameState@Pegas@@@Pegas@@@std@@@std@@YAXPAPAV?$ptr@VIGameState@Pegas@@@Pegas@@0AAV?$allocator@PAV?$ptr@VIGameState@Pegas@@@Pegas@@@0@@Z 0040fd40 f i game_app.obj
 0001:0000edb0       ??$_Allocate@V?$ptr@VIGameState@Pegas@@@Pegas@@@std@@YAPAV?$ptr@VIGameState@Pegas@@@Pegas@@IPAV12@@Z 0040fdb0 f i game_app.obj
 0001:0000ee30       ??0bad_alloc@std@@QAE@PBD@Z 0040fe30 f i game_app.obj
 0001:0000ee90       ??1bad_alloc@std@@UAE@XZ   0040fe90 f i game_app.obj
 0001:0000eee0       ??_Ebad_alloc@std@@UAEPAXI@Z 0040fee0 f i game_app.obj
 0001:0000eee0       ??_Gbad_alloc@std@@UAEPAXI@Z 0040fee0 f i game_app.obj
 0001:0000ef40       ??$_Construct@V?$ptr@VIGameState@Pegas@@@Pegas@@V12@@std@@YAXPAV?$ptr@VIGameState@Pegas@@@Pegas@@ABV12@@Z 0040ff40 f i game_app.obj
 0001:0000f000       ??$_Allocate@PAV?$ptr@VIGameState@Pegas@@@Pegas@@@std@@YAPAPAV?$ptr@VIGameState@Pegas@@@Pegas@@IPAPAV12@@Z 00410000 f i game_app.obj
 0001:0000f080       ??0NullPointerException@Pegas@@QAE@XZ 00410080 f i game_app.obj
 0001:0000f0d0       ??$_Construct@V?$ptr@VFile@Pegas@@@Pegas@@V12@@std@@YAXPAV?$ptr@VFile@Pegas@@@Pegas@@ABV12@@Z 004100d0 f i game_app.obj
 0001:0000f190       ??1?$pair@Viterator@?$_Tree@V?$_Tmap_traits@HPAVTextureResource@Pegas@@U?$less@H@std@@V?$allocator@U?$pair@$$CBHPAVTextureResource@Pegas@@@std@@@4@$0A@@std@@@std@@_N@std@@QAE@XZ 00410190 f i game_app.obj
 0001:0000f1d0       ?what@NullPointerException@Pegas@@UBEPBDXZ 004101d0 f i game_app.obj
 0001:0000f200       ??_GNullPointerException@Pegas@@UAEPAXI@Z 00410200 f i game_app.obj
 0001:0000f200       ??_ENullPointerException@Pegas@@UAEPAXI@Z 00410200 f i game_app.obj
 0001:0000f260       ??1NullPointerException@Pegas@@UAE@XZ 00410260 f i game_app.obj
 0001:0000f2b0       ??1?$pair@Viterator@?$_Tree@V?$_Tmap_traits@HPAVFontResource@Pegas@@U?$less@H@std@@V?$allocator@U?$pair@$$CBHPAVFontResource@Pegas@@@std@@@4@$0A@@std@@@std@@_N@std@@QAE@XZ 004102b0 f i game_app.obj
 0001:0000f2f0       ??1?$_Deque_const_iterator@V?$ptr@VIGameState@Pegas@@@Pegas@@V?$allocator@V?$ptr@VIGameState@Pegas@@@Pegas@@@std@@$0A@@std@@QAE@XZ 004102f0 f i game_app.obj
 0001:0000f330       ??0Counter@Pegas@@QAE@I@Z  00410330 f i game_app.obj
 0001:0000f370       ??1?$_Deque_iterator@V?$ptr@VIGameState@Pegas@@@Pegas@@V?$allocator@V?$ptr@VIGameState@Pegas@@@Pegas@@@std@@$0A@@std@@QAE@XZ 00410370 f i game_app.obj
 0001:0000f3b0       ??Y?$basic_string@_WU?$char_traits@_W@std@@V?$allocator@_W@2@@std@@QAEAAV01@ABV01@@Z 004103b0 f i game_app.obj
 0001:0000f400       ??R?$less@PAVIKeyboardController@Pegas@@@std@@QBE_NABQAVIKeyboardController@Pegas@@0@Z 00410400 f i game_app.obj
 0001:0000f440       ??R?$less@PAVIMouseController@Pegas@@@std@@QBE_NABQAVIMouseController@Pegas@@0@Z 00410440 f i game_app.obj
 0001:0000f480       ?insert@?$_Tree@V?$_Tmap_traits@HPAVTextureResource@Pegas@@U?$less@H@std@@V?$allocator@U?$pair@$$CBHPAVTextureResource@Pegas@@@std@@@4@$0A@@std@@@std@@QAE?AU?$pair@Viterator@?$_Tree@V?$_Tmap_traits@HPAVTextureResource@Pegas@@U?$less@H@std@@V?$allocator@U?$pair@$$CBHPAVTextureResource@Pegas@@@std@@@4@$0A@@std@@@std@@_N@2@ABU?$pair@$$CBHPAVTextureResource@Pegas@@@2@@Z 00410480 f i game_app.obj
 0001:0000f860       ?count@?$_Tree@V?$_Tmap_traits@HPAVTextureResource@Pegas@@U?$less@H@std@@V?$allocator@U?$pair@$$CBHPAVTextureResource@Pegas@@@std@@@4@$0A@@std@@@std@@QBEIABH@Z 00410860 f i game_app.obj
 0001:0000f990       ?getID@IGameState@Pegas@@QAEHXZ 00410990 f i game_app.obj
 0001:0000f9c0       ?insert@?$_Tree@V?$_Tmap_traits@HPAVFontResource@Pegas@@U?$less@H@std@@V?$allocator@U?$pair@$$CBHPAVFontResource@Pegas@@@std@@@4@$0A@@std@@@std@@QAE?AU?$pair@Viterator@?$_Tree@V?$_Tmap_traits@HPAVFontResource@Pegas@@U?$less@H@std@@V?$allocator@U?$pair@$$CBHPAVFontResource@Pegas@@@std@@@4@$0A@@std@@@std@@_N@2@ABU?$pair@$$CBHPAVFontResource@Pegas@@@2@@Z 004109c0 f i game_app.obj
 0001:0000fda0       ?count@?$_Tree@V?$_Tmap_traits@HPAVFontResource@Pegas@@U?$less@H@std@@V?$allocator@U?$pair@$$CBHPAVFontResource@Pegas@@@std@@@4@$0A@@std@@@std@@QBEIABH@Z 00410da0 f i game_app.obj
 0001:0000fed0       ??0?$ptr@VFile@Pegas@@@Pegas@@QAE@ABV01@@Z 00410ed0 f i game_app.obj
 0001:0000ff30       ??1?$pair@Vconst_iterator@?$_Tree@V?$_Tmap_traits@HPAVTextureResource@Pegas@@U?$less@H@std@@V?$allocator@U?$pair@$$CBHPAVTextureResource@Pegas@@@std@@@4@$0A@@std@@@std@@V123@@std@@QAE@XZ 00410f30 f i game_app.obj
 0001:0000ffc0       ??1?$pair@Vconst_iterator@?$_Tree@V?$_Tmap_traits@HPAVFontResource@Pegas@@U?$less@H@std@@V?$allocator@U?$pair@$$CBHPAVFontResource@Pegas@@@std@@@4@$0A@@std@@@std@@V123@@std@@QAE@XZ 00410fc0 f i game_app.obj
 0001:00010050       ?append@?$basic_string@_WU?$char_traits@_W@std@@V?$allocator@_W@2@@std@@QAEAAV12@ABV12@@Z 00411050 f i game_app.obj
 0001:000100a0       ?_Key@?$_Tree@V?$_Tmap_traits@HPAVTextureResource@Pegas@@U?$less@H@std@@V?$allocator@U?$pair@$$CBHPAVTextureResource@Pegas@@@std@@@4@$0A@@std@@@std@@KAABHPAU_Node@?$_Tree_nod@V?$_Tmap_traits@HPAVTextureResource@Pegas@@U?$less@H@std@@V?$allocator@U?$pair@$$CBHPAVTextureResource@Pegas@@@std@@@4@$0A@@std@@@2@@Z 004110a0 f i game_app.obj
 0001:000100f0       ?equal_range@?$_Tree@V?$_Tmap_traits@HPAVTextureResource@Pegas@@U?$less@H@std@@V?$allocator@U?$pair@$$CBHPAVTextureResource@Pegas@@@std@@@4@$0A@@std@@@std@@QBE?AU?$pair@Vconst_iterator@?$_Tree@V?$_Tmap_traits@HPAVTextureResource@Pegas@@U?$less@H@std@@V?$allocator@U?$pair@$$CBHPAVTextureResource@Pegas@@@std@@@4@$0A@@std@@@std@@V123@@2@ABH@Z 004110f0 f i game_app.obj
 0001:00010160       ?_Insert@?$_Tree@V?$_Tmap_traits@HPAVTextureResource@Pegas@@U?$less@H@std@@V?$allocator@U?$pair@$$CBHPAVTextureResource@Pegas@@@std@@@4@$0A@@std@@@std@@IAE?AViterator@12@_NPAU_Node@?$_Tree_nod@V?$_Tmap_traits@HPAVTextureResource@Pegas@@U?$less@H@std@@V?$allocator@U?$pair@$$CBHPAVTextureResource@Pegas@@@std@@@4@$0A@@std@@@2@ABU?$pair@$$CBHPAVTextureResource@Pegas@@@2@@Z 00411160 f i game_app.obj
 0001:00010630       ?_Kfn@?$_Tmap_traits@HPAVTextureResource@Pegas@@U?$less@H@std@@V?$allocator@U?$pair@$$CBHPAVTextureResource@Pegas@@@std@@@4@$0A@@std@@SAABHABU?$pair@$$CBHPAVTextureResource@Pegas@@@2@@Z 00411630 f i game_app.obj
 0001:00010660       ?_Key@?$_Tree@V?$_Tmap_traits@HPAVFontResource@Pegas@@U?$less@H@std@@V?$allocator@U?$pair@$$CBHPAVFontResource@Pegas@@@std@@@4@$0A@@std@@@std@@KAABHPAU_Node@?$_Tree_nod@V?$_Tmap_traits@HPAVFontResource@Pegas@@U?$less@H@std@@V?$allocator@U?$pair@$$CBHPAVFontResource@Pegas@@@std@@@4@$0A@@std@@@2@@Z 00411660 f i game_app.obj
 0001:000106b0       ?equal_range@?$_Tree@V?$_Tmap_traits@HPAVFontResource@Pegas@@U?$less@H@std@@V?$allocator@U?$pair@$$CBHPAVFontResource@Pegas@@@std@@@4@$0A@@std@@@std@@QBE?AU?$pair@Vconst_iterator@?$_Tree@V?$_Tmap_traits@HPAVFontResource@Pegas@@U?$less@H@std@@V?$allocator@U?$pair@$$CBHPAVFontResource@Pegas@@@std@@@4@$0A@@std@@@std@@V123@@2@ABH@Z 004116b0 f i game_app.obj
 0001:00010720       ?_Insert@?$_Tree@V?$_Tmap_traits@HPAVFontResource@Pegas@@U?$less@H@std@@V?$allocator@U?$pair@$$CBHPAVFontResource@Pegas@@@std@@@4@$0A@@std@@@std@@IAE?AViterator@12@_NPAU_Node@?$_Tree_nod@V?$_Tmap_traits@HPAVFontResource@Pegas@@U?$less@H@std@@V?$allocator@U?$pair@$$CBHPAVFontResource@Pegas@@@std@@@4@$0A@@std@@@2@ABU?$pair@$$CBHPAVFontResource@Pegas@@@2@@Z 00411720 f i game_app.obj
 0001:00010bf0       ?_Kfn@?$_Tmap_traits@HPAVFontResource@Pegas@@U?$less@H@std@@V?$allocator@U?$pair@$$CBHPAVFontResource@Pegas@@@std@@@4@$0A@@std@@SAABHABU?$pair@$$CBHPAVFontResource@Pegas@@@2@@Z 00411bf0 f i game_app.obj
 0001:00010c20       ??Fiterator@?$_Tree@V?$_Tmap_traits@HPAVTextureResource@Pegas@@U?$less@H@std@@V?$allocator@U?$pair@$$CBHPAVTextureResource@Pegas@@@std@@@4@$0A@@std@@@std@@QAEAAV012@XZ 00411c20 f i game_app.obj
 0001:00010c70       ??Fiterator@?$_Tree@V?$_Tmap_traits@HPAVFontResource@Pegas@@U?$less@H@std@@V?$allocator@U?$pair@$$CBHPAVFontResource@Pegas@@@std@@@4@$0A@@std@@@std@@QAEAAV012@XZ 00411c70 f i game_app.obj
 0001:00010cc0       ??0?$pair@Viterator@?$_Tree@V?$_Tmap_traits@HPAVTextureResource@Pegas@@U?$less@H@std@@V?$allocator@U?$pair@$$CBHPAVTextureResource@Pegas@@@std@@@4@$0A@@std@@@std@@_N@std@@QAE@ABViterator@?$_Tree@V?$_Tmap_traits@HPAVTextureResource@Pegas@@U?$less@H@std@@V?$allocator@U?$pair@$$CBHPAVTextureResource@Pegas@@@std@@@4@$0A@@std@@@1@AB_N@Z 00411cc0 f i game_app.obj
 0001:00010d20       ??0?$pair@Viterator@?$_Tree@V?$_Tmap_traits@HPAVFontResource@Pegas@@U?$less@H@std@@V?$allocator@U?$pair@$$CBHPAVFontResource@Pegas@@@std@@@4@$0A@@std@@@std@@_N@std@@QAE@ABViterator@?$_Tree@V?$_Tmap_traits@HPAVFontResource@Pegas@@U?$less@H@std@@V?$allocator@U?$pair@$$CBHPAVFontResource@Pegas@@@std@@@4@$0A@@std@@@1@AB_N@Z 00411d20 f i game_app.obj
 0001:00010d80       ?append@?$basic_string@_WU?$char_traits@_W@std@@V?$allocator@_W@2@@std@@QAEAAV12@ABV12@II@Z 00411d80 f i game_app.obj
 0001:00010e80       ?max_size@?$_Tree@V?$_Tmap_traits@HPAVTextureResource@Pegas@@U?$less@H@std@@V?$allocator@U?$pair@$$CBHPAVTextureResource@Pegas@@@std@@@4@$0A@@std@@@std@@QBEIXZ 00411e80 f i game_app.obj
 0001:00010ed0       ??0Event_Game_ChangeState@Pegas@@QAE@ABH@Z 00411ed0 f i game_app.obj
 0001:00010fa0       ??1Event@Pegas@@UAE@XZ     00411fa0 f i game_app.obj
 0001:00010fe0       ??_EEvent@Pegas@@UAEPAXI@Z 00411fe0 f i game_app.obj
 0001:00010fe0       ??_GEvent@Pegas@@UAEPAXI@Z 00411fe0 f i game_app.obj
 0001:00011040       ??0Event@Pegas@@QAE@XZ     00412040 f i game_app.obj
 0001:00011080       ?_Eqrange@?$_Tree@V?$_Tmap_traits@HPAVTextureResource@Pegas@@U?$less@H@std@@V?$allocator@U?$pair@$$CBHPAVTextureResource@Pegas@@@std@@@4@$0A@@std@@@std@@IBE?AU?$pair@Vconst_iterator@?$_Tree@V?$_Tmap_traits@HPAVTextureResource@Pegas@@U?$less@H@std@@V?$allocator@U?$pair@$$CBHPAVTextureResource@Pegas@@@std@@@4@$0A@@std@@@std@@V123@@2@ABH@Z 00412080 f i game_app.obj
 0001:00011330       ?getType@Event_Game_ChangeState@Pegas@@UBE?AV?$basic_string@DU?$char_traits@D@std@@V?$allocator@D@2@@std@@XZ 00412330 f i game_app.obj
 0001:000113a0       ??_GEvent_Game_ChangeState@Pegas@@UAEPAXI@Z 004123a0 f i game_app.obj
 0001:000113a0       ??_EEvent_Game_ChangeState@Pegas@@UAEPAXI@Z 004123a0 f i game_app.obj
 0001:00011400       ??1Event_Game_ChangeState@Pegas@@UAE@XZ 00412400 f i game_app.obj
 0001:00011440       ??0Event_Game_ForwardToState@Pegas@@QAE@ABH@Z 00412440 f i game_app.obj
 0001:00011510       ?getType@Event_Game_ForwardToState@Pegas@@UBE?AV?$basic_string@DU?$char_traits@D@std@@V?$allocator@D@2@@std@@XZ 00412510 f i game_app.obj
 0001:00011580       ?_Buynode@?$_Tree@V?$_Tmap_traits@HPAVTextureResource@Pegas@@U?$less@H@std@@V?$allocator@U?$pair@$$CBHPAVTextureResource@Pegas@@@std@@@4@$0A@@std@@@std@@IAEPAU_Node@?$_Tree_nod@V?$_Tmap_traits@HPAVTextureResource@Pegas@@U?$less@H@std@@V?$allocator@U?$pair@$$CBHPAVTextureResource@Pegas@@@std@@@4@$0A@@std@@@2@PAU342@00ABU?$pair@$$CBHPAVTextureResource@Pegas@@@2@D@Z 00412580 f i game_app.obj
 0001:000116a0       ??_EEvent_Game_ForwardToState@Pegas@@UAEPAXI@Z 004126a0 f i game_app.obj
 0001:000116a0       ??_GEvent_Game_ForwardToState@Pegas@@UAEPAXI@Z 004126a0 f i game_app.obj
 0001:00011700       ??1Event_Game_ForwardToState@Pegas@@UAE@XZ 00412700 f i game_app.obj
 0001:00011740       ??0Event_Game_BackwardToPreviousState@Pegas@@QAE@XZ 00412740 f i game_app.obj
 0001:00011800       ?max_size@?$_Tree@V?$_Tmap_traits@HPAVFontResource@Pegas@@U?$less@H@std@@V?$allocator@U?$pair@$$CBHPAVFontResource@Pegas@@@std@@@4@$0A@@std@@@std@@QBEIXZ 00412800 f i game_app.obj
 0001:00011850       ?getType@Event_Game_BackwardToPreviousState@Pegas@@UBE?AV?$basic_string@DU?$char_traits@D@std@@V?$allocator@D@2@@std@@XZ 00412850 f i game_app.obj
 0001:000118c0       ?_Eqrange@?$_Tree@V?$_Tmap_traits@HPAVFontResource@Pegas@@U?$less@H@std@@V?$allocator@U?$pair@$$CBHPAVFontResource@Pegas@@@std@@@4@$0A@@std@@@std@@IBE?AU?$pair@Vconst_iterator@?$_Tree@V?$_Tmap_traits@HPAVFontResource@Pegas@@U?$less@H@std@@V?$allocator@U?$pair@$$CBHPAVFontResource@Pegas@@@std@@@4@$0A@@std@@@std@@V123@@2@ABH@Z 004128c0 f i game_app.obj
 0001:00011b70       ??_GEvent_Game_BackwardToPreviousState@Pegas@@UAEPAXI@Z 00412b70 f i game_app.obj
 0001:00011b70       ??_EEvent_Game_BackwardToPreviousState@Pegas@@UAEPAXI@Z 00412b70 f i game_app.obj
 0001:00011bd0       ??1Event_Game_BackwardToPreviousState@Pegas@@UAE@XZ 00412bd0 f i game_app.obj
 0001:00011c10       ?_Buynode@?$_Tree@V?$_Tmap_traits@HPAVFontResource@Pegas@@U?$less@H@std@@V?$allocator@U?$pair@$$CBHPAVFontResource@Pegas@@@std@@@4@$0A@@std@@@std@@IAEPAU_Node@?$_Tree_nod@V?$_Tmap_traits@HPAVFontResource@Pegas@@U?$less@H@std@@V?$allocator@U?$pair@$$CBHPAVFontResource@Pegas@@@std@@@4@$0A@@std@@@2@PAU342@00ABU?$pair@$$CBHPAVFontResource@Pegas@@@2@D@Z 00412c10 f i game_app.obj
 0001:00011d30       ??Fconst_iterator@?$_Tree@V?$_Tmap_traits@HPAVTextureResource@Pegas@@U?$less@H@std@@V?$allocator@U?$pair@$$CBHPAVTextureResource@Pegas@@@std@@@4@$0A@@std@@@std@@QAEAAV012@XZ 00412d30 f i game_app.obj
 0001:00011d80       ??Fconst_iterator@?$_Tree@V?$_Tmap_traits@HPAVFontResource@Pegas@@U?$less@H@std@@V?$allocator@U?$pair@$$CBHPAVFontResource@Pegas@@@std@@@4@$0A@@std@@@std@@QAEAAV012@XZ 00412d80 f i game_app.obj
 0001:00011dd0       ?max_size@?$allocator@U?$pair@$$CBHPAVTextureResource@Pegas@@@std@@@std@@QBEIXZ 00412dd0 f i game_app.obj
 0001:00011e30       ?max_size@?$allocator@U?$pair@$$CBHPAVFontResource@Pegas@@@std@@@std@@QBEIXZ 00412e30 f i game_app.obj
 0001:00011e90       ?_Dec@const_iterator@?$_Tree@V?$_Tmap_traits@HPAVTextureResource@Pegas@@U?$less@H@std@@V?$allocator@U?$pair@$$CBHPAVTextureResource@Pegas@@@std@@@4@$0A@@std@@@std@@QAEXXZ 00412e90 f i game_app.obj
 0001:000120f0       ?_Dec@const_iterator@?$_Tree@V?$_Tmap_traits@HPAVFontResource@Pegas@@U?$less@H@std@@V?$allocator@U?$pair@$$CBHPAVFontResource@Pegas@@@std@@@4@$0A@@std@@@std@@QAEXXZ 004130f0 f i game_app.obj
 0001:00012350       ??0_Node@?$_Tree_nod@V?$_Tmap_traits@HPAVTextureResource@Pegas@@U?$less@H@std@@V?$allocator@U?$pair@$$CBHPAVTextureResource@Pegas@@@std@@@4@$0A@@std@@@std@@QAE@PAU012@00ABU?$pair@$$CBHPAVTextureResource@Pegas@@@2@D@Z 00413350 f i game_app.obj
 0001:000123c0       ??0_Node@?$_Tree_nod@V?$_Tmap_traits@HPAVFontResource@Pegas@@U?$less@H@std@@V?$allocator@U?$pair@$$CBHPAVFontResource@Pegas@@@std@@@4@$0A@@std@@@std@@QAE@PAU012@00ABU?$pair@$$CBHPAVFontResource@Pegas@@@2@D@Z 004133c0 f i game_app.obj
 0001:00012430       ??0?$pair@Vconst_iterator@?$_Tree@V?$_Tmap_traits@HPAVTextureResource@Pegas@@U?$less@H@std@@V?$allocator@U?$pair@$$CBHPAVTextureResource@Pegas@@@std@@@4@$0A@@std@@@std@@V123@@std@@QAE@ABVconst_iterator@?$_Tree@V?$_Tmap_traits@HPAVTextureResource@Pegas@@U?$less@H@std@@V?$allocator@U?$pair@$$CBHPAVTextureResource@Pegas@@@std@@@4@$0A@@std@@@1@0@Z 00413430 f i game_app.obj
 0001:000124c0       ??0?$pair@Vconst_iterator@?$_Tree@V?$_Tmap_traits@HPAVFontResource@Pegas@@U?$less@H@std@@V?$allocator@U?$pair@$$CBHPAVFontResource@Pegas@@@std@@@4@$0A@@std@@@std@@V123@@std@@QAE@ABVconst_iterator@?$_Tree@V?$_Tmap_traits@HPAVFontResource@Pegas@@U?$less@H@std@@V?$allocator@U?$pair@$$CBHPAVFontResource@Pegas@@@std@@@4@$0A@@std@@@1@0@Z 004134c0 f i game_app.obj
 0001:00012550       ??$make_pair@HPAVTextureResource@Pegas@@@std@@YA?AU?$pair@HPAVTextureResource@Pegas@@@0@HPAVTextureResource@Pegas@@@Z 00413550 f i game_app.obj
 0001:000125a0       ??$?0HPAVTextureResource@Pegas@@@?$pair@$$CBHPAVTextureResource@Pegas@@@std@@QAE@ABU?$pair@HPAVTextureResource@Pegas@@@1@@Z 004135a0 f i game_app.obj
 0001:000125f0       ??$make_pair@HPAVFontResource@Pegas@@@std@@YA?AU?$pair@HPAVFontResource@Pegas@@@0@HPAVFontResource@Pegas@@@Z 004135f0 f i game_app.obj
 0001:00012640       ??$?0HPAVFontResource@Pegas@@@?$pair@$$CBHPAVFontResource@Pegas@@@std@@QAE@ABU?$pair@HPAVFontResource@Pegas@@@1@@Z 00413640 f i game_app.obj
 0001:00012690       ??$_Iter_cat@Viterator@?$_Tree@V?$_Tset_traits@PAVIKeyboardController@Pegas@@U?$less@PAVIKeyboardController@Pegas@@@std@@V?$allocator@PAVIKeyboardController@Pegas@@@4@$0A@@std@@@std@@@std@@YA?AUbidirectional_iterator_tag@0@ABViterator@?$_Tree@V?$_Tset_traits@PAVIKeyboardController@Pegas@@U?$less@PAVIKeyboardController@Pegas@@@std@@V?$allocator@PAVIKeyboardController@Pegas@@@4@$0A@@std@@@0@@Z 00413690 f i game_app.obj
 0001:000126f0       ??$_Distance2@Viterator@?$_Tree@V?$_Tset_traits@PAVIKeyboardController@Pegas@@U?$less@PAVIKeyboardController@Pegas@@@std@@V?$allocator@PAVIKeyboardController@Pegas@@@4@$0A@@std@@@std@@I@std@@YAXViterator@?$_Tree@V?$_Tset_traits@PAVIKeyboardController@Pegas@@U?$less@PAVIKeyboardController@Pegas@@@std@@V?$allocator@PAVIKeyboardController@Pegas@@@4@$0A@@std@@@0@0AAIUbidirectional_iterator_tag@0@@Z 004136f0 f i game_app.obj
 0001:000127a0       ??$_Iter_cat@Vconst_iterator@?$_Tree@V?$_Tset_traits@PAVIKeyboardController@Pegas@@U?$less@PAVIKeyboardController@Pegas@@@std@@V?$allocator@PAVIKeyboardController@Pegas@@@4@$0A@@std@@@std@@@std@@YA?AUbidirectional_iterator_tag@0@ABVconst_iterator@?$_Tree@V?$_Tset_traits@PAVIKeyboardController@Pegas@@U?$less@PAVIKeyboardController@Pegas@@@std@@V?$allocator@PAVIKeyboardController@Pegas@@@4@$0A@@std@@@0@@Z 004137a0 f i game_app.obj
 0001:00012800       ??$_Distance2@Vconst_iterator@?$_Tree@V?$_Tset_traits@PAVIKeyboardController@Pegas@@U?$less@PAVIKeyboardController@Pegas@@@std@@V?$allocator@PAVIKeyboardController@Pegas@@@4@$0A@@std@@@std@@I@std@@YAXVconst_iterator@?$_Tree@V?$_Tset_traits@PAVIKeyboardController@Pegas@@U?$less@PAVIKeyboardController@Pegas@@@std@@V?$allocator@PAVIKeyboardController@Pegas@@@4@$0A@@std@@@0@0AAIUbidirectional_iterator_tag@0@@Z 00413800 f i game_app.obj
 0001:000128b0       ??$_Iter_cat@Viterator@?$_Tree@V?$_Tset_traits@PAVIMouseController@Pegas@@U?$less@PAVIMouseController@Pegas@@@std@@V?$allocator@PAVIMouseController@Pegas@@@4@$0A@@std@@@std@@@std@@YA?AUbidirectional_iterator_tag@0@ABViterator@?$_Tree@V?$_Tset_traits@PAVIMouseController@Pegas@@U?$less@PAVIMouseController@Pegas@@@std@@V?$allocator@PAVIMouseController@Pegas@@@4@$0A@@std@@@0@@Z 004138b0 f i game_app.obj
 0001:00012910       ??$_Distance2@Viterator@?$_Tree@V?$_Tset_traits@PAVIMouseController@Pegas@@U?$less@PAVIMouseController@Pegas@@@std@@V?$allocator@PAVIMouseController@Pegas@@@4@$0A@@std@@@std@@I@std@@YAXViterator@?$_Tree@V?$_Tset_traits@PAVIMouseController@Pegas@@U?$less@PAVIMouseController@Pegas@@@std@@V?$allocator@PAVIMouseController@Pegas@@@4@$0A@@std@@@0@0AAIUbidirectional_iterator_tag@0@@Z 00413910 f i game_app.obj
 0001:000129c0       ??$_Iter_cat@Vconst_iterator@?$_Tree@V?$_Tset_traits@PAVIMouseController@Pegas@@U?$less@PAVIMouseController@Pegas@@@std@@V?$allocator@PAVIMouseController@Pegas@@@4@$0A@@std@@@std@@@std@@YA?AUbidirectional_iterator_tag@0@ABVconst_iterator@?$_Tree@V?$_Tset_traits@PAVIMouseController@Pegas@@U?$less@PAVIMouseController@Pegas@@@std@@V?$allocator@PAVIMouseController@Pegas@@@4@$0A@@std@@@0@@Z 004139c0 f i game_app.obj
 0001:00012a20       ??$_Distance2@Vconst_iterator@?$_Tree@V?$_Tset_traits@PAVIMouseController@Pegas@@U?$less@PAVIMouseController@Pegas@@@std@@V?$allocator@PAVIMouseController@Pegas@@@4@$0A@@std@@@std@@I@std@@YAXVconst_iterator@?$_Tree@V?$_Tset_traits@PAVIMouseController@Pegas@@U?$less@PAVIMouseController@Pegas@@@std@@V?$allocator@PAVIMouseController@Pegas@@@4@$0A@@std@@@0@0AAIUbidirectional_iterator_tag@0@@Z 00413a20 f i game_app.obj
 0001:00012ad0       ??$_Iter_cat@Viterator@?$_Tree@V?$_Tmap_traits@HV?$ptr@VIGameState@Pegas@@@Pegas@@U?$less@H@std@@V?$allocator@U?$pair@$$CBHV?$ptr@VIGameState@Pegas@@@Pegas@@@std@@@4@$0A@@std@@@std@@@std@@YA?AUbidirectional_iterator_tag@0@ABViterator@?$_Tree@V?$_Tmap_traits@HV?$ptr@VIGameState@Pegas@@@Pegas@@U?$less@H@std@@V?$allocator@U?$pair@$$CBHV?$ptr@VIGameState@Pegas@@@Pegas@@@std@@@4@$0A@@std@@@0@@Z 00413ad0 f i game_app.obj
 0001:00012b30       ??$_Distance2@Viterator@?$_Tree@V?$_Tmap_traits@HV?$ptr@VIGameState@Pegas@@@Pegas@@U?$less@H@std@@V?$allocator@U?$pair@$$CBHV?$ptr@VIGameState@Pegas@@@Pegas@@@std@@@4@$0A@@std@@@std@@I@std@@YAXViterator@?$_Tree@V?$_Tmap_traits@HV?$ptr@VIGameState@Pegas@@@Pegas@@U?$less@H@std@@V?$allocator@U?$pair@$$CBHV?$ptr@VIGameState@Pegas@@@Pegas@@@std@@@4@$0A@@std@@@0@0AAIUbidirectional_iterator_tag@0@@Z 00413b30 f i game_app.obj
 0001:00012be0       ??$_Iter_cat@Vconst_iterator@?$_Tree@V?$_Tmap_traits@HV?$ptr@VIGameState@Pegas@@@Pegas@@U?$less@H@std@@V?$allocator@U?$pair@$$CBHV?$ptr@VIGameState@Pegas@@@Pegas@@@std@@@4@$0A@@std@@@std@@@std@@YA?AUbidirectional_iterator_tag@0@ABVconst_iterator@?$_Tree@V?$_Tmap_traits@HV?$ptr@VIGameState@Pegas@@@Pegas@@U?$less@H@std@@V?$allocator@U?$pair@$$CBHV?$ptr@VIGameState@Pegas@@@Pegas@@@std@@@4@$0A@@std@@@0@@Z 00413be0 f i game_app.obj
 0001:00012c40       ??$_Distance2@Vconst_iterator@?$_Tree@V?$_Tmap_traits@HV?$ptr@VIGameState@Pegas@@@Pegas@@U?$less@H@std@@V?$allocator@U?$pair@$$CBHV?$ptr@VIGameState@Pegas@@@Pegas@@@std@@@4@$0A@@std@@@std@@I@std@@YAXVconst_iterator@?$_Tree@V?$_Tmap_traits@HV?$ptr@VIGameState@Pegas@@@Pegas@@U?$less@H@std@@V?$allocator@U?$pair@$$CBHV?$ptr@VIGameState@Pegas@@@Pegas@@@std@@@4@$0A@@std@@@0@0AAIUbidirectional_iterator_tag@0@@Z 00413c40 f i game_app.obj
 0001:00012cf0       ??$_Checked_base@V?$_Deque_const_iterator@V?$ptr@VIGameState@Pegas@@@Pegas@@V?$allocator@V?$ptr@VIGameState@Pegas@@@Pegas@@@std@@$00@std@@@std@@YA?AV?$_Deque_const_iterator@V?$ptr@VIGameState@Pegas@@@Pegas@@V?$allocator@V?$ptr@VIGameState@Pegas@@@Pegas@@@std@@$0A@@0@AAV?$_Deque_const_iterator@V?$ptr@VIGameState@Pegas@@@Pegas@@V?$allocator@V?$ptr@VIGameState@Pegas@@@Pegas@@@std@@$00@0@@Z 00413cf0 f i game_app.obj
 0001:00012d90       ??$_Iter_random@V?$_Deque_const_iterator@V?$ptr@VIGameState@Pegas@@@Pegas@@V?$allocator@V?$ptr@VIGameState@Pegas@@@Pegas@@@std@@$00@std@@V?$_Deque_iterator@V?$ptr@VIGameState@Pegas@@@Pegas@@V?$allocator@V?$ptr@VIGameState@Pegas@@@Pegas@@@std@@$00@2@@std@@YA?AUrandom_access_iterator_tag@0@ABV?$_Deque_const_iterator@V?$ptr@VIGameState@Pegas@@@Pegas@@V?$allocator@V?$ptr@VIGameState@Pegas@@@Pegas@@@std@@$00@0@ABV?$_Deque_iterator@V?$ptr@VIGameState@Pegas@@@Pegas@@V?$allocator@V?$ptr@VIGameState@Pegas@@@Pegas@@@std@@$00@0@@Z 00413d90 f i game_app.obj
 0001:00012df0       ??$_Ptr_cat@V?$_Deque_const_iterator@V?$ptr@VIGameState@Pegas@@@Pegas@@V?$allocator@V?$ptr@VIGameState@Pegas@@@Pegas@@@std@@$00@std@@V?$_Deque_iterator@V?$ptr@VIGameState@Pegas@@@Pegas@@V?$allocator@V?$ptr@VIGameState@Pegas@@@Pegas@@@std@@$00@2@@std@@YA?AU_Nonscalar_ptr_iterator_tag@0@AAV?$_Deque_const_iterator@V?$ptr@VIGameState@Pegas@@@Pegas@@V?$allocator@V?$ptr@VIGameState@Pegas@@@Pegas@@@std@@$00@0@AAV?$_Deque_iterator@V?$ptr@VIGameState@Pegas@@@Pegas@@V?$allocator@V?$ptr@VIGameState@Pegas@@@Pegas@@@std@@$00@0@@Z 00413df0 f i game_app.obj
 0001:00012e50       ??$_Copy_opt@V?$_Deque_const_iterator@V?$ptr@VIGameState@Pegas@@@Pegas@@V?$allocator@V?$ptr@VIGameState@Pegas@@@Pegas@@@std@@$0A@@std@@V?$_Deque_iterator@V?$ptr@VIGameState@Pegas@@@Pegas@@V?$allocator@V?$ptr@VIGameState@Pegas@@@Pegas@@@std@@$00@2@@std@@YA?AV?$_Deque_iterator@V?$ptr@VIGameState@Pegas@@@Pegas@@V?$allocator@V?$ptr@VIGameState@Pegas@@@Pegas@@@std@@$00@0@V?$_Deque_const_iterator@V?$ptr@VIGameState@Pegas@@@Pegas@@V?$allocator@V?$ptr@VIGameState@Pegas@@@Pegas@@@std@@$0A@@0@0V10@Urandom_access_iterator_tag@0@U_Nonscalar_ptr_iterator_tag@0@U_Range_checked_iterator_tag@0@@Z 00413e50 f i game_app.obj
 0001:00013020       ??$_Iter_cat@V?$_Deque_const_iterator@V?$ptr@VIGameState@Pegas@@@Pegas@@V?$allocator@V?$ptr@VIGameState@Pegas@@@Pegas@@@std@@$00@std@@@std@@YA?AUrandom_access_iterator_tag@0@ABV?$_Deque_const_iterator@V?$ptr@VIGameState@Pegas@@@Pegas@@V?$allocator@V?$ptr@VIGameState@Pegas@@@Pegas@@@std@@$00@0@@Z 00414020 f i game_app.obj
 0001:00013080       ??$_Insert@V?$_Deque_const_iterator@V?$ptr@VIGameState@Pegas@@@Pegas@@V?$allocator@V?$ptr@VIGameState@Pegas@@@Pegas@@@std@@$00@std@@@?$deque@V?$ptr@VIGameState@Pegas@@@Pegas@@V?$allocator@V?$ptr@VIGameState@Pegas@@@Pegas@@@std@@@std@@QAEXV?$_Deque_const_iterator@V?$ptr@VIGameState@Pegas@@@Pegas@@V?$allocator@V?$ptr@VIGameState@Pegas@@@Pegas@@@std@@$00@1@00Uinput_iterator_tag@1@@Z 00414080 f i game_app.obj
 0001:00013410       ??0IntResourceCode@Pegas@@QAE@PAUHINSTANCE__@@I@Z 00414410 f i game_app.obj
 0001:00013450       ??$_Iter_cat@V?$_Deque_iterator@V?$ptr@VIGameState@Pegas@@@Pegas@@V?$allocator@V?$ptr@VIGameState@Pegas@@@Pegas@@@std@@$00@std@@@std@@YA?AUrandom_access_iterator_tag@0@ABV?$_Deque_iterator@V?$ptr@VIGameState@Pegas@@@Pegas@@V?$allocator@V?$ptr@VIGameState@Pegas@@@Pegas@@@std@@$00@0@@Z 00414450 f i game_app.obj
 0001:000134b0       ??$_Debug_range2@V?$_Deque_iterator@V?$ptr@VIGameState@Pegas@@@Pegas@@V?$allocator@V?$ptr@VIGameState@Pegas@@@Pegas@@@std@@$00@std@@@std@@YAXV?$_Deque_iterator@V?$ptr@VIGameState@Pegas@@@Pegas@@V?$allocator@V?$ptr@VIGameState@Pegas@@@Pegas@@@std@@$00@0@0PB_WIUrandom_access_iterator_tag@0@@Z 004144b0 f i game_app.obj
 0001:000135a0       ??$_Checked_base@V?$_Deque_iterator@V?$ptr@VIGameState@Pegas@@@Pegas@@V?$allocator@V?$ptr@VIGameState@Pegas@@@Pegas@@@std@@$00@std@@@std@@YA?AV?$_Deque_iterator@V?$ptr@VIGameState@Pegas@@@Pegas@@V?$allocator@V?$ptr@VIGameState@Pegas@@@Pegas@@@std@@$0A@@0@AAV?$_Deque_iterator@V?$ptr@VIGameState@Pegas@@@Pegas@@V?$allocator@V?$ptr@VIGameState@Pegas@@@Pegas@@@std@@$00@0@@Z 004145a0 f i game_app.obj
 0001:00013640       ??$_Iter_random@V?$_Deque_iterator@V?$ptr@VIGameState@Pegas@@@Pegas@@V?$allocator@V?$ptr@VIGameState@Pegas@@@Pegas@@@std@@$00@std@@V12@@std@@YA?AUrandom_access_iterator_tag@0@ABV?$_Deque_iterator@V?$ptr@VIGameState@Pegas@@@Pegas@@V?$allocator@V?$ptr@VIGameState@Pegas@@@Pegas@@@std@@$00@0@0@Z 00414640 f i game_app.obj
 0001:000136a0       ??$_Ptr_cat@V?$_Deque_iterator@V?$ptr@VIGameState@Pegas@@@Pegas@@V?$allocator@V?$ptr@VIGameState@Pegas@@@Pegas@@@std@@$00@std@@V12@@std@@YA?AU_Nonscalar_ptr_iterator_tag@0@AAV?$_Deque_iterator@V?$ptr@VIGameState@Pegas@@@Pegas@@V?$allocator@V?$ptr@VIGameState@Pegas@@@Pegas@@@std@@$00@0@0@Z 004146a0 f i game_app.obj
 0001:00013700       ??$_Copy_backward_opt@V?$_Deque_iterator@V?$ptr@VIGameState@Pegas@@@Pegas@@V?$allocator@V?$ptr@VIGameState@Pegas@@@Pegas@@@std@@$0A@@std@@V?$_Deque_iterator@V?$ptr@VIGameState@Pegas@@@Pegas@@V?$allocator@V?$ptr@VIGameState@Pegas@@@Pegas@@@std@@$00@2@@std@@YA?AV?$_Deque_iterator@V?$ptr@VIGameState@Pegas@@@Pegas@@V?$allocator@V?$ptr@VIGameState@Pegas@@@Pegas@@@std@@$00@0@V?$_Deque_iterator@V?$ptr@VIGameState@Pegas@@@Pegas@@V?$allocator@V?$ptr@VIGameState@Pegas@@@Pegas@@@std@@$0A@@0@0V10@Urandom_access_iterator_tag@0@U_Nonscalar_ptr_iterator_tag@0@U_Range_checked_iterator_tag@0@@Z 00414700 f i game_app.obj
 0001:000138d0       ??$_Copy_opt@V?$_Deque_iterator@V?$ptr@VIGameState@Pegas@@@Pegas@@V?$allocator@V?$ptr@VIGameState@Pegas@@@Pegas@@@std@@$0A@@std@@V?$_Deque_iterator@V?$ptr@VIGameState@Pegas@@@Pegas@@V?$allocator@V?$ptr@VIGameState@Pegas@@@Pegas@@@std@@$00@2@@std@@YA?AV?$_Deque_iterator@V?$ptr@VIGameState@Pegas@@@Pegas@@V?$allocator@V?$ptr@VIGameState@Pegas@@@Pegas@@@std@@$00@0@V?$_Deque_iterator@V?$ptr@VIGameState@Pegas@@@Pegas@@V?$allocator@V?$ptr@VIGameState@Pegas@@@Pegas@@@std@@$0A@@0@0V10@Urandom_access_iterator_tag@0@U_Nonscalar_ptr_iterator_tag@0@U_Range_checked_iterator_tag@0@@Z 004148d0 f i game_app.obj
 0001:00013aa0       ??$_Checked_base@PAPAV?$ptr@VIGameState@Pegas@@@Pegas@@@std@@YAPAPAV?$ptr@VIGameState@Pegas@@@Pegas@@AAPAPAV12@@Z 00414aa0 f i game_app.obj
 0001:00013b20       ??$_Ptr_cat@PAPAV?$ptr@VIGameState@Pegas@@@Pegas@@PAPAV12@@std@@YA?AU_Scalar_ptr_iterator_tag@0@AAPAPAV?$ptr@VIGameState@Pegas@@@Pegas@@0@Z 00414b20 f i game_app.obj
 0001:00013b80       ??$_Uninit_copy@PAPAV?$ptr@VIGameState@Pegas@@@Pegas@@PAPAV12@V?$allocator@PAV?$ptr@VIGameState@Pegas@@@Pegas@@@std@@@std@@YAPAPAV?$ptr@VIGameState@Pegas@@@Pegas@@PAPAV12@00AAV?$allocator@PAV?$ptr@VIGameState@Pegas@@@Pegas@@@0@U_Scalar_ptr_iterator_tag@0@U_Range_checked_iterator_tag@0@@Z 00414b80 f i game_app.obj
 0001:00013c30       ??0FontResourceCode@Pegas@@QAE@ABV?$basic_string@_WU?$char_traits@_W@std@@V?$allocator@_W@2@@std@@H@Z 00414c30 f i game_app.obj
 0001:00013c90       ??$_Uninit_fill_n@PAPAV?$ptr@VIGameState@Pegas@@@Pegas@@IPAV12@V?$allocator@PAV?$ptr@VIGameState@Pegas@@@Pegas@@@std@@@std@@YAXPAPAV?$ptr@VIGameState@Pegas@@@Pegas@@IABQAV12@AAV?$allocator@PAV?$ptr@VIGameState@Pegas@@@Pegas@@@0@U_Scalar_ptr_iterator_tag@0@U_Range_checked_iterator_tag@0@@Z 00414c90 f i game_app.obj
 0001:00013ce0       ??$_Destroy_range@V?$allocator@PAV?$ptr@VIGameState@Pegas@@@Pegas@@@std@@@std@@YAXPAPAV?$ptr@VIGameState@Pegas@@@Pegas@@0AAV?$allocator@PAV?$ptr@VIGameState@Pegas@@@Pegas@@@0@U_Scalar_ptr_iterator_tag@0@@Z 00414ce0 f i game_app.obj
 0001:00013d10       ??$_Distance@Vconst_iterator@?$_Tree@V?$_Tmap_traits@HPAVTextureResource@Pegas@@U?$less@H@std@@V?$allocator@U?$pair@$$CBHPAVTextureResource@Pegas@@@std@@@4@$0A@@std@@@std@@I@std@@YAXVconst_iterator@?$_Tree@V?$_Tmap_traits@HPAVTextureResource@Pegas@@U?$less@H@std@@V?$allocator@U?$pair@$$CBHPAVTextureResource@Pegas@@@std@@@4@$0A@@std@@@0@0AAI@Z 00414d10 f i game_app.obj
 0001:00013e00       ??$_Distance@Vconst_iterator@?$_Tree@V?$_Tmap_traits@HPAVFontResource@Pegas@@U?$less@H@std@@V?$allocator@U?$pair@$$CBHPAVFontResource@Pegas@@@std@@@4@$0A@@std@@@std@@I@std@@YAXVconst_iterator@?$_Tree@V?$_Tmap_traits@HPAVFontResource@Pegas@@U?$less@H@std@@V?$allocator@U?$pair@$$CBHPAVFontResource@Pegas@@@std@@@4@$0A@@std@@@0@0AAI@Z 00414e00 f i game_app.obj
 0001:00013ef0       ??0?$_Deque_iterator@V?$ptr@VIGameState@Pegas@@@Pegas@@V?$allocator@V?$ptr@VIGameState@Pegas@@@Pegas@@@std@@$0A@@std@@QAE@ABV01@@Z 00414ef0 f i game_app.obj
 0001:00013f40       ?push_front@?$deque@V?$ptr@VIGameState@Pegas@@@Pegas@@V?$allocator@V?$ptr@VIGameState@Pegas@@@Pegas@@@std@@@std@@QAEXABV?$ptr@VIGameState@Pegas@@@Pegas@@@Z 00414f40 f i game_app.obj
 0001:00014060       ?_Reverse@?$deque@V?$ptr@VIGameState@Pegas@@@Pegas@@V?$allocator@V?$ptr@VIGameState@Pegas@@@Pegas@@@std@@@std@@QAEXII@Z 00415060 f i game_app.obj
 0001:000141c0       ??Eiterator@?$_Tree@V?$_Tmap_traits@HV?$ptr@VIGameState@Pegas@@@Pegas@@U?$less@H@std@@V?$allocator@U?$pair@$$CBHV?$ptr@VIGameState@Pegas@@@Pegas@@@std@@@4@$0A@@std@@@std@@QAEAAV012@XZ 004151c0 f i game_app.obj
 0001:00014210       ??E?$_Deque_const_iterator@V?$ptr@VIGameState@Pegas@@@Pegas@@V?$allocator@V?$ptr@VIGameState@Pegas@@@Pegas@@@std@@$00@std@@QAEAAV01@XZ 00415210 f i game_app.obj
 0001:00014360       ??8?$_Deque_const_iterator@V?$ptr@VIGameState@Pegas@@@Pegas@@V?$allocator@V?$ptr@VIGameState@Pegas@@@Pegas@@@std@@$00@std@@QBE_NABV01@@Z 00415360 f i game_app.obj
 0001:000143c0       ??9?$_Deque_const_iterator@V?$ptr@VIGameState@Pegas@@@Pegas@@V?$allocator@V?$ptr@VIGameState@Pegas@@@Pegas@@@std@@$00@std@@QBE_NABV01@@Z 004153c0 f i game_app.obj
 0001:00014410       ??0?$pair@HPAVTextureResource@Pegas@@@std@@QAE@ABHABQAVTextureResource@Pegas@@@Z 00415410 f i game_app.obj
 0001:00014460       ??0File@Pegas@@QAE@XZ      00415460 f i game_app.obj
 0001:00014510       ??1ISerializer@Pegas@@UAE@XZ 00415510 f i game_app.obj
 0001:00014550       ??_GISerializer@Pegas@@UAEPAXI@Z 00415550 f i game_app.obj
 0001:00014550       ??_EISerializer@Pegas@@UAEPAXI@Z 00415550 f i game_app.obj
 0001:000145b0       ??0?$pair@HPAVFontResource@Pegas@@@std@@QAE@ABHABQAVFontResource@Pegas@@@Z 004155b0 f i game_app.obj
 0001:00014600       ??0?$_Deque_const_iterator@V?$ptr@VIGameState@Pegas@@@Pegas@@V?$allocator@V?$ptr@VIGameState@Pegas@@@Pegas@@@std@@$0A@@std@@QAE@ABV01@@Z 00415600 f i game_app.obj
 0001:000146a0       ??_GFile@Pegas@@UAEPAXI@Z  004156a0 f i game_app.obj
 0001:000146a0       ??_EFile@Pegas@@UAEPAXI@Z  004156a0 f i game_app.obj
 0001:00014700       ??G?$_Deque_const_iterator@V?$ptr@VIGameState@Pegas@@@Pegas@@V?$allocator@V?$ptr@VIGameState@Pegas@@@Pegas@@@std@@$0A@@std@@QBEHABV01@@Z 00415700 f i game_app.obj
 0001:00014790       ??0ISerializer@Pegas@@QAE@XZ 00415790 f i game_app.obj
 0001:000147d0       ??G?$_Deque_iterator@V?$ptr@VIGameState@Pegas@@@Pegas@@V?$allocator@V?$ptr@VIGameState@Pegas@@@Pegas@@@std@@$0A@@std@@QBEHABV?$_Deque_const_iterator@V?$ptr@VIGameState@Pegas@@@Pegas@@V?$allocator@V?$ptr@VIGameState@Pegas@@@Pegas@@@std@@$0A@@1@@Z 004157d0 f i game_app.obj
 0001:00014820       ??A?$_Deque_iterator@V?$ptr@VIGameState@Pegas@@@Pegas@@V?$allocator@V?$ptr@VIGameState@Pegas@@@Pegas@@@std@@$00@std@@QBEAAV?$ptr@VIGameState@Pegas@@@Pegas@@H@Z 00415820 f i game_app.obj
 0001:000148e0       ??1File@Pegas@@UAE@XZ      004158e0 f i game_app.obj
 0001:00014980       ?_Compat@?$_Deque_const_iterator@V?$ptr@VIGameState@Pegas@@@Pegas@@V?$allocator@V?$ptr@VIGameState@Pegas@@@Pegas@@@std@@$0A@@std@@QBEXABV12@@Z 00415980 f i game_app.obj
 0001:00014a30       ??5File@Pegas@@UAEAAVISerializer@1@AAC@Z 00415a30 f i game_app.obj
 0001:00014a80       ??5File@Pegas@@UAEAAVISerializer@1@AAE@Z 00415a80 f i game_app.obj
 0001:00014ad0       ??$_Checked_base@V?$_Deque_const_iterator@V?$ptr@VIGameState@Pegas@@@Pegas@@V?$allocator@V?$ptr@VIGameState@Pegas@@@Pegas@@@std@@$00@std@@U_Different_checked_iterator_base_type_tag@2@@std@@YA?AV?$_Deque_const_iterator@V?$ptr@VIGameState@Pegas@@@Pegas@@V?$allocator@V?$ptr@VIGameState@Pegas@@@Pegas@@@std@@$0A@@0@AAV?$_Deque_const_iterator@V?$ptr@VIGameState@Pegas@@@Pegas@@V?$allocator@V?$ptr@VIGameState@Pegas@@@Pegas@@@std@@$00@0@U_Different_checked_iterator_base_type_tag@0@@Z 00415ad0 f i game_app.obj
 0001:00014b30       ??5File@Pegas@@UAEAAVISerializer@1@AAF@Z 00415b30 f i game_app.obj
 0001:00014b80       ??$_Copy_opt@V?$_Deque_const_iterator@V?$ptr@VIGameState@Pegas@@@Pegas@@V?$allocator@V?$ptr@VIGameState@Pegas@@@Pegas@@@std@@$0A@@std@@V?$_Deque_iterator@V?$ptr@VIGameState@Pegas@@@Pegas@@V?$allocator@V?$ptr@VIGameState@Pegas@@@Pegas@@@std@@$0A@@2@Uforward_iterator_tag@2@@std@@YA?AV?$_Deque_iterator@V?$ptr@VIGameState@Pegas@@@Pegas@@V?$allocator@V?$ptr@VIGameState@Pegas@@@Pegas@@@std@@$0A@@0@V?$_Deque_const_iterator@V?$ptr@VIGameState@Pegas@@@Pegas@@V?$allocator@V?$ptr@VIGameState@Pegas@@@Pegas@@@std@@$0A@@0@0V10@Uforward_iterator_tag@0@U_Nonscalar_ptr_iterator_tag@0@U_Range_checked_iterator_tag@0@@Z 00415b80 f i game_app.obj
 0001:00014cd0       ??5File@Pegas@@UAEAAVISerializer@1@AAG@Z 00415cd0 f i game_app.obj
 0001:00014d20       ??5File@Pegas@@UAEAAVISerializer@1@AAH@Z 00415d20 f i game_app.obj
 0001:00014d70       ??5File@Pegas@@UAEAAVISerializer@1@AAI@Z 00415d70 f i game_app.obj
 0001:00014dc0       ??5File@Pegas@@UAEAAVISerializer@1@AAM@Z 00415dc0 f i game_app.obj
 0001:00014e10       ??$_Debug_range@V?$_Deque_const_iterator@V?$ptr@VIGameState@Pegas@@@Pegas@@V?$allocator@V?$ptr@VIGameState@Pegas@@@Pegas@@@std@@$00@std@@@std@@YAXV?$_Deque_const_iterator@V?$ptr@VIGameState@Pegas@@@Pegas@@V?$allocator@V?$ptr@VIGameState@Pegas@@@Pegas@@@std@@$00@0@0PB_WI@Z 00415e10 f i game_app.obj
 0001:00014f00       ??5File@Pegas@@UAEAAVISerializer@1@AA_N@Z 00415f00 f i game_app.obj
 0001:00014f50       ??5File@Pegas@@UAEAAVISerializer@1@AAV?$basic_string@_WU?$char_traits@_W@std@@V?$allocator@_W@2@@std@@@Z 00415f50 f i game_app.obj
 0001:00014fa0       ??6File@Pegas@@UAEAAVISerializer@1@C@Z 00415fa0 f i game_app.obj
 0001:00014ff0       ??$_Debug_pointer@V?$_Deque_iterator@V?$ptr@VIGameState@Pegas@@@Pegas@@V?$allocator@V?$ptr@VIGameState@Pegas@@@Pegas@@@std@@$00@std@@@std@@YAXAAV?$_Deque_iterator@V?$ptr@VIGameState@Pegas@@@Pegas@@V?$allocator@V?$ptr@VIGameState@Pegas@@@Pegas@@@std@@$00@0@PB_WI@Z 00415ff0 f i game_app.obj
 0001:00015020       ??$_Checked_base@V?$_Deque_iterator@V?$ptr@VIGameState@Pegas@@@Pegas@@V?$allocator@V?$ptr@VIGameState@Pegas@@@Pegas@@@std@@$00@std@@U_Different_checked_iterator_base_type_tag@2@@std@@YA?AV?$_Deque_iterator@V?$ptr@VIGameState@Pegas@@@Pegas@@V?$allocator@V?$ptr@VIGameState@Pegas@@@Pegas@@@std@@$0A@@0@AAV?$_Deque_iterator@V?$ptr@VIGameState@Pegas@@@Pegas@@V?$allocator@V?$ptr@VIGameState@Pegas@@@Pegas@@@std@@$00@0@U_Different_checked_iterator_base_type_tag@0@@Z 00416020 f i game_app.obj
 0001:00015080       ??6File@Pegas@@UAEAAVISerializer@1@E@Z 00416080 f i game_app.obj
 0001:000150d0       ??$_Copy_backward_opt@V?$_Deque_iterator@V?$ptr@VIGameState@Pegas@@@Pegas@@V?$allocator@V?$ptr@VIGameState@Pegas@@@Pegas@@@std@@$0A@@std@@V12@Uforward_iterator_tag@2@@std@@YA?AV?$_Deque_iterator@V?$ptr@VIGameState@Pegas@@@Pegas@@V?$allocator@V?$ptr@VIGameState@Pegas@@@Pegas@@@std@@$0A@@0@V10@00Uforward_iterator_tag@0@U_Nonscalar_ptr_iterator_tag@0@U_Range_checked_iterator_tag@0@@Z 004160d0 f i game_app.obj
 0001:00015220       ??6File@Pegas@@UAEAAVISerializer@1@F@Z 00416220 f i game_app.obj
 0001:00015270       ??6File@Pegas@@UAEAAVISerializer@1@G@Z 00416270 f i game_app.obj
 0001:000152c0       ??6File@Pegas@@UAEAAVISerializer@1@H@Z 004162c0 f i game_app.obj
 0001:00015310       ??6File@Pegas@@UAEAAVISerializer@1@I@Z 00416310 f i game_app.obj
 0001:00015360       ??$_Copy_opt@V?$_Deque_iterator@V?$ptr@VIGameState@Pegas@@@Pegas@@V?$allocator@V?$ptr@VIGameState@Pegas@@@Pegas@@@std@@$0A@@std@@V12@Uforward_iterator_tag@2@@std@@YA?AV?$_Deque_iterator@V?$ptr@VIGameState@Pegas@@@Pegas@@V?$allocator@V?$ptr@VIGameState@Pegas@@@Pegas@@@std@@$0A@@0@V10@00Uforward_iterator_tag@0@U_Nonscalar_ptr_iterator_tag@0@U_Range_checked_iterator_tag@0@@Z 00416360 f i game_app.obj
 0001:000154b0       ??6File@Pegas@@UAEAAVISerializer@1@M@Z 004164b0 f i game_app.obj
 0001:00015500       ??6File@Pegas@@UAEAAVISerializer@1@_N@Z 00416500 f i game_app.obj
 0001:00015550       ??6File@Pegas@@UAEAAVISerializer@1@AAV?$basic_string@_WU?$char_traits@_W@std@@V?$allocator@_W@2@@std@@@Z 00416550 f i game_app.obj
 0001:000155a0       ??$_Checked_base@PAPAV?$ptr@VIGameState@Pegas@@@Pegas@@@std@@YAPAPAV?$ptr@VIGameState@Pegas@@@Pegas@@AAPAPAV12@U_Unchanged_checked_iterator_base_type_tag@0@@Z 004165a0 f i game_app.obj
 0001:000155d0       ??$_Debug_range@PAPAV?$ptr@VIGameState@Pegas@@@Pegas@@@std@@YAXPAPAV?$ptr@VIGameState@Pegas@@@Pegas@@0PB_WI@Z 004165d0 f i game_app.obj
 0001:00015640       ??$_Debug_pointer@PAV?$ptr@VIGameState@Pegas@@@Pegas@@@std@@YAXPAPAV?$ptr@VIGameState@Pegas@@@Pegas@@PB_WI@Z 00416640 f i game_app.obj
 0001:00015690       ??$unchecked_fill_n@PAPAV?$ptr@VIGameState@Pegas@@@Pegas@@IPAV12@@stdext@@YAXPAPAV?$ptr@VIGameState@Pegas@@@Pegas@@IABQAV12@@Z 00416690 f i game_app.obj
 0001:00015700       ??$_Iter_cat@Vconst_iterator@?$_Tree@V?$_Tmap_traits@HPAVTextureResource@Pegas@@U?$less@H@std@@V?$allocator@U?$pair@$$CBHPAVTextureResource@Pegas@@@std@@@4@$0A@@std@@@std@@@std@@YA?AUbidirectional_iterator_tag@0@ABVconst_iterator@?$_Tree@V?$_Tmap_traits@HPAVTextureResource@Pegas@@U?$less@H@std@@V?$allocator@U?$pair@$$CBHPAVTextureResource@Pegas@@@std@@@4@$0A@@std@@@0@@Z 00416700 f i game_app.obj
 0001:00015760       ??$_Distance2@Vconst_iterator@?$_Tree@V?$_Tmap_traits@HPAVTextureResource@Pegas@@U?$less@H@std@@V?$allocator@U?$pair@$$CBHPAVTextureResource@Pegas@@@std@@@4@$0A@@std@@@std@@I@std@@YAXVconst_iterator@?$_Tree@V?$_Tmap_traits@HPAVTextureResource@Pegas@@U?$less@H@std@@V?$allocator@U?$pair@$$CBHPAVTextureResource@Pegas@@@std@@@4@$0A@@std@@@0@0AAIUbidirectional_iterator_tag@0@@Z 00416760 f i game_app.obj
 0001:00015810       ??$_Iter_cat@Vconst_iterator@?$_Tree@V?$_Tmap_traits@HPAVFontResource@Pegas@@U?$less@H@std@@V?$allocator@U?$pair@$$CBHPAVFontResource@Pegas@@@std@@@4@$0A@@std@@@std@@@std@@YA?AUbidirectional_iterator_tag@0@ABVconst_iterator@?$_Tree@V?$_Tmap_traits@HPAVFontResource@Pegas@@U?$less@H@std@@V?$allocator@U?$pair@$$CBHPAVFontResource@Pegas@@@std@@@4@$0A@@std@@@0@@Z 00416810 f i game_app.obj
 0001:00015870       ??$_Distance2@Vconst_iterator@?$_Tree@V?$_Tmap_traits@HPAVFontResource@Pegas@@U?$less@H@std@@V?$allocator@U?$pair@$$CBHPAVFontResource@Pegas@@@std@@@4@$0A@@std@@@std@@I@std@@YAXVconst_iterator@?$_Tree@V?$_Tmap_traits@HPAVFontResource@Pegas@@U?$less@H@std@@V?$allocator@U?$pair@$$CBHPAVFontResource@Pegas@@@std@@@4@$0A@@std@@@0@0AAIUbidirectional_iterator_tag@0@@Z 00416870 f i game_app.obj
 0001:00015920       ?_Checked_iterator_base@?$_Deque_const_iterator@V?$ptr@VIGameState@Pegas@@@Pegas@@V?$allocator@V?$ptr@VIGameState@Pegas@@@Pegas@@@std@@$00@std@@QBE?AV?$_Deque_const_iterator@V?$ptr@VIGameState@Pegas@@@Pegas@@V?$allocator@V?$ptr@VIGameState@Pegas@@@Pegas@@@std@@$0A@@2@XZ 00416920 f i game_app.obj
 0001:00015a10       ?_Checked_iterator_base@?$_Deque_iterator@V?$ptr@VIGameState@Pegas@@@Pegas@@V?$allocator@V?$ptr@VIGameState@Pegas@@@Pegas@@@std@@$00@std@@QBE?AV?$_Deque_iterator@V?$ptr@VIGameState@Pegas@@@Pegas@@V?$allocator@V?$ptr@VIGameState@Pegas@@@Pegas@@@std@@$0A@@2@XZ 00416a10 f i game_app.obj
 0001:00015b00       ??D?$_Deque_const_iterator@V?$ptr@VIGameState@Pegas@@@Pegas@@V?$allocator@V?$ptr@VIGameState@Pegas@@@Pegas@@@std@@$0A@@std@@QBEABV?$ptr@VIGameState@Pegas@@@Pegas@@XZ 00416b00 f i game_app.obj
 0001:00015c10       ??E?$_Deque_const_iterator@V?$ptr@VIGameState@Pegas@@@Pegas@@V?$allocator@V?$ptr@VIGameState@Pegas@@@Pegas@@@std@@$0A@@std@@QAEAAV01@XZ 00416c10 f i game_app.obj
 0001:00015d60       ??1?$stack@V?$ptr@VIGameState@Pegas@@@Pegas@@V?$deque@V?$ptr@VIGameState@Pegas@@@Pegas@@V?$allocator@V?$ptr@VIGameState@Pegas@@@Pegas@@@std@@@std@@@std@@QAE@XZ 00416d60 f i game_app.obj
 0001:00015da0       ??0?$basic_string@DU?$char_traits@D@std@@V?$allocator@D@2@@std@@QAE@PBD@Z 00416da0 f i game_app.obj
 0001:00015e50       ??9?$_Deque_const_iterator@V?$ptr@VIGameState@Pegas@@@Pegas@@V?$allocator@V?$ptr@VIGameState@Pegas@@@Pegas@@@std@@$0A@@std@@QBE_NABV01@@Z 00416e50 f i game_app.obj
 0001:00015ea0       ??D?$_Deque_iterator@V?$ptr@VIGameState@Pegas@@@Pegas@@V?$allocator@V?$ptr@VIGameState@Pegas@@@Pegas@@@std@@$0A@@std@@QBEAAV?$ptr@VIGameState@Pegas@@@Pegas@@XZ 00416ea0 f i game_app.obj
 0001:00015ee0       ??E?$_Deque_iterator@V?$ptr@VIGameState@Pegas@@@Pegas@@V?$allocator@V?$ptr@VIGameState@Pegas@@@Pegas@@@std@@$0A@@std@@QAEAAV01@XZ 00416ee0 f i game_app.obj
 0001:00015f30       ??0?$basic_string@DU?$char_traits@D@std@@V?$allocator@D@2@@std@@QAE@ABV01@@Z 00416f30 f i game_app.obj
 0001:00015fd0       ??F?$_Deque_iterator@V?$ptr@VIGameState@Pegas@@@Pegas@@V?$allocator@V?$ptr@VIGameState@Pegas@@@Pegas@@@std@@$0A@@std@@QAEAAV01@XZ 00416fd0 f i game_app.obj
 0001:00016020       ??1?$basic_string@DU?$char_traits@D@std@@V?$allocator@D@2@@std@@QAE@XZ 00417020 f i game_app.obj
 0001:000160b0       ??0?$_Deque_const_iterator@V?$ptr@VIGameState@Pegas@@@Pegas@@V?$allocator@V?$ptr@VIGameState@Pegas@@@Pegas@@@std@@$0A@@std@@QAE@IPBV_Container_base_secure@1@@Z 004170b0 f i game_app.obj
 0001:000161b0       ??F?$_Deque_const_iterator@V?$ptr@VIGameState@Pegas@@@Pegas@@V?$allocator@V?$ptr@VIGameState@Pegas@@@Pegas@@@std@@$0A@@std@@QAEAAV01@XZ 004171b0 f i game_app.obj
 0001:000162e0       ?c_str@?$basic_string@DU?$char_traits@D@std@@V?$allocator@D@2@@std@@QBEPBDXZ 004172e0 f i game_app.obj
 0001:00016320       ?compare@?$basic_string@DU?$char_traits@D@std@@V?$allocator@D@2@@std@@QBEHABV12@@Z 00417320 f i game_app.obj
 0001:00016380       ?size@?$basic_string@DU?$char_traits@D@std@@V?$allocator@D@2@@std@@QBEIXZ 00417380 f i game_app.obj
 0001:000163b0       ??8?$_Deque_const_iterator@V?$ptr@VIGameState@Pegas@@@Pegas@@V?$allocator@V?$ptr@VIGameState@Pegas@@@Pegas@@@std@@$0A@@std@@QBE_NABV01@@Z 004173b0 f i game_app.obj
 0001:00016410       ??0?$_Deque_iterator@V?$ptr@VIGameState@Pegas@@@Pegas@@V?$allocator@V?$ptr@VIGameState@Pegas@@@Pegas@@@std@@$0A@@std@@QAE@IPBV_Container_base_secure@1@@Z 00417410 f i game_app.obj
 0001:00016460       ??$_Debug_range@V?$_Deque_const_iterator@V?$ptr@VIGameState@Pegas@@@Pegas@@V?$allocator@V?$ptr@VIGameState@Pegas@@@Pegas@@@std@@$0A@@std@@@std@@YAXV?$_Deque_const_iterator@V?$ptr@VIGameState@Pegas@@@Pegas@@V?$allocator@V?$ptr@VIGameState@Pegas@@@Pegas@@@std@@$0A@@0@0PB_WI@Z 00417460 f i game_app.obj
 0001:00016550       ??$_Debug_range2@V?$_Deque_const_iterator@V?$ptr@VIGameState@Pegas@@@Pegas@@V?$allocator@V?$ptr@VIGameState@Pegas@@@Pegas@@@std@@$00@std@@@std@@YAXV?$_Deque_const_iterator@V?$ptr@VIGameState@Pegas@@@Pegas@@V?$allocator@V?$ptr@VIGameState@Pegas@@@Pegas@@@std@@$00@0@0PB_WIUrandom_access_iterator_tag@0@@Z 00417550 f i game_app.obj
 0001:00016640       ??$_Debug_range@V?$_Deque_iterator@V?$ptr@VIGameState@Pegas@@@Pegas@@V?$allocator@V?$ptr@VIGameState@Pegas@@@Pegas@@@std@@$0A@@std@@@std@@YAXV?$_Deque_iterator@V?$ptr@VIGameState@Pegas@@@Pegas@@V?$allocator@V?$ptr@VIGameState@Pegas@@@Pegas@@@std@@$0A@@0@0PB_WI@Z 00417640 f i game_app.obj
 0001:00016730       ??$_Iter_cat@PAPAV?$ptr@VIGameState@Pegas@@@Pegas@@@std@@YA?AUrandom_access_iterator_tag@0@ABQAPAV?$ptr@VIGameState@Pegas@@@Pegas@@@Z 00417730 f i game_app.obj
 0001:00016790       ??$_Debug_range2@PAPAV?$ptr@VIGameState@Pegas@@@Pegas@@@std@@YAXPAPAV?$ptr@VIGameState@Pegas@@@Pegas@@0PB_WIUrandom_access_iterator_tag@0@@Z 00417790 f i game_app.obj
 0001:00016810       ??$_Fill_n@PAPAV?$ptr@VIGameState@Pegas@@@Pegas@@IPAV12@@std@@YAXPAPAV?$ptr@VIGameState@Pegas@@@Pegas@@IABQAV12@Urandom_access_iterator_tag@0@U_Range_checked_iterator_tag@0@@Z 00417810 f i game_app.obj
 0001:00016880       ??$_Iter_cat@V?$_Deque_const_iterator@V?$ptr@VIGameState@Pegas@@@Pegas@@V?$allocator@V?$ptr@VIGameState@Pegas@@@Pegas@@@std@@$0A@@std@@@std@@YA?AUrandom_access_iterator_tag@0@ABV?$_Deque_const_iterator@V?$ptr@VIGameState@Pegas@@@Pegas@@V?$allocator@V?$ptr@VIGameState@Pegas@@@Pegas@@@std@@$0A@@0@@Z 00417880 f i game_app.obj
 0001:000168e0       ??$_Debug_range2@V?$_Deque_const_iterator@V?$ptr@VIGameState@Pegas@@@Pegas@@V?$allocator@V?$ptr@VIGameState@Pegas@@@Pegas@@@std@@$0A@@std@@@std@@YAXV?$_Deque_const_iterator@V?$ptr@VIGameState@Pegas@@@Pegas@@V?$allocator@V?$ptr@VIGameState@Pegas@@@Pegas@@@std@@$0A@@0@0PB_WIUrandom_access_iterator_tag@0@@Z 004178e0 f i game_app.obj
 0001:000169d0       ??$_Debug_pointer@V?$_Deque_const_iterator@V?$ptr@VIGameState@Pegas@@@Pegas@@V?$allocator@V?$ptr@VIGameState@Pegas@@@Pegas@@@std@@$00@std@@@std@@YAXAAV?$_Deque_const_iterator@V?$ptr@VIGameState@Pegas@@@Pegas@@V?$allocator@V?$ptr@VIGameState@Pegas@@@Pegas@@@std@@$00@0@PB_WI@Z 004179d0 f i game_app.obj
 0001:00016a00       ??$_Iter_cat@V?$_Deque_iterator@V?$ptr@VIGameState@Pegas@@@Pegas@@V?$allocator@V?$ptr@VIGameState@Pegas@@@Pegas@@@std@@$0A@@std@@@std@@YA?AUrandom_access_iterator_tag@0@ABV?$_Deque_iterator@V?$ptr@VIGameState@Pegas@@@Pegas@@V?$allocator@V?$ptr@VIGameState@Pegas@@@Pegas@@@std@@$0A@@0@@Z 00417a00 f i game_app.obj
 0001:00016a60       ??$_Debug_range2@V?$_Deque_iterator@V?$ptr@VIGameState@Pegas@@@Pegas@@V?$allocator@V?$ptr@VIGameState@Pegas@@@Pegas@@@std@@$0A@@std@@@std@@YAXV?$_Deque_iterator@V?$ptr@VIGameState@Pegas@@@Pegas@@V?$allocator@V?$ptr@VIGameState@Pegas@@@Pegas@@@std@@$0A@@0@0PB_WIUrandom_access_iterator_tag@0@@Z 00417a60 f i game_app.obj
 0001:00016b50       ??$_Fill_n@PAPAV?$ptr@VIGameState@Pegas@@@Pegas@@IPAV12@@std@@YAXPAPAV?$ptr@VIGameState@Pegas@@@Pegas@@IABQAV12@U_Range_checked_iterator_tag@0@@Z 00417b50 f i game_app.obj
 0001:00016ba0       ??M?$_Deque_const_iterator@V?$ptr@VIGameState@Pegas@@@Pegas@@V?$allocator@V?$ptr@VIGameState@Pegas@@@Pegas@@@std@@$0A@@std@@QBE_NABV01@@Z 00417ba0 f i game_app.obj
 0001:00016c00       ??$_Debug_pointer@V?$_Deque_const_iterator@V?$ptr@VIGameState@Pegas@@@Pegas@@V?$allocator@V?$ptr@VIGameState@Pegas@@@Pegas@@@std@@$0A@@std@@@std@@YAXAAV?$_Deque_const_iterator@V?$ptr@VIGameState@Pegas@@@Pegas@@V?$allocator@V?$ptr@VIGameState@Pegas@@@Pegas@@@std@@$0A@@0@PB_WI@Z 00417c00 f i game_app.obj
 0001:00016c30       ??$_Debug_pointer@V?$_Deque_iterator@V?$ptr@VIGameState@Pegas@@@Pegas@@V?$allocator@V?$ptr@VIGameState@Pegas@@@Pegas@@@std@@$0A@@std@@@std@@YAXAAV?$_Deque_iterator@V?$ptr@VIGameState@Pegas@@@Pegas@@V?$allocator@V?$ptr@VIGameState@Pegas@@@Pegas@@@std@@$0A@@0@PB_WI@Z 00417c30 f i game_app.obj
 0001:00016c60       ??0?$basic_string@_WU?$char_traits@_W@std@@V?$allocator@_W@2@@std@@QAE@XZ 00417c60 f i game_app.obj
 0001:00016d00       ??0?$basic_string@_WU?$char_traits@_W@std@@V?$allocator@_W@2@@std@@QAE@PB_W@Z 00417d00 f i game_app.obj
 0001:00016db0       ??0?$basic_string@_WU?$char_traits@_W@std@@V?$allocator@_W@2@@std@@QAE@ABV01@@Z 00417db0 f i game_app.obj
 0001:00016e50       ??1?$basic_string@_WU?$char_traits@_W@std@@V?$allocator@_W@2@@std@@QAE@XZ 00417e50 f i game_app.obj
 0001:00016ee0       ?erase@?$basic_string@_WU?$char_traits@_W@std@@V?$allocator@_W@2@@std@@QAEAAV12@II@Z 00417ee0 f i game_app.obj
 0001:00016fb0       ?size@?$basic_string@_WU?$char_traits@_W@std@@V?$allocator@_W@2@@std@@QBEIXZ 00417fb0 f i game_app.obj
 0001:00016fe0       ?getInstance@?$Singleton@VOSUtils@Pegas@@@Pegas@@SAAAVOSUtils@2@XZ 00417fe0 f i game_app.obj
 0001:00017030       ??1?$ptr@VProcess@Pegas@@@Pegas@@QAE@XZ 00418030 f i game_app.obj
 0001:00017070       ??0?$stack@V?$ptr@VIGameState@Pegas@@@Pegas@@V?$deque@V?$ptr@VIGameState@Pegas@@@Pegas@@V?$allocator@V?$ptr@VIGameState@Pegas@@@Pegas@@@std@@@std@@@std@@QAE@XZ 00418070 f i game_app.obj
 0001:000170c0       ??1?$deque@V?$ptr@VIGameState@Pegas@@@Pegas@@V?$allocator@V?$ptr@VIGameState@Pegas@@@Pegas@@@std@@@std@@QAE@XZ 004180c0 f i game_app.obj
 0001:00017140       ??1?$_String_val@DV?$allocator@D@std@@@std@@QAE@XZ 00418140 f i game_app.obj
 0001:00017180       ??0bad_alloc@std@@QAE@ABV01@@Z 00418180 f i game_app.obj
 0001:000171e0       ??1?$_String_val@_WV?$allocator@_W@std@@@std@@QAE@XZ 004181e0 f i game_app.obj
 0001:00017220       ??1FontResourceCode@Pegas@@QAE@XZ 00418220 f i game_app.obj
 0001:00017260       ??1?$_Deque_val@V?$ptr@VIGameState@Pegas@@@Pegas@@V?$allocator@V?$ptr@VIGameState@Pegas@@@Pegas@@@std@@@std@@QAE@XZ 00418260 f i game_app.obj
 0001:000172a0       ??1_String_base@std@@QAE@XZ 004182a0 f i game_app.obj
 0001:000172e0       ??1_Container_base_secure@std@@QAE@XZ 004182e0 f i game_app.obj
 0001:00017320       ??1?$_Deque_map@V?$ptr@VIGameState@Pegas@@@Pegas@@V?$allocator@V?$ptr@VIGameState@Pegas@@@Pegas@@@std@@@std@@QAE@XZ 00418320 f i game_app.obj
 0001:00017360       ?assign@?$basic_string@DU?$char_traits@D@std@@V?$allocator@D@2@@std@@QAEAAV12@ABV12@II@Z 00418360 f i game_app.obj
 0001:00017440       ?assign@?$basic_string@DU?$char_traits@D@std@@V?$allocator@D@2@@std@@QAEAAV12@PBD@Z 00418440 f i game_app.obj
 0001:000174b0       ?length@?$char_traits@D@std@@SAIPBD@Z 004184b0 f i game_app.obj
 0001:000174f0       ?compare@?$basic_string@DU?$char_traits@D@std@@V?$allocator@D@2@@std@@QBEHIIPBDI@Z 004184f0 f i game_app.obj
 0001:00017600       ?compare@?$char_traits@D@std@@SAHPBD0I@Z 00418600 f i game_app.obj
 0001:00017650       ?_Tidy@?$basic_string@DU?$char_traits@D@std@@V?$allocator@D@2@@std@@IAEX_NI@Z 00418650 f i game_app.obj
 0001:00017700       ?_Myptr@?$basic_string@DU?$char_traits@D@std@@V?$allocator@D@2@@std@@IBEPBDXZ 00418700 f i game_app.obj
 0001:00017760       ??0?$_String_val@DV?$allocator@D@std@@@std@@IAE@V?$allocator@D@1@@Z 00418760 f i game_app.obj
 0001:000177c0       ??0?$_String_val@DV?$allocator@D@std@@@std@@QAE@ABV01@@Z 004187c0 f i game_app.obj
 0001:00017830       ??0?$allocator@D@std@@QAE@XZ 00418830 f i game_app.obj
 0001:00017860       ?assign@?$basic_string@_WU?$char_traits@_W@std@@V?$allocator@_W@2@@std@@QAEAAV12@ABV12@II@Z 00418860 f i game_app.obj
 0001:00017950       ?assign@?$basic_string@_WU?$char_traits@_W@std@@V?$allocator@_W@2@@std@@QAEAAV12@PB_W@Z 00418950 f i game_app.obj
 0001:000179c0       ?_Eos@?$basic_string@_WU?$char_traits@_W@std@@V?$allocator@_W@2@@std@@IAEXI@Z 004189c0 f i game_app.obj
 0001:00017a30       ?assign@?$char_traits@_W@std@@SAXAA_WAB_W@Z 00418a30 f i game_app.obj
 0001:00017a70       ?_Tidy@?$basic_string@_WU?$char_traits@_W@std@@V?$allocator@_W@2@@std@@IAEX_NI@Z 00418a70 f i game_app.obj
 0001:00017b20       ?_Myptr@?$basic_string@_WU?$char_traits@_W@std@@V?$allocator@_W@2@@std@@IAEPA_WXZ 00418b20 f i game_app.obj
 0001:00017b80       ?_Myptr@?$basic_string@_WU?$char_traits@_W@std@@V?$allocator@_W@2@@std@@IBEPB_WXZ 00418b80 f i game_app.obj
 0001:00017be0       ??0?$_String_val@_WV?$allocator@_W@std@@@std@@IAE@V?$allocator@_W@1@@Z 00418be0 f i game_app.obj
 0001:00017c40       ??0?$_String_val@_WV?$allocator@_W@std@@@std@@QAE@ABV01@@Z 00418c40 f i game_app.obj
 0001:00017cb0       ??0?$allocator@_W@std@@QAE@XZ 00418cb0 f i game_app.obj
 0001:00017ce0       ?release@?$ptr@VProcess@Pegas@@@Pegas@@AAEXXZ 00418ce0 f i game_app.obj
 0001:00017dc0       ??0?$deque@V?$ptr@VIGameState@Pegas@@@Pegas@@V?$allocator@V?$ptr@VIGameState@Pegas@@@Pegas@@@std@@@std@@QAE@XZ 00418dc0 f i game_app.obj
 0001:00017e40       ?_Tidy@?$deque@V?$ptr@VIGameState@Pegas@@@Pegas@@V?$allocator@V?$ptr@VIGameState@Pegas@@@Pegas@@@std@@@std@@IAEXXZ 00418e40 f i game_app.obj
 0001:00017f30       ??1?$_Container_base_aux_alloc_empty@V?$allocator@V?$ptr@VIGameState@Pegas@@@Pegas@@@std@@@std@@IAE@XZ 00418f30 f i game_app.obj
 0001:00017f70       ??0_String_base@std@@QAE@XZ 00418f70 f i game_app.obj
 0001:00017fc0       ??0_Container_base_secure@std@@QAE@XZ 00418fc0 f i game_app.obj
 0001:00018000       ??1iterator@?$_Tree@V?$_Tset_traits@PAVIKeyboardController@Pegas@@U?$less@PAVIKeyboardController@Pegas@@@std@@V?$allocator@PAVIKeyboardController@Pegas@@@4@$0A@@std@@@std@@QAE@XZ 00419000 f i game_app.obj
 0001:00018040       ??0const_iterator@?$_Tree@V?$_Tset_traits@PAVIKeyboardController@Pegas@@U?$less@PAVIKeyboardController@Pegas@@@std@@V?$allocator@PAVIKeyboardController@Pegas@@@4@$0A@@std@@@std@@QAE@ABV012@@Z 00419040 f i game_app.obj
 0001:000180a0       ??1const_iterator@?$_Tree@V?$_Tset_traits@PAVIKeyboardController@Pegas@@U?$less@PAVIKeyboardController@Pegas@@@std@@V?$allocator@PAVIKeyboardController@Pegas@@@4@$0A@@std@@@std@@QAE@XZ 004190a0 f i game_app.obj
 0001:000180e0       ??1iterator@?$_Tree@V?$_Tset_traits@PAVIMouseController@Pegas@@U?$less@PAVIMouseController@Pegas@@@std@@V?$allocator@PAVIMouseController@Pegas@@@4@$0A@@std@@@std@@QAE@XZ 004190e0 f i game_app.obj
 0001:00018120       ??0const_iterator@?$_Tree@V?$_Tset_traits@PAVIMouseController@Pegas@@U?$less@PAVIMouseController@Pegas@@@std@@V?$allocator@PAVIMouseController@Pegas@@@4@$0A@@std@@@std@@QAE@ABV012@@Z 00419120 f i game_app.obj
 0001:00018180       ??1const_iterator@?$_Tree@V?$_Tset_traits@PAVIMouseController@Pegas@@U?$less@PAVIMouseController@Pegas@@@std@@V?$allocator@PAVIMouseController@Pegas@@@4@$0A@@std@@@std@@QAE@XZ 00419180 f i game_app.obj
 0001:000181c0       ??1iterator@?$_Tree@V?$_Tmap_traits@HV?$ptr@VIGameState@Pegas@@@Pegas@@U?$less@H@std@@V?$allocator@U?$pair@$$CBHV?$ptr@VIGameState@Pegas@@@Pegas@@@std@@@4@$0A@@std@@@std@@QAE@XZ 004191c0 f i game_app.obj
 0001:00018200       ??0const_iterator@?$_Tree@V?$_Tmap_traits@HV?$ptr@VIGameState@Pegas@@@Pegas@@U?$less@H@std@@V?$allocator@U?$pair@$$CBHV?$ptr@VIGameState@Pegas@@@Pegas@@@std@@@4@$0A@@std@@@std@@QAE@ABV012@@Z 00419200 f i game_app.obj
 0001:00018260       ??1const_iterator@?$_Tree@V?$_Tmap_traits@HV?$ptr@VIGameState@Pegas@@@Pegas@@U?$less@H@std@@V?$allocator@U?$pair@$$CBHV?$ptr@VIGameState@Pegas@@@Pegas@@@std@@@4@$0A@@std@@@std@@QAE@XZ 00419260 f i game_app.obj
 0001:000182a0       ??0?$_Bidit@PAVIKeyboardController@Pegas@@HPBQAV12@ABQAV12@@std@@QAE@ABU01@@Z 004192a0 f i game_app.obj
 0001:000182f0       ??1?$_Bidit@PAVIKeyboardController@Pegas@@HPBQAV12@ABQAV12@@std@@QAE@XZ 004192f0 f i game_app.obj
 0001:00018330       ??0?$_Bidit@PAVIMouseController@Pegas@@HPBQAV12@ABQAV12@@std@@QAE@ABU01@@Z 00419330 f i game_app.obj
 0001:00018380       ??1?$_Bidit@PAVIMouseController@Pegas@@HPBQAV12@ABQAV12@@std@@QAE@XZ 00419380 f i game_app.obj
 0001:000183c0       ??0?$_Bidit@U?$pair@$$CBHV?$ptr@VIGameState@Pegas@@@Pegas@@@std@@HPBU12@ABU12@@std@@QAE@ABU01@@Z 004193c0 f i game_app.obj
 0001:00018410       ??1?$_Bidit@U?$pair@$$CBHV?$ptr@VIGameState@Pegas@@@Pegas@@@std@@HPBU12@ABU12@@std@@QAE@XZ 00419410 f i game_app.obj
 0001:00018450       ??0?$_Iterator_with_base@Ubidirectional_iterator_tag@std@@PAVIKeyboardController@Pegas@@HPBQAV34@ABQAV34@V_Iterator_base@2@@std@@QAE@ABU01@@Z 00419450 f i game_app.obj
 0001:000184a0       ??1?$_Iterator_with_base@Ubidirectional_iterator_tag@std@@PAVIKeyboardController@Pegas@@HPBQAV34@ABQAV34@V_Iterator_base@2@@std@@QAE@XZ 004194a0 f i game_app.obj
 0001:000184e0       ??0?$_Iterator_with_base@Ubidirectional_iterator_tag@std@@PAVIMouseController@Pegas@@HPBQAV34@ABQAV34@V_Iterator_base@2@@std@@QAE@ABU01@@Z 004194e0 f i game_app.obj
 0001:00018530       ??1?$_Iterator_with_base@Ubidirectional_iterator_tag@std@@PAVIMouseController@Pegas@@HPBQAV34@ABQAV34@V_Iterator_base@2@@std@@QAE@XZ 00419530 f i game_app.obj
 0001:00018570       ??0?$_Iterator_with_base@Ubidirectional_iterator_tag@std@@U?$pair@$$CBHV?$ptr@VIGameState@Pegas@@@Pegas@@@2@HPBU32@ABU32@V_Iterator_base@2@@std@@QAE@ABU01@@Z 00419570 f i game_app.obj
 0001:000185c0       ??1?$_Iterator_with_base@Ubidirectional_iterator_tag@std@@U?$pair@$$CBHV?$ptr@VIGameState@Pegas@@@Pegas@@@2@HPBU32@ABU32@V_Iterator_base@2@@std@@QAE@XZ 004195c0 f i game_app.obj
 0001:00018600       ?assign@?$basic_string@DU?$char_traits@D@std@@V?$allocator@D@2@@std@@QAEAAV12@PBDI@Z 00419600 f i game_app.obj
 0001:000186d0       ?erase@?$basic_string@DU?$char_traits@D@std@@V?$allocator@D@2@@std@@QAEAAV12@II@Z 004196d0 f i game_app.obj
 0001:00018790       ?_Eos@?$basic_string@DU?$char_traits@D@std@@V?$allocator@D@2@@std@@IAEXI@Z 00419790 f i game_app.obj
 0001:00018800       ?assign@?$char_traits@D@std@@SAXAADABD@Z 00419800 f i game_app.obj
 0001:00018830       ?_Grow@?$basic_string@DU?$char_traits@D@std@@V?$allocator@D@2@@std@@IAE_NI_N@Z 00419830 f i game_app.obj
 0001:00018900       ?_Myptr@?$basic_string@DU?$char_traits@D@std@@V?$allocator@D@2@@std@@IAEPADXZ 00419900 f i game_app.obj
 0001:00018960       ??0?$allocator@D@std@@QAE@ABV01@@Z 00419960 f i game_app.obj
 0001:00018990       ?deallocate@?$allocator@D@std@@QAEXPADI@Z 00419990 f i game_app.obj
 0001:000189e0       ?assign@?$basic_string@_WU?$char_traits@_W@std@@V?$allocator@_W@2@@std@@QAEAAV12@PB_WI@Z 004199e0 f i game_app.obj
 0001:00018ab0       ?_Grow@?$basic_string@_WU?$char_traits@_W@std@@V?$allocator@_W@2@@std@@IAE_NI_N@Z 00419ab0 f i game_app.obj
 0001:00018b80       ??0?$allocator@_W@std@@QAE@ABV01@@Z 00419b80 f i game_app.obj
 0001:00018bb0       ?deallocate@?$allocator@_W@std@@QAEXPA_WI@Z 00419bb0 f i game_app.obj
 0001:00018c00       ?_Left@?$_Tree@V?$_Tset_traits@PAVIKeyboardController@Pegas@@U?$less@PAVIKeyboardController@Pegas@@@std@@V?$allocator@PAVIKeyboardController@Pegas@@@4@$0A@@std@@@std@@KAAAPAU_Node@?$_Tree_nod@V?$_Tset_traits@PAVIKeyboardController@Pegas@@U?$less@PAVIKeyboardController@Pegas@@@std@@V?$allocator@PAVIKeyboardController@Pegas@@@4@$0A@@std@@@2@PAU342@@Z 00419c00 f i game_app.obj
 0001:00018c30       ?_Parent@?$_Tree@V?$_Tset_traits@PAVIKeyboardController@Pegas@@U?$less@PAVIKeyboardController@Pegas@@@std@@V?$allocator@PAVIKeyboardController@Pegas@@@4@$0A@@std@@@std@@KAAAPAU_Node@?$_Tree_nod@V?$_Tset_traits@PAVIKeyboardController@Pegas@@U?$less@PAVIKeyboardController@Pegas@@@std@@V?$allocator@PAVIKeyboardController@Pegas@@@4@$0A@@std@@@2@PAU342@@Z 00419c30 f i game_app.obj
 0001:00018c60       ?_Right@?$_Tree@V?$_Tset_traits@PAVIKeyboardController@Pegas@@U?$less@PAVIKeyboardController@Pegas@@@std@@V?$allocator@PAVIKeyboardController@Pegas@@@4@$0A@@std@@@std@@KAAAPAU_Node@?$_Tree_nod@V?$_Tset_traits@PAVIKeyboardController@Pegas@@U?$less@PAVIKeyboardController@Pegas@@@std@@V?$allocator@PAVIKeyboardController@Pegas@@@4@$0A@@std@@@2@PAU342@@Z 00419c60 f i game_app.obj
 0001:00018c90       ?begin@?$_Tree@V?$_Tset_traits@PAVIKeyboardController@Pegas@@U?$less@PAVIKeyboardController@Pegas@@@std@@V?$allocator@PAVIKeyboardController@Pegas@@@4@$0A@@std@@@std@@QAE?AViterator@12@XZ 00419c90 f i game_app.obj
 0001:00018d00       ?end@?$_Tree@V?$_Tset_traits@PAVIKeyboardController@Pegas@@U?$less@PAVIKeyboardController@Pegas@@@std@@V?$allocator@PAVIKeyboardController@Pegas@@@4@$0A@@std@@@std@@QAE?AViterator@12@XZ 00419d00 f i game_app.obj
 0001:00018d70       ?erase@?$_Tree@V?$_Tset_traits@PAVIKeyboardController@Pegas@@U?$less@PAVIKeyboardController@Pegas@@@std@@V?$allocator@PAVIKeyboardController@Pegas@@@4@$0A@@std@@@std@@QAE?AViterator@12@Vconst_iterator@12@0@Z 00419d70 f i game_app.obj
 0001:00019000       ?deallocate@?$allocator@U_Node@?$_Tree_nod@V?$_Tset_traits@PAVIKeyboardController@Pegas@@U?$less@PAVIKeyboardController@Pegas@@@std@@V?$allocator@PAVIKeyboardController@Pegas@@@4@$0A@@std@@@std@@@std@@QAEXPAU_Node@?$_Tree_nod@V?$_Tset_traits@PAVIKeyboardController@Pegas@@U?$less@PAVIKeyboardController@Pegas@@@std@@V?$allocator@PAVIKeyboardController@Pegas@@@4@$0A@@std@@@2@I@Z 0041a000 f i game_app.obj
 0001:00019050       ?_Left@?$_Tree@V?$_Tset_traits@PAVIMouseController@Pegas@@U?$less@PAVIMouseController@Pegas@@@std@@V?$allocator@PAVIMouseController@Pegas@@@4@$0A@@std@@@std@@KAAAPAU_Node@?$_Tree_nod@V?$_Tset_traits@PAVIMouseController@Pegas@@U?$less@PAVIMouseController@Pegas@@@std@@V?$allocator@PAVIMouseController@Pegas@@@4@$0A@@std@@@2@PAU342@@Z 0041a050 f i game_app.obj
 0001:00019080       ?_Parent@?$_Tree@V?$_Tset_traits@PAVIMouseController@Pegas@@U?$less@PAVIMouseController@Pegas@@@std@@V?$allocator@PAVIMouseController@Pegas@@@4@$0A@@std@@@std@@KAAAPAU_Node@?$_Tree_nod@V?$_Tset_traits@PAVIMouseController@Pegas@@U?$less@PAVIMouseController@Pegas@@@std@@V?$allocator@PAVIMouseController@Pegas@@@4@$0A@@std@@@2@PAU342@@Z 0041a080 f i game_app.obj
 0001:000190b0       ?_Right@?$_Tree@V?$_Tset_traits@PAVIMouseController@Pegas@@U?$less@PAVIMouseController@Pegas@@@std@@V?$allocator@PAVIMouseController@Pegas@@@4@$0A@@std@@@std@@KAAAPAU_Node@?$_Tree_nod@V?$_Tset_traits@PAVIMouseController@Pegas@@U?$less@PAVIMouseController@Pegas@@@std@@V?$allocator@PAVIMouseController@Pegas@@@4@$0A@@std@@@2@PAU342@@Z 0041a0b0 f i game_app.obj
 0001:000190e0       ?begin@?$_Tree@V?$_Tset_traits@PAVIMouseController@Pegas@@U?$less@PAVIMouseController@Pegas@@@std@@V?$allocator@PAVIMouseController@Pegas@@@4@$0A@@std@@@std@@QAE?AViterator@12@XZ 0041a0e0 f i game_app.obj
 0001:00019150       ?end@?$_Tree@V?$_Tset_traits@PAVIMouseController@Pegas@@U?$less@PAVIMouseController@Pegas@@@std@@V?$allocator@PAVIMouseController@Pegas@@@4@$0A@@std@@@std@@QAE?AViterator@12@XZ 0041a150 f i game_app.obj
 0001:000191c0       ?erase@?$_Tree@V?$_Tset_traits@PAVIMouseController@Pegas@@U?$less@PAVIMouseController@Pegas@@@std@@V?$allocator@PAVIMouseController@Pegas@@@4@$0A@@std@@@std@@QAE?AViterator@12@Vconst_iterator@12@0@Z 0041a1c0 f i game_app.obj
 0001:00019450       ?deallocate@?$allocator@U_Node@?$_Tree_nod@V?$_Tset_traits@PAVIMouseController@Pegas@@U?$less@PAVIMouseController@Pegas@@@std@@V?$allocator@PAVIMouseController@Pegas@@@4@$0A@@std@@@std@@@std@@QAEXPAU_Node@?$_Tree_nod@V?$_Tset_traits@PAVIMouseController@Pegas@@U?$less@PAVIMouseController@Pegas@@@std@@V?$allocator@PAVIMouseController@Pegas@@@4@$0A@@std@@@2@I@Z 0041a450 f i game_app.obj
 0001:000194a0       ?_Left@?$_Tree@V?$_Tmap_traits@HV?$ptr@VIGameState@Pegas@@@Pegas@@U?$less@H@std@@V?$allocator@U?$pair@$$CBHV?$ptr@VIGameState@Pegas@@@Pegas@@@std@@@4@$0A@@std@@@std@@KAAAPAU_Node@?$_Tree_nod@V?$_Tmap_traits@HV?$ptr@VIGameState@Pegas@@@Pegas@@U?$less@H@std@@V?$allocator@U?$pair@$$CBHV?$ptr@VIGameState@Pegas@@@Pegas@@@std@@@4@$0A@@std@@@2@PAU342@@Z 0041a4a0 f i game_app.obj
 0001:000194d0       ?_Parent@?$_Tree@V?$_Tmap_traits@HV?$ptr@VIGameState@Pegas@@@Pegas@@U?$less@H@std@@V?$allocator@U?$pair@$$CBHV?$ptr@VIGameState@Pegas@@@Pegas@@@std@@@4@$0A@@std@@@std@@KAAAPAU_Node@?$_Tree_nod@V?$_Tmap_traits@HV?$ptr@VIGameState@Pegas@@@Pegas@@U?$less@H@std@@V?$allocator@U?$pair@$$CBHV?$ptr@VIGameState@Pegas@@@Pegas@@@std@@@4@$0A@@std@@@2@PAU342@@Z 0041a4d0 f i game_app.obj
 0001:00019500       ?_Right@?$_Tree@V?$_Tmap_traits@HV?$ptr@VIGameState@Pegas@@@Pegas@@U?$less@H@std@@V?$allocator@U?$pair@$$CBHV?$ptr@VIGameState@Pegas@@@Pegas@@@std@@@4@$0A@@std@@@std@@KAAAPAU_Node@?$_Tree_nod@V?$_Tmap_traits@HV?$ptr@VIGameState@Pegas@@@Pegas@@U?$less@H@std@@V?$allocator@U?$pair@$$CBHV?$ptr@VIGameState@Pegas@@@Pegas@@@std@@@4@$0A@@std@@@2@PAU342@@Z 0041a500 f i game_app.obj
 0001:00019530       ?begin@?$_Tree@V?$_Tmap_traits@HV?$ptr@VIGameState@Pegas@@@Pegas@@U?$less@H@std@@V?$allocator@U?$pair@$$CBHV?$ptr@VIGameState@Pegas@@@Pegas@@@std@@@4@$0A@@std@@@std@@QAE?AViterator@12@XZ 0041a530 f i game_app.obj
 0001:000195a0       ?end@?$_Tree@V?$_Tmap_traits@HV?$ptr@VIGameState@Pegas@@@Pegas@@U?$less@H@std@@V?$allocator@U?$pair@$$CBHV?$ptr@VIGameState@Pegas@@@Pegas@@@std@@@4@$0A@@std@@@std@@QAE?AViterator@12@XZ 0041a5a0 f i game_app.obj
 0001:00019610       ?erase@?$_Tree@V?$_Tmap_traits@HV?$ptr@VIGameState@Pegas@@@Pegas@@U?$less@H@std@@V?$allocator@U?$pair@$$CBHV?$ptr@VIGameState@Pegas@@@Pegas@@@std@@@4@$0A@@std@@@std@@QAE?AViterator@12@Vconst_iterator@12@0@Z 0041a610 f i game_app.obj
 0001:000198a0       ?deallocate@?$allocator@U_Node@?$_Tree_nod@V?$_Tmap_traits@HV?$ptr@VIGameState@Pegas@@@Pegas@@U?$less@H@std@@V?$allocator@U?$pair@$$CBHV?$ptr@VIGameState@Pegas@@@Pegas@@@std@@@4@$0A@@std@@@std@@@std@@QAEXPAU_Node@?$_Tree_nod@V?$_Tmap_traits@HV?$ptr@VIGameState@Pegas@@@Pegas@@U?$less@H@std@@V?$allocator@U?$pair@$$CBHV?$ptr@VIGameState@Pegas@@@Pegas@@@std@@@4@$0A@@std@@@2@I@Z 0041a8a0 f i game_app.obj
 0001:000198f0       ?empty@?$deque@V?$ptr@VIGameState@Pegas@@@Pegas@@V?$allocator@V?$ptr@VIGameState@Pegas@@@Pegas@@@std@@@std@@QBE_NXZ 0041a8f0 f i game_app.obj
 0001:00019930       ?pop_back@?$deque@V?$ptr@VIGameState@Pegas@@@Pegas@@V?$allocator@V?$ptr@VIGameState@Pegas@@@Pegas@@@std@@@std@@QAEXXZ 0041a930 f i game_app.obj
 0001:00019a30       ??0?$_Deque_val@V?$ptr@VIGameState@Pegas@@@Pegas@@V?$allocator@V?$ptr@VIGameState@Pegas@@@Pegas@@@std@@@std@@IAE@V?$allocator@V?$ptr@VIGameState@Pegas@@@Pegas@@@1@@Z 0041aa30 f i game_app.obj
 0001:00019aa0       ??0?$allocator@V?$ptr@VIGameState@Pegas@@@Pegas@@@std@@QAE@XZ 0041aaa0 f i game_app.obj
 0001:00019ad0       ?deallocate@?$allocator@V?$ptr@VIGameState@Pegas@@@Pegas@@@std@@QAEXPAV?$ptr@VIGameState@Pegas@@@Pegas@@I@Z 0041aad0 f i game_app.obj
 0001:00019b20       ?deallocate@?$allocator@PAV?$ptr@VIGameState@Pegas@@@Pegas@@@std@@QAEXPAPAV?$ptr@VIGameState@Pegas@@@Pegas@@I@Z 0041ab20 f i game_app.obj
 0001:00019b70       ?destroy@?$allocator@PAV?$ptr@VIGameState@Pegas@@@Pegas@@@std@@QAEXPAPAV?$ptr@VIGameState@Pegas@@@Pegas@@@Z 0041ab70 f i game_app.obj
 0001:00019bc0       ?_Nextnode@?$list@V?$ptr@VFile@Pegas@@@Pegas@@V?$allocator@V?$ptr@VFile@Pegas@@@Pegas@@@std@@@std@@KAAAPAU_Node@?$_List_nod@V?$ptr@VFile@Pegas@@@Pegas@@V?$allocator@V?$ptr@VFile@Pegas@@@Pegas@@@std@@@2@PAU342@@Z 0041abc0 f i game_app.obj
 0001:00019bf0       ?_Prevnode@?$list@V?$ptr@VFile@Pegas@@@Pegas@@V?$allocator@V?$ptr@VFile@Pegas@@@Pegas@@@std@@@std@@KAAAPAU_Node@?$_List_nod@V?$ptr@VFile@Pegas@@@Pegas@@V?$allocator@V?$ptr@VFile@Pegas@@@Pegas@@@std@@@2@PAU342@@Z 0041abf0 f i game_app.obj
 0001:00019c20       ?clear@?$list@V?$ptr@VFile@Pegas@@@Pegas@@V?$allocator@V?$ptr@VFile@Pegas@@@Pegas@@@std@@@std@@QAEXXZ 0041ac20 f i game_app.obj
 0001:00019d00       ?deallocate@?$allocator@U_Node@?$_List_nod@V?$ptr@VFile@Pegas@@@Pegas@@V?$allocator@V?$ptr@VFile@Pegas@@@Pegas@@@std@@@std@@@std@@QAEXPAU_Node@?$_List_nod@V?$ptr@VFile@Pegas@@@Pegas@@V?$allocator@V?$ptr@VFile@Pegas@@@Pegas@@@std@@@2@I@Z 0041ad00 f i game_app.obj
 0001:00019d50       ?allocate@?$allocator@U_Node@?$_List_nod@V?$ptr@VFile@Pegas@@@Pegas@@V?$allocator@V?$ptr@VFile@Pegas@@@Pegas@@@std@@@std@@@std@@QAEPAU_Node@?$_List_nod@V?$ptr@VFile@Pegas@@@Pegas@@V?$allocator@V?$ptr@VFile@Pegas@@@Pegas@@@std@@@2@I@Z 0041ad50 f i game_app.obj
 0001:00019da0       ?construct@?$allocator@PAU_Node@?$_List_nod@V?$ptr@VFile@Pegas@@@Pegas@@V?$allocator@V?$ptr@VFile@Pegas@@@Pegas@@@std@@@std@@@std@@QAEXPAPAU_Node@?$_List_nod@V?$ptr@VFile@Pegas@@@Pegas@@V?$allocator@V?$ptr@VFile@Pegas@@@Pegas@@@std@@@2@ABQAU342@@Z 0041ada0 f i game_app.obj
 0001:00019df0       ?destroy@?$allocator@PAU_Node@?$_List_nod@V?$ptr@VFile@Pegas@@@Pegas@@V?$allocator@V?$ptr@VFile@Pegas@@@Pegas@@@std@@@std@@@std@@QAEXPAPAU_Node@?$_List_nod@V?$ptr@VFile@Pegas@@@Pegas@@V?$allocator@V?$ptr@VFile@Pegas@@@Pegas@@@std@@@2@@Z 0041adf0 f i game_app.obj
 0001:00019e40       ??0length_error@std@@QAE@ABV01@@Z 0041ae40 f i game_app.obj
 0001:00019ea0       ??1iterator@?$_Tree@V?$_Tmap_traits@HPAVTextureResource@Pegas@@U?$less@H@std@@V?$allocator@U?$pair@$$CBHPAVTextureResource@Pegas@@@std@@@4@$0A@@std@@@std@@QAE@XZ 0041aea0 f i game_app.obj
 0001:00019ee0       ??0const_iterator@?$_Tree@V?$_Tmap_traits@HPAVTextureResource@Pegas@@U?$less@H@std@@V?$allocator@U?$pair@$$CBHPAVTextureResource@Pegas@@@std@@@4@$0A@@std@@@std@@QAE@ABV012@@Z 0041aee0 f i game_app.obj
 0001:00019f40       ??1const_iterator@?$_Tree@V?$_Tmap_traits@HPAVTextureResource@Pegas@@U?$less@H@std@@V?$allocator@U?$pair@$$CBHPAVTextureResource@Pegas@@@std@@@4@$0A@@std@@@std@@QAE@XZ 0041af40 f i game_app.obj
 0001:00019f80       ??1iterator@?$_Tree@V?$_Tmap_traits@HPAVFontResource@Pegas@@U?$less@H@std@@V?$allocator@U?$pair@$$CBHPAVFontResource@Pegas@@@std@@@4@$0A@@std@@@std@@QAE@XZ 0041af80 f i game_app.obj
 0001:00019fc0       ??0const_iterator@?$_Tree@V?$_Tmap_traits@HPAVFontResource@Pegas@@U?$less@H@std@@V?$allocator@U?$pair@$$CBHPAVFontResource@Pegas@@@std@@@4@$0A@@std@@@std@@QAE@ABV012@@Z 0041afc0 f i game_app.obj
 0001:0001a020       ??1const_iterator@?$_Tree@V?$_Tmap_traits@HPAVFontResource@Pegas@@U?$less@H@std@@V?$allocator@U?$pair@$$CBHPAVFontResource@Pegas@@@std@@@4@$0A@@std@@@std@@QAE@XZ 0041b020 f i game_app.obj
 0001:0001a060       ??0?$_Bidit@U?$pair@$$CBHPAVTextureResource@Pegas@@@std@@HPBU12@ABU12@@std@@QAE@ABU01@@Z 0041b060 f i game_app.obj
 0001:0001a0b0       ??1?$_Bidit@U?$pair@$$CBHPAVTextureResource@Pegas@@@std@@HPBU12@ABU12@@std@@QAE@XZ 0041b0b0 f i game_app.obj
 0001:0001a0f0       ??0?$_Bidit@U?$pair@$$CBHPAVFontResource@Pegas@@@std@@HPBU12@ABU12@@std@@QAE@ABU01@@Z 0041b0f0 f i game_app.obj
 0001:0001a140       ??1?$_Bidit@U?$pair@$$CBHPAVFontResource@Pegas@@@std@@HPBU12@ABU12@@std@@QAE@XZ 0041b140 f i game_app.obj
 0001:0001a180       ??0?$_Iterator_with_base@Ubidirectional_iterator_tag@std@@U?$pair@$$CBHPAVTextureResource@Pegas@@@2@HPBU32@ABU32@V_Iterator_base@2@@std@@QAE@ABU01@@Z 0041b180 f i game_app.obj
 0001:0001a1d0       ??1?$_Iterator_with_base@Ubidirectional_iterator_tag@std@@U?$pair@$$CBHPAVTextureResource@Pegas@@@2@HPBU32@ABU32@V_Iterator_base@2@@std@@QAE@XZ 0041b1d0 f i game_app.obj
 0001:0001a210       ??0?$_Iterator_with_base@Ubidirectional_iterator_tag@std@@U?$pair@$$CBHPAVFontResource@Pegas@@@2@HPBU32@ABU32@V_Iterator_base@2@@std@@QAE@ABU01@@Z 0041b210 f i game_app.obj
 0001:0001a260       ??1?$_Iterator_with_base@Ubidirectional_iterator_tag@std@@U?$pair@$$CBHPAVFontResource@Pegas@@@2@HPBU32@ABU32@V_Iterator_base@2@@std@@QAE@XZ 0041b260 f i game_app.obj
 0001:0001a2a0       ?max_size@?$basic_string@DU?$char_traits@D@std@@V?$allocator@D@2@@std@@QBEIXZ 0041b2a0 f i game_app.obj
 0001:0001a310       ?_Copy@?$basic_string@DU?$char_traits@D@std@@V?$allocator@D@2@@std@@IAEXII@Z 0041b310 f i game_app.obj
 0001:0001a4d0       ?_Inside@?$basic_string@DU?$char_traits@D@std@@V?$allocator@D@2@@std@@IAE_NPBD@Z 0041b4d0 f i game_app.obj
 0001:0001a540       ?max_size@?$basic_string@_WU?$char_traits@_W@std@@V?$allocator@_W@2@@std@@QBEIXZ 0041b540 f i game_app.obj
 0001:0001a5b0       ?_Copy@?$basic_string@_WU?$char_traits@_W@std@@V?$allocator@_W@2@@std@@IAEXII@Z 0041b5b0 f i game_app.obj
 0001:0001a770       ?_Inside@?$basic_string@_WU?$char_traits@_W@std@@V?$allocator@_W@2@@std@@IAE_NPB_W@Z 0041b770 f i game_app.obj
 0001:0001a7e0       ?_Isnil@?$_Tree@V?$_Tset_traits@PAVIKeyboardController@Pegas@@U?$less@PAVIKeyboardController@Pegas@@@std@@V?$allocator@PAVIKeyboardController@Pegas@@@4@$0A@@std@@@std@@KAAADPAU_Node@?$_Tree_nod@V?$_Tset_traits@PAVIKeyboardController@Pegas@@U?$less@PAVIKeyboardController@Pegas@@@std@@V?$allocator@PAVIKeyboardController@Pegas@@@4@$0A@@std@@@2@@Z 0041b7e0 f i game_app.obj
 0001:0001a810       ?_Make_iter@?$_Tree@V?$_Tset_traits@PAVIKeyboardController@Pegas@@U?$less@PAVIKeyboardController@Pegas@@@std@@V?$allocator@PAVIKeyboardController@Pegas@@@4@$0A@@std@@@std@@QBE?AViterator@12@Vconst_iterator@12@@Z 0041b810 f i game_app.obj
 0001:0001a8f0       ?erase@?$_Tree@V?$_Tset_traits@PAVIKeyboardController@Pegas@@U?$less@PAVIKeyboardController@Pegas@@@std@@V?$allocator@PAVIKeyboardController@Pegas@@@4@$0A@@std@@@std@@QAE?AViterator@12@Vconst_iterator@12@@Z 0041b8f0 f i game_app.obj
 0001:0001b140       ?clear@?$_Tree@V?$_Tset_traits@PAVIKeyboardController@Pegas@@U?$less@PAVIKeyboardController@Pegas@@@std@@V?$allocator@PAVIKeyboardController@Pegas@@@4@$0A@@std@@@std@@QAEXXZ 0041c140 f i game_app.obj
 0001:0001b1e0       ?_Lmost@?$_Tree@V?$_Tset_traits@PAVIKeyboardController@Pegas@@U?$less@PAVIKeyboardController@Pegas@@@std@@V?$allocator@PAVIKeyboardController@Pegas@@@4@$0A@@std@@@std@@IBEAAPAU_Node@?$_Tree_nod@V?$_Tset_traits@PAVIKeyboardController@Pegas@@U?$less@PAVIKeyboardController@Pegas@@@std@@V?$allocator@PAVIKeyboardController@Pegas@@@4@$0A@@std@@@2@XZ 0041c1e0 f i game_app.obj
 0001:0001b230       ?_Rmost@?$_Tree@V?$_Tset_traits@PAVIKeyboardController@Pegas@@U?$less@PAVIKeyboardController@Pegas@@@std@@V?$allocator@PAVIKeyboardController@Pegas@@@4@$0A@@std@@@std@@IBEAAPAU_Node@?$_Tree_nod@V?$_Tset_traits@PAVIKeyboardController@Pegas@@U?$less@PAVIKeyboardController@Pegas@@@std@@V?$allocator@PAVIKeyboardController@Pegas@@@4@$0A@@std@@@2@XZ 0041c230 f i game_app.obj
 0001:0001b280       ?_Root@?$_Tree@V?$_Tset_traits@PAVIKeyboardController@Pegas@@U?$less@PAVIKeyboardController@Pegas@@@std@@V?$allocator@PAVIKeyboardController@Pegas@@@4@$0A@@std@@@std@@IBEAAPAU_Node@?$_Tree_nod@V?$_Tset_traits@PAVIKeyboardController@Pegas@@U?$less@PAVIKeyboardController@Pegas@@@std@@V?$allocator@PAVIKeyboardController@Pegas@@@4@$0A@@std@@@2@XZ 0041c280 f i game_app.obj
 0001:0001b2d0       ?_Isnil@?$_Tree@V?$_Tset_traits@PAVIMouseController@Pegas@@U?$less@PAVIMouseController@Pegas@@@std@@V?$allocator@PAVIMouseController@Pegas@@@4@$0A@@std@@@std@@KAAADPAU_Node@?$_Tree_nod@V?$_Tset_traits@PAVIMouseController@Pegas@@U?$less@PAVIMouseController@Pegas@@@std@@V?$allocator@PAVIMouseController@Pegas@@@4@$0A@@std@@@2@@Z 0041c2d0 f i game_app.obj
 0001:0001b300       ?_Make_iter@?$_Tree@V?$_Tset_traits@PAVIMouseController@Pegas@@U?$less@PAVIMouseController@Pegas@@@std@@V?$allocator@PAVIMouseController@Pegas@@@4@$0A@@std@@@std@@QBE?AViterator@12@Vconst_iterator@12@@Z 0041c300 f i game_app.obj
 0001:0001b3e0       ?erase@?$_Tree@V?$_Tset_traits@PAVIMouseController@Pegas@@U?$less@PAVIMouseController@Pegas@@@std@@V?$allocator@PAVIMouseController@Pegas@@@4@$0A@@std@@@std@@QAE?AViterator@12@Vconst_iterator@12@@Z 0041c3e0 f i game_app.obj
 0001:0001bc30       ?clear@?$_Tree@V?$_Tset_traits@PAVIMouseController@Pegas@@U?$less@PAVIMouseController@Pegas@@@std@@V?$allocator@PAVIMouseController@Pegas@@@4@$0A@@std@@@std@@QAEXXZ 0041cc30 f i game_app.obj
 0001:0001bcd0       ?_Lmost@?$_Tree@V?$_Tset_traits@PAVIMouseController@Pegas@@U?$less@PAVIMouseController@Pegas@@@std@@V?$allocator@PAVIMouseController@Pegas@@@4@$0A@@std@@@std@@IBEAAPAU_Node@?$_Tree_nod@V?$_Tset_traits@PAVIMouseController@Pegas@@U?$less@PAVIMouseController@Pegas@@@std@@V?$allocator@PAVIMouseController@Pegas@@@4@$0A@@std@@@2@XZ 0041ccd0 f i game_app.obj
 0001:0001bd20       ?_Rmost@?$_Tree@V?$_Tset_traits@PAVIMouseController@Pegas@@U?$less@PAVIMouseController@Pegas@@@std@@V?$allocator@PAVIMouseController@Pegas@@@4@$0A@@std@@@std@@IBEAAPAU_Node@?$_Tree_nod@V?$_Tset_traits@PAVIMouseController@Pegas@@U?$less@PAVIMouseController@Pegas@@@std@@V?$allocator@PAVIMouseController@Pegas@@@4@$0A@@std@@@2@XZ 0041cd20 f i game_app.obj
 0001:0001bd70       ?_Root@?$_Tree@V?$_Tset_traits@PAVIMouseController@Pegas@@U?$less@PAVIMouseController@Pegas@@@std@@V?$allocator@PAVIMouseController@Pegas@@@4@$0A@@std@@@std@@IBEAAPAU_Node@?$_Tree_nod@V?$_Tset_traits@PAVIMouseController@Pegas@@U?$less@PAVIMouseController@Pegas@@@std@@V?$allocator@PAVIMouseController@Pegas@@@4@$0A@@std@@@2@XZ 0041cd70 f i game_app.obj
 0001:0001bdc0       ?_Isnil@?$_Tree@V?$_Tmap_traits@HV?$ptr@VIGameState@Pegas@@@Pegas@@U?$less@H@std@@V?$allocator@U?$pair@$$CBHV?$ptr@VIGameState@Pegas@@@Pegas@@@std@@@4@$0A@@std@@@std@@KAAADPAU_Node@?$_Tree_nod@V?$_Tmap_traits@HV?$ptr@VIGameState@Pegas@@@Pegas@@U?$less@H@std@@V?$allocator@U?$pair@$$CBHV?$ptr@VIGameState@Pegas@@@Pegas@@@std@@@4@$0A@@std@@@2@@Z 0041cdc0 f i game_app.obj
 0001:0001bdf0       ?_Make_iter@?$_Tree@V?$_Tmap_traits@HV?$ptr@VIGameState@Pegas@@@Pegas@@U?$less@H@std@@V?$allocator@U?$pair@$$CBHV?$ptr@VIGameState@Pegas@@@Pegas@@@std@@@4@$0A@@std@@@std@@QBE?AViterator@12@Vconst_iterator@12@@Z 0041cdf0 f i game_app.obj
 0001:0001bed0       ?erase@?$_Tree@V?$_Tmap_traits@HV?$ptr@VIGameState@Pegas@@@Pegas@@U?$less@H@std@@V?$allocator@U?$pair@$$CBHV?$ptr@VIGameState@Pegas@@@Pegas@@@std@@@4@$0A@@std@@@std@@QAE?AViterator@12@Vconst_iterator@12@@Z 0041ced0 f i game_app.obj
 0001:0001c720       ?clear@?$_Tree@V?$_Tmap_traits@HV?$ptr@VIGameState@Pegas@@@Pegas@@U?$less@H@std@@V?$allocator@U?$pair@$$CBHV?$ptr@VIGameState@Pegas@@@Pegas@@@std@@@4@$0A@@std@@@std@@QAEXXZ 0041d720 f i game_app.obj
 0001:0001c7c0       ?_Lmost@?$_Tree@V?$_Tmap_traits@HV?$ptr@VIGameState@Pegas@@@Pegas@@U?$less@H@std@@V?$allocator@U?$pair@$$CBHV?$ptr@VIGameState@Pegas@@@Pegas@@@std@@@4@$0A@@std@@@std@@IBEAAPAU_Node@?$_Tree_nod@V?$_Tmap_traits@HV?$ptr@VIGameState@Pegas@@@Pegas@@U?$less@H@std@@V?$allocator@U?$pair@$$CBHV?$ptr@VIGameState@Pegas@@@Pegas@@@std@@@4@$0A@@std@@@2@XZ 0041d7c0 f i game_app.obj
 0001:0001c810       ?_Rmost@?$_Tree@V?$_Tmap_traits@HV?$ptr@VIGameState@Pegas@@@Pegas@@U?$less@H@std@@V?$allocator@U?$pair@$$CBHV?$ptr@VIGameState@Pegas@@@Pegas@@@std@@@4@$0A@@std@@@std@@IBEAAPAU_Node@?$_Tree_nod@V?$_Tmap_traits@HV?$ptr@VIGameState@Pegas@@@Pegas@@U?$less@H@std@@V?$allocator@U?$pair@$$CBHV?$ptr@VIGameState@Pegas@@@Pegas@@@std@@@4@$0A@@std@@@2@XZ 0041d810 f i game_app.obj
 0001:0001c860       ?_Root@?$_Tree@V?$_Tmap_traits@HV?$ptr@VIGameState@Pegas@@@Pegas@@U?$less@H@std@@V?$allocator@U?$pair@$$CBHV?$ptr@VIGameState@Pegas@@@Pegas@@@std@@@4@$0A@@std@@@std@@IBEAAPAU_Node@?$_Tree_nod@V?$_Tmap_traits@HV?$ptr@VIGameState@Pegas@@@Pegas@@U?$less@H@std@@V?$allocator@U?$pair@$$CBHV?$ptr@VIGameState@Pegas@@@Pegas@@@std@@@4@$0A@@std@@@2@XZ 0041d860 f i game_app.obj
 0001:0001c8b0       ?_Orphan_off@?$deque@V?$ptr@VIGameState@Pegas@@@Pegas@@V?$allocator@V?$ptr@VIGameState@Pegas@@@Pegas@@@std@@@std@@IBEXI@Z 0041d8b0 f i game_app.obj
 0001:0001c9e0       ??0?$_Deque_map@V?$ptr@VIGameState@Pegas@@@Pegas@@V?$allocator@V?$ptr@VIGameState@Pegas@@@Pegas@@@std@@@std@@IAE@V?$allocator@V?$ptr@VIGameState@Pegas@@@Pegas@@@1@@Z 0041d9e0 f i game_app.obj
 0001:0001ca50       ??0?$allocator@V?$ptr@VIGameState@Pegas@@@Pegas@@@std@@QAE@ABV01@@Z 0041da50 f i game_app.obj
 0001:0001ca80       ?destroy@?$allocator@V?$ptr@VIGameState@Pegas@@@Pegas@@@std@@QAEXPAV?$ptr@VIGameState@Pegas@@@Pegas@@@Z 0041da80 f i game_app.obj
 0001:0001cad0       ?_Orphan_ptr@?$list@V?$ptr@VFile@Pegas@@@Pegas@@V?$allocator@V?$ptr@VFile@Pegas@@@Pegas@@@std@@@std@@IBEXAAV12@PAU_Node@?$_List_nod@V?$ptr@VFile@Pegas@@@Pegas@@V?$allocator@V?$ptr@VFile@Pegas@@@Pegas@@@std@@@2@@Z 0041dad0 f i game_app.obj
 0001:0001cba0       ?destroy@?$allocator@U_Node@?$_List_nod@V?$ptr@VFile@Pegas@@@Pegas@@V?$allocator@V?$ptr@VFile@Pegas@@@Pegas@@@std@@@std@@@std@@QAEXPAU_Node@?$_List_nod@V?$ptr@VFile@Pegas@@@Pegas@@V?$allocator@V?$ptr@VFile@Pegas@@@Pegas@@@std@@@2@@Z 0041dba0 f i game_app.obj
 0001:0001cbf0       ?_Left@?$_Tree@V?$_Tmap_traits@HPAVTextureResource@Pegas@@U?$less@H@std@@V?$allocator@U?$pair@$$CBHPAVTextureResource@Pegas@@@std@@@4@$0A@@std@@@std@@KAAAPAU_Node@?$_Tree_nod@V?$_Tmap_traits@HPAVTextureResource@Pegas@@U?$less@H@std@@V?$allocator@U?$pair@$$CBHPAVTextureResource@Pegas@@@std@@@4@$0A@@std@@@2@PAU342@@Z 0041dbf0 f i game_app.obj
 0001:0001cc20       ?_Parent@?$_Tree@V?$_Tmap_traits@HPAVTextureResource@Pegas@@U?$less@H@std@@V?$allocator@U?$pair@$$CBHPAVTextureResource@Pegas@@@std@@@4@$0A@@std@@@std@@KAAAPAU_Node@?$_Tree_nod@V?$_Tmap_traits@HPAVTextureResource@Pegas@@U?$less@H@std@@V?$allocator@U?$pair@$$CBHPAVTextureResource@Pegas@@@std@@@4@$0A@@std@@@2@PAU342@@Z 0041dc20 f i game_app.obj
 0001:0001cc50       ?_Right@?$_Tree@V?$_Tmap_traits@HPAVTextureResource@Pegas@@U?$less@H@std@@V?$allocator@U?$pair@$$CBHPAVTextureResource@Pegas@@@std@@@4@$0A@@std@@@std@@KAAAPAU_Node@?$_Tree_nod@V?$_Tmap_traits@HPAVTextureResource@Pegas@@U?$less@H@std@@V?$allocator@U?$pair@$$CBHPAVTextureResource@Pegas@@@std@@@4@$0A@@std@@@2@PAU342@@Z 0041dc50 f i game_app.obj
 0001:0001cc80       ?begin@?$_Tree@V?$_Tmap_traits@HPAVTextureResource@Pegas@@U?$less@H@std@@V?$allocator@U?$pair@$$CBHPAVTextureResource@Pegas@@@std@@@4@$0A@@std@@@std@@QAE?AViterator@12@XZ 0041dc80 f i game_app.obj
 0001:0001ccf0       ?deallocate@?$allocator@U_Node@?$_Tree_nod@V?$_Tmap_traits@HPAVTextureResource@Pegas@@U?$less@H@std@@V?$allocator@U?$pair@$$CBHPAVTextureResource@Pegas@@@std@@@4@$0A@@std@@@std@@@std@@QAEXPAU_Node@?$_Tree_nod@V?$_Tmap_traits@HPAVTextureResource@Pegas@@U?$less@H@std@@V?$allocator@U?$pair@$$CBHPAVTextureResource@Pegas@@@std@@@4@$0A@@std@@@2@I@Z 0041dcf0 f i game_app.obj
 0001:0001cd40       ?_Left@?$_Tree@V?$_Tmap_traits@HPAVFontResource@Pegas@@U?$less@H@std@@V?$allocator@U?$pair@$$CBHPAVFontResource@Pegas@@@std@@@4@$0A@@std@@@std@@KAAAPAU_Node@?$_Tree_nod@V?$_Tmap_traits@HPAVFontResource@Pegas@@U?$less@H@std@@V?$allocator@U?$pair@$$CBHPAVFontResource@Pegas@@@std@@@4@$0A@@std@@@2@PAU342@@Z 0041dd40 f i game_app.obj
 0001:0001cd70       ?_Parent@?$_Tree@V?$_Tmap_traits@HPAVFontResource@Pegas@@U?$less@H@std@@V?$allocator@U?$pair@$$CBHPAVFontResource@Pegas@@@std@@@4@$0A@@std@@@std@@KAAAPAU_Node@?$_Tree_nod@V?$_Tmap_traits@HPAVFontResource@Pegas@@U?$less@H@std@@V?$allocator@U?$pair@$$CBHPAVFontResource@Pegas@@@std@@@4@$0A@@std@@@2@PAU342@@Z 0041dd70 f i game_app.obj
 0001:0001cda0       ?_Right@?$_Tree@V?$_Tmap_traits@HPAVFontResource@Pegas@@U?$less@H@std@@V?$allocator@U?$pair@$$CBHPAVFontResource@Pegas@@@std@@@4@$0A@@std@@@std@@KAAAPAU_Node@?$_Tree_nod@V?$_Tmap_traits@HPAVFontResource@Pegas@@U?$less@H@std@@V?$allocator@U?$pair@$$CBHPAVFontResource@Pegas@@@std@@@4@$0A@@std@@@2@PAU342@@Z 0041dda0 f i game_app.obj
 0001:0001cdd0       ?begin@?$_Tree@V?$_Tmap_traits@HPAVFontResource@Pegas@@U?$less@H@std@@V?$allocator@U?$pair@$$CBHPAVFontResource@Pegas@@@std@@@4@$0A@@std@@@std@@QAE?AViterator@12@XZ 0041ddd0 f i game_app.obj
 0001:0001ce40       ?deallocate@?$allocator@U_Node@?$_Tree_nod@V?$_Tmap_traits@HPAVFontResource@Pegas@@U?$less@H@std@@V?$allocator@U?$pair@$$CBHPAVFontResource@Pegas@@@std@@@4@$0A@@std@@@std@@@std@@QAEXPAU_Node@?$_Tree_nod@V?$_Tmap_traits@HPAVFontResource@Pegas@@U?$less@H@std@@V?$allocator@U?$pair@$$CBHPAVFontResource@Pegas@@@std@@@4@$0A@@std@@@2@I@Z 0041de40 f i game_app.obj
 0001:0001ce90       ??0iterator@?$_Tree@V?$_Tset_traits@PAVIKeyboardController@Pegas@@U?$less@PAVIKeyboardController@Pegas@@@std@@V?$allocator@PAVIKeyboardController@Pegas@@@4@$0A@@std@@@std@@QAE@PAU_Node@?$_Tree_nod@V?$_Tset_traits@PAVIKeyboardController@Pegas@@U?$less@PAVIKeyboardController@Pegas@@@std@@V?$allocator@PAVIKeyboardController@Pegas@@@4@$0A@@std@@@2@PBV12@@Z 0041de90 f i game_app.obj
 0001:0001cee0       ??Econst_iterator@?$_Tree@V?$_Tset_traits@PAVIKeyboardController@Pegas@@U?$less@PAVIKeyboardController@Pegas@@@std@@V?$allocator@PAVIKeyboardController@Pegas@@@4@$0A@@std@@@std@@QAE?AV012@H@Z 0041dee0 f i game_app.obj
 0001:0001cfd0       ??8const_iterator@?$_Tree@V?$_Tset_traits@PAVIKeyboardController@Pegas@@U?$less@PAVIKeyboardController@Pegas@@@std@@V?$allocator@PAVIKeyboardController@Pegas@@@4@$0A@@std@@@std@@QBE_NABV012@@Z 0041dfd0 f i game_app.obj
 0001:0001d090       ??9const_iterator@?$_Tree@V?$_Tset_traits@PAVIKeyboardController@Pegas@@U?$less@PAVIKeyboardController@Pegas@@@std@@V?$allocator@PAVIKeyboardController@Pegas@@@4@$0A@@std@@@std@@QBE_NABV012@@Z 0041e090 f i game_app.obj
 0001:0001d0e0       ??0iterator@?$_Tree@V?$_Tset_traits@PAVIMouseController@Pegas@@U?$less@PAVIMouseController@Pegas@@@std@@V?$allocator@PAVIMouseController@Pegas@@@4@$0A@@std@@@std@@QAE@PAU_Node@?$_Tree_nod@V?$_Tset_traits@PAVIMouseController@Pegas@@U?$less@PAVIMouseController@Pegas@@@std@@V?$allocator@PAVIMouseController@Pegas@@@4@$0A@@std@@@2@PBV12@@Z 0041e0e0 f i game_app.obj
 0001:0001d130       ??Econst_iterator@?$_Tree@V?$_Tset_traits@PAVIMouseController@Pegas@@U?$less@PAVIMouseController@Pegas@@@std@@V?$allocator@PAVIMouseController@Pegas@@@4@$0A@@std@@@std@@QAE?AV012@H@Z 0041e130 f i game_app.obj
 0001:0001d210       ??8const_iterator@?$_Tree@V?$_Tset_traits@PAVIMouseController@Pegas@@U?$less@PAVIMouseController@Pegas@@@std@@V?$allocator@PAVIMouseController@Pegas@@@4@$0A@@std@@@std@@QBE_NABV012@@Z 0041e210 f i game_app.obj
 0001:0001d2d0       ??9const_iterator@?$_Tree@V?$_Tset_traits@PAVIMouseController@Pegas@@U?$less@PAVIMouseController@Pegas@@@std@@V?$allocator@PAVIMouseController@Pegas@@@4@$0A@@std@@@std@@QBE_NABV012@@Z 0041e2d0 f i game_app.obj
 0001:0001d320       ??0iterator@?$_Tree@V?$_Tmap_traits@HV?$ptr@VIGameState@Pegas@@@Pegas@@U?$less@H@std@@V?$allocator@U?$pair@$$CBHV?$ptr@VIGameState@Pegas@@@Pegas@@@std@@@4@$0A@@std@@@std@@QAE@PAU_Node@?$_Tree_nod@V?$_Tmap_traits@HV?$ptr@VIGameState@Pegas@@@Pegas@@U?$less@H@std@@V?$allocator@U?$pair@$$CBHV?$ptr@VIGameState@Pegas@@@Pegas@@@std@@@4@$0A@@std@@@2@PBV12@@Z 0041e320 f i game_app.obj
 0001:0001d370       ??Econst_iterator@?$_Tree@V?$_Tmap_traits@HV?$ptr@VIGameState@Pegas@@@Pegas@@U?$less@H@std@@V?$allocator@U?$pair@$$CBHV?$ptr@VIGameState@Pegas@@@Pegas@@@std@@@4@$0A@@std@@@std@@QAE?AV012@H@Z 0041e370 f i game_app.obj
 0001:0001d450       ??8const_iterator@?$_Tree@V?$_Tmap_traits@HV?$ptr@VIGameState@Pegas@@@Pegas@@U?$less@H@std@@V?$allocator@U?$pair@$$CBHV?$ptr@VIGameState@Pegas@@@Pegas@@@std@@@4@$0A@@std@@@std@@QBE_NABV012@@Z 0041e450 f i game_app.obj
 0001:0001d510       ??9const_iterator@?$_Tree@V?$_Tmap_traits@HV?$ptr@VIGameState@Pegas@@@Pegas@@U?$less@H@std@@V?$allocator@U?$pair@$$CBHV?$ptr@VIGameState@Pegas@@@Pegas@@@std@@@4@$0A@@std@@@std@@QBE_NABV012@@Z 0041e510 f i game_app.obj
 0001:0001d560       ??0iterator@?$_Tree@V?$_Tset_traits@PAVIKeyboardController@Pegas@@U?$less@PAVIKeyboardController@Pegas@@@std@@V?$allocator@PAVIKeyboardController@Pegas@@@4@$0A@@std@@@std@@QAE@ABV012@@Z 0041e560 f i game_app.obj
 0001:0001d5b0       ??0iterator@?$_Tree@V?$_Tset_traits@PAVIMouseController@Pegas@@U?$less@PAVIMouseController@Pegas@@@std@@V?$allocator@PAVIMouseController@Pegas@@@4@$0A@@std@@@std@@QAE@ABV012@@Z 0041e5b0 f i game_app.obj
 0001:0001d600       ??0iterator@?$_Tree@V?$_Tmap_traits@HV?$ptr@VIGameState@Pegas@@@Pegas@@U?$less@H@std@@V?$allocator@U?$pair@$$CBHV?$ptr@VIGameState@Pegas@@@Pegas@@@std@@@4@$0A@@std@@@std@@QAE@ABV012@@Z 0041e600 f i game_app.obj
 0001:0001d650       ?allocate@?$allocator@D@std@@QAEPADI@Z 0041e650 f i game_app.obj
 0001:0001d6a0       ?max_size@?$allocator@D@std@@QBEIXZ 0041e6a0 f i game_app.obj
 0001:0001d700       ?allocate@?$allocator@_W@std@@QAEPA_WI@Z 0041e700 f i game_app.obj
 0001:0001d750       ?max_size@?$allocator@_W@std@@QBEIXZ 0041e750 f i game_app.obj
 0001:0001d7b0       ?_Color@?$_Tree@V?$_Tset_traits@PAVIKeyboardController@Pegas@@U?$less@PAVIKeyboardController@Pegas@@@std@@V?$allocator@PAVIKeyboardController@Pegas@@@4@$0A@@std@@@std@@KAAADPAU_Node@?$_Tree_nod@V?$_Tset_traits@PAVIKeyboardController@Pegas@@U?$less@PAVIKeyboardController@Pegas@@@std@@V?$allocator@PAVIKeyboardController@Pegas@@@4@$0A@@std@@@2@@Z 0041e7b0 f i game_app.obj
 0001:0001d7e0       ?_Erase@?$_Tree@V?$_Tset_traits@PAVIKeyboardController@Pegas@@U?$less@PAVIKeyboardController@Pegas@@@std@@V?$allocator@PAVIKeyboardController@Pegas@@@4@$0A@@std@@@std@@IAEXPAU_Node@?$_Tree_nod@V?$_Tset_traits@PAVIKeyboardController@Pegas@@U?$less@PAVIKeyboardController@Pegas@@@std@@V?$allocator@PAVIKeyboardController@Pegas@@@4@$0A@@std@@@2@@Z 0041e7e0 f i game_app.obj
 0001:0001d890       ?_Lrotate@?$_Tree@V?$_Tset_traits@PAVIKeyboardController@Pegas@@U?$less@PAVIKeyboardController@Pegas@@@std@@V?$allocator@PAVIKeyboardController@Pegas@@@4@$0A@@std@@@std@@IAEXPAU_Node@?$_Tree_nod@V?$_Tset_traits@PAVIKeyboardController@Pegas@@U?$less@PAVIKeyboardController@Pegas@@@std@@V?$allocator@PAVIKeyboardController@Pegas@@@4@$0A@@std@@@2@@Z 0041e890 f i game_app.obj
 0001:0001d9f0       ?_Max@?$_Tree@V?$_Tset_traits@PAVIKeyboardController@Pegas@@U?$less@PAVIKeyboardController@Pegas@@@std@@V?$allocator@PAVIKeyboardController@Pegas@@@4@$0A@@std@@@std@@KAPAU_Node@?$_Tree_nod@V?$_Tset_traits@PAVIKeyboardController@Pegas@@U?$less@PAVIKeyboardController@Pegas@@@std@@V?$allocator@PAVIKeyboardController@Pegas@@@4@$0A@@std@@@2@PAU342@@Z 0041e9f0 f i game_app.obj
 0001:0001da60       ?_Min@?$_Tree@V?$_Tset_traits@PAVIKeyboardController@Pegas@@U?$less@PAVIKeyboardController@Pegas@@@std@@V?$allocator@PAVIKeyboardController@Pegas@@@4@$0A@@std@@@std@@KAPAU_Node@?$_Tree_nod@V?$_Tset_traits@PAVIKeyboardController@Pegas@@U?$less@PAVIKeyboardController@Pegas@@@std@@V?$allocator@PAVIKeyboardController@Pegas@@@4@$0A@@std@@@2@PAU342@@Z 0041ea60 f i game_app.obj
 0001:0001dad0       ?_Rrotate@?$_Tree@V?$_Tset_traits@PAVIKeyboardController@Pegas@@U?$less@PAVIKeyboardController@Pegas@@@std@@V?$allocator@PAVIKeyboardController@Pegas@@@4@$0A@@std@@@std@@IAEXPAU_Node@?$_Tree_nod@V?$_Tset_traits@PAVIKeyboardController@Pegas@@U?$less@PAVIKeyboardController@Pegas@@@std@@V?$allocator@PAVIKeyboardController@Pegas@@@4@$0A@@std@@@2@@Z 0041ead0 f i game_app.obj
 0001:0001dc30       ?_Orphan_ptr@?$_Tree@V?$_Tset_traits@PAVIKeyboardController@Pegas@@U?$less@PAVIKeyboardController@Pegas@@@std@@V?$allocator@PAVIKeyboardController@Pegas@@@4@$0A@@std@@@std@@IBEXAAV12@PAU_Node@?$_Tree_nod@V?$_Tset_traits@PAVIKeyboardController@Pegas@@U?$less@PAVIKeyboardController@Pegas@@@std@@V?$allocator@PAVIKeyboardController@Pegas@@@4@$0A@@std@@@2@@Z 0041ec30 f i game_app.obj
 0001:0001dd00       ?allocate@?$allocator@U_Node@?$_Tree_nod@V?$_Tset_traits@PAVIKeyboardController@Pegas@@U?$less@PAVIKeyboardController@Pegas@@@std@@V?$allocator@PAVIKeyboardController@Pegas@@@4@$0A@@std@@@std@@@std@@QAEPAU_Node@?$_Tree_nod@V?$_Tset_traits@PAVIKeyboardController@Pegas@@U?$less@PAVIKeyboardController@Pegas@@@std@@V?$allocator@PAVIKeyboardController@Pegas@@@4@$0A@@std@@@2@I@Z 0041ed00 f i game_app.obj
 0001:0001dd50       ?destroy@?$allocator@U_Node@?$_Tree_nod@V?$_Tset_traits@PAVIKeyboardController@Pegas@@U?$less@PAVIKeyboardController@Pegas@@@std@@V?$allocator@PAVIKeyboardController@Pegas@@@4@$0A@@std@@@std@@@std@@QAEXPAU_Node@?$_Tree_nod@V?$_Tset_traits@PAVIKeyboardController@Pegas@@U?$less@PAVIKeyboardController@Pegas@@@std@@V?$allocator@PAVIKeyboardController@Pegas@@@4@$0A@@std@@@2@@Z 0041ed50 f i game_app.obj
 0001:0001dda0       ?_Color@?$_Tree@V?$_Tset_traits@PAVIMouseController@Pegas@@U?$less@PAVIMouseController@Pegas@@@std@@V?$allocator@PAVIMouseController@Pegas@@@4@$0A@@std@@@std@@KAAADPAU_Node@?$_Tree_nod@V?$_Tset_traits@PAVIMouseController@Pegas@@U?$less@PAVIMouseController@Pegas@@@std@@V?$allocator@PAVIMouseController@Pegas@@@4@$0A@@std@@@2@@Z 0041eda0 f i game_app.obj
 0001:0001ddd0       ?_Erase@?$_Tree@V?$_Tset_traits@PAVIMouseController@Pegas@@U?$less@PAVIMouseController@Pegas@@@std@@V?$allocator@PAVIMouseController@Pegas@@@4@$0A@@std@@@std@@IAEXPAU_Node@?$_Tree_nod@V?$_Tset_traits@PAVIMouseController@Pegas@@U?$less@PAVIMouseController@Pegas@@@std@@V?$allocator@PAVIMouseController@Pegas@@@4@$0A@@std@@@2@@Z 0041edd0 f i game_app.obj
 0001:0001de80       ?_Lrotate@?$_Tree@V?$_Tset_traits@PAVIMouseController@Pegas@@U?$less@PAVIMouseController@Pegas@@@std@@V?$allocator@PAVIMouseController@Pegas@@@4@$0A@@std@@@std@@IAEXPAU_Node@?$_Tree_nod@V?$_Tset_traits@PAVIMouseController@Pegas@@U?$less@PAVIMouseController@Pegas@@@std@@V?$allocator@PAVIMouseController@Pegas@@@4@$0A@@std@@@2@@Z 0041ee80 f i game_app.obj
 0001:0001dfe0       ?_Max@?$_Tree@V?$_Tset_traits@PAVIMouseController@Pegas@@U?$less@PAVIMouseController@Pegas@@@std@@V?$allocator@PAVIMouseController@Pegas@@@4@$0A@@std@@@std@@KAPAU_Node@?$_Tree_nod@V?$_Tset_traits@PAVIMouseController@Pegas@@U?$less@PAVIMouseController@Pegas@@@std@@V?$allocator@PAVIMouseController@Pegas@@@4@$0A@@std@@@2@PAU342@@Z 0041efe0 f i game_app.obj
 0001:0001e050       ?_Min@?$_Tree@V?$_Tset_traits@PAVIMouseController@Pegas@@U?$less@PAVIMouseController@Pegas@@@std@@V?$allocator@PAVIMouseController@Pegas@@@4@$0A@@std@@@std@@KAPAU_Node@?$_Tree_nod@V?$_Tset_traits@PAVIMouseController@Pegas@@U?$less@PAVIMouseController@Pegas@@@std@@V?$allocator@PAVIMouseController@Pegas@@@4@$0A@@std@@@2@PAU342@@Z 0041f050 f i game_app.obj
 0001:0001e0c0       ?_Rrotate@?$_Tree@V?$_Tset_traits@PAVIMouseController@Pegas@@U?$less@PAVIMouseController@Pegas@@@std@@V?$allocator@PAVIMouseController@Pegas@@@4@$0A@@std@@@std@@IAEXPAU_Node@?$_Tree_nod@V?$_Tset_traits@PAVIMouseController@Pegas@@U?$less@PAVIMouseController@Pegas@@@std@@V?$allocator@PAVIMouseController@Pegas@@@4@$0A@@std@@@2@@Z 0041f0c0 f i game_app.obj
 0001:0001e220       ?_Orphan_ptr@?$_Tree@V?$_Tset_traits@PAVIMouseController@Pegas@@U?$less@PAVIMouseController@Pegas@@@std@@V?$allocator@PAVIMouseController@Pegas@@@4@$0A@@std@@@std@@IBEXAAV12@PAU_Node@?$_Tree_nod@V?$_Tset_traits@PAVIMouseController@Pegas@@U?$less@PAVIMouseController@Pegas@@@std@@V?$allocator@PAVIMouseController@Pegas@@@4@$0A@@std@@@2@@Z 0041f220 f i game_app.obj
 0001:0001e2f0       ?allocate@?$allocator@U_Node@?$_Tree_nod@V?$_Tset_traits@PAVIMouseController@Pegas@@U?$less@PAVIMouseController@Pegas@@@std@@V?$allocator@PAVIMouseController@Pegas@@@4@$0A@@std@@@std@@@std@@QAEPAU_Node@?$_Tree_nod@V?$_Tset_traits@PAVIMouseController@Pegas@@U?$less@PAVIMouseController@Pegas@@@std@@V?$allocator@PAVIMouseController@Pegas@@@4@$0A@@std@@@2@I@Z 0041f2f0 f i game_app.obj
 0001:0001e340       ?destroy@?$allocator@U_Node@?$_Tree_nod@V?$_Tset_traits@PAVIMouseController@Pegas@@U?$less@PAVIMouseController@Pegas@@@std@@V?$allocator@PAVIMouseController@Pegas@@@4@$0A@@std@@@std@@@std@@QAEXPAU_Node@?$_Tree_nod@V?$_Tset_traits@PAVIMouseController@Pegas@@U?$less@PAVIMouseController@Pegas@@@std@@V?$allocator@PAVIMouseController@Pegas@@@4@$0A@@std@@@2@@Z 0041f340 f i game_app.obj
 0001:0001e390       ?_Color@?$_Tree@V?$_Tmap_traits@HV?$ptr@VIGameState@Pegas@@@Pegas@@U?$less@H@std@@V?$allocator@U?$pair@$$CBHV?$ptr@VIGameState@Pegas@@@Pegas@@@std@@@4@$0A@@std@@@std@@KAAADPAU_Node@?$_Tree_nod@V?$_Tmap_traits@HV?$ptr@VIGameState@Pegas@@@Pegas@@U?$less@H@std@@V?$allocator@U?$pair@$$CBHV?$ptr@VIGameState@Pegas@@@Pegas@@@std@@@4@$0A@@std@@@2@@Z 0041f390 f i game_app.obj
 0001:0001e3c0       ?_Erase@?$_Tree@V?$_Tmap_traits@HV?$ptr@VIGameState@Pegas@@@Pegas@@U?$less@H@std@@V?$allocator@U?$pair@$$CBHV?$ptr@VIGameState@Pegas@@@Pegas@@@std@@@4@$0A@@std@@@std@@IAEXPAU_Node@?$_Tree_nod@V?$_Tmap_traits@HV?$ptr@VIGameState@Pegas@@@Pegas@@U?$less@H@std@@V?$allocator@U?$pair@$$CBHV?$ptr@VIGameState@Pegas@@@Pegas@@@std@@@4@$0A@@std@@@2@@Z 0041f3c0 f i game_app.obj
 0001:0001e470       ?_Lrotate@?$_Tree@V?$_Tmap_traits@HV?$ptr@VIGameState@Pegas@@@Pegas@@U?$less@H@std@@V?$allocator@U?$pair@$$CBHV?$ptr@VIGameState@Pegas@@@Pegas@@@std@@@4@$0A@@std@@@std@@IAEXPAU_Node@?$_Tree_nod@V?$_Tmap_traits@HV?$ptr@VIGameState@Pegas@@@Pegas@@U?$less@H@std@@V?$allocator@U?$pair@$$CBHV?$ptr@VIGameState@Pegas@@@Pegas@@@std@@@4@$0A@@std@@@2@@Z 0041f470 f i game_app.obj
 0001:0001e5d0       ?_Max@?$_Tree@V?$_Tmap_traits@HV?$ptr@VIGameState@Pegas@@@Pegas@@U?$less@H@std@@V?$allocator@U?$pair@$$CBHV?$ptr@VIGameState@Pegas@@@Pegas@@@std@@@4@$0A@@std@@@std@@KAPAU_Node@?$_Tree_nod@V?$_Tmap_traits@HV?$ptr@VIGameState@Pegas@@@Pegas@@U?$less@H@std@@V?$allocator@U?$pair@$$CBHV?$ptr@VIGameState@Pegas@@@Pegas@@@std@@@4@$0A@@std@@@2@PAU342@@Z 0041f5d0 f i game_app.obj
 0001:0001e640       ?_Min@?$_Tree@V?$_Tmap_traits@HV?$ptr@VIGameState@Pegas@@@Pegas@@U?$less@H@std@@V?$allocator@U?$pair@$$CBHV?$ptr@VIGameState@Pegas@@@Pegas@@@std@@@4@$0A@@std@@@std@@KAPAU_Node@?$_Tree_nod@V?$_Tmap_traits@HV?$ptr@VIGameState@Pegas@@@Pegas@@U?$less@H@std@@V?$allocator@U?$pair@$$CBHV?$ptr@VIGameState@Pegas@@@Pegas@@@std@@@4@$0A@@std@@@2@PAU342@@Z 0041f640 f i game_app.obj
 0001:0001e6b0       ?_Rrotate@?$_Tree@V?$_Tmap_traits@HV?$ptr@VIGameState@Pegas@@@Pegas@@U?$less@H@std@@V?$allocator@U?$pair@$$CBHV?$ptr@VIGameState@Pegas@@@Pegas@@@std@@@4@$0A@@std@@@std@@IAEXPAU_Node@?$_Tree_nod@V?$_Tmap_traits@HV?$ptr@VIGameState@Pegas@@@Pegas@@U?$less@H@std@@V?$allocator@U?$pair@$$CBHV?$ptr@VIGameState@Pegas@@@Pegas@@@std@@@4@$0A@@std@@@2@@Z 0041f6b0 f i game_app.obj
 0001:0001e810       ?_Orphan_ptr@?$_Tree@V?$_Tmap_traits@HV?$ptr@VIGameState@Pegas@@@Pegas@@U?$less@H@std@@V?$allocator@U?$pair@$$CBHV?$ptr@VIGameState@Pegas@@@Pegas@@@std@@@4@$0A@@std@@@std@@IBEXAAV12@PAU_Node@?$_Tree_nod@V?$_Tmap_traits@HV?$ptr@VIGameState@Pegas@@@Pegas@@U?$less@H@std@@V?$allocator@U?$pair@$$CBHV?$ptr@VIGameState@Pegas@@@Pegas@@@std@@@4@$0A@@std@@@2@@Z 0041f810 f i game_app.obj
 0001:0001e8e0       ?allocate@?$allocator@U_Node@?$_Tree_nod@V?$_Tmap_traits@HV?$ptr@VIGameState@Pegas@@@Pegas@@U?$less@H@std@@V?$allocator@U?$pair@$$CBHV?$ptr@VIGameState@Pegas@@@Pegas@@@std@@@4@$0A@@std@@@std@@@std@@QAEPAU_Node@?$_Tree_nod@V?$_Tmap_traits@HV?$ptr@VIGameState@Pegas@@@Pegas@@U?$less@H@std@@V?$allocator@U?$pair@$$CBHV?$ptr@VIGameState@Pegas@@@Pegas@@@std@@@4@$0A@@std@@@2@I@Z 0041f8e0 f i game_app.obj
 0001:0001e930       ?destroy@?$allocator@U_Node@?$_Tree_nod@V?$_Tmap_traits@HV?$ptr@VIGameState@Pegas@@@Pegas@@U?$less@H@std@@V?$allocator@U?$pair@$$CBHV?$ptr@VIGameState@Pegas@@@Pegas@@@std@@@4@$0A@@std@@@std@@@std@@QAEXPAU_Node@?$_Tree_nod@V?$_Tmap_traits@HV?$ptr@VIGameState@Pegas@@@Pegas@@U?$less@H@std@@V?$allocator@U?$pair@$$CBHV?$ptr@VIGameState@Pegas@@@Pegas@@@std@@@4@$0A@@std@@@2@@Z 0041f930 f i game_app.obj
 0001:0001e980       ??0?$_Container_base_aux_alloc_empty@V?$allocator@V?$ptr@VIGameState@Pegas@@@Pegas@@@std@@@std@@IAE@V?$allocator@V?$ptr@VIGameState@Pegas@@@Pegas@@@1@@Z 0041f980 f i game_app.obj
 0001:0001e9d0       ?_Isnil@?$_Tree@V?$_Tmap_traits@HPAVTextureResource@Pegas@@U?$less@H@std@@V?$allocator@U?$pair@$$CBHPAVTextureResource@Pegas@@@std@@@4@$0A@@std@@@std@@KAAADPAU_Node@?$_Tree_nod@V?$_Tmap_traits@HPAVTextureResource@Pegas@@U?$less@H@std@@V?$allocator@U?$pair@$$CBHPAVTextureResource@Pegas@@@std@@@4@$0A@@std@@@2@@Z 0041f9d0 f i game_app.obj
 0001:0001ea00       ?_Lmost@?$_Tree@V?$_Tmap_traits@HPAVTextureResource@Pegas@@U?$less@H@std@@V?$allocator@U?$pair@$$CBHPAVTextureResource@Pegas@@@std@@@4@$0A@@std@@@std@@IBEAAPAU_Node@?$_Tree_nod@V?$_Tmap_traits@HPAVTextureResource@Pegas@@U?$less@H@std@@V?$allocator@U?$pair@$$CBHPAVTextureResource@Pegas@@@std@@@4@$0A@@std@@@2@XZ 0041fa00 f i game_app.obj
 0001:0001ea50       ?_Rmost@?$_Tree@V?$_Tmap_traits@HPAVTextureResource@Pegas@@U?$less@H@std@@V?$allocator@U?$pair@$$CBHPAVTextureResource@Pegas@@@std@@@4@$0A@@std@@@std@@IBEAAPAU_Node@?$_Tree_nod@V?$_Tmap_traits@HPAVTextureResource@Pegas@@U?$less@H@std@@V?$allocator@U?$pair@$$CBHPAVTextureResource@Pegas@@@std@@@4@$0A@@std@@@2@XZ 0041fa50 f i game_app.obj
 0001:0001eaa0       ?_Root@?$_Tree@V?$_Tmap_traits@HPAVTextureResource@Pegas@@U?$less@H@std@@V?$allocator@U?$pair@$$CBHPAVTextureResource@Pegas@@@std@@@4@$0A@@std@@@std@@IBEAAPAU_Node@?$_Tree_nod@V?$_Tmap_traits@HPAVTextureResource@Pegas@@U?$less@H@std@@V?$allocator@U?$pair@$$CBHPAVTextureResource@Pegas@@@std@@@4@$0A@@std@@@2@XZ 0041faa0 f i game_app.obj
 0001:0001eaf0       ?_Isnil@?$_Tree@V?$_Tmap_traits@HPAVFontResource@Pegas@@U?$less@H@std@@V?$allocator@U?$pair@$$CBHPAVFontResource@Pegas@@@std@@@4@$0A@@std@@@std@@KAAADPAU_Node@?$_Tree_nod@V?$_Tmap_traits@HPAVFontResource@Pegas@@U?$less@H@std@@V?$allocator@U?$pair@$$CBHPAVFontResource@Pegas@@@std@@@4@$0A@@std@@@2@@Z 0041faf0 f i game_app.obj
 0001:0001eb20       ?_Lmost@?$_Tree@V?$_Tmap_traits@HPAVFontResource@Pegas@@U?$less@H@std@@V?$allocator@U?$pair@$$CBHPAVFontResource@Pegas@@@std@@@4@$0A@@std@@@std@@IBEAAPAU_Node@?$_Tree_nod@V?$_Tmap_traits@HPAVFontResource@Pegas@@U?$less@H@std@@V?$allocator@U?$pair@$$CBHPAVFontResource@Pegas@@@std@@@4@$0A@@std@@@2@XZ 0041fb20 f i game_app.obj
 0001:0001eb70       ?_Rmost@?$_Tree@V?$_Tmap_traits@HPAVFontResource@Pegas@@U?$less@H@std@@V?$allocator@U?$pair@$$CBHPAVFontResource@Pegas@@@std@@@4@$0A@@std@@@std@@IBEAAPAU_Node@?$_Tree_nod@V?$_Tmap_traits@HPAVFontResource@Pegas@@U?$less@H@std@@V?$allocator@U?$pair@$$CBHPAVFontResource@Pegas@@@std@@@4@$0A@@std@@@2@XZ 0041fb70 f i game_app.obj
 0001:0001ebc0       ?_Root@?$_Tree@V?$_Tmap_traits@HPAVFontResource@Pegas@@U?$less@H@std@@V?$allocator@U?$pair@$$CBHPAVFontResource@Pegas@@@std@@@4@$0A@@std@@@std@@IBEAAPAU_Node@?$_Tree_nod@V?$_Tmap_traits@HPAVFontResource@Pegas@@U?$less@H@std@@V?$allocator@U?$pair@$$CBHPAVFontResource@Pegas@@@std@@@4@$0A@@std@@@2@XZ 0041fbc0 f i game_app.obj
 0001:0001ec10       ??0const_iterator@?$_Tree@V?$_Tset_traits@PAVIKeyboardController@Pegas@@U?$less@PAVIKeyboardController@Pegas@@@std@@V?$allocator@PAVIKeyboardController@Pegas@@@4@$0A@@std@@@std@@QAE@PAU_Node@?$_Tree_nod@V?$_Tset_traits@PAVIKeyboardController@Pegas@@U?$less@PAVIKeyboardController@Pegas@@@std@@V?$allocator@PAVIKeyboardController@Pegas@@@4@$0A@@std@@@2@PBV12@@Z 0041fc10 f i game_app.obj
 0001:0001ecb0       ??Econst_iterator@?$_Tree@V?$_Tset_traits@PAVIKeyboardController@Pegas@@U?$less@PAVIKeyboardController@Pegas@@@std@@V?$allocator@PAVIKeyboardController@Pegas@@@4@$0A@@std@@@std@@QAEAAV012@XZ 0041fcb0 f i game_app.obj
 0001:0001ed00       ?_Mynode@const_iterator@?$_Tree@V?$_Tset_traits@PAVIKeyboardController@Pegas@@U?$less@PAVIKeyboardController@Pegas@@@std@@V?$allocator@PAVIKeyboardController@Pegas@@@4@$0A@@std@@@std@@QBEPAU_Node@?$_Tree_nod@V?$_Tset_traits@PAVIKeyboardController@Pegas@@U?$less@PAVIKeyboardController@Pegas@@@std@@V?$allocator@PAVIKeyboardController@Pegas@@@4@$0A@@std@@@3@XZ 0041fd00 f i game_app.obj
 0001:0001ed30       ??0const_iterator@?$_Tree@V?$_Tset_traits@PAVIMouseController@Pegas@@U?$less@PAVIMouseController@Pegas@@@std@@V?$allocator@PAVIMouseController@Pegas@@@4@$0A@@std@@@std@@QAE@PAU_Node@?$_Tree_nod@V?$_Tset_traits@PAVIMouseController@Pegas@@U?$less@PAVIMouseController@Pegas@@@std@@V?$allocator@PAVIMouseController@Pegas@@@4@$0A@@std@@@2@PBV12@@Z 0041fd30 f i game_app.obj
 0001:0001edd0       ??Econst_iterator@?$_Tree@V?$_Tset_traits@PAVIMouseController@Pegas@@U?$less@PAVIMouseController@Pegas@@@std@@V?$allocator@PAVIMouseController@Pegas@@@4@$0A@@std@@@std@@QAEAAV012@XZ 0041fdd0 f i game_app.obj
 0001:0001ee20       ?_Mynode@const_iterator@?$_Tree@V?$_Tset_traits@PAVIMouseController@Pegas@@U?$less@PAVIMouseController@Pegas@@@std@@V?$allocator@PAVIMouseController@Pegas@@@4@$0A@@std@@@std@@QBEPAU_Node@?$_Tree_nod@V?$_Tset_traits@PAVIMouseController@Pegas@@U?$less@PAVIMouseController@Pegas@@@std@@V?$allocator@PAVIMouseController@Pegas@@@4@$0A@@std@@@3@XZ 0041fe20 f i game_app.obj
 0001:0001ee50       ??0const_iterator@?$_Tree@V?$_Tmap_traits@HV?$ptr@VIGameState@Pegas@@@Pegas@@U?$less@H@std@@V?$allocator@U?$pair@$$CBHV?$ptr@VIGameState@Pegas@@@Pegas@@@std@@@4@$0A@@std@@@std@@QAE@PAU_Node@?$_Tree_nod@V?$_Tmap_traits@HV?$ptr@VIGameState@Pegas@@@Pegas@@U?$less@H@std@@V?$allocator@U?$pair@$$CBHV?$ptr@VIGameState@Pegas@@@Pegas@@@std@@@4@$0A@@std@@@2@PBV12@@Z 0041fe50 f i game_app.obj
 0001:0001eef0       ??Econst_iterator@?$_Tree@V?$_Tmap_traits@HV?$ptr@VIGameState@Pegas@@@Pegas@@U?$less@H@std@@V?$allocator@U?$pair@$$CBHV?$ptr@VIGameState@Pegas@@@Pegas@@@std@@@4@$0A@@std@@@std@@QAEAAV012@XZ 0041fef0 f i game_app.obj
 0001:0001ef40       ?_Mynode@const_iterator@?$_Tree@V?$_Tmap_traits@HV?$ptr@VIGameState@Pegas@@@Pegas@@U?$less@H@std@@V?$allocator@U?$pair@$$CBHV?$ptr@VIGameState@Pegas@@@Pegas@@@std@@@4@$0A@@std@@@std@@QBEPAU_Node@?$_Tree_nod@V?$_Tmap_traits@HV?$ptr@VIGameState@Pegas@@@Pegas@@U?$less@H@std@@V?$allocator@U?$pair@$$CBHV?$ptr@VIGameState@Pegas@@@Pegas@@@std@@@4@$0A@@std@@@3@XZ 0041ff40 f i game_app.obj
 0001:0001ef70       ??0iterator@?$_Tree@V?$_Tmap_traits@HPAVTextureResource@Pegas@@U?$less@H@std@@V?$allocator@U?$pair@$$CBHPAVTextureResource@Pegas@@@std@@@4@$0A@@std@@@std@@QAE@PAU_Node@?$_Tree_nod@V?$_Tmap_traits@HPAVTextureResource@Pegas@@U?$less@H@std@@V?$allocator@U?$pair@$$CBHPAVTextureResource@Pegas@@@std@@@4@$0A@@std@@@2@PBV12@@Z 0041ff70 f i game_app.obj
 0001:0001efd0       ??8const_iterator@?$_Tree@V?$_Tmap_traits@HPAVTextureResource@Pegas@@U?$less@H@std@@V?$allocator@U?$pair@$$CBHPAVTextureResource@Pegas@@@std@@@4@$0A@@std@@@std@@QBE_NABV012@@Z 0041ffd0 f i game_app.obj
 0001:0001f090       ??9const_iterator@?$_Tree@V?$_Tmap_traits@HPAVTextureResource@Pegas@@U?$less@H@std@@V?$allocator@U?$pair@$$CBHPAVTextureResource@Pegas@@@std@@@4@$0A@@std@@@std@@QBE_NABV012@@Z 00420090 f i game_app.obj
 0001:0001f0e0       ??0iterator@?$_Tree@V?$_Tmap_traits@HPAVFontResource@Pegas@@U?$less@H@std@@V?$allocator@U?$pair@$$CBHPAVFontResource@Pegas@@@std@@@4@$0A@@std@@@std@@QAE@PAU_Node@?$_Tree_nod@V?$_Tmap_traits@HPAVFontResource@Pegas@@U?$less@H@std@@V?$allocator@U?$pair@$$CBHPAVFontResource@Pegas@@@std@@@4@$0A@@std@@@2@PBV12@@Z 004200e0 f i game_app.obj
 0001:0001f130       ??8const_iterator@?$_Tree@V?$_Tmap_traits@HPAVFontResource@Pegas@@U?$less@H@std@@V?$allocator@U?$pair@$$CBHPAVFontResource@Pegas@@@std@@@4@$0A@@std@@@std@@QBE_NABV012@@Z 00420130 f i game_app.obj
 0001:0001f1f0       ??9const_iterator@?$_Tree@V?$_Tmap_traits@HPAVFontResource@Pegas@@U?$less@H@std@@V?$allocator@U?$pair@$$CBHPAVFontResource@Pegas@@@std@@@4@$0A@@std@@@std@@QBE_NABV012@@Z 004201f0 f i game_app.obj
 0001:0001f240       ??0iterator@?$_Tree@V?$_Tmap_traits@HPAVTextureResource@Pegas@@U?$less@H@std@@V?$allocator@U?$pair@$$CBHPAVTextureResource@Pegas@@@std@@@4@$0A@@std@@@std@@QAE@ABV012@@Z 00420240 f i game_app.obj
 0001:0001f290       ??0iterator@?$_Tree@V?$_Tmap_traits@HPAVFontResource@Pegas@@U?$less@H@std@@V?$allocator@U?$pair@$$CBHPAVFontResource@Pegas@@@std@@@4@$0A@@std@@@std@@QAE@ABV012@@Z 00420290 f i game_app.obj
 0001:0001f2e0       ??0?$_Bidit@PAVIKeyboardController@Pegas@@HPBQAV12@ABQAV12@@std@@QAE@XZ 004202e0 f i game_app.obj
 0001:0001f330       ??0?$_Bidit@PAVIMouseController@Pegas@@HPBQAV12@ABQAV12@@std@@QAE@XZ 00420330 f i game_app.obj
 0001:0001f380       ??0?$_Bidit@U?$pair@$$CBHV?$ptr@VIGameState@Pegas@@@Pegas@@@std@@HPBU12@ABU12@@std@@QAE@XZ 00420380 f i game_app.obj
 0001:0001f3d0       ??0?$_Iterator_with_base@Ubidirectional_iterator_tag@std@@PAVIKeyboardController@Pegas@@HPBQAV34@ABQAV34@V_Iterator_base@2@@std@@QAE@XZ 004203d0 f i game_app.obj
 0001:0001f420       ??0?$_Iterator_with_base@Ubidirectional_iterator_tag@std@@PAVIMouseController@Pegas@@HPBQAV34@ABQAV34@V_Iterator_base@2@@std@@QAE@XZ 00420420 f i game_app.obj
 0001:0001f470       ??0?$_Iterator_with_base@Ubidirectional_iterator_tag@std@@U?$pair@$$CBHV?$ptr@VIGameState@Pegas@@@Pegas@@@2@HPBU32@ABU32@V_Iterator_base@2@@std@@QAE@XZ 00420470 f i game_app.obj
 0001:0001f4c0       ?_Color@?$_Tree@V?$_Tmap_traits@HPAVTextureResource@Pegas@@U?$less@H@std@@V?$allocator@U?$pair@$$CBHPAVTextureResource@Pegas@@@std@@@4@$0A@@std@@@std@@KAAADPAU_Node@?$_Tree_nod@V?$_Tmap_traits@HPAVTextureResource@Pegas@@U?$less@H@std@@V?$allocator@U?$pair@$$CBHPAVTextureResource@Pegas@@@std@@@4@$0A@@std@@@2@@Z 004204c0 f i game_app.obj
 0001:0001f4f0       ?_Lrotate@?$_Tree@V?$_Tmap_traits@HPAVTextureResource@Pegas@@U?$less@H@std@@V?$allocator@U?$pair@$$CBHPAVTextureResource@Pegas@@@std@@@4@$0A@@std@@@std@@IAEXPAU_Node@?$_Tree_nod@V?$_Tmap_traits@HPAVTextureResource@Pegas@@U?$less@H@std@@V?$allocator@U?$pair@$$CBHPAVTextureResource@Pegas@@@std@@@4@$0A@@std@@@2@@Z 004204f0 f i game_app.obj
 0001:0001f650       ?_Max@?$_Tree@V?$_Tmap_traits@HPAVTextureResource@Pegas@@U?$less@H@std@@V?$allocator@U?$pair@$$CBHPAVTextureResource@Pegas@@@std@@@4@$0A@@std@@@std@@KAPAU_Node@?$_Tree_nod@V?$_Tmap_traits@HPAVTextureResource@Pegas@@U?$less@H@std@@V?$allocator@U?$pair@$$CBHPAVTextureResource@Pegas@@@std@@@4@$0A@@std@@@2@PAU342@@Z 00420650 f i game_app.obj
 0001:0001f6c0       ?_Rrotate@?$_Tree@V?$_Tmap_traits@HPAVTextureResource@Pegas@@U?$less@H@std@@V?$allocator@U?$pair@$$CBHPAVTextureResource@Pegas@@@std@@@4@$0A@@std@@@std@@IAEXPAU_Node@?$_Tree_nod@V?$_Tmap_traits@HPAVTextureResource@Pegas@@U?$less@H@std@@V?$allocator@U?$pair@$$CBHPAVTextureResource@Pegas@@@std@@@4@$0A@@std@@@2@@Z 004206c0 f i game_app.obj
 0001:0001f820       ?allocate@?$allocator@U_Node@?$_Tree_nod@V?$_Tmap_traits@HPAVTextureResource@Pegas@@U?$less@H@std@@V?$allocator@U?$pair@$$CBHPAVTextureResource@Pegas@@@std@@@4@$0A@@std@@@std@@@std@@QAEPAU_Node@?$_Tree_nod@V?$_Tmap_traits@HPAVTextureResource@Pegas@@U?$less@H@std@@V?$allocator@U?$pair@$$CBHPAVTextureResource@Pegas@@@std@@@4@$0A@@std@@@2@I@Z 00420820 f i game_app.obj
 0001:0001f870       ?_Color@?$_Tree@V?$_Tmap_traits@HPAVFontResource@Pegas@@U?$less@H@std@@V?$allocator@U?$pair@$$CBHPAVFontResource@Pegas@@@std@@@4@$0A@@std@@@std@@KAAADPAU_Node@?$_Tree_nod@V?$_Tmap_traits@HPAVFontResource@Pegas@@U?$less@H@std@@V?$allocator@U?$pair@$$CBHPAVFontResource@Pegas@@@std@@@4@$0A@@std@@@2@@Z 00420870 f i game_app.obj
 0001:0001f8a0       ?_Lrotate@?$_Tree@V?$_Tmap_traits@HPAVFontResource@Pegas@@U?$less@H@std@@V?$allocator@U?$pair@$$CBHPAVFontResource@Pegas@@@std@@@4@$0A@@std@@@std@@IAEXPAU_Node@?$_Tree_nod@V?$_Tmap_traits@HPAVFontResource@Pegas@@U?$less@H@std@@V?$allocator@U?$pair@$$CBHPAVFontResource@Pegas@@@std@@@4@$0A@@std@@@2@@Z 004208a0 f i game_app.obj
 0001:0001fa00       ?_Max@?$_Tree@V?$_Tmap_traits@HPAVFontResource@Pegas@@U?$less@H@std@@V?$allocator@U?$pair@$$CBHPAVFontResource@Pegas@@@std@@@4@$0A@@std@@@std@@KAPAU_Node@?$_Tree_nod@V?$_Tmap_traits@HPAVFontResource@Pegas@@U?$less@H@std@@V?$allocator@U?$pair@$$CBHPAVFontResource@Pegas@@@std@@@4@$0A@@std@@@2@PAU342@@Z 00420a00 f i game_app.obj
 0001:0001fa70       ?_Rrotate@?$_Tree@V?$_Tmap_traits@HPAVFontResource@Pegas@@U?$less@H@std@@V?$allocator@U?$pair@$$CBHPAVFontResource@Pegas@@@std@@@4@$0A@@std@@@std@@IAEXPAU_Node@?$_Tree_nod@V?$_Tmap_traits@HPAVFontResource@Pegas@@U?$less@H@std@@V?$allocator@U?$pair@$$CBHPAVFontResource@Pegas@@@std@@@4@$0A@@std@@@2@@Z 00420a70 f i game_app.obj
 0001:0001fbd0       ?allocate@?$allocator@U_Node@?$_Tree_nod@V?$_Tmap_traits@HPAVFontResource@Pegas@@U?$less@H@std@@V?$allocator@U?$pair@$$CBHPAVFontResource@Pegas@@@std@@@4@$0A@@std@@@std@@@std@@QAEPAU_Node@?$_Tree_nod@V?$_Tmap_traits@HPAVFontResource@Pegas@@U?$less@H@std@@V?$allocator@U?$pair@$$CBHPAVFontResource@Pegas@@@std@@@4@$0A@@std@@@2@I@Z 00420bd0 f i game_app.obj
 0001:0001fc20       ?_Inc@const_iterator@?$_Tree@V?$_Tset_traits@PAVIKeyboardController@Pegas@@U?$less@PAVIKeyboardController@Pegas@@@std@@V?$allocator@PAVIKeyboardController@Pegas@@@4@$0A@@std@@@std@@QAEXXZ 00420c20 f i game_app.obj
 0001:0001fd80       ?_Inc@const_iterator@?$_Tree@V?$_Tset_traits@PAVIMouseController@Pegas@@U?$less@PAVIMouseController@Pegas@@@std@@V?$allocator@PAVIMouseController@Pegas@@@4@$0A@@std@@@std@@QAEXXZ 00420d80 f i game_app.obj
 0001:0001fee0       ?_Inc@const_iterator@?$_Tree@V?$_Tmap_traits@HV?$ptr@VIGameState@Pegas@@@Pegas@@U?$less@H@std@@V?$allocator@U?$pair@$$CBHV?$ptr@VIGameState@Pegas@@@Pegas@@@std@@@4@$0A@@std@@@std@@QAEXXZ 00420ee0 f i game_app.obj
 0001:00020040       ??0const_iterator@?$_Tree@V?$_Tmap_traits@HPAVTextureResource@Pegas@@U?$less@H@std@@V?$allocator@U?$pair@$$CBHPAVTextureResource@Pegas@@@std@@@4@$0A@@std@@@std@@QAE@PAU_Node@?$_Tree_nod@V?$_Tmap_traits@HPAVTextureResource@Pegas@@U?$less@H@std@@V?$allocator@U?$pair@$$CBHPAVTextureResource@Pegas@@@std@@@4@$0A@@std@@@2@PBV12@@Z 00421040 f i game_app.obj
 0001:000200e0       ??Econst_iterator@?$_Tree@V?$_Tmap_traits@HPAVTextureResource@Pegas@@U?$less@H@std@@V?$allocator@U?$pair@$$CBHPAVTextureResource@Pegas@@@std@@@4@$0A@@std@@@std@@QAEAAV012@XZ 004210e0 f i game_app.obj
 0001:00020130       ?_Mynode@const_iterator@?$_Tree@V?$_Tmap_traits@HPAVTextureResource@Pegas@@U?$less@H@std@@V?$allocator@U?$pair@$$CBHPAVTextureResource@Pegas@@@std@@@4@$0A@@std@@@std@@QBEPAU_Node@?$_Tree_nod@V?$_Tmap_traits@HPAVTextureResource@Pegas@@U?$less@H@std@@V?$allocator@U?$pair@$$CBHPAVTextureResource@Pegas@@@std@@@4@$0A@@std@@@3@XZ 00421130 f i game_app.obj
 0001:00020160       ??0const_iterator@?$_Tree@V?$_Tmap_traits@HPAVFontResource@Pegas@@U?$less@H@std@@V?$allocator@U?$pair@$$CBHPAVFontResource@Pegas@@@std@@@4@$0A@@std@@@std@@QAE@PAU_Node@?$_Tree_nod@V?$_Tmap_traits@HPAVFontResource@Pegas@@U?$less@H@std@@V?$allocator@U?$pair@$$CBHPAVFontResource@Pegas@@@std@@@4@$0A@@std@@@2@PBV12@@Z 00421160 f i game_app.obj
 0001:00020200       ??Econst_iterator@?$_Tree@V?$_Tmap_traits@HPAVFontResource@Pegas@@U?$less@H@std@@V?$allocator@U?$pair@$$CBHPAVFontResource@Pegas@@@std@@@4@$0A@@std@@@std@@QAEAAV012@XZ 00421200 f i game_app.obj
 0001:00020250       ?_Mynode@const_iterator@?$_Tree@V?$_Tmap_traits@HPAVFontResource@Pegas@@U?$less@H@std@@V?$allocator@U?$pair@$$CBHPAVFontResource@Pegas@@@std@@@4@$0A@@std@@@std@@QBEPAU_Node@?$_Tree_nod@V?$_Tmap_traits@HPAVFontResource@Pegas@@U?$less@H@std@@V?$allocator@U?$pair@$$CBHPAVFontResource@Pegas@@@std@@@4@$0A@@std@@@3@XZ 00421250 f i game_app.obj
 0001:00020280       ??0?$_Bidit@U?$pair@$$CBHPAVTextureResource@Pegas@@@std@@HPBU12@ABU12@@std@@QAE@XZ 00421280 f i game_app.obj
 0001:000202d0       ??0?$_Bidit@U?$pair@$$CBHPAVFontResource@Pegas@@@std@@HPBU12@ABU12@@std@@QAE@XZ 004212d0 f i game_app.obj
 0001:00020320       ??0?$_Iterator_with_base@Ubidirectional_iterator_tag@std@@U?$pair@$$CBHPAVTextureResource@Pegas@@@2@HPBU32@ABU32@V_Iterator_base@2@@std@@QAE@XZ 00421320 f i game_app.obj
 0001:00020370       ??0?$_Iterator_with_base@Ubidirectional_iterator_tag@std@@U?$pair@$$CBHPAVFontResource@Pegas@@@2@HPBU32@ABU32@V_Iterator_base@2@@std@@QAE@XZ 00421370 f i game_app.obj
 0001:000203c0       ?_Inc@const_iterator@?$_Tree@V?$_Tmap_traits@HPAVTextureResource@Pegas@@U?$less@H@std@@V?$allocator@U?$pair@$$CBHPAVTextureResource@Pegas@@@std@@@4@$0A@@std@@@std@@QAEXXZ 004213c0 f i game_app.obj
 0001:00020520       ?_Min@?$_Tree@V?$_Tmap_traits@HPAVTextureResource@Pegas@@U?$less@H@std@@V?$allocator@U?$pair@$$CBHPAVTextureResource@Pegas@@@std@@@4@$0A@@std@@@std@@KAPAU_Node@?$_Tree_nod@V?$_Tmap_traits@HPAVTextureResource@Pegas@@U?$less@H@std@@V?$allocator@U?$pair@$$CBHPAVTextureResource@Pegas@@@std@@@4@$0A@@std@@@2@PAU342@@Z 00421520 f i game_app.obj
 0001:00020590       ?_Inc@const_iterator@?$_Tree@V?$_Tmap_traits@HPAVFontResource@Pegas@@U?$less@H@std@@V?$allocator@U?$pair@$$CBHPAVFontResource@Pegas@@@std@@@4@$0A@@std@@@std@@QAEXXZ 00421590 f i game_app.obj
 0001:000206f0       ?_Min@?$_Tree@V?$_Tmap_traits@HPAVFontResource@Pegas@@U?$less@H@std@@V?$allocator@U?$pair@$$CBHPAVFontResource@Pegas@@@std@@@4@$0A@@std@@@std@@KAPAU_Node@?$_Tree_nod@V?$_Tmap_traits@HPAVFontResource@Pegas@@U?$less@H@std@@V?$allocator@U?$pair@$$CBHPAVFontResource@Pegas@@@std@@@4@$0A@@std@@@2@PAU342@@Z 004216f0 f i game_app.obj
 0001:00020760       ??$_Debug_pointer@D@std@@YAXPBDPB_WI@Z 00421760 f i game_app.obj
 0001:000207b0       ?destroyAll@?$ResourceManager@VStringResource@Pegas@@UIntResourceCode@2@@Pegas@@QAEXXZ 004217b0 f i game_app.obj
 0001:00020900       ??1iterator@?$_Tree@V?$_Tmap_traits@HPAVStringResource@Pegas@@U?$less@H@std@@V?$allocator@U?$pair@$$CBHPAVStringResource@Pegas@@@std@@@4@$0A@@std@@@std@@QAE@XZ 00421900 f i game_app.obj
 0001:00020940       ??1const_iterator@?$_Tree@V?$_Tmap_traits@HPAVStringResource@Pegas@@U?$less@H@std@@V?$allocator@U?$pair@$$CBHPAVStringResource@Pegas@@@std@@@4@$0A@@std@@@std@@QAE@XZ 00421940 f i game_app.obj
 0001:00020980       ??1?$_Bidit@U?$pair@$$CBHPAVStringResource@Pegas@@@std@@HPBU12@ABU12@@std@@QAE@XZ 00421980 f i game_app.obj
 0001:000209c0       ??1?$_Iterator_with_base@Ubidirectional_iterator_tag@std@@U?$pair@$$CBHPAVStringResource@Pegas@@@2@HPBU32@ABU32@V_Iterator_base@2@@std@@QAE@XZ 004219c0 f i game_app.obj
 0001:00020a00       ?begin@?$_Tree@V?$_Tmap_traits@HPAVStringResource@Pegas@@U?$less@H@std@@V?$allocator@U?$pair@$$CBHPAVStringResource@Pegas@@@std@@@4@$0A@@std@@@std@@QAE?AViterator@12@XZ 00421a00 f i game_app.obj
 0001:00020a70       ?end@?$_Tree@V?$_Tmap_traits@HPAVStringResource@Pegas@@U?$less@H@std@@V?$allocator@U?$pair@$$CBHPAVStringResource@Pegas@@@std@@@4@$0A@@std@@@std@@QAE?AViterator@12@XZ 00421a70 f i game_app.obj
 0001:00020ae0       ?clear@?$_Tree@V?$_Tmap_traits@HPAVStringResource@Pegas@@U?$less@H@std@@V?$allocator@U?$pair@$$CBHPAVStringResource@Pegas@@@std@@@4@$0A@@std@@@std@@QAEXXZ 00421ae0 f i game_app.obj
 0001:00020b80       ?_Lmost@?$_Tree@V?$_Tmap_traits@HPAVStringResource@Pegas@@U?$less@H@std@@V?$allocator@U?$pair@$$CBHPAVStringResource@Pegas@@@std@@@4@$0A@@std@@@std@@IBEAAPAU_Node@?$_Tree_nod@V?$_Tmap_traits@HPAVStringResource@Pegas@@U?$less@H@std@@V?$allocator@U?$pair@$$CBHPAVStringResource@Pegas@@@std@@@4@$0A@@std@@@2@XZ 00421b80 f i game_app.obj
 0001:00020bd0       ?_Left@?$_Tree@V?$_Tmap_traits@HPAVStringResource@Pegas@@U?$less@H@std@@V?$allocator@U?$pair@$$CBHPAVStringResource@Pegas@@@std@@@4@$0A@@std@@@std@@KAAAPAU_Node@?$_Tree_nod@V?$_Tmap_traits@HPAVStringResource@Pegas@@U?$less@H@std@@V?$allocator@U?$pair@$$CBHPAVStringResource@Pegas@@@std@@@4@$0A@@std@@@2@PAU342@@Z 00421bd0 f i game_app.obj
 0001:00020c00       ?_Rmost@?$_Tree@V?$_Tmap_traits@HPAVStringResource@Pegas@@U?$less@H@std@@V?$allocator@U?$pair@$$CBHPAVStringResource@Pegas@@@std@@@4@$0A@@std@@@std@@IBEAAPAU_Node@?$_Tree_nod@V?$_Tmap_traits@HPAVStringResource@Pegas@@U?$less@H@std@@V?$allocator@U?$pair@$$CBHPAVStringResource@Pegas@@@std@@@4@$0A@@std@@@2@XZ 00421c00 f i game_app.obj
 0001:00020c50       ?_Right@?$_Tree@V?$_Tmap_traits@HPAVStringResource@Pegas@@U?$less@H@std@@V?$allocator@U?$pair@$$CBHPAVStringResource@Pegas@@@std@@@4@$0A@@std@@@std@@KAAAPAU_Node@?$_Tree_nod@V?$_Tmap_traits@HPAVStringResource@Pegas@@U?$less@H@std@@V?$allocator@U?$pair@$$CBHPAVStringResource@Pegas@@@std@@@4@$0A@@std@@@2@PAU342@@Z 00421c50 f i game_app.obj
 0001:00020c80       ?_Root@?$_Tree@V?$_Tmap_traits@HPAVStringResource@Pegas@@U?$less@H@std@@V?$allocator@U?$pair@$$CBHPAVStringResource@Pegas@@@std@@@4@$0A@@std@@@std@@IBEAAPAU_Node@?$_Tree_nod@V?$_Tmap_traits@HPAVStringResource@Pegas@@U?$less@H@std@@V?$allocator@U?$pair@$$CBHPAVStringResource@Pegas@@@std@@@4@$0A@@std@@@2@XZ 00421c80 f i game_app.obj
 0001:00020cd0       ?_Parent@?$_Tree@V?$_Tmap_traits@HPAVStringResource@Pegas@@U?$less@H@std@@V?$allocator@U?$pair@$$CBHPAVStringResource@Pegas@@@std@@@4@$0A@@std@@@std@@KAAAPAU_Node@?$_Tree_nod@V?$_Tmap_traits@HPAVStringResource@Pegas@@U?$less@H@std@@V?$allocator@U?$pair@$$CBHPAVStringResource@Pegas@@@std@@@4@$0A@@std@@@2@PAU342@@Z 00421cd0 f i game_app.obj
 0001:00020d00       ??0iterator@?$_Tree@V?$_Tmap_traits@HPAVStringResource@Pegas@@U?$less@H@std@@V?$allocator@U?$pair@$$CBHPAVStringResource@Pegas@@@std@@@4@$0A@@std@@@std@@QAE@PAU_Node@?$_Tree_nod@V?$_Tmap_traits@HPAVStringResource@Pegas@@U?$less@H@std@@V?$allocator@U?$pair@$$CBHPAVStringResource@Pegas@@@std@@@4@$0A@@std@@@2@PBV12@@Z 00421d00 f i game_app.obj
 0001:00020d50       ??9const_iterator@?$_Tree@V?$_Tmap_traits@HPAVStringResource@Pegas@@U?$less@H@std@@V?$allocator@U?$pair@$$CBHPAVStringResource@Pegas@@@std@@@4@$0A@@std@@@std@@QBE_NABV012@@Z 00421d50 f i game_app.obj
 0001:00020da0       ??8const_iterator@?$_Tree@V?$_Tmap_traits@HPAVStringResource@Pegas@@U?$less@H@std@@V?$allocator@U?$pair@$$CBHPAVStringResource@Pegas@@@std@@@4@$0A@@std@@@std@@QBE_NABV012@@Z 00421da0 f i game_app.obj
 0001:00020e60       ?_Erase@?$_Tree@V?$_Tmap_traits@HPAVStringResource@Pegas@@U?$less@H@std@@V?$allocator@U?$pair@$$CBHPAVStringResource@Pegas@@@std@@@4@$0A@@std@@@std@@IAEXPAU_Node@?$_Tree_nod@V?$_Tmap_traits@HPAVStringResource@Pegas@@U?$less@H@std@@V?$allocator@U?$pair@$$CBHPAVStringResource@Pegas@@@std@@@4@$0A@@std@@@2@@Z 00421e60 f i game_app.obj
 0001:00020f10       ?deallocate@?$allocator@U_Node@?$_Tree_nod@V?$_Tmap_traits@HPAVStringResource@Pegas@@U?$less@H@std@@V?$allocator@U?$pair@$$CBHPAVStringResource@Pegas@@@std@@@4@$0A@@std@@@std@@@std@@QAEXPAU_Node@?$_Tree_nod@V?$_Tmap_traits@HPAVStringResource@Pegas@@U?$less@H@std@@V?$allocator@U?$pair@$$CBHPAVStringResource@Pegas@@@std@@@4@$0A@@std@@@2@I@Z 00421f10 f i game_app.obj
 0001:00020f60       ?_Isnil@?$_Tree@V?$_Tmap_traits@HPAVStringResource@Pegas@@U?$less@H@std@@V?$allocator@U?$pair@$$CBHPAVStringResource@Pegas@@@std@@@4@$0A@@std@@@std@@KAAADPAU_Node@?$_Tree_nod@V?$_Tmap_traits@HPAVStringResource@Pegas@@U?$less@H@std@@V?$allocator@U?$pair@$$CBHPAVStringResource@Pegas@@@std@@@4@$0A@@std@@@2@@Z 00421f60 f i game_app.obj
 0001:00020f90       ?_Orphan_ptr@?$_Tree@V?$_Tmap_traits@HPAVStringResource@Pegas@@U?$less@H@std@@V?$allocator@U?$pair@$$CBHPAVStringResource@Pegas@@@std@@@4@$0A@@std@@@std@@IBEXAAV12@PAU_Node@?$_Tree_nod@V?$_Tmap_traits@HPAVStringResource@Pegas@@U?$less@H@std@@V?$allocator@U?$pair@$$CBHPAVStringResource@Pegas@@@std@@@4@$0A@@std@@@2@@Z 00421f90 f i game_app.obj
 0001:00021060       ?destroy@?$allocator@U_Node@?$_Tree_nod@V?$_Tmap_traits@HPAVStringResource@Pegas@@U?$less@H@std@@V?$allocator@U?$pair@$$CBHPAVStringResource@Pegas@@@std@@@4@$0A@@std@@@std@@@std@@QAEXPAU_Node@?$_Tree_nod@V?$_Tmap_traits@HPAVStringResource@Pegas@@U?$less@H@std@@V?$allocator@U?$pair@$$CBHPAVStringResource@Pegas@@@std@@@4@$0A@@std@@@2@@Z 00422060 f i game_app.obj
 0001:000210b0       ??0const_iterator@?$_Tree@V?$_Tmap_traits@HPAVStringResource@Pegas@@U?$less@H@std@@V?$allocator@U?$pair@$$CBHPAVStringResource@Pegas@@@std@@@4@$0A@@std@@@std@@QAE@PAU_Node@?$_Tree_nod@V?$_Tmap_traits@HPAVStringResource@Pegas@@U?$less@H@std@@V?$allocator@U?$pair@$$CBHPAVStringResource@Pegas@@@std@@@4@$0A@@std@@@2@PBV12@@Z 004220b0 f i game_app.obj
 0001:00021150       ??0?$_Bidit@U?$pair@$$CBHPAVStringResource@Pegas@@@std@@HPBU12@ABU12@@std@@QAE@XZ 00422150 f i game_app.obj
 0001:000211a0       ??0?$_Iterator_with_base@Ubidirectional_iterator_tag@std@@U?$pair@$$CBHPAVStringResource@Pegas@@@2@HPBU32@ABU32@V_Iterator_base@2@@std@@QAE@XZ 004221a0 f i game_app.obj
 0001:000211f0       ?destroyAll@?$ResourceManager@VTextureResource@Pegas@@UIntResourceCode@2@@Pegas@@QAEXXZ 004221f0 f i game_app.obj
 0001:00021340       ?end@?$_Tree@V?$_Tmap_traits@HPAVTextureResource@Pegas@@U?$less@H@std@@V?$allocator@U?$pair@$$CBHPAVTextureResource@Pegas@@@std@@@4@$0A@@std@@@std@@QAE?AViterator@12@XZ 00422340 f i game_app.obj
 0001:000213b0       ?clear@?$_Tree@V?$_Tmap_traits@HPAVTextureResource@Pegas@@U?$less@H@std@@V?$allocator@U?$pair@$$CBHPAVTextureResource@Pegas@@@std@@@4@$0A@@std@@@std@@QAEXXZ 004223b0 f i game_app.obj
 0001:00021450       ?_Erase@?$_Tree@V?$_Tmap_traits@HPAVTextureResource@Pegas@@U?$less@H@std@@V?$allocator@U?$pair@$$CBHPAVTextureResource@Pegas@@@std@@@4@$0A@@std@@@std@@IAEXPAU_Node@?$_Tree_nod@V?$_Tmap_traits@HPAVTextureResource@Pegas@@U?$less@H@std@@V?$allocator@U?$pair@$$CBHPAVTextureResource@Pegas@@@std@@@4@$0A@@std@@@2@@Z 00422450 f i game_app.obj
 0001:00021500       ?_Orphan_ptr@?$_Tree@V?$_Tmap_traits@HPAVTextureResource@Pegas@@U?$less@H@std@@V?$allocator@U?$pair@$$CBHPAVTextureResource@Pegas@@@std@@@4@$0A@@std@@@std@@IBEXAAV12@PAU_Node@?$_Tree_nod@V?$_Tmap_traits@HPAVTextureResource@Pegas@@U?$less@H@std@@V?$allocator@U?$pair@$$CBHPAVTextureResource@Pegas@@@std@@@4@$0A@@std@@@2@@Z 00422500 f i game_app.obj
 0001:000215d0       ?destroy@?$allocator@U_Node@?$_Tree_nod@V?$_Tmap_traits@HPAVTextureResource@Pegas@@U?$less@H@std@@V?$allocator@U?$pair@$$CBHPAVTextureResource@Pegas@@@std@@@4@$0A@@std@@@std@@@std@@QAEXPAU_Node@?$_Tree_nod@V?$_Tmap_traits@HPAVTextureResource@Pegas@@U?$less@H@std@@V?$allocator@U?$pair@$$CBHPAVTextureResource@Pegas@@@std@@@4@$0A@@std@@@2@@Z 004225d0 f i game_app.obj
 0001:00021620       ?destroyAll@?$ResourceManager@VFontResource@Pegas@@UFontResourceCode@2@@Pegas@@QAEXXZ 00422620 f i game_app.obj
 0001:00021770       ?end@?$_Tree@V?$_Tmap_traits@HPAVFontResource@Pegas@@U?$less@H@std@@V?$allocator@U?$pair@$$CBHPAVFontResource@Pegas@@@std@@@4@$0A@@std@@@std@@QAE?AViterator@12@XZ 00422770 f i game_app.obj
 0001:000217e0       ?clear@?$_Tree@V?$_Tmap_traits@HPAVFontResource@Pegas@@U?$less@H@std@@V?$allocator@U?$pair@$$CBHPAVFontResource@Pegas@@@std@@@4@$0A@@std@@@std@@QAEXXZ 004227e0 f i game_app.obj
 0001:00021880       ?_Erase@?$_Tree@V?$_Tmap_traits@HPAVFontResource@Pegas@@U?$less@H@std@@V?$allocator@U?$pair@$$CBHPAVFontResource@Pegas@@@std@@@4@$0A@@std@@@std@@IAEXPAU_Node@?$_Tree_nod@V?$_Tmap_traits@HPAVFontResource@Pegas@@U?$less@H@std@@V?$allocator@U?$pair@$$CBHPAVFontResource@Pegas@@@std@@@4@$0A@@std@@@2@@Z 00422880 f i game_app.obj
 0001:00021930       ?_Orphan_ptr@?$_Tree@V?$_Tmap_traits@HPAVFontResource@Pegas@@U?$less@H@std@@V?$allocator@U?$pair@$$CBHPAVFontResource@Pegas@@@std@@@4@$0A@@std@@@std@@IBEXAAV12@PAU_Node@?$_Tree_nod@V?$_Tmap_traits@HPAVFontResource@Pegas@@U?$less@H@std@@V?$allocator@U?$pair@$$CBHPAVFontResource@Pegas@@@std@@@4@$0A@@std@@@2@@Z 00422930 f i game_app.obj
 0001:00021a00       ?destroy@?$allocator@U_Node@?$_Tree_nod@V?$_Tmap_traits@HPAVFontResource@Pegas@@U?$less@H@std@@V?$allocator@U?$pair@$$CBHPAVFontResource@Pegas@@@std@@@4@$0A@@std@@@std@@@std@@QAEXPAU_Node@?$_Tree_nod@V?$_Tmap_traits@HPAVFontResource@Pegas@@U?$less@H@std@@V?$allocator@U?$pair@$$CBHPAVFontResource@Pegas@@@std@@@4@$0A@@std@@@2@@Z 00422a00 f i game_app.obj
 0001:00021a50       ?destroyAll@?$ResourceManager@VSoundResource@Pegas@@UIntResourceCode@2@@Pegas@@QAEXXZ 00422a50 f i game_app.obj
 0001:00021ba0       ??1iterator@?$_Tree@V?$_Tmap_traits@HPAVSoundResource@Pegas@@U?$less@H@std@@V?$allocator@U?$pair@$$CBHPAVSoundResource@Pegas@@@std@@@4@$0A@@std@@@std@@QAE@XZ 00422ba0 f i game_app.obj
 0001:00021be0       ??1const_iterator@?$_Tree@V?$_Tmap_traits@HPAVSoundResource@Pegas@@U?$less@H@std@@V?$allocator@U?$pair@$$CBHPAVSoundResource@Pegas@@@std@@@4@$0A@@std@@@std@@QAE@XZ 00422be0 f i game_app.obj
 0001:00021c20       ??1?$_Bidit@U?$pair@$$CBHPAVSoundResource@Pegas@@@std@@HPBU12@ABU12@@std@@QAE@XZ 00422c20 f i game_app.obj
 0001:00021c60       ??1?$_Iterator_with_base@Ubidirectional_iterator_tag@std@@U?$pair@$$CBHPAVSoundResource@Pegas@@@2@HPBU32@ABU32@V_Iterator_base@2@@std@@QAE@XZ 00422c60 f i game_app.obj
 0001:00021ca0       ?begin@?$_Tree@V?$_Tmap_traits@HPAVSoundResource@Pegas@@U?$less@H@std@@V?$allocator@U?$pair@$$CBHPAVSoundResource@Pegas@@@std@@@4@$0A@@std@@@std@@QAE?AViterator@12@XZ 00422ca0 f i game_app.obj
 0001:00021d10       ?end@?$_Tree@V?$_Tmap_traits@HPAVSoundResource@Pegas@@U?$less@H@std@@V?$allocator@U?$pair@$$CBHPAVSoundResource@Pegas@@@std@@@4@$0A@@std@@@std@@QAE?AViterator@12@XZ 00422d10 f i game_app.obj
 0001:00021d80       ?clear@?$_Tree@V?$_Tmap_traits@HPAVSoundResource@Pegas@@U?$less@H@std@@V?$allocator@U?$pair@$$CBHPAVSoundResource@Pegas@@@std@@@4@$0A@@std@@@std@@QAEXXZ 00422d80 f i game_app.obj
 0001:00021e20       ?_Lmost@?$_Tree@V?$_Tmap_traits@HPAVSoundResource@Pegas@@U?$less@H@std@@V?$allocator@U?$pair@$$CBHPAVSoundResource@Pegas@@@std@@@4@$0A@@std@@@std@@IBEAAPAU_Node@?$_Tree_nod@V?$_Tmap_traits@HPAVSoundResource@Pegas@@U?$less@H@std@@V?$allocator@U?$pair@$$CBHPAVSoundResource@Pegas@@@std@@@4@$0A@@std@@@2@XZ 00422e20 f i game_app.obj
 0001:00021e70       ?_Left@?$_Tree@V?$_Tmap_traits@HPAVSoundResource@Pegas@@U?$less@H@std@@V?$allocator@U?$pair@$$CBHPAVSoundResource@Pegas@@@std@@@4@$0A@@std@@@std@@KAAAPAU_Node@?$_Tree_nod@V?$_Tmap_traits@HPAVSoundResource@Pegas@@U?$less@H@std@@V?$allocator@U?$pair@$$CBHPAVSoundResource@Pegas@@@std@@@4@$0A@@std@@@2@PAU342@@Z 00422e70 f i game_app.obj
 0001:00021ea0       ?_Rmost@?$_Tree@V?$_Tmap_traits@HPAVSoundResource@Pegas@@U?$less@H@std@@V?$allocator@U?$pair@$$CBHPAVSoundResource@Pegas@@@std@@@4@$0A@@std@@@std@@IBEAAPAU_Node@?$_Tree_nod@V?$_Tmap_traits@HPAVSoundResource@Pegas@@U?$less@H@std@@V?$allocator@U?$pair@$$CBHPAVSoundResource@Pegas@@@std@@@4@$0A@@std@@@2@XZ 00422ea0 f i game_app.obj
 0001:00021ef0       ?_Right@?$_Tree@V?$_Tmap_traits@HPAVSoundResource@Pegas@@U?$less@H@std@@V?$allocator@U?$pair@$$CBHPAVSoundResource@Pegas@@@std@@@4@$0A@@std@@@std@@KAAAPAU_Node@?$_Tree_nod@V?$_Tmap_traits@HPAVSoundResource@Pegas@@U?$less@H@std@@V?$allocator@U?$pair@$$CBHPAVSoundResource@Pegas@@@std@@@4@$0A@@std@@@2@PAU342@@Z 00422ef0 f i game_app.obj
 0001:00021f20       ?_Root@?$_Tree@V?$_Tmap_traits@HPAVSoundResource@Pegas@@U?$less@H@std@@V?$allocator@U?$pair@$$CBHPAVSoundResource@Pegas@@@std@@@4@$0A@@std@@@std@@IBEAAPAU_Node@?$_Tree_nod@V?$_Tmap_traits@HPAVSoundResource@Pegas@@U?$less@H@std@@V?$allocator@U?$pair@$$CBHPAVSoundResource@Pegas@@@std@@@4@$0A@@std@@@2@XZ 00422f20 f i game_app.obj
 0001:00021f70       ?_Parent@?$_Tree@V?$_Tmap_traits@HPAVSoundResource@Pegas@@U?$less@H@std@@V?$allocator@U?$pair@$$CBHPAVSoundResource@Pegas@@@std@@@4@$0A@@std@@@std@@KAAAPAU_Node@?$_Tree_nod@V?$_Tmap_traits@HPAVSoundResource@Pegas@@U?$less@H@std@@V?$allocator@U?$pair@$$CBHPAVSoundResource@Pegas@@@std@@@4@$0A@@std@@@2@PAU342@@Z 00422f70 f i game_app.obj
 0001:00021fa0       ??0iterator@?$_Tree@V?$_Tmap_traits@HPAVSoundResource@Pegas@@U?$less@H@std@@V?$allocator@U?$pair@$$CBHPAVSoundResource@Pegas@@@std@@@4@$0A@@std@@@std@@QAE@PAU_Node@?$_Tree_nod@V?$_Tmap_traits@HPAVSoundResource@Pegas@@U?$less@H@std@@V?$allocator@U?$pair@$$CBHPAVSoundResource@Pegas@@@std@@@4@$0A@@std@@@2@PBV12@@Z 00422fa0 f i game_app.obj
 0001:00021ff0       ??9const_iterator@?$_Tree@V?$_Tmap_traits@HPAVSoundResource@Pegas@@U?$less@H@std@@V?$allocator@U?$pair@$$CBHPAVSoundResource@Pegas@@@std@@@4@$0A@@std@@@std@@QBE_NABV012@@Z 00422ff0 f i game_app.obj
 0001:00022040       ??8const_iterator@?$_Tree@V?$_Tmap_traits@HPAVSoundResource@Pegas@@U?$less@H@std@@V?$allocator@U?$pair@$$CBHPAVSoundResource@Pegas@@@std@@@4@$0A@@std@@@std@@QBE_NABV012@@Z 00423040 f i game_app.obj
 0001:00022100       ?_Erase@?$_Tree@V?$_Tmap_traits@HPAVSoundResource@Pegas@@U?$less@H@std@@V?$allocator@U?$pair@$$CBHPAVSoundResource@Pegas@@@std@@@4@$0A@@std@@@std@@IAEXPAU_Node@?$_Tree_nod@V?$_Tmap_traits@HPAVSoundResource@Pegas@@U?$less@H@std@@V?$allocator@U?$pair@$$CBHPAVSoundResource@Pegas@@@std@@@4@$0A@@std@@@2@@Z 00423100 f i game_app.obj
 0001:000221b0       ?deallocate@?$allocator@U_Node@?$_Tree_nod@V?$_Tmap_traits@HPAVSoundResource@Pegas@@U?$less@H@std@@V?$allocator@U?$pair@$$CBHPAVSoundResource@Pegas@@@std@@@4@$0A@@std@@@std@@@std@@QAEXPAU_Node@?$_Tree_nod@V?$_Tmap_traits@HPAVSoundResource@Pegas@@U?$less@H@std@@V?$allocator@U?$pair@$$CBHPAVSoundResource@Pegas@@@std@@@4@$0A@@std@@@2@I@Z 004231b0 f i game_app.obj
 0001:00022200       ?_Isnil@?$_Tree@V?$_Tmap_traits@HPAVSoundResource@Pegas@@U?$less@H@std@@V?$allocator@U?$pair@$$CBHPAVSoundResource@Pegas@@@std@@@4@$0A@@std@@@std@@KAAADPAU_Node@?$_Tree_nod@V?$_Tmap_traits@HPAVSoundResource@Pegas@@U?$less@H@std@@V?$allocator@U?$pair@$$CBHPAVSoundResource@Pegas@@@std@@@4@$0A@@std@@@2@@Z 00423200 f i game_app.obj
 0001:00022230       ?_Orphan_ptr@?$_Tree@V?$_Tmap_traits@HPAVSoundResource@Pegas@@U?$less@H@std@@V?$allocator@U?$pair@$$CBHPAVSoundResource@Pegas@@@std@@@4@$0A@@std@@@std@@IBEXAAV12@PAU_Node@?$_Tree_nod@V?$_Tmap_traits@HPAVSoundResource@Pegas@@U?$less@H@std@@V?$allocator@U?$pair@$$CBHPAVSoundResource@Pegas@@@std@@@4@$0A@@std@@@2@@Z 00423230 f i game_app.obj
 0001:00022300       ?destroy@?$allocator@U_Node@?$_Tree_nod@V?$_Tmap_traits@HPAVSoundResource@Pegas@@U?$less@H@std@@V?$allocator@U?$pair@$$CBHPAVSoundResource@Pegas@@@std@@@4@$0A@@std@@@std@@@std@@QAEXPAU_Node@?$_Tree_nod@V?$_Tmap_traits@HPAVSoundResource@Pegas@@U?$less@H@std@@V?$allocator@U?$pair@$$CBHPAVSoundResource@Pegas@@@std@@@4@$0A@@std@@@2@@Z 00423300 f i game_app.obj
 0001:00022350       ??0const_iterator@?$_Tree@V?$_Tmap_traits@HPAVSoundResource@Pegas@@U?$less@H@std@@V?$allocator@U?$pair@$$CBHPAVSoundResource@Pegas@@@std@@@4@$0A@@std@@@std@@QAE@PAU_Node@?$_Tree_nod@V?$_Tmap_traits@HPAVSoundResource@Pegas@@U?$less@H@std@@V?$allocator@U?$pair@$$CBHPAVSoundResource@Pegas@@@std@@@4@$0A@@std@@@2@PBV12@@Z 00423350 f i game_app.obj
 0001:000223f0       ??0?$_Bidit@U?$pair@$$CBHPAVSoundResource@Pegas@@@std@@HPBU12@ABU12@@std@@QAE@XZ 004233f0 f i game_app.obj
 0001:00022440       ??0?$_Iterator_with_base@Ubidirectional_iterator_tag@std@@U?$pair@$$CBHPAVSoundResource@Pegas@@@2@HPBU32@ABU32@V_Iterator_base@2@@std@@QAE@XZ 00423440 f i game_app.obj
 0001:00022490       ??$copy_s@U?$char_traits@D@std@@@_Traits_helper@std@@YAPADPADIPBDI@Z 00423490 f i game_app.obj
 0001:000224f0       ??$copy_s@U?$char_traits@_W@std@@@_Traits_helper@std@@YAPA_WPA_WIPB_WI@Z 004234f0 f i game_app.obj
 0001:00022550       ??$move_s@U?$char_traits@_W@std@@@_Traits_helper@std@@YAPA_WPA_WIPB_WI@Z 00423550 f i game_app.obj
 0001:000225b0       ??$_Debug_pointer@_W@std@@YAXPB_W0I@Z 004235b0 f i game_app.obj
 0001:00022600       ??$move_s@U?$char_traits@D@std@@@_Traits_helper@std@@YAPADPADIPBDI@Z 00423600 f i game_app.obj
 0001:00022660       ??$_Destroy@PAV?$ptr@VIGameState@Pegas@@@Pegas@@@std@@YAXPAPAV?$ptr@VIGameState@Pegas@@@Pegas@@@Z 00423660 f i game_app.obj
 0001:00022690       ??$_Allocate@U_Node@?$_List_nod@V?$ptr@VFile@Pegas@@@Pegas@@V?$allocator@V?$ptr@VFile@Pegas@@@Pegas@@@std@@@std@@@std@@YAPAU_Node@?$_List_nod@V?$ptr@VFile@Pegas@@@Pegas@@V?$allocator@V?$ptr@VFile@Pegas@@@Pegas@@@std@@@0@IPAU120@@Z 00423690 f i game_app.obj
 0001:00022710       ??$_Construct@PAU_Node@?$_List_nod@V?$ptr@VFile@Pegas@@@Pegas@@V?$allocator@V?$ptr@VFile@Pegas@@@Pegas@@@std@@@std@@PAU123@@std@@YAXPAPAU_Node@?$_List_nod@V?$ptr@VFile@Pegas@@@Pegas@@V?$allocator@V?$ptr@VFile@Pegas@@@Pegas@@@std@@@0@ABQAU120@@Z 00423710 f i game_app.obj
 0001:00022790       ??$_Destroy@PAU_Node@?$_List_nod@V?$ptr@VFile@Pegas@@@Pegas@@V?$allocator@V?$ptr@VFile@Pegas@@@Pegas@@@std@@@std@@@std@@YAXPAPAU_Node@?$_List_nod@V?$ptr@VFile@Pegas@@@Pegas@@V?$allocator@V?$ptr@VFile@Pegas@@@Pegas@@@std@@@0@@Z 00423790 f i game_app.obj
 0001:000227c0       ??$swap@D@std@@YAXAAD0@Z   004237c0 f i game_app.obj
 0001:00022810       ??$?0V?$ptr@VIGameState@Pegas@@@Pegas@@@?$allocator@PAV?$ptr@VIGameState@Pegas@@@Pegas@@@std@@QAE@ABV?$allocator@V?$ptr@VIGameState@Pegas@@@Pegas@@@1@@Z 00423810 f i game_app.obj
 0001:00022840       ??$_Destroy@V?$ptr@VIGameState@Pegas@@@Pegas@@@std@@YAXPAV?$ptr@VIGameState@Pegas@@@Pegas@@@Z 00423840 f i game_app.obj
 0001:00022880       ??$_Destroy@U_Node@?$_List_nod@V?$ptr@VFile@Pegas@@@Pegas@@V?$allocator@V?$ptr@VFile@Pegas@@@Pegas@@@std@@@std@@@std@@YAXPAU_Node@?$_List_nod@V?$ptr@VFile@Pegas@@@Pegas@@V?$allocator@V?$ptr@VFile@Pegas@@@Pegas@@@std@@@0@@Z 00423880 f i game_app.obj
 0001:000228c0       ??$_Allocate@D@std@@YAPADIPAD@Z 004238c0 f i game_app.obj
 0001:00022940       ??$_Allocate@_W@std@@YAPA_WIPA_W@Z 00423940 f i game_app.obj
 0001:000229c0       ??$_Allocate@U_Node@?$_Tree_nod@V?$_Tset_traits@PAVIKeyboardController@Pegas@@U?$less@PAVIKeyboardController@Pegas@@@std@@V?$allocator@PAVIKeyboardController@Pegas@@@4@$0A@@std@@@std@@@std@@YAPAU_Node@?$_Tree_nod@V?$_Tset_traits@PAVIKeyboardController@Pegas@@U?$less@PAVIKeyboardController@Pegas@@@std@@V?$allocator@PAVIKeyboardController@Pegas@@@4@$0A@@std@@@0@IPAU120@@Z 004239c0 f i game_app.obj
 0001:00022a40       ??$_Destroy@U_Node@?$_Tree_nod@V?$_Tset_traits@PAVIKeyboardController@Pegas@@U?$less@PAVIKeyboardController@Pegas@@@std@@V?$allocator@PAVIKeyboardController@Pegas@@@4@$0A@@std@@@std@@@std@@YAXPAU_Node@?$_Tree_nod@V?$_Tset_traits@PAVIKeyboardController@Pegas@@U?$less@PAVIKeyboardController@Pegas@@@std@@V?$allocator@PAVIKeyboardController@Pegas@@@4@$0A@@std@@@0@@Z 00423a40 f i game_app.obj
 0001:00022a70       ??$_Allocate@U_Node@?$_Tree_nod@V?$_Tset_traits@PAVIMouseController@Pegas@@U?$less@PAVIMouseController@Pegas@@@std@@V?$allocator@PAVIMouseController@Pegas@@@4@$0A@@std@@@std@@@std@@YAPAU_Node@?$_Tree_nod@V?$_Tset_traits@PAVIMouseController@Pegas@@U?$less@PAVIMouseController@Pegas@@@std@@V?$allocator@PAVIMouseController@Pegas@@@4@$0A@@std@@@0@IPAU120@@Z 00423a70 f i game_app.obj
 0001:00022af0       ??$_Destroy@U_Node@?$_Tree_nod@V?$_Tset_traits@PAVIMouseController@Pegas@@U?$less@PAVIMouseController@Pegas@@@std@@V?$allocator@PAVIMouseController@Pegas@@@4@$0A@@std@@@std@@@std@@YAXPAU_Node@?$_Tree_nod@V?$_Tset_traits@PAVIMouseController@Pegas@@U?$less@PAVIMouseController@Pegas@@@std@@V?$allocator@PAVIMouseController@Pegas@@@4@$0A@@std@@@0@@Z 00423af0 f i game_app.obj
 0001:00022b20       ??$_Allocate@U_Node@?$_Tree_nod@V?$_Tmap_traits@HV?$ptr@VIGameState@Pegas@@@Pegas@@U?$less@H@std@@V?$allocator@U?$pair@$$CBHV?$ptr@VIGameState@Pegas@@@Pegas@@@std@@@4@$0A@@std@@@std@@@std@@YAPAU_Node@?$_Tree_nod@V?$_Tmap_traits@HV?$ptr@VIGameState@Pegas@@@Pegas@@U?$less@H@std@@V?$allocator@U?$pair@$$CBHV?$ptr@VIGameState@Pegas@@@Pegas@@@std@@@4@$0A@@std@@@0@IPAU120@@Z 00423b20 f i game_app.obj
 0001:00022ba0       ??$_Destroy@U_Node@?$_Tree_nod@V?$_Tmap_traits@HV?$ptr@VIGameState@Pegas@@@Pegas@@U?$less@H@std@@V?$allocator@U?$pair@$$CBHV?$ptr@VIGameState@Pegas@@@Pegas@@@std@@@4@$0A@@std@@@std@@@std@@YAXPAU_Node@?$_Tree_nod@V?$_Tmap_traits@HV?$ptr@VIGameState@Pegas@@@Pegas@@U?$less@H@std@@V?$allocator@U?$pair@$$CBHV?$ptr@VIGameState@Pegas@@@Pegas@@@std@@@4@$0A@@std@@@0@@Z 00423ba0 f i game_app.obj
 0001:00022be0       ??$_Destroy@U_Node@?$_Tree_nod@V?$_Tmap_traits@HPAVStringResource@Pegas@@U?$less@H@std@@V?$allocator@U?$pair@$$CBHPAVStringResource@Pegas@@@std@@@4@$0A@@std@@@std@@@std@@YAXPAU_Node@?$_Tree_nod@V?$_Tmap_traits@HPAVStringResource@Pegas@@U?$less@H@std@@V?$allocator@U?$pair@$$CBHPAVStringResource@Pegas@@@std@@@4@$0A@@std@@@0@@Z 00423be0 f i game_app.obj
 0001:00022c10       ??$_Allocate@U_Node@?$_Tree_nod@V?$_Tmap_traits@HPAVTextureResource@Pegas@@U?$less@H@std@@V?$allocator@U?$pair@$$CBHPAVTextureResource@Pegas@@@std@@@4@$0A@@std@@@std@@@std@@YAPAU_Node@?$_Tree_nod@V?$_Tmap_traits@HPAVTextureResource@Pegas@@U?$less@H@std@@V?$allocator@U?$pair@$$CBHPAVTextureResource@Pegas@@@std@@@4@$0A@@std@@@0@IPAU120@@Z 00423c10 f i game_app.obj
 0001:00022c90       ??$_Destroy@U_Node@?$_Tree_nod@V?$_Tmap_traits@HPAVTextureResource@Pegas@@U?$less@H@std@@V?$allocator@U?$pair@$$CBHPAVTextureResource@Pegas@@@std@@@4@$0A@@std@@@std@@@std@@YAXPAU_Node@?$_Tree_nod@V?$_Tmap_traits@HPAVTextureResource@Pegas@@U?$less@H@std@@V?$allocator@U?$pair@$$CBHPAVTextureResource@Pegas@@@std@@@4@$0A@@std@@@0@@Z 00423c90 f i game_app.obj
 0001:00022cc0       ??$_Allocate@U_Node@?$_Tree_nod@V?$_Tmap_traits@HPAVFontResource@Pegas@@U?$less@H@std@@V?$allocator@U?$pair@$$CBHPAVFontResource@Pegas@@@std@@@4@$0A@@std@@@std@@@std@@YAPAU_Node@?$_Tree_nod@V?$_Tmap_traits@HPAVFontResource@Pegas@@U?$less@H@std@@V?$allocator@U?$pair@$$CBHPAVFontResource@Pegas@@@std@@@4@$0A@@std@@@0@IPAU120@@Z 00423cc0 f i game_app.obj
 0001:00022d40       ??$_Destroy@U_Node@?$_Tree_nod@V?$_Tmap_traits@HPAVFontResource@Pegas@@U?$less@H@std@@V?$allocator@U?$pair@$$CBHPAVFontResource@Pegas@@@std@@@4@$0A@@std@@@std@@@std@@YAXPAU_Node@?$_Tree_nod@V?$_Tmap_traits@HPAVFontResource@Pegas@@U?$less@H@std@@V?$allocator@U?$pair@$$CBHPAVFontResource@Pegas@@@std@@@4@$0A@@std@@@0@@Z 00423d40 f i game_app.obj
 0001:00022d70       ??$_Destroy@U_Node@?$_Tree_nod@V?$_Tmap_traits@HPAVSoundResource@Pegas@@U?$less@H@std@@V?$allocator@U?$pair@$$CBHPAVSoundResource@Pegas@@@std@@@4@$0A@@std@@@std@@@std@@YAXPAU_Node@?$_Tree_nod@V?$_Tmap_traits@HPAVSoundResource@Pegas@@U?$less@H@std@@V?$allocator@U?$pair@$$CBHPAVSoundResource@Pegas@@@std@@@4@$0A@@std@@@0@@Z 00423d70 f i game_app.obj
 0001:00022da0       ??_G?$ptr@VIGameState@Pegas@@@Pegas@@QAEPAXI@Z 00423da0 f i game_app.obj
 0001:00022e00       ??_G_Node@?$_List_nod@V?$ptr@VFile@Pegas@@@Pegas@@V?$allocator@V?$ptr@VFile@Pegas@@@Pegas@@@std@@@std@@QAEPAXI@Z 00423e00 f i game_app.obj
 0001:00022e60       ??_G_Node@?$_Tree_nod@V?$_Tmap_traits@HV?$ptr@VIGameState@Pegas@@@Pegas@@U?$less@H@std@@V?$allocator@U?$pair@$$CBHV?$ptr@VIGameState@Pegas@@@Pegas@@@std@@@4@$0A@@std@@@std@@QAEPAXI@Z 00423e60 f i game_app.obj
 0001:00022ec0       ??1_Node@?$_List_nod@V?$ptr@VFile@Pegas@@@Pegas@@V?$allocator@V?$ptr@VFile@Pegas@@@Pegas@@@std@@@std@@QAE@XZ 00423ec0 f i game_app.obj
 0001:00022f10       ??1_Node@?$_Tree_nod@V?$_Tmap_traits@HV?$ptr@VIGameState@Pegas@@@Pegas@@U?$less@H@std@@V?$allocator@U?$pair@$$CBHV?$ptr@VIGameState@Pegas@@@Pegas@@@std@@@4@$0A@@std@@@std@@QAE@XZ 00423f10 f i game_app.obj
 0001:00022f60       ??1?$pair@$$CBHV?$ptr@VIGameState@Pegas@@@Pegas@@@std@@QAE@XZ 00423f60 f i game_app.obj
 0001:00022fb0       ??1?$ptr@UEvent@Pegas@@@Pegas@@QAE@XZ 00423fb0 f i game_app.obj
 0001:00022ff0       ??1?$ptr@VIGameState@Pegas@@@Pegas@@QAE@XZ 00423ff0 f i game_app.obj
 0001:00023030       ??1?$ptr@VFile@Pegas@@@Pegas@@QAE@XZ 00424030 f i game_app.obj
 0001:00023070       ??Citerator@?$_Tree@V?$_Tmap_traits@HPAVStringResource@Pegas@@U?$less@H@std@@V?$allocator@U?$pair@$$CBHPAVStringResource@Pegas@@@std@@@4@$0A@@std@@@std@@QBEPAU?$pair@$$CBHPAVStringResource@Pegas@@@2@XZ 00424070 f i game_app.obj
 0001:000230b0       ??Eiterator@?$_Tree@V?$_Tmap_traits@HPAVStringResource@Pegas@@U?$less@H@std@@V?$allocator@U?$pair@$$CBHPAVStringResource@Pegas@@@std@@@4@$0A@@std@@@std@@QAEAAV012@XZ 004240b0 f i game_app.obj
 0001:00023100       ??Econst_iterator@?$_Tree@V?$_Tmap_traits@HPAVStringResource@Pegas@@U?$less@H@std@@V?$allocator@U?$pair@$$CBHPAVStringResource@Pegas@@@std@@@4@$0A@@std@@@std@@QAEAAV012@XZ 00424100 f i game_app.obj
 0001:00023150       ?_Inc@const_iterator@?$_Tree@V?$_Tmap_traits@HPAVStringResource@Pegas@@U?$less@H@std@@V?$allocator@U?$pair@$$CBHPAVStringResource@Pegas@@@std@@@4@$0A@@std@@@std@@QAEXXZ 00424150 f i game_app.obj
 0001:000232b0       ?_Min@?$_Tree@V?$_Tmap_traits@HPAVStringResource@Pegas@@U?$less@H@std@@V?$allocator@U?$pair@$$CBHPAVStringResource@Pegas@@@std@@@4@$0A@@std@@@std@@KAPAU_Node@?$_Tree_nod@V?$_Tmap_traits@HPAVStringResource@Pegas@@U?$less@H@std@@V?$allocator@U?$pair@$$CBHPAVStringResource@Pegas@@@std@@@4@$0A@@std@@@2@PAU342@@Z 004242b0 f i game_app.obj
 0001:00023320       ??Citerator@?$_Tree@V?$_Tmap_traits@HPAVTextureResource@Pegas@@U?$less@H@std@@V?$allocator@U?$pair@$$CBHPAVTextureResource@Pegas@@@std@@@4@$0A@@std@@@std@@QBEPAU?$pair@$$CBHPAVTextureResource@Pegas@@@2@XZ 00424320 f i game_app.obj
 0001:00023360       ??Eiterator@?$_Tree@V?$_Tmap_traits@HPAVTextureResource@Pegas@@U?$less@H@std@@V?$allocator@U?$pair@$$CBHPAVTextureResource@Pegas@@@std@@@4@$0A@@std@@@std@@QAEAAV012@XZ 00424360 f i game_app.obj
 0001:000233b0       ??Citerator@?$_Tree@V?$_Tmap_traits@HPAVFontResource@Pegas@@U?$less@H@std@@V?$allocator@U?$pair@$$CBHPAVFontResource@Pegas@@@std@@@4@$0A@@std@@@std@@QBEPAU?$pair@$$CBHPAVFontResource@Pegas@@@2@XZ 004243b0 f i game_app.obj
 0001:000233f0       ??Eiterator@?$_Tree@V?$_Tmap_traits@HPAVFontResource@Pegas@@U?$less@H@std@@V?$allocator@U?$pair@$$CBHPAVFontResource@Pegas@@@std@@@4@$0A@@std@@@std@@QAEAAV012@XZ 004243f0 f i game_app.obj
 0001:00023440       ??Citerator@?$_Tree@V?$_Tmap_traits@HPAVSoundResource@Pegas@@U?$less@H@std@@V?$allocator@U?$pair@$$CBHPAVSoundResource@Pegas@@@std@@@4@$0A@@std@@@std@@QBEPAU?$pair@$$CBHPAVSoundResource@Pegas@@@2@XZ 00424440 f i game_app.obj
 0001:00023480       ??Eiterator@?$_Tree@V?$_Tmap_traits@HPAVSoundResource@Pegas@@U?$less@H@std@@V?$allocator@U?$pair@$$CBHPAVSoundResource@Pegas@@@std@@@4@$0A@@std@@@std@@QAEAAV012@XZ 00424480 f i game_app.obj
 0001:000234d0       ??Econst_iterator@?$_Tree@V?$_Tmap_traits@HPAVSoundResource@Pegas@@U?$less@H@std@@V?$allocator@U?$pair@$$CBHPAVSoundResource@Pegas@@@std@@@4@$0A@@std@@@std@@QAEAAV012@XZ 004244d0 f i game_app.obj
 0001:00023520       ?_Inc@const_iterator@?$_Tree@V?$_Tmap_traits@HPAVSoundResource@Pegas@@U?$less@H@std@@V?$allocator@U?$pair@$$CBHPAVSoundResource@Pegas@@@std@@@4@$0A@@std@@@std@@QAEXXZ 00424520 f i game_app.obj
 0001:00023680       ?_Min@?$_Tree@V?$_Tmap_traits@HPAVSoundResource@Pegas@@U?$less@H@std@@V?$allocator@U?$pair@$$CBHPAVSoundResource@Pegas@@@std@@@4@$0A@@std@@@std@@KAPAU_Node@?$_Tree_nod@V?$_Tmap_traits@HPAVSoundResource@Pegas@@U?$less@H@std@@V?$allocator@U?$pair@$$CBHPAVSoundResource@Pegas@@@std@@@4@$0A@@std@@@2@PAU342@@Z 00424680 f i game_app.obj
 0001:000236f0       ?release@?$ptr@UEvent@Pegas@@@Pegas@@AAEXXZ 004246f0 f i game_app.obj
 0001:000237d0       ?release@?$ptr@VIGameState@Pegas@@@Pegas@@AAEXXZ 004247d0 f i game_app.obj
 0001:000238b0       ?release@?$ptr@VFile@Pegas@@@Pegas@@AAEXXZ 004248b0 f i game_app.obj
 0001:00023990       ??Diterator@?$_Tree@V?$_Tmap_traits@HPAVStringResource@Pegas@@U?$less@H@std@@V?$allocator@U?$pair@$$CBHPAVStringResource@Pegas@@@std@@@4@$0A@@std@@@std@@QBEAAU?$pair@$$CBHPAVStringResource@Pegas@@@2@XZ 00424990 f i game_app.obj
 0001:000239d0       ??Diterator@?$_Tree@V?$_Tmap_traits@HPAVTextureResource@Pegas@@U?$less@H@std@@V?$allocator@U?$pair@$$CBHPAVTextureResource@Pegas@@@std@@@4@$0A@@std@@@std@@QBEAAU?$pair@$$CBHPAVTextureResource@Pegas@@@2@XZ 004249d0 f i game_app.obj
 0001:00023a10       ??Diterator@?$_Tree@V?$_Tmap_traits@HPAVFontResource@Pegas@@U?$less@H@std@@V?$allocator@U?$pair@$$CBHPAVFontResource@Pegas@@@std@@@4@$0A@@std@@@std@@QBEAAU?$pair@$$CBHPAVFontResource@Pegas@@@2@XZ 00424a10 f i game_app.obj
 0001:00023a50       ??Diterator@?$_Tree@V?$_Tmap_traits@HPAVSoundResource@Pegas@@U?$less@H@std@@V?$allocator@U?$pair@$$CBHPAVSoundResource@Pegas@@@std@@@4@$0A@@std@@@std@@QBEAAU?$pair@$$CBHPAVSoundResource@Pegas@@@2@XZ 00424a50 f i game_app.obj
 0001:00023a90       ??Dconst_iterator@?$_Tree@V?$_Tmap_traits@HPAVStringResource@Pegas@@U?$less@H@std@@V?$allocator@U?$pair@$$CBHPAVStringResource@Pegas@@@std@@@4@$0A@@std@@@std@@QBEABU?$pair@$$CBHPAVStringResource@Pegas@@@2@XZ 00424a90 f i game_app.obj
 0001:00023b60       ??Dconst_iterator@?$_Tree@V?$_Tmap_traits@HPAVTextureResource@Pegas@@U?$less@H@std@@V?$allocator@U?$pair@$$CBHPAVTextureResource@Pegas@@@std@@@4@$0A@@std@@@std@@QBEABU?$pair@$$CBHPAVTextureResource@Pegas@@@2@XZ 00424b60 f i game_app.obj
 0001:00023c30       ??Dconst_iterator@?$_Tree@V?$_Tmap_traits@HPAVFontResource@Pegas@@U?$less@H@std@@V?$allocator@U?$pair@$$CBHPAVFontResource@Pegas@@@std@@@4@$0A@@std@@@std@@QBEABU?$pair@$$CBHPAVFontResource@Pegas@@@2@XZ 00424c30 f i game_app.obj
 0001:00023d00       ??Dconst_iterator@?$_Tree@V?$_Tmap_traits@HPAVSoundResource@Pegas@@U?$less@H@std@@V?$allocator@U?$pair@$$CBHPAVSoundResource@Pegas@@@std@@@4@$0A@@std@@@std@@QBEABU?$pair@$$CBHPAVSoundResource@Pegas@@@2@XZ 00424d00 f i game_app.obj
 0001:00023dd0       ?_Myval@?$_Tree@V?$_Tmap_traits@HPAVStringResource@Pegas@@U?$less@H@std@@V?$allocator@U?$pair@$$CBHPAVStringResource@Pegas@@@std@@@4@$0A@@std@@@std@@KAAAU?$pair@$$CBHPAVStringResource@Pegas@@@2@PAU_Node@?$_Tree_nod@V?$_Tmap_traits@HPAVStringResource@Pegas@@U?$less@H@std@@V?$allocator@U?$pair@$$CBHPAVStringResource@Pegas@@@std@@@4@$0A@@std@@@2@@Z 00424dd0 f i game_app.obj
 0001:00023e00       ?_Myval@?$_Tree@V?$_Tmap_traits@HPAVTextureResource@Pegas@@U?$less@H@std@@V?$allocator@U?$pair@$$CBHPAVTextureResource@Pegas@@@std@@@4@$0A@@std@@@std@@KAAAU?$pair@$$CBHPAVTextureResource@Pegas@@@2@PAU_Node@?$_Tree_nod@V?$_Tmap_traits@HPAVTextureResource@Pegas@@U?$less@H@std@@V?$allocator@U?$pair@$$CBHPAVTextureResource@Pegas@@@std@@@4@$0A@@std@@@2@@Z 00424e00 f i game_app.obj
 0001:00023e30       ?_Myval@?$_Tree@V?$_Tmap_traits@HPAVFontResource@Pegas@@U?$less@H@std@@V?$allocator@U?$pair@$$CBHPAVFontResource@Pegas@@@std@@@4@$0A@@std@@@std@@KAAAU?$pair@$$CBHPAVFontResource@Pegas@@@2@PAU_Node@?$_Tree_nod@V?$_Tmap_traits@HPAVFontResource@Pegas@@U?$less@H@std@@V?$allocator@U?$pair@$$CBHPAVFontResource@Pegas@@@std@@@4@$0A@@std@@@2@@Z 00424e30 f i game_app.obj
 0001:00023e60       ?_Myval@?$_Tree@V?$_Tmap_traits@HPAVSoundResource@Pegas@@U?$less@H@std@@V?$allocator@U?$pair@$$CBHPAVSoundResource@Pegas@@@std@@@4@$0A@@std@@@std@@KAAAU?$pair@$$CBHPAVSoundResource@Pegas@@@2@PAU_Node@?$_Tree_nod@V?$_Tmap_traits@HPAVSoundResource@Pegas@@U?$less@H@std@@V?$allocator@U?$pair@$$CBHPAVSoundResource@Pegas@@@std@@@4@$0A@@std@@@2@@Z 00424e60 f i game_app.obj
 0001:00023e90       ??$_Char_traits_cat@U?$char_traits@D@std@@@std@@YA?AU_Secure_char_traits_tag@0@XZ 00424e90 f i game_app.obj
 0001:00023ef0       ??$copy_s@U?$char_traits@D@std@@@_Traits_helper@std@@YAPADPADIPBDIU_Secure_char_traits_tag@1@@Z 00424ef0 f i game_app.obj
 0001:00023f40       ?_Copy_s@?$char_traits@D@std@@SAPADPADIPBDI@Z 00424f40 f i game_app.obj
 0001:00023f90       ??$_Char_traits_cat@U?$char_traits@_W@std@@@std@@YA?AU_Secure_char_traits_tag@0@XZ 00424f90 f i game_app.obj
 0001:00023ff0       ??$copy_s@U?$char_traits@_W@std@@@_Traits_helper@std@@YAPA_WPA_WIPB_WIU_Secure_char_traits_tag@1@@Z 00424ff0 f i game_app.obj
 0001:00024040       ?_Copy_s@?$char_traits@_W@std@@SAPA_WPA_WIPB_WI@Z 00425040 f i game_app.obj
 0001:00024090       _wmemcpy_s                 00425090 f i game_app.obj
 0001:000240e0       ??$move_s@U?$char_traits@_W@std@@@_Traits_helper@std@@YAPA_WPA_WIPB_WIU_Secure_char_traits_tag@1@@Z 004250e0 f i game_app.obj
 0001:00024130       ?_Move_s@?$char_traits@_W@std@@SAPA_WPA_WIPB_WI@Z 00425130 f i game_app.obj
 0001:00024180       _wmemmove_s                00425180 f i game_app.obj
 0001:000241d0       ??$move_s@U?$char_traits@D@std@@@_Traits_helper@std@@YAPADPADIPBDIU_Secure_char_traits_tag@1@@Z 004251d0 f i game_app.obj
 0001:00024220       ?_Move_s@?$char_traits@D@std@@SAPADPADIPBDI@Z 00425220 f i game_app.obj
 0001:00024270       _wWinMain@16               00425270 f   pacman.obj
 0001:00024450       ??0GameApplication@Pegas@@QAE@PAUHINSTANCE__@@@Z 00425450 f i pacman.obj
 0001:00024610       ??1GameApplication@Pegas@@UAE@XZ 00425610 f i pacman.obj
 0001:000247a0       ?getListenerName@GameApplication@Pegas@@UAE?AV?$basic_string@DU?$char_traits@D@std@@V?$allocator@D@2@@std@@XZ 004257a0 f i pacman.obj
 0001:00024810       ?MyRegisterClass@@YAGPAUHINSTANCE__@@@Z 00425810 f   pacman.obj
 0001:00024910       ?InitInstance@@YAHPAUHINSTANCE__@@H@Z 00425910 f   pacman.obj
 0001:00024aa0       ?WndProc@@YGJPAUHWND__@@IIJ@Z 00425aa0 f   pacman.obj
 0001:00024d90       ?activate@GameApplication@Pegas@@QAEX_N@Z 00425d90 f i pacman.obj
 0001:00024dd0       ?About@@YGHPAUHWND__@@IIJ@Z 00425dd0 f   pacman.obj
 0001:00024e80       ??0?$Singleton@VGameApplication@Pegas@@@Pegas@@QAE@AAVGameApplication@1@@Z 00425e80 f i pacman.obj
 0001:00024ee0       ??1?$Singleton@VGameApplication@Pegas@@@Pegas@@QAE@XZ 00425ee0 f i pacman.obj
 0001:00024f40       ?getInstance@?$Singleton@VGameApplication@Pegas@@@Pegas@@SAAAVGameApplication@2@XZ 00425f40 f i pacman.obj
 0001:00024f90       ??_EGameApplication@Pegas@@W3AEPAXI@Z 00425f90 f i pacman.obj
 0001:00024fa0       ??_EGameApplication@Pegas@@UAEPAXI@Z 00425fa0 f i pacman.obj
 0001:00024fa0       ??_GGameApplication@Pegas@@UAEPAXI@Z 00425fa0 f i pacman.obj
 0001:00025000       ??1IEventListener@Pegas@@UAE@XZ 00426000 f i pacman.obj
 0001:00025040       ??_GIEventListener@Pegas@@UAEPAXI@Z 00426040 f i pacman.obj
 0001:00025040       ??_EIEventListener@Pegas@@UAEPAXI@Z 00426040 f i pacman.obj
 0001:000250a0       ??0EventManager@Pegas@@QAE@XZ 004260a0 f i pacman.obj
 0001:00025170       ??1EventManager@Pegas@@UAE@XZ 00426170 f i pacman.obj
 0001:00025220       ??_EEventManager@Pegas@@UAEPAXI@Z 00426220 f i pacman.obj
 0001:00025220       ??_GEventManager@Pegas@@UAEPAXI@Z 00426220 f i pacman.obj
 0001:00025280       ??1?$queue@V?$ptr@UEvent@Pegas@@@Pegas@@V?$deque@V?$ptr@UEvent@Pegas@@@Pegas@@V?$allocator@V?$ptr@UEvent@Pegas@@@Pegas@@@std@@@std@@@std@@QAE@XZ 00426280 f i pacman.obj
 0001:000252c0       ??1?$map@V?$basic_string@DU?$char_traits@D@std@@V?$allocator@D@2@@std@@V?$ptr@V?$set@PAVIEventListener@Pegas@@U?$less@PAVIEventListener@Pegas@@@std@@V?$allocator@PAVIEventListener@Pegas@@@4@@std@@@Pegas@@U?$less@V?$basic_string@DU?$char_traits@D@std@@V?$allocator@D@2@@std@@@2@V?$allocator@U?$pair@$$CBV?$basic_string@DU?$char_traits@D@std@@V?$allocator@D@2@@std@@V?$ptr@V?$set@PAVIEventListener@Pegas@@U?$less@PAVIEventListener@Pegas@@@std@@V?$allocator@PAVIEventListener@Pegas@@@4@@std@@@Pegas@@@std@@@2@@std@@QAE@XZ 004262c0 f i pacman.obj
 0001:00025300       ??0ProcessManager@Pegas@@QAE@XZ 00426300 f i pacman.obj
 0001:000253d0       ??1ProcessManager@Pegas@@UAE@XZ 004263d0 f i pacman.obj
 0001:00025480       ??_GProcessManager@Pegas@@UAEPAXI@Z 00426480 f i pacman.obj
 0001:00025480       ??_EProcessManager@Pegas@@UAEPAXI@Z 00426480 f i pacman.obj
 0001:000254e0       ??1?$map@HV?$ptr@VProcess@Pegas@@@Pegas@@U?$less@H@std@@V?$allocator@U?$pair@$$CBHV?$ptr@VProcess@Pegas@@@Pegas@@@std@@@4@@std@@QAE@XZ 004264e0 f i pacman.obj
 0001:00025520       ??1?$queue@HV?$deque@HV?$allocator@H@std@@@std@@@std@@QAE@XZ 00426520 f i pacman.obj
 0001:00025560       ??0WindowsOSUtils@Pegas@@QAE@XZ 00426560 f i pacman.obj
 0001:000255b0       ??0OSUtils@Pegas@@QAE@XZ   004265b0 f i pacman.obj
 0001:00025610       ??_GOSUtils@Pegas@@UAEPAXI@Z 00426610 f i pacman.obj
 0001:00025610       ??_EOSUtils@Pegas@@UAEPAXI@Z 00426610 f i pacman.obj
 0001:00025670       ??1OSUtils@Pegas@@UAE@XZ   00426670 f i pacman.obj
 0001:000256c0       ??1WindowsOSUtils@Pegas@@UAE@XZ 004266c0 f i pacman.obj
 0001:00025710       ??_GWindowsOSUtils@Pegas@@UAEPAXI@Z 00426710 f i pacman.obj
 0001:00025710       ??_EWindowsOSUtils@Pegas@@UAEPAXI@Z 00426710 f i pacman.obj
 0001:00025770       ??0WinMMSoundManager@Pegas@@QAE@XZ 00426770 f i pacman.obj
 0001:000257c0       ??0SoundManager@Pegas@@QAE@XZ 004267c0 f i pacman.obj
 0001:00025820       ??_GSoundManager@Pegas@@UAEPAXI@Z 00426820 f i pacman.obj
 0001:00025820       ??_ESoundManager@Pegas@@UAEPAXI@Z 00426820 f i pacman.obj
 0001:00025880       ??1SoundManager@Pegas@@UAE@XZ 00426880 f i pacman.obj
 0001:000258d0       ??1WinMMSoundManager@Pegas@@UAE@XZ 004268d0 f i pacman.obj
 0001:00025920       ??_EWinMMSoundManager@Pegas@@UAEPAXI@Z 00426920 f i pacman.obj
 0001:00025920       ??_GWinMMSoundManager@Pegas@@UAEPAXI@Z 00426920 f i pacman.obj
 0001:00025980       ??0OGLGrafManager@Pegas@@QAE@XZ 00426980 f i pacman.obj
 0001:00025a30       ??0GrafManager@Pegas@@QAE@XZ 00426a30 f i pacman.obj
 0001:00025ad0       ??1GrafManager@Pegas@@UAE@XZ 00426ad0 f i pacman.obj
 0001:00025b60       ?render@GrafManager@Pegas@@UAEXXZ 00426b60 f i pacman.obj
 0001:00025b90       ??_GGrafManager@Pegas@@UAEPAXI@Z 00426b90 f i pacman.obj
 0001:00025b90       ??_EGrafManager@Pegas@@UAEPAXI@Z 00426b90 f i pacman.obj
 0001:00025bf0       ??0EllipseTexture@Pegas@@QAE@XZ 00426bf0 f i pacman.obj
 0001:00025c40       ?create@EllipseTexture@Pegas@@UAEXABUIntResourceCode@2@@Z 00426c40 f i pacman.obj
 0001:00025c70       ??_EEllipseTexture@Pegas@@UAEPAXI@Z 00426c70 f i pacman.obj
 0001:00025c70       ??_GEllipseTexture@Pegas@@UAEPAXI@Z 00426c70 f i pacman.obj
 0001:00025cd0       ??1EllipseTexture@Pegas@@UAE@XZ 00426cd0 f i pacman.obj
 0001:00025d20       ??_EOGLGrafManager@Pegas@@UAEPAXI@Z 00426d20 f i pacman.obj
 0001:00025d20       ??_GOGLGrafManager@Pegas@@UAEPAXI@Z 00426d20 f i pacman.obj
 0001:00025d80       ??1OGLGrafManager@Pegas@@UAE@XZ 00426d80 f i pacman.obj
 0001:00025e10       ??0IPlatformContext@Pegas@@QAE@XZ 00426e10 f i pacman.obj
 0001:00025e50       ??0IEventListener@Pegas@@QAE@XZ 00426e50 f i pacman.obj
 0001:00025e90       ??1?$set@PAVIKeyboardController@Pegas@@U?$less@PAVIKeyboardController@Pegas@@@std@@V?$allocator@PAVIKeyboardController@Pegas@@@4@@std@@QAE@XZ 00426e90 f i pacman.obj
 0001:00025ed0       ??1?$set@PAVIMouseController@Pegas@@U?$less@PAVIMouseController@Pegas@@@std@@V?$allocator@PAVIMouseController@Pegas@@@4@@std@@QAE@XZ 00426ed0 f i pacman.obj
 0001:00025f10       ??1?$map@HV?$ptr@VIGameState@Pegas@@@Pegas@@U?$less@H@std@@V?$allocator@U?$pair@$$CBHV?$ptr@VIGameState@Pegas@@@Pegas@@@std@@@4@@std@@QAE@XZ 00426f10 f i pacman.obj
 0001:00025f50       ??0?$Singleton@VOSUtils@Pegas@@@Pegas@@QAE@AAVOSUtils@1@@Z 00426f50 f i pacman.obj
 0001:00025fb0       ??1?$Singleton@VOSUtils@Pegas@@@Pegas@@QAE@XZ 00426fb0 f i pacman.obj
 0001:00026010       ??0?$Singleton@VGrafManager@Pegas@@@Pegas@@QAE@AAVGrafManager@1@@Z 00427010 f i pacman.obj
 0001:00026070       ??1?$Singleton@VGrafManager@Pegas@@@Pegas@@QAE@XZ 00427070 f i pacman.obj
 0001:000260d0       ??0?$list@PAVIDrawable@Pegas@@V?$allocator@PAVIDrawable@Pegas@@@std@@@std@@QAE@XZ 004270d0 f i pacman.obj
 0001:00026170       ??1?$list@PAVIDrawable@Pegas@@V?$allocator@PAVIDrawable@Pegas@@@std@@@std@@QAE@XZ 00427170 f i pacman.obj
 0001:000261f0       ??0?$Singleton@VSoundManager@Pegas@@@Pegas@@QAE@AAVSoundManager@1@@Z 004271f0 f i pacman.obj
 0001:00026250       ??1?$Singleton@VSoundManager@Pegas@@@Pegas@@QAE@XZ 00427250 f i pacman.obj
 0001:000262b0       ??0?$Singleton@VEventManager@Pegas@@@Pegas@@QAE@AAVEventManager@1@@Z 004272b0 f i pacman.obj
 0001:00026310       ??1?$Singleton@VEventManager@Pegas@@@Pegas@@QAE@XZ 00427310 f i pacman.obj
 0001:00026370       ??0?$queue@V?$ptr@UEvent@Pegas@@@Pegas@@V?$deque@V?$ptr@UEvent@Pegas@@@Pegas@@V?$allocator@V?$ptr@UEvent@Pegas@@@Pegas@@@std@@@std@@@std@@QAE@XZ 00427370 f i pacman.obj
 0001:000263c0       ??1?$deque@V?$ptr@UEvent@Pegas@@@Pegas@@V?$allocator@V?$ptr@UEvent@Pegas@@@Pegas@@@std@@@std@@QAE@XZ 004273c0 f i pacman.obj
 0001:00026440       ??0?$map@V?$basic_string@DU?$char_traits@D@std@@V?$allocator@D@2@@std@@V?$ptr@V?$set@PAVIEventListener@Pegas@@U?$less@PAVIEventListener@Pegas@@@std@@V?$allocator@PAVIEventListener@Pegas@@@4@@std@@@Pegas@@U?$less@V?$basic_string@DU?$char_traits@D@std@@V?$allocator@D@2@@std@@@2@V?$allocator@U?$pair@$$CBV?$basic_string@DU?$char_traits@D@std@@V?$allocator@D@2@@std@@V?$ptr@V?$set@PAVIEventListener@Pegas@@U?$less@PAVIEventListener@Pegas@@@std@@V?$allocator@PAVIEventListener@Pegas@@@4@@std@@@Pegas@@@std@@@2@@std@@QAE@XZ 00427440 f i pacman.obj
 0001:000264a0       ??1?$_Tree@V?$_Tmap_traits@V?$basic_string@DU?$char_traits@D@std@@V?$allocator@D@2@@std@@V?$ptr@V?$set@PAVIEventListener@Pegas@@U?$less@PAVIEventListener@Pegas@@@std@@V?$allocator@PAVIEventListener@Pegas@@@4@@std@@@Pegas@@U?$less@V?$basic_string@DU?$char_traits@D@std@@V?$allocator@D@2@@std@@@2@V?$allocator@U?$pair@$$CBV?$basic_string@DU?$char_traits@D@std@@V?$allocator@D@2@@std@@V?$ptr@V?$set@PAVIEventListener@Pegas@@U?$less@PAVIEventListener@Pegas@@@std@@V?$allocator@PAVIEventListener@Pegas@@@4@@std@@@Pegas@@@std@@@2@$0A@@std@@@std@@QAE@XZ 004274a0 f i pacman.obj
 0001:00026520       ??0?$map@HV?$ptr@VProcess@Pegas@@@Pegas@@U?$less@H@std@@V?$allocator@U?$pair@$$CBHV?$ptr@VProcess@Pegas@@@Pegas@@@std@@@4@@std@@QAE@XZ 00427520 f i pacman.obj
 0001:00026580       ??1?$_Tree@V?$_Tmap_traits@HV?$ptr@VProcess@Pegas@@@Pegas@@U?$less@H@std@@V?$allocator@U?$pair@$$CBHV?$ptr@VProcess@Pegas@@@Pegas@@@std@@@4@$0A@@std@@@std@@QAE@XZ 00427580 f i pacman.obj
 0001:00026600       ??0?$queue@HV?$deque@HV?$allocator@H@std@@@std@@@std@@QAE@XZ 00427600 f i pacman.obj
 0001:00026650       ??1?$deque@HV?$allocator@H@std@@@std@@QAE@XZ 00427650 f i pacman.obj
 0001:000266d0       ??0?$set@PAVIKeyboardController@Pegas@@U?$less@PAVIKeyboardController@Pegas@@@std@@V?$allocator@PAVIKeyboardController@Pegas@@@4@@std@@QAE@XZ 004276d0 f i pacman.obj
 0001:00026730       ??1?$_Tree@V?$_Tset_traits@PAVIKeyboardController@Pegas@@U?$less@PAVIKeyboardController@Pegas@@@std@@V?$allocator@PAVIKeyboardController@Pegas@@@4@$0A@@std@@@std@@QAE@XZ 00427730 f i pacman.obj
 0001:000267b0       ??0?$set@PAVIMouseController@Pegas@@U?$less@PAVIMouseController@Pegas@@@std@@V?$allocator@PAVIMouseController@Pegas@@@4@@std@@QAE@XZ 004277b0 f i pacman.obj
 0001:00026810       ??1?$_Tree@V?$_Tset_traits@PAVIMouseController@Pegas@@U?$less@PAVIMouseController@Pegas@@@std@@V?$allocator@PAVIMouseController@Pegas@@@4@$0A@@std@@@std@@QAE@XZ 00427810 f i pacman.obj
 0001:00026890       ??0?$map@HV?$ptr@VIGameState@Pegas@@@Pegas@@U?$less@H@std@@V?$allocator@U?$pair@$$CBHV?$ptr@VIGameState@Pegas@@@Pegas@@@std@@@4@@std@@QAE@XZ 00427890 f i pacman.obj
 0001:000268f0       ??1?$_Tree@V?$_Tmap_traits@HV?$ptr@VIGameState@Pegas@@@Pegas@@U?$less@H@std@@V?$allocator@U?$pair@$$CBHV?$ptr@VIGameState@Pegas@@@Pegas@@@std@@@4@$0A@@std@@@std@@QAE@XZ 004278f0 f i pacman.obj
 0001:00026970       ??0?$list@V?$ptr@VFile@Pegas@@@Pegas@@V?$allocator@V?$ptr@VFile@Pegas@@@Pegas@@@std@@@std@@QAE@XZ 00427970 f i pacman.obj
 0001:00026a10       ??1?$list@V?$ptr@VFile@Pegas@@@Pegas@@V?$allocator@V?$ptr@VFile@Pegas@@@Pegas@@@std@@@std@@QAE@XZ 00427a10 f i pacman.obj
 0001:00026a90       ??0?$ResourceManager@VStringResource@Pegas@@UIntResourceCode@2@@Pegas@@QAE@XZ 00427a90 f i pacman.obj
 0001:00026b30       ??1?$ResourceManager@VStringResource@Pegas@@UIntResourceCode@2@@Pegas@@UAE@XZ 00427b30 f i pacman.obj
 0001:00026bd0       ??0?$ResourceManager@VTextureResource@Pegas@@UIntResourceCode@2@@Pegas@@QAE@XZ 00427bd0 f i pacman.obj
 0001:00026c70       ??1?$ResourceManager@VTextureResource@Pegas@@UIntResourceCode@2@@Pegas@@UAE@XZ 00427c70 f i pacman.obj
 0001:00026d10       ??0?$ResourceManager@VFontResource@Pegas@@UFontResourceCode@2@@Pegas@@QAE@XZ 00427d10 f i pacman.obj
 0001:00026db0       ??1?$ResourceManager@VFontResource@Pegas@@UFontResourceCode@2@@Pegas@@UAE@XZ 00427db0 f i pacman.obj
 0001:00026e50       ??0?$ResourceManager@VSoundResource@Pegas@@UIntResourceCode@2@@Pegas@@QAE@XZ 00427e50 f i pacman.obj
 0001:00026ef0       ??1?$ResourceManager@VSoundResource@Pegas@@UIntResourceCode@2@@Pegas@@UAE@XZ 00427ef0 f i pacman.obj
 0001:00026f90       ??1?$_List_val@PAVIDrawable@Pegas@@V?$allocator@PAVIDrawable@Pegas@@@std@@@std@@QAE@XZ 00427f90 f i pacman.obj
 0001:00026fd0       ??1?$_Deque_val@V?$ptr@UEvent@Pegas@@@Pegas@@V?$allocator@V?$ptr@UEvent@Pegas@@@Pegas@@@std@@@std@@QAE@XZ 00427fd0 f i pacman.obj
 0001:00027010       ??1?$_Tree_val@V?$_Tmap_traits@V?$basic_string@DU?$char_traits@D@std@@V?$allocator@D@2@@std@@V?$ptr@V?$set@PAVIEventListener@Pegas@@U?$less@PAVIEventListener@Pegas@@@std@@V?$allocator@PAVIEventListener@Pegas@@@4@@std@@@Pegas@@U?$less@V?$basic_string@DU?$char_traits@D@std@@V?$allocator@D@2@@std@@@2@V?$allocator@U?$pair@$$CBV?$basic_string@DU?$char_traits@D@std@@V?$allocator@D@2@@std@@V?$ptr@V?$set@PAVIEventListener@Pegas@@U?$less@PAVIEventListener@Pegas@@@std@@V?$allocator@PAVIEventListener@Pegas@@@4@@std@@@Pegas@@@std@@@2@$0A@@std@@@std@@QAE@XZ 00428010 f i pacman.obj
 0001:00027050       ??1?$_Tree_val@V?$_Tmap_traits@HV?$ptr@VProcess@Pegas@@@Pegas@@U?$less@H@std@@V?$allocator@U?$pair@$$CBHV?$ptr@VProcess@Pegas@@@Pegas@@@std@@@4@$0A@@std@@@std@@QAE@XZ 00428050 f i pacman.obj
 0001:00027090       ??1?$_Deque_val@HV?$allocator@H@std@@@std@@QAE@XZ 00428090 f i pacman.obj
 0001:000270d0       ??1?$_Tree_val@V?$_Tset_traits@PAVIKeyboardController@Pegas@@U?$less@PAVIKeyboardController@Pegas@@@std@@V?$allocator@PAVIKeyboardController@Pegas@@@4@$0A@@std@@@std@@QAE@XZ 004280d0 f i pacman.obj
 0001:00027110       ??1?$_Tree_val@V?$_Tset_traits@PAVIMouseController@Pegas@@U?$less@PAVIMouseController@Pegas@@@std@@V?$allocator@PAVIMouseController@Pegas@@@4@$0A@@std@@@std@@QAE@XZ 00428110 f i pacman.obj
 0001:00027150       ??1?$_Tree_val@V?$_Tmap_traits@HV?$ptr@VIGameState@Pegas@@@Pegas@@U?$less@H@std@@V?$allocator@U?$pair@$$CBHV?$ptr@VIGameState@Pegas@@@Pegas@@@std@@@4@$0A@@std@@@std@@QAE@XZ 00428150 f i pacman.obj
 0001:00027190       ??1?$_List_val@V?$ptr@VFile@Pegas@@@Pegas@@V?$allocator@V?$ptr@VFile@Pegas@@@Pegas@@@std@@@std@@QAE@XZ 00428190 f i pacman.obj
 0001:000271d0       ??_G?$ResourceManager@VStringResource@Pegas@@UIntResourceCode@2@@Pegas@@UAEPAXI@Z 004281d0 f i pacman.obj
 0001:000271d0       ??_E?$ResourceManager@VStringResource@Pegas@@UIntResourceCode@2@@Pegas@@UAEPAXI@Z 004281d0 f i pacman.obj
 0001:00027230       ??1?$map@HPAVStringResource@Pegas@@U?$less@H@std@@V?$allocator@U?$pair@$$CBHPAVStringResource@Pegas@@@std@@@4@@std@@QAE@XZ 00428230 f i pacman.obj
 0001:00027270       ??_E?$ResourceManager@VTextureResource@Pegas@@UIntResourceCode@2@@Pegas@@UAEPAXI@Z 00428270 f i pacman.obj
 0001:00027270       ??_G?$ResourceManager@VTextureResource@Pegas@@UIntResourceCode@2@@Pegas@@UAEPAXI@Z 00428270 f i pacman.obj
 0001:000272d0       ??1?$map@HPAVTextureResource@Pegas@@U?$less@H@std@@V?$allocator@U?$pair@$$CBHPAVTextureResource@Pegas@@@std@@@4@@std@@QAE@XZ 004282d0 f i pacman.obj
 0001:00027310       ??_E?$ResourceManager@VFontResource@Pegas@@UFontResourceCode@2@@Pegas@@UAEPAXI@Z 00428310 f i pacman.obj
 0001:00027310       ??_G?$ResourceManager@VFontResource@Pegas@@UFontResourceCode@2@@Pegas@@UAEPAXI@Z 00428310 f i pacman.obj
 0001:00027370       ??1?$map@HPAVFontResource@Pegas@@U?$less@H@std@@V?$allocator@U?$pair@$$CBHPAVFontResource@Pegas@@@std@@@4@@std@@QAE@XZ 00428370 f i pacman.obj
 0001:000273b0       ??_E?$ResourceManager@VSoundResource@Pegas@@UIntResourceCode@2@@Pegas@@UAEPAXI@Z 004283b0 f i pacman.obj
 0001:000273b0       ??_G?$ResourceManager@VSoundResource@Pegas@@UIntResourceCode@2@@Pegas@@UAEPAXI@Z 004283b0 f i pacman.obj
 0001:00027410       ??1?$map@HPAVSoundResource@Pegas@@U?$less@H@std@@V?$allocator@U?$pair@$$CBHPAVSoundResource@Pegas@@@std@@@4@@std@@QAE@XZ 00428410 f i pacman.obj
 0001:00027450       ??1?$_List_ptr@PAVIDrawable@Pegas@@V?$allocator@PAVIDrawable@Pegas@@@std@@@std@@QAE@XZ 00428450 f i pacman.obj
 0001:00027490       ??1?$_Deque_map@V?$ptr@UEvent@Pegas@@@Pegas@@V?$allocator@V?$ptr@UEvent@Pegas@@@Pegas@@@std@@@std@@QAE@XZ 00428490 f i pacman.obj
 0001:000274d0       ??1?$_Tree_ptr@V?$_Tmap_traits@V?$basic_string@DU?$char_traits@D@std@@V?$allocator@D@2@@std@@V?$ptr@V?$set@PAVIEventListener@Pegas@@U?$less@PAVIEventListener@Pegas@@@std@@V?$allocator@PAVIEventListener@Pegas@@@4@@std@@@Pegas@@U?$less@V?$basic_string@DU?$char_traits@D@std@@V?$allocator@D@2@@std@@@2@V?$allocator@U?$pair@$$CBV?$basic_string@DU?$char_traits@D@std@@V?$allocator@D@2@@std@@V?$ptr@V?$set@PAVIEventListener@Pegas@@U?$less@PAVIEventListener@Pegas@@@std@@V?$allocator@PAVIEventListener@Pegas@@@4@@std@@@Pegas@@@std@@@2@$0A@@std@@@std@@QAE@XZ 004284d0 f i pacman.obj
 0001:00027510       ??1?$_Tree_ptr@V?$_Tmap_traits@HV?$ptr@VProcess@Pegas@@@Pegas@@U?$less@H@std@@V?$allocator@U?$pair@$$CBHV?$ptr@VProcess@Pegas@@@Pegas@@@std@@@4@$0A@@std@@@std@@QAE@XZ 00428510 f i pacman.obj
 0001:00027550       ??1?$_Deque_map@HV?$allocator@H@std@@@std@@QAE@XZ 00428550 f i pacman.obj
 0001:00027590       ??1?$_Tree_ptr@V?$_Tset_traits@PAVIKeyboardController@Pegas@@U?$less@PAVIKeyboardController@Pegas@@@std@@V?$allocator@PAVIKeyboardController@Pegas@@@4@$0A@@std@@@std@@QAE@XZ 00428590 f i pacman.obj
 0001:000275d0       ??1?$_Tree_ptr@V?$_Tset_traits@PAVIMouseController@Pegas@@U?$less@PAVIMouseController@Pegas@@@std@@V?$allocator@PAVIMouseController@Pegas@@@4@$0A@@std@@@std@@QAE@XZ 004285d0 f i pacman.obj
 0001:00027610       ??1?$_Tree_ptr@V?$_Tmap_traits@HV?$ptr@VIGameState@Pegas@@@Pegas@@U?$less@H@std@@V?$allocator@U?$pair@$$CBHV?$ptr@VIGameState@Pegas@@@Pegas@@@std@@@4@$0A@@std@@@std@@QAE@XZ 00428610 f i pacman.obj
 0001:00027650       ??1?$_List_ptr@V?$ptr@VFile@Pegas@@@Pegas@@V?$allocator@V?$ptr@VFile@Pegas@@@Pegas@@@std@@@std@@QAE@XZ 00428650 f i pacman.obj
 0001:00027690       ??1?$_List_nod@PAVIDrawable@Pegas@@V?$allocator@PAVIDrawable@Pegas@@@std@@@std@@QAE@XZ 00428690 f i pacman.obj
 0001:000276d0       ??1?$_Tree_nod@V?$_Tmap_traits@V?$basic_string@DU?$char_traits@D@std@@V?$allocator@D@2@@std@@V?$ptr@V?$set@PAVIEventListener@Pegas@@U?$less@PAVIEventListener@Pegas@@@std@@V?$allocator@PAVIEventListener@Pegas@@@4@@std@@@Pegas@@U?$less@V?$basic_string@DU?$char_traits@D@std@@V?$allocator@D@2@@std@@@2@V?$allocator@U?$pair@$$CBV?$basic_string@DU?$char_traits@D@std@@V?$allocator@D@2@@std@@V?$ptr@V?$set@PAVIEventListener@Pegas@@U?$less@PAVIEventListener@Pegas@@@std@@V?$allocator@PAVIEventListener@Pegas@@@4@@std@@@Pegas@@@std@@@2@$0A@@std@@@std@@QAE@XZ 004286d0 f i pacman.obj
 0001:00027710       ??1?$_Tree_nod@V?$_Tmap_traits@HV?$ptr@VProcess@Pegas@@@Pegas@@U?$less@H@std@@V?$allocator@U?$pair@$$CBHV?$ptr@VProcess@Pegas@@@Pegas@@@std@@@4@$0A@@std@@@std@@QAE@XZ 00428710 f i pacman.obj
 0001:00027750       ??1?$_Tree_nod@V?$_Tset_traits@PAVIKeyboardController@Pegas@@U?$less@PAVIKeyboardController@Pegas@@@std@@V?$allocator@PAVIKeyboardController@Pegas@@@4@$0A@@std@@@std@@QAE@XZ 00428750 f i pacman.obj
 0001:00027790       ??1?$_Tree_nod@V?$_Tset_traits@PAVIMouseController@Pegas@@U?$less@PAVIMouseController@Pegas@@@std@@V?$allocator@PAVIMouseController@Pegas@@@4@$0A@@std@@@std@@QAE@XZ 00428790 f i pacman.obj
 0001:000277d0       ??1?$_Tree_nod@V?$_Tmap_traits@HV?$ptr@VIGameState@Pegas@@@Pegas@@U?$less@H@std@@V?$allocator@U?$pair@$$CBHV?$ptr@VIGameState@Pegas@@@Pegas@@@std@@@4@$0A@@std@@@std@@QAE@XZ 004287d0 f i pacman.obj
 0001:00027810       ??1?$_List_nod@V?$ptr@VFile@Pegas@@@Pegas@@V?$allocator@V?$ptr@VFile@Pegas@@@Pegas@@@std@@@std@@QAE@XZ 00428810 f i pacman.obj
 0001:00027850       ??1?$_Tmap_traits@V?$basic_string@DU?$char_traits@D@std@@V?$allocator@D@2@@std@@V?$ptr@V?$set@PAVIEventListener@Pegas@@U?$less@PAVIEventListener@Pegas@@@std@@V?$allocator@PAVIEventListener@Pegas@@@4@@std@@@Pegas@@U?$less@V?$basic_string@DU?$char_traits@D@std@@V?$allocator@D@2@@std@@@2@V?$allocator@U?$pair@$$CBV?$basic_string@DU?$char_traits@D@std@@V?$allocator@D@2@@std@@V?$ptr@V?$set@PAVIEventListener@Pegas@@U?$less@PAVIEventListener@Pegas@@@std@@V?$allocator@PAVIEventListener@Pegas@@@4@@std@@@Pegas@@@std@@@2@$0A@@std@@QAE@XZ 00428850 f i pacman.obj
 0001:00027890       ??1?$_Tmap_traits@HV?$ptr@VProcess@Pegas@@@Pegas@@U?$less@H@std@@V?$allocator@U?$pair@$$CBHV?$ptr@VProcess@Pegas@@@Pegas@@@std@@@4@$0A@@std@@QAE@XZ 00428890 f i pacman.obj
 0001:000278d0       ??1?$_Tset_traits@PAVIKeyboardController@Pegas@@U?$less@PAVIKeyboardController@Pegas@@@std@@V?$allocator@PAVIKeyboardController@Pegas@@@4@$0A@@std@@QAE@XZ 004288d0 f i pacman.obj
 0001:00027910       ??1?$_Tset_traits@PAVIMouseController@Pegas@@U?$less@PAVIMouseController@Pegas@@@std@@V?$allocator@PAVIMouseController@Pegas@@@4@$0A@@std@@QAE@XZ 00428910 f i pacman.obj
 0001:00027950       ??1?$_Tmap_traits@HV?$ptr@VIGameState@Pegas@@@Pegas@@U?$less@H@std@@V?$allocator@U?$pair@$$CBHV?$ptr@VIGameState@Pegas@@@Pegas@@@std@@@4@$0A@@std@@QAE@XZ 00428950 f i pacman.obj
 0001:00027990       ?_Buynode@?$list@PAVIDrawable@Pegas@@V?$allocator@PAVIDrawable@Pegas@@@std@@@std@@IAEPAU_Node@?$_List_nod@PAVIDrawable@Pegas@@V?$allocator@PAVIDrawable@Pegas@@@std@@@2@XZ 00428990 f i pacman.obj
 0001:00027af0       ?_Tidy@?$list@PAVIDrawable@Pegas@@V?$allocator@PAVIDrawable@Pegas@@@std@@@std@@IAEXXZ 00428af0 f i pacman.obj
 0001:00027b90       ??0?$_List_val@PAVIDrawable@Pegas@@V?$allocator@PAVIDrawable@Pegas@@@std@@@std@@QAE@V?$allocator@PAVIDrawable@Pegas@@@1@@Z 00428b90 f i pacman.obj
 0001:00027c00       ??1?$_Container_base_aux_alloc_empty@V?$allocator@PAVIDrawable@Pegas@@@std@@@std@@IAE@XZ 00428c00 f i pacman.obj
 0001:00027c40       ??0?$allocator@PAVIDrawable@Pegas@@@std@@QAE@XZ 00428c40 f i pacman.obj
 0001:00027c70       ??1?$_Container_base_aux_alloc_empty@V?$allocator@H@std@@@std@@IAE@XZ 00428c70 f i pacman.obj
 0001:00027cb0       ??0?$deque@V?$ptr@UEvent@Pegas@@@Pegas@@V?$allocator@V?$ptr@UEvent@Pegas@@@Pegas@@@std@@@std@@QAE@XZ 00428cb0 f i pacman.obj
 0001:00027d30       ?_Tidy@?$deque@V?$ptr@UEvent@Pegas@@@Pegas@@V?$allocator@V?$ptr@UEvent@Pegas@@@Pegas@@@std@@@std@@IAEXXZ 00428d30 f i pacman.obj
 0001:00027e20       ??1?$_Container_base_aux_alloc_empty@V?$allocator@V?$ptr@UEvent@Pegas@@@Pegas@@@std@@@std@@IAE@XZ 00428e20 f i pacman.obj
 0001:00027e60       ??0?$_Tree@V?$_Tmap_traits@V?$basic_string@DU?$char_traits@D@std@@V?$allocator@D@2@@std@@V?$ptr@V?$set@PAVIEventListener@Pegas@@U?$less@PAVIEventListener@Pegas@@@std@@V?$allocator@PAVIEventListener@Pegas@@@4@@std@@@Pegas@@U?$less@V?$basic_string@DU?$char_traits@D@std@@V?$allocator@D@2@@std@@@2@V?$allocator@U?$pair@$$CBV?$basic_string@DU?$char_traits@D@std@@V?$allocator@D@2@@std@@V?$ptr@V?$set@PAVIEventListener@Pegas@@U?$less@PAVIEventListener@Pegas@@@std@@V?$allocator@PAVIEventListener@Pegas@@@4@@std@@@Pegas@@@std@@@2@$0A@@std@@@std@@QAE@ABU?$less@V?$basic_string@DU?$char_traits@D@std@@V?$allocator@D@2@@std@@@1@ABV?$allocator@U?$pair@$$CBV?$basic_string@DU?$char_traits@D@std@@V?$allocator@D@2@@std@@V?$ptr@V?$set@PAVIEventListener@Pegas@@U?$less@PAVIEventListener@Pegas@@@std@@V?$allocator@PAVIEventListener@Pegas@@@4@@std@@@Pegas@@@std@@@1@@Z 00428e60 f i pacman.obj
 0001:00027f00       ?_Tidy@?$_Tree@V?$_Tmap_traits@V?$basic_string@DU?$char_traits@D@std@@V?$allocator@D@2@@std@@V?$ptr@V?$set@PAVIEventListener@Pegas@@U?$less@PAVIEventListener@Pegas@@@std@@V?$allocator@PAVIEventListener@Pegas@@@4@@std@@@Pegas@@U?$less@V?$basic_string@DU?$char_traits@D@std@@V?$allocator@D@2@@std@@@2@V?$allocator@U?$pair@$$CBV?$basic_string@DU?$char_traits@D@std@@V?$allocator@D@2@@std@@V?$ptr@V?$set@PAVIEventListener@Pegas@@U?$less@PAVIEventListener@Pegas@@@std@@V?$allocator@PAVIEventListener@Pegas@@@4@@std@@@Pegas@@@std@@@2@$0A@@std@@@std@@IAEXXZ 00428f00 f i pacman.obj
 0001:000280c0       ??1?$_Container_base_aux_alloc_empty@V?$allocator@U?$pair@$$CBV?$basic_string@DU?$char_traits@D@std@@V?$allocator@D@2@@std@@V?$ptr@V?$set@PAVIEventListener@Pegas@@U?$less@PAVIEventListener@Pegas@@@std@@V?$allocator@PAVIEventListener@Pegas@@@4@@std@@@Pegas@@@std@@@std@@@std@@IAE@XZ 004290c0 f i pacman.obj
 0001:00028100       ??0?$allocator@U?$pair@$$CBV?$basic_string@DU?$char_traits@D@std@@V?$allocator@D@2@@std@@V?$ptr@V?$set@PAVIEventListener@Pegas@@U?$less@PAVIEventListener@Pegas@@@std@@V?$allocator@PAVIEventListener@Pegas@@@4@@std@@@Pegas@@@std@@@std@@QAE@XZ 00429100 f i pacman.obj
 0001:00028130       ??0?$_Tree@V?$_Tmap_traits@HV?$ptr@VProcess@Pegas@@@Pegas@@U?$less@H@std@@V?$allocator@U?$pair@$$CBHV?$ptr@VProcess@Pegas@@@Pegas@@@std@@@4@$0A@@std@@@std@@QAE@ABU?$less@H@1@ABV?$allocator@U?$pair@$$CBHV?$ptr@VProcess@Pegas@@@Pegas@@@std@@@1@@Z 00429130 f i pacman.obj
 0001:000281d0       ?_Tidy@?$_Tree@V?$_Tmap_traits@HV?$ptr@VProcess@Pegas@@@Pegas@@U?$less@H@std@@V?$allocator@U?$pair@$$CBHV?$ptr@VProcess@Pegas@@@Pegas@@@std@@@4@$0A@@std@@@std@@IAEXXZ 004291d0 f i pacman.obj
 0001:00028390       ??1?$_Container_base_aux_alloc_empty@V?$allocator@U?$pair@$$CBHV?$ptr@VProcess@Pegas@@@Pegas@@@std@@@std@@@std@@IAE@XZ 00429390 f i pacman.obj
 0001:000283d0       ??0?$allocator@U?$pair@$$CBHV?$ptr@VProcess@Pegas@@@Pegas@@@std@@@std@@QAE@XZ 004293d0 f i pacman.obj
 0001:00028400       ??0?$deque@HV?$allocator@H@std@@@std@@QAE@XZ 00429400 f i pacman.obj
 0001:00028480       ??0?$allocator@H@std@@QAE@XZ 00429480 f i pacman.obj
 0001:000284b0       ?_Tidy@?$deque@HV?$allocator@H@std@@@std@@IAEXXZ 004294b0 f i pacman.obj
 0001:000285a0       ??0?$_Tree@V?$_Tset_traits@PAVIKeyboardController@Pegas@@U?$less@PAVIKeyboardController@Pegas@@@std@@V?$allocator@PAVIKeyboardController@Pegas@@@4@$0A@@std@@@std@@QAE@ABU?$less@PAVIKeyboardController@Pegas@@@1@ABV?$allocator@PAVIKeyboardController@Pegas@@@1@@Z 004295a0 f i pacman.obj
 0001:00028640       ?_Tidy@?$_Tree@V?$_Tset_traits@PAVIKeyboardController@Pegas@@U?$less@PAVIKeyboardController@Pegas@@@std@@V?$allocator@PAVIKeyboardController@Pegas@@@4@$0A@@std@@@std@@IAEXXZ 00429640 f i pacman.obj
 0001:00028800       ??1?$_Container_base_aux_alloc_empty@V?$allocator@PAVIKeyboardController@Pegas@@@std@@@std@@IAE@XZ 00429800 f i pacman.obj
 0001:00028840       ??0?$allocator@PAVIKeyboardController@Pegas@@@std@@QAE@XZ 00429840 f i pacman.obj
 0001:00028870       ??0?$_Tree@V?$_Tset_traits@PAVIMouseController@Pegas@@U?$less@PAVIMouseController@Pegas@@@std@@V?$allocator@PAVIMouseController@Pegas@@@4@$0A@@std@@@std@@QAE@ABU?$less@PAVIMouseController@Pegas@@@1@ABV?$allocator@PAVIMouseController@Pegas@@@1@@Z 00429870 f i pacman.obj
 0001:00028910       ?_Tidy@?$_Tree@V?$_Tset_traits@PAVIMouseController@Pegas@@U?$less@PAVIMouseController@Pegas@@@std@@V?$allocator@PAVIMouseController@Pegas@@@4@$0A@@std@@@std@@IAEXXZ 00429910 f i pacman.obj
 0001:00028ad0       ??1?$_Container_base_aux_alloc_empty@V?$allocator@PAVIMouseController@Pegas@@@std@@@std@@IAE@XZ 00429ad0 f i pacman.obj
 0001:00028b10       ??0?$allocator@PAVIMouseController@Pegas@@@std@@QAE@XZ 00429b10 f i pacman.obj
 0001:00028b40       ??0?$_Tree@V?$_Tmap_traits@HV?$ptr@VIGameState@Pegas@@@Pegas@@U?$less@H@std@@V?$allocator@U?$pair@$$CBHV?$ptr@VIGameState@Pegas@@@Pegas@@@std@@@4@$0A@@std@@@std@@QAE@ABU?$less@H@1@ABV?$allocator@U?$pair@$$CBHV?$ptr@VIGameState@Pegas@@@Pegas@@@std@@@1@@Z 00429b40 f i pacman.obj
 0001:00028be0       ?_Tidy@?$_Tree@V?$_Tmap_traits@HV?$ptr@VIGameState@Pegas@@@Pegas@@U?$less@H@std@@V?$allocator@U?$pair@$$CBHV?$ptr@VIGameState@Pegas@@@Pegas@@@std@@@4@$0A@@std@@@std@@IAEXXZ 00429be0 f i pacman.obj
 0001:00028da0       ??1?$_Container_base_aux_alloc_empty@V?$allocator@U?$pair@$$CBHV?$ptr@VIGameState@Pegas@@@Pegas@@@std@@@std@@@std@@IAE@XZ 00429da0 f i pacman.obj
 0001:00028de0       ??0?$allocator@U?$pair@$$CBHV?$ptr@VIGameState@Pegas@@@Pegas@@@std@@@std@@QAE@XZ 00429de0 f i pacman.obj
 0001:00028e10       ?_Buynode@?$list@V?$ptr@VFile@Pegas@@@Pegas@@V?$allocator@V?$ptr@VFile@Pegas@@@Pegas@@@std@@@std@@IAEPAU_Node@?$_List_nod@V?$ptr@VFile@Pegas@@@Pegas@@V?$allocator@V?$ptr@VFile@Pegas@@@Pegas@@@std@@@2@XZ 00429e10 f i pacman.obj
 0001:00028f70       ?_Tidy@?$list@V?$ptr@VFile@Pegas@@@Pegas@@V?$allocator@V?$ptr@VFile@Pegas@@@Pegas@@@std@@@std@@IAEXXZ 00429f70 f i pacman.obj
 0001:00029010       ??0?$_List_val@V?$ptr@VFile@Pegas@@@Pegas@@V?$allocator@V?$ptr@VFile@Pegas@@@Pegas@@@std@@@std@@QAE@V?$allocator@V?$ptr@VFile@Pegas@@@Pegas@@@1@@Z 0042a010 f i pacman.obj
 0001:00029080       ??1?$_Container_base_aux_alloc_empty@V?$allocator@V?$ptr@VFile@Pegas@@@Pegas@@@std@@@std@@IAE@XZ 0042a080 f i pacman.obj
 0001:000290c0       ??0?$allocator@V?$ptr@VFile@Pegas@@@Pegas@@@std@@QAE@XZ 0042a0c0 f i pacman.obj
 0001:000290f0       ??0?$Singleton@V?$ResourceManager@VStringResource@Pegas@@UIntResourceCode@2@@Pegas@@@Pegas@@QAE@AAV?$ResourceManager@VStringResource@Pegas@@UIntResourceCode@2@@1@@Z 0042a0f0 f i pacman.obj
 0001:00029150       ??1?$Singleton@V?$ResourceManager@VStringResource@Pegas@@UIntResourceCode@2@@Pegas@@@Pegas@@QAE@XZ 0042a150 f i pacman.obj
 0001:000291b0       ??0?$map@HPAVStringResource@Pegas@@U?$less@H@std@@V?$allocator@U?$pair@$$CBHPAVStringResource@Pegas@@@std@@@4@@std@@QAE@XZ 0042a1b0 f i pacman.obj
 0001:00029210       ??1?$_Tree@V?$_Tmap_traits@HPAVStringResource@Pegas@@U?$less@H@std@@V?$allocator@U?$pair@$$CBHPAVStringResource@Pegas@@@std@@@4@$0A@@std@@@std@@QAE@XZ 0042a210 f i pacman.obj
 0001:00029290       ??0?$Singleton@V?$ResourceManager@VTextureResource@Pegas@@UIntResourceCode@2@@Pegas@@@Pegas@@QAE@AAV?$ResourceManager@VTextureResource@Pegas@@UIntResourceCode@2@@1@@Z 0042a290 f i pacman.obj
 0001:000292f0       ??1?$Singleton@V?$ResourceManager@VTextureResource@Pegas@@UIntResourceCode@2@@Pegas@@@Pegas@@QAE@XZ 0042a2f0 f i pacman.obj
 0001:00029350       ??0?$map@HPAVTextureResource@Pegas@@U?$less@H@std@@V?$allocator@U?$pair@$$CBHPAVTextureResource@Pegas@@@std@@@4@@std@@QAE@XZ 0042a350 f i pacman.obj
 0001:000293b0       ??1?$_Tree@V?$_Tmap_traits@HPAVTextureResource@Pegas@@U?$less@H@std@@V?$allocator@U?$pair@$$CBHPAVTextureResource@Pegas@@@std@@@4@$0A@@std@@@std@@QAE@XZ 0042a3b0 f i pacman.obj
 0001:00029430       ??0?$Singleton@V?$ResourceManager@VFontResource@Pegas@@UFontResourceCode@2@@Pegas@@@Pegas@@QAE@AAV?$ResourceManager@VFontResource@Pegas@@UFontResourceCode@2@@1@@Z 0042a430 f i pacman.obj
 0001:00029490       ??1?$Singleton@V?$ResourceManager@VFontResource@Pegas@@UFontResourceCode@2@@Pegas@@@Pegas@@QAE@XZ 0042a490 f i pacman.obj
 0001:000294f0       ??0?$map@HPAVFontResource@Pegas@@U?$less@H@std@@V?$allocator@U?$pair@$$CBHPAVFontResource@Pegas@@@std@@@4@@std@@QAE@XZ 0042a4f0 f i pacman.obj
 0001:00029550       ??1?$_Tree@V?$_Tmap_traits@HPAVFontResource@Pegas@@U?$less@H@std@@V?$allocator@U?$pair@$$CBHPAVFontResource@Pegas@@@std@@@4@$0A@@std@@@std@@QAE@XZ 0042a550 f i pacman.obj
 0001:000295d0       ??0?$Singleton@V?$ResourceManager@VSoundResource@Pegas@@UIntResourceCode@2@@Pegas@@@Pegas@@QAE@AAV?$ResourceManager@VSoundResource@Pegas@@UIntResourceCode@2@@1@@Z 0042a5d0 f i pacman.obj
 0001:00029630       ??1?$Singleton@V?$ResourceManager@VSoundResource@Pegas@@UIntResourceCode@2@@Pegas@@@Pegas@@QAE@XZ 0042a630 f i pacman.obj
 0001:00029690       ??0?$map@HPAVSoundResource@Pegas@@U?$less@H@std@@V?$allocator@U?$pair@$$CBHPAVSoundResource@Pegas@@@std@@@4@@std@@QAE@XZ 0042a690 f i pacman.obj
 0001:000296f0       ??1?$_Tree@V?$_Tmap_traits@HPAVSoundResource@Pegas@@U?$less@H@std@@V?$allocator@U?$pair@$$CBHPAVSoundResource@Pegas@@@std@@@4@$0A@@std@@@std@@QAE@XZ 0042a6f0 f i pacman.obj
 0001:00029770       ??1iterator@?$_Tree@V?$_Tmap_traits@V?$basic_string@DU?$char_traits@D@std@@V?$allocator@D@2@@std@@V?$ptr@V?$set@PAVIEventListener@Pegas@@U?$less@PAVIEventListener@Pegas@@@std@@V?$allocator@PAVIEventListener@Pegas@@@4@@std@@@Pegas@@U?$less@V?$basic_string@DU?$char_traits@D@std@@V?$allocator@D@2@@std@@@2@V?$allocator@U?$pair@$$CBV?$basic_string@DU?$char_traits@D@std@@V?$allocator@D@2@@std@@V?$ptr@V?$set@PAVIEventListener@Pegas@@U?$less@PAVIEventListener@Pegas@@@std@@V?$allocator@PAVIEventListener@Pegas@@@4@@std@@@Pegas@@@std@@@2@$0A@@std@@@std@@QAE@XZ 0042a770 f i pacman.obj
 0001:000297b0       ??0const_iterator@?$_Tree@V?$_Tmap_traits@V?$basic_string@DU?$char_traits@D@std@@V?$allocator@D@2@@std@@V?$ptr@V?$set@PAVIEventListener@Pegas@@U?$less@PAVIEventListener@Pegas@@@std@@V?$allocator@PAVIEventListener@Pegas@@@4@@std@@@Pegas@@U?$less@V?$basic_string@DU?$char_traits@D@std@@V?$allocator@D@2@@std@@@2@V?$allocator@U?$pair@$$CBV?$basic_string@DU?$char_traits@D@std@@V?$allocator@D@2@@std@@V?$ptr@V?$set@PAVIEventListener@Pegas@@U?$less@PAVIEventListener@Pegas@@@std@@V?$allocator@PAVIEventListener@Pegas@@@4@@std@@@Pegas@@@std@@@2@$0A@@std@@@std@@QAE@ABV012@@Z 0042a7b0 f i pacman.obj
 0001:00029810       ??1const_iterator@?$_Tree@V?$_Tmap_traits@V?$basic_string@DU?$char_traits@D@std@@V?$allocator@D@2@@std@@V?$ptr@V?$set@PAVIEventListener@Pegas@@U?$less@PAVIEventListener@Pegas@@@std@@V?$allocator@PAVIEventListener@Pegas@@@4@@std@@@Pegas@@U?$less@V?$basic_string@DU?$char_traits@D@std@@V?$allocator@D@2@@std@@@2@V?$allocator@U?$pair@$$CBV?$basic_string@DU?$char_traits@D@std@@V?$allocator@D@2@@std@@V?$ptr@V?$set@PAVIEventListener@Pegas@@U?$less@PAVIEventListener@Pegas@@@std@@V?$allocator@PAVIEventListener@Pegas@@@4@@std@@@Pegas@@@std@@@2@$0A@@std@@@std@@QAE@XZ 0042a810 f i pacman.obj
 0001:00029850       ??1iterator@?$_Tree@V?$_Tmap_traits@HV?$ptr@VProcess@Pegas@@@Pegas@@U?$less@H@std@@V?$allocator@U?$pair@$$CBHV?$ptr@VProcess@Pegas@@@Pegas@@@std@@@4@$0A@@std@@@std@@QAE@XZ 0042a850 f i pacman.obj
 0001:00029890       ??0const_iterator@?$_Tree@V?$_Tmap_traits@HV?$ptr@VProcess@Pegas@@@Pegas@@U?$less@H@std@@V?$allocator@U?$pair@$$CBHV?$ptr@VProcess@Pegas@@@Pegas@@@std@@@4@$0A@@std@@@std@@QAE@ABV012@@Z 0042a890 f i pacman.obj
 0001:000298f0       ??1const_iterator@?$_Tree@V?$_Tmap_traits@HV?$ptr@VProcess@Pegas@@@Pegas@@U?$less@H@std@@V?$allocator@U?$pair@$$CBHV?$ptr@VProcess@Pegas@@@Pegas@@@std@@@4@$0A@@std@@@std@@QAE@XZ 0042a8f0 f i pacman.obj
 0001:00029930       ??1?$_Tree_val@V?$_Tmap_traits@HPAVStringResource@Pegas@@U?$less@H@std@@V?$allocator@U?$pair@$$CBHPAVStringResource@Pegas@@@std@@@4@$0A@@std@@@std@@QAE@XZ 0042a930 f i pacman.obj
 0001:00029970       ??1?$_Tree_val@V?$_Tmap_traits@HPAVTextureResource@Pegas@@U?$less@H@std@@V?$allocator@U?$pair@$$CBHPAVTextureResource@Pegas@@@std@@@4@$0A@@std@@@std@@QAE@XZ 0042a970 f i pacman.obj
 0001:000299b0       ??1?$_Tree_val@V?$_Tmap_traits@HPAVFontResource@Pegas@@U?$less@H@std@@V?$allocator@U?$pair@$$CBHPAVFontResource@Pegas@@@std@@@4@$0A@@std@@@std@@QAE@XZ 0042a9b0 f i pacman.obj
 0001:000299f0       ??1?$_Tree_val@V?$_Tmap_traits@HPAVSoundResource@Pegas@@U?$less@H@std@@V?$allocator@U?$pair@$$CBHPAVSoundResource@Pegas@@@std@@@4@$0A@@std@@@std@@QAE@XZ 0042a9f0 f i pacman.obj
 0001:00029a30       ??0?$_Bidit@U?$pair@$$CBV?$basic_string@DU?$char_traits@D@std@@V?$allocator@D@2@@std@@V?$ptr@V?$set@PAVIEventListener@Pegas@@U?$less@PAVIEventListener@Pegas@@@std@@V?$allocator@PAVIEventListener@Pegas@@@4@@std@@@Pegas@@@std@@HPBU12@ABU12@@std@@QAE@ABU01@@Z 0042aa30 f i pacman.obj
 0001:00029a80       ??1?$_Bidit@U?$pair@$$CBV?$basic_string@DU?$char_traits@D@std@@V?$allocator@D@2@@std@@V?$ptr@V?$set@PAVIEventListener@Pegas@@U?$less@PAVIEventListener@Pegas@@@std@@V?$allocator@PAVIEventListener@Pegas@@@4@@std@@@Pegas@@@std@@HPBU12@ABU12@@std@@QAE@XZ 0042aa80 f i pacman.obj
 0001:00029ac0       ??0?$_Bidit@U?$pair@$$CBHV?$ptr@VProcess@Pegas@@@Pegas@@@std@@HPBU12@ABU12@@std@@QAE@ABU01@@Z 0042aac0 f i pacman.obj
 0001:00029b10       ??1?$_Bidit@U?$pair@$$CBHV?$ptr@VProcess@Pegas@@@Pegas@@@std@@HPBU12@ABU12@@std@@QAE@XZ 0042ab10 f i pacman.obj
 0001:00029b50       ??1?$_Tree_ptr@V?$_Tmap_traits@HPAVStringResource@Pegas@@U?$less@H@std@@V?$allocator@U?$pair@$$CBHPAVStringResource@Pegas@@@std@@@4@$0A@@std@@@std@@QAE@XZ 0042ab50 f i pacman.obj
 0001:00029b90       ??1?$_Tree_ptr@V?$_Tmap_traits@HPAVTextureResource@Pegas@@U?$less@H@std@@V?$allocator@U?$pair@$$CBHPAVTextureResource@Pegas@@@std@@@4@$0A@@std@@@std@@QAE@XZ 0042ab90 f i pacman.obj
 0001:00029bd0       ??1?$_Tree_ptr@V?$_Tmap_traits@HPAVFontResource@Pegas@@U?$less@H@std@@V?$allocator@U?$pair@$$CBHPAVFontResource@Pegas@@@std@@@4@$0A@@std@@@std@@QAE@XZ 0042abd0 f i pacman.obj
 0001:00029c10       ??1?$_Tree_ptr@V?$_Tmap_traits@HPAVSoundResource@Pegas@@U?$less@H@std@@V?$allocator@U?$pair@$$CBHPAVSoundResource@Pegas@@@std@@@4@$0A@@std@@@std@@QAE@XZ 0042ac10 f i pacman.obj
 0001:00029c50       ??0?$_Iterator_with_base@Ubidirectional_iterator_tag@std@@U?$pair@$$CBV?$basic_string@DU?$char_traits@D@std@@V?$allocator@D@2@@std@@V?$ptr@V?$set@PAVIEventListener@Pegas@@U?$less@PAVIEventListener@Pegas@@@std@@V?$allocator@PAVIEventListener@Pegas@@@4@@std@@@Pegas@@@2@HPBU32@ABU32@V_Iterator_base@2@@std@@QAE@ABU01@@Z 0042ac50 f i pacman.obj
 0001:00029ca0       ??1?$_Iterator_with_base@Ubidirectional_iterator_tag@std@@U?$pair@$$CBV?$basic_string@DU?$char_traits@D@std@@V?$allocator@D@2@@std@@V?$ptr@V?$set@PAVIEventListener@Pegas@@U?$less@PAVIEventListener@Pegas@@@std@@V?$allocator@PAVIEventListener@Pegas@@@4@@std@@@Pegas@@@2@HPBU32@ABU32@V_Iterator_base@2@@std@@QAE@XZ 0042aca0 f i pacman.obj
 0001:00029ce0       ??0?$_Iterator_with_base@Ubidirectional_iterator_tag@std@@U?$pair@$$CBHV?$ptr@VProcess@Pegas@@@Pegas@@@2@HPBU32@ABU32@V_Iterator_base@2@@std@@QAE@ABU01@@Z 0042ace0 f i pacman.obj
 0001:00029d30       ??1?$_Iterator_with_base@Ubidirectional_iterator_tag@std@@U?$pair@$$CBHV?$ptr@VProcess@Pegas@@@Pegas@@@2@HPBU32@ABU32@V_Iterator_base@2@@std@@QAE@XZ 0042ad30 f i pacman.obj
 0001:00029d70       ??1?$_Tree_nod@V?$_Tmap_traits@HPAVStringResource@Pegas@@U?$less@H@std@@V?$allocator@U?$pair@$$CBHPAVStringResource@Pegas@@@std@@@4@$0A@@std@@@std@@QAE@XZ 0042ad70 f i pacman.obj
 0001:00029db0       ??1?$_Tree_nod@V?$_Tmap_traits@HPAVTextureResource@Pegas@@U?$less@H@std@@V?$allocator@U?$pair@$$CBHPAVTextureResource@Pegas@@@std@@@4@$0A@@std@@@std@@QAE@XZ 0042adb0 f i pacman.obj
 0001:00029df0       ??1?$_Tree_nod@V?$_Tmap_traits@HPAVFontResource@Pegas@@U?$less@H@std@@V?$allocator@U?$pair@$$CBHPAVFontResource@Pegas@@@std@@@4@$0A@@std@@@std@@QAE@XZ 0042adf0 f i pacman.obj
 0001:00029e30       ??1?$_Tree_nod@V?$_Tmap_traits@HPAVSoundResource@Pegas@@U?$less@H@std@@V?$allocator@U?$pair@$$CBHPAVSoundResource@Pegas@@@std@@@4@$0A@@std@@@std@@QAE@XZ 0042ae30 f i pacman.obj
 0001:00029e70       ??1?$_Tmap_traits@HPAVStringResource@Pegas@@U?$less@H@std@@V?$allocator@U?$pair@$$CBHPAVStringResource@Pegas@@@std@@@4@$0A@@std@@QAE@XZ 0042ae70 f i pacman.obj
 0001:00029eb0       ??1?$_Tmap_traits@HPAVTextureResource@Pegas@@U?$less@H@std@@V?$allocator@U?$pair@$$CBHPAVTextureResource@Pegas@@@std@@@4@$0A@@std@@QAE@XZ 0042aeb0 f i pacman.obj
 0001:00029ef0       ??1?$_Tmap_traits@HPAVFontResource@Pegas@@U?$less@H@std@@V?$allocator@U?$pair@$$CBHPAVFontResource@Pegas@@@std@@@4@$0A@@std@@QAE@XZ 0042aef0 f i pacman.obj
 0001:00029f30       ??1?$_Tmap_traits@HPAVSoundResource@Pegas@@U?$less@H@std@@V?$allocator@U?$pair@$$CBHPAVSoundResource@Pegas@@@std@@@4@$0A@@std@@QAE@XZ 0042af30 f i pacman.obj
 0001:00029f70       ?_Nextnode@?$list@PAVIDrawable@Pegas@@V?$allocator@PAVIDrawable@Pegas@@@std@@@std@@KAAAPAU_Node@?$_List_nod@PAVIDrawable@Pegas@@V?$allocator@PAVIDrawable@Pegas@@@std@@@2@PAU342@@Z 0042af70 f i pacman.obj
 0001:00029fa0       ?_Prevnode@?$list@PAVIDrawable@Pegas@@V?$allocator@PAVIDrawable@Pegas@@@std@@@std@@KAAAPAU_Node@?$_List_nod@PAVIDrawable@Pegas@@V?$allocator@PAVIDrawable@Pegas@@@std@@@2@PAU342@@Z 0042afa0 f i pacman.obj
 0001:00029fd0       ?clear@?$list@PAVIDrawable@Pegas@@V?$allocator@PAVIDrawable@Pegas@@@std@@@std@@QAEXXZ 0042afd0 f i pacman.obj
 0001:0002a0b0       ??0?$_List_ptr@PAVIDrawable@Pegas@@V?$allocator@PAVIDrawable@Pegas@@@std@@@std@@IAE@V?$allocator@PAVIDrawable@Pegas@@@1@@Z 0042b0b0 f i pacman.obj
 0001:0002a120       ??0?$allocator@PAVIDrawable@Pegas@@@std@@QAE@ABV01@@Z 0042b120 f i pacman.obj
 0001:0002a150       ?deallocate@?$allocator@U_Node@?$_List_nod@PAVIDrawable@Pegas@@V?$allocator@PAVIDrawable@Pegas@@@std@@@std@@@std@@QAEXPAU_Node@?$_List_nod@PAVIDrawable@Pegas@@V?$allocator@PAVIDrawable@Pegas@@@std@@@2@I@Z 0042b150 f i pacman.obj
 0001:0002a1a0       ?allocate@?$allocator@U_Node@?$_List_nod@PAVIDrawable@Pegas@@V?$allocator@PAVIDrawable@Pegas@@@std@@@std@@@std@@QAEPAU_Node@?$_List_nod@PAVIDrawable@Pegas@@V?$allocator@PAVIDrawable@Pegas@@@std@@@2@I@Z 0042b1a0 f i pacman.obj
 0001:0002a1f0       ?construct@?$allocator@PAU_Node@?$_List_nod@PAVIDrawable@Pegas@@V?$allocator@PAVIDrawable@Pegas@@@std@@@std@@@std@@QAEXPAPAU_Node@?$_List_nod@PAVIDrawable@Pegas@@V?$allocator@PAVIDrawable@Pegas@@@std@@@2@ABQAU342@@Z 0042b1f0 f i pacman.obj
 0001:0002a240       ?destroy@?$allocator@PAU_Node@?$_List_nod@PAVIDrawable@Pegas@@V?$allocator@PAVIDrawable@Pegas@@@std@@@std@@@std@@QAEXPAPAU_Node@?$_List_nod@PAVIDrawable@Pegas@@V?$allocator@PAVIDrawable@Pegas@@@std@@@2@@Z 0042b240 f i pacman.obj
 0001:0002a290       ?deallocate@?$allocator@H@std@@QAEXPAHI@Z 0042b290 f i pacman.obj
 0001:0002a2e0       ?empty@?$deque@V?$ptr@UEvent@Pegas@@@Pegas@@V?$allocator@V?$ptr@UEvent@Pegas@@@Pegas@@@std@@@std@@QBE_NXZ 0042b2e0 f i pacman.obj
 0001:0002a320       ?pop_back@?$deque@V?$ptr@UEvent@Pegas@@@Pegas@@V?$allocator@V?$ptr@UEvent@Pegas@@@Pegas@@@std@@@std@@QAEXXZ 0042b320 f i pacman.obj
 0001:0002a420       ??0?$_Deque_val@V?$ptr@UEvent@Pegas@@@Pegas@@V?$allocator@V?$ptr@UEvent@Pegas@@@Pegas@@@std@@@std@@IAE@V?$allocator@V?$ptr@UEvent@Pegas@@@Pegas@@@1@@Z 0042b420 f i pacman.obj
 0001:0002a490       ??0?$allocator@V?$ptr@UEvent@Pegas@@@Pegas@@@std@@QAE@XZ 0042b490 f i pacman.obj
 0001:0002a4c0       ?deallocate@?$allocator@V?$ptr@UEvent@Pegas@@@Pegas@@@std@@QAEXPAV?$ptr@UEvent@Pegas@@@Pegas@@I@Z 0042b4c0 f i pacman.obj
 0001:0002a510       ?deallocate@?$allocator@PAV?$ptr@UEvent@Pegas@@@Pegas@@@std@@QAEXPAPAV?$ptr@UEvent@Pegas@@@Pegas@@I@Z 0042b510 f i pacman.obj
 0001:0002a560       ?destroy@?$allocator@PAV?$ptr@UEvent@Pegas@@@Pegas@@@std@@QAEXPAPAV?$ptr@UEvent@Pegas@@@Pegas@@@Z 0042b560 f i pacman.obj
 0001:0002a5b0       ?_Left@?$_Tree@V?$_Tmap_traits@V?$basic_string@DU?$char_traits@D@std@@V?$allocator@D@2@@std@@V?$ptr@V?$set@PAVIEventListener@Pegas@@U?$less@PAVIEventListener@Pegas@@@std@@V?$allocator@PAVIEventListener@Pegas@@@4@@std@@@Pegas@@U?$less@V?$basic_string@DU?$char_traits@D@std@@V?$allocator@D@2@@std@@@2@V?$allocator@U?$pair@$$CBV?$basic_string@DU?$char_traits@D@std@@V?$allocator@D@2@@std@@V?$ptr@V?$set@PAVIEventListener@Pegas@@U?$less@PAVIEventListener@Pegas@@@std@@V?$allocator@PAVIEventListener@Pegas@@@4@@std@@@Pegas@@@std@@@2@$0A@@std@@@std@@KAAAPAU_Node@?$_Tree_nod@V?$_Tmap_traits@V?$basic_string@DU?$char_traits@D@std@@V?$allocator@D@2@@std@@V?$ptr@V?$set@PAVIEventListener@Pegas@@U?$less@PAVIEventListener@Pegas@@@std@@V?$allocator@PAVIEventListener@Pegas@@@4@@std@@@Pegas@@U?$less@V?$basic_string@DU?$char_traits@D@std@@V?$allocator@D@2@@std@@@2@V?$allocator@U?$pair@$$CBV?$basic_string@DU?$char_traits@D@std@@V?$allocator@D@2@@std@@V?$ptr@V?$set@PAVIEventListener@Pegas@@U?$less@PAVIEventListener@Pegas@@@std@@V?$allocator@PAVIEventListener@Pegas@@@4@@std@@@Pegas@@@std@@@2@$0A@@std@@@2@PAU342@@Z 0042b5b0 f i pacman.obj
 0001:0002a5e0       ?_Parent@?$_Tree@V?$_Tmap_traits@V?$basic_string@DU?$char_traits@D@std@@V?$allocator@D@2@@std@@V?$ptr@V?$set@PAVIEventListener@Pegas@@U?$less@PAVIEventListener@Pegas@@@std@@V?$allocator@PAVIEventListener@Pegas@@@4@@std@@@Pegas@@U?$less@V?$basic_string@DU?$char_traits@D@std@@V?$allocator@D@2@@std@@@2@V?$allocator@U?$pair@$$CBV?$basic_string@DU?$char_traits@D@std@@V?$allocator@D@2@@std@@V?$ptr@V?$set@PAVIEventListener@Pegas@@U?$less@PAVIEventListener@Pegas@@@std@@V?$allocator@PAVIEventListener@Pegas@@@4@@std@@@Pegas@@@std@@@2@$0A@@std@@@std@@KAAAPAU_Node@?$_Tree_nod@V?$_Tmap_traits@V?$basic_string@DU?$char_traits@D@std@@V?$allocator@D@2@@std@@V?$ptr@V?$set@PAVIEventListener@Pegas@@U?$less@PAVIEventListener@Pegas@@@std@@V?$allocator@PAVIEventListener@Pegas@@@4@@std@@@Pegas@@U?$less@V?$basic_string@DU?$char_traits@D@std@@V?$allocator@D@2@@std@@@2@V?$allocator@U?$pair@$$CBV?$basic_string@DU?$char_traits@D@std@@V?$allocator@D@2@@std@@V?$ptr@V?$set@PAVIEventListener@Pegas@@U?$less@PAVIEventListener@Pegas@@@std@@V?$allocator@PAVIEventListener@Pegas@@@4@@std@@@Pegas@@@std@@@2@$0A@@std@@@2@PAU342@@Z 0042b5e0 f i pacman.obj
 0001:0002a610       ?_Right@?$_Tree@V?$_Tmap_traits@V?$basic_string@DU?$char_traits@D@std@@V?$allocator@D@2@@std@@V?$ptr@V?$set@PAVIEventListener@Pegas@@U?$less@PAVIEventListener@Pegas@@@std@@V?$allocator@PAVIEventListener@Pegas@@@4@@std@@@Pegas@@U?$less@V?$basic_string@DU?$char_traits@D@std@@V?$allocator@D@2@@std@@@2@V?$allocator@U?$pair@$$CBV?$basic_string@DU?$char_traits@D@std@@V?$allocator@D@2@@std@@V?$ptr@V?$set@PAVIEventListener@Pegas@@U?$less@PAVIEventListener@Pegas@@@std@@V?$allocator@PAVIEventListener@Pegas@@@4@@std@@@Pegas@@@std@@@2@$0A@@std@@@std@@KAAAPAU_Node@?$_Tree_nod@V?$_Tmap_traits@V?$basic_string@DU?$char_traits@D@std@@V?$allocator@D@2@@std@@V?$ptr@V?$set@PAVIEventListener@Pegas@@U?$less@PAVIEventListener@Pegas@@@std@@V?$allocator@PAVIEventListener@Pegas@@@4@@std@@@Pegas@@U?$less@V?$basic_string@DU?$char_traits@D@std@@V?$allocator@D@2@@std@@@2@V?$allocator@U?$pair@$$CBV?$basic_string@DU?$char_traits@D@std@@V?$allocator@D@2@@std@@V?$ptr@V?$set@PAVIEventListener@Pegas@@U?$less@PAVIEventListener@Pegas@@@std@@V?$allocator@PAVIEventListener@Pegas@@@4@@std@@@Pegas@@@std@@@2@$0A@@std@@@2@PAU342@@Z 0042b610 f i pacman.obj
 0001:0002a640       ?begin@?$_Tree@V?$_Tmap_traits@V?$basic_string@DU?$char_traits@D@std@@V?$allocator@D@2@@std@@V?$ptr@V?$set@PAVIEventListener@Pegas@@U?$less@PAVIEventListener@Pegas@@@std@@V?$allocator@PAVIEventListener@Pegas@@@4@@std@@@Pegas@@U?$less@V?$basic_string@DU?$char_traits@D@std@@V?$allocator@D@2@@std@@@2@V?$allocator@U?$pair@$$CBV?$basic_string@DU?$char_traits@D@std@@V?$allocator@D@2@@std@@V?$ptr@V?$set@PAVIEventListener@Pegas@@U?$less@PAVIEventListener@Pegas@@@std@@V?$allocator@PAVIEventListener@Pegas@@@4@@std@@@Pegas@@@std@@@2@$0A@@std@@@std@@QAE?AViterator@12@XZ 0042b640 f i pacman.obj
 0001:0002a6b0       ?end@?$_Tree@V?$_Tmap_traits@V?$basic_string@DU?$char_traits@D@std@@V?$allocator@D@2@@std@@V?$ptr@V?$set@PAVIEventListener@Pegas@@U?$less@PAVIEventListener@Pegas@@@std@@V?$allocator@PAVIEventListener@Pegas@@@4@@std@@@Pegas@@U?$less@V?$basic_string@DU?$char_traits@D@std@@V?$allocator@D@2@@std@@@2@V?$allocator@U?$pair@$$CBV?$basic_string@DU?$char_traits@D@std@@V?$allocator@D@2@@std@@V?$ptr@V?$set@PAVIEventListener@Pegas@@U?$less@PAVIEventListener@Pegas@@@std@@V?$allocator@PAVIEventListener@Pegas@@@4@@std@@@Pegas@@@std@@@2@$0A@@std@@@std@@QAE?AViterator@12@XZ 0042b6b0 f i pacman.obj
 0001:0002a720       ?erase@?$_Tree@V?$_Tmap_traits@V?$basic_string@DU?$char_traits@D@std@@V?$allocator@D@2@@std@@V?$ptr@V?$set@PAVIEventListener@Pegas@@U?$less@PAVIEventListener@Pegas@@@std@@V?$allocator@PAVIEventListener@Pegas@@@4@@std@@@Pegas@@U?$less@V?$basic_string@DU?$char_traits@D@std@@V?$allocator@D@2@@std@@@2@V?$allocator@U?$pair@$$CBV?$basic_string@DU?$char_traits@D@std@@V?$allocator@D@2@@std@@V?$ptr@V?$set@PAVIEventListener@Pegas@@U?$less@PAVIEventListener@Pegas@@@std@@V?$allocator@PAVIEventListener@Pegas@@@4@@std@@@Pegas@@@std@@@2@$0A@@std@@@std@@QAE?AViterator@12@Vconst_iterator@12@0@Z 0042b720 f i pacman.obj
 0001:0002a9b0       ?_Init@?$_Tree@V?$_Tmap_traits@V?$basic_string@DU?$char_traits@D@std@@V?$allocator@D@2@@std@@V?$ptr@V?$set@PAVIEventListener@Pegas@@U?$less@PAVIEventListener@Pegas@@@std@@V?$allocator@PAVIEventListener@Pegas@@@4@@std@@@Pegas@@U?$less@V?$basic_string@DU?$char_traits@D@std@@V?$allocator@D@2@@std@@@2@V?$allocator@U?$pair@$$CBV?$basic_string@DU?$char_traits@D@std@@V?$allocator@D@2@@std@@V?$ptr@V?$set@PAVIEventListener@Pegas@@U?$less@PAVIEventListener@Pegas@@@std@@V?$allocator@PAVIEventListener@Pegas@@@4@@std@@@Pegas@@@std@@@2@$0A@@std@@@std@@IAEXXZ 0042b9b0 f i pacman.obj
 0001:0002aa50       ??0?$_Tree_val@V?$_Tmap_traits@V?$basic_string@DU?$char_traits@D@std@@V?$allocator@D@2@@std@@V?$ptr@V?$set@PAVIEventListener@Pegas@@U?$less@PAVIEventListener@Pegas@@@std@@V?$allocator@PAVIEventListener@Pegas@@@4@@std@@@Pegas@@U?$less@V?$basic_string@DU?$char_traits@D@std@@V?$allocator@D@2@@std@@@2@V?$allocator@U?$pair@$$CBV?$basic_string@DU?$char_traits@D@std@@V?$allocator@D@2@@std@@V?$ptr@V?$set@PAVIEventListener@Pegas@@U?$less@PAVIEventListener@Pegas@@@std@@V?$allocator@PAVIEventListener@Pegas@@@4@@std@@@Pegas@@@std@@@2@$0A@@std@@@std@@IAE@ABU?$less@V?$basic_string@DU?$char_traits@D@std@@V?$allocator@D@2@@std@@@1@V?$allocator@U?$pair@$$CBV?$basic_string@DU?$char_traits@D@std@@V?$allocator@D@2@@std@@V?$ptr@V?$set@PAVIEventListener@Pegas@@U?$less@PAVIEventListener@Pegas@@@std@@V?$allocator@PAVIEventListener@Pegas@@@4@@std@@@Pegas@@@std@@@1@@Z 0042ba50 f i pacman.obj
 0001:0002aac0       ??0?$allocator@U?$pair@$$CBV?$basic_string@DU?$char_traits@D@std@@V?$allocator@D@2@@std@@V?$ptr@V?$set@PAVIEventListener@Pegas@@U?$less@PAVIEventListener@Pegas@@@std@@V?$allocator@PAVIEventListener@Pegas@@@4@@std@@@Pegas@@@std@@@std@@QAE@ABV01@@Z 0042bac0 f i pacman.obj
 0001:0002aaf0       ?deallocate@?$allocator@U_Node@?$_Tree_nod@V?$_Tmap_traits@V?$basic_string@DU?$char_traits@D@std@@V?$allocator@D@2@@std@@V?$ptr@V?$set@PAVIEventListener@Pegas@@U?$less@PAVIEventListener@Pegas@@@std@@V?$allocator@PAVIEventListener@Pegas@@@4@@std@@@Pegas@@U?$less@V?$basic_string@DU?$char_traits@D@std@@V?$allocator@D@2@@std@@@2@V?$allocator@U?$pair@$$CBV?$basic_string@DU?$char_traits@D@std@@V?$allocator@D@2@@std@@V?$ptr@V?$set@PAVIEventListener@Pegas@@U?$less@PAVIEventListener@Pegas@@@std@@V?$allocator@PAVIEventListener@Pegas@@@4@@std@@@Pegas@@@std@@@2@$0A@@std@@@std@@@std@@QAEXPAU_Node@?$_Tree_nod@V?$_Tmap_traits@V?$basic_string@DU?$char_traits@D@std@@V?$allocator@D@2@@std@@V?$ptr@V?$set@PAVIEventListener@Pegas@@U?$less@PAVIEventListener@Pegas@@@std@@V?$allocator@PAVIEventListener@Pegas@@@4@@std@@@Pegas@@U?$less@V?$basic_string@DU?$char_traits@D@std@@V?$allocator@D@2@@std@@@2@V?$allocator@U?$pair@$$CBV?$basic_string@DU?$char_traits@D@std@@V?$allocator@D@2@@std@@V?$ptr@V?$set@PAVIEventListener@Pegas@@U?$less@PAVIEventListener@Pegas@@@std@@V?$allocator@PAVIEventListener@Pegas@@@4@@std@@@Pegas@@@std@@@2@$0A@@std@@@2@I@Z 0042baf0 f i pacman.obj
 0001:0002ab40       ?destroy@?$allocator@PAU_Node@?$_Tree_nod@V?$_Tmap_traits@V?$basic_string@DU?$char_traits@D@std@@V?$allocator@D@2@@std@@V?$ptr@V?$set@PAVIEventListener@Pegas@@U?$less@PAVIEventListener@Pegas@@@std@@V?$allocator@PAVIEventListener@Pegas@@@4@@std@@@Pegas@@U?$less@V?$basic_string@DU?$char_traits@D@std@@V?$allocator@D@2@@std@@@2@V?$allocator@U?$pair@$$CBV?$basic_string@DU?$char_traits@D@std@@V?$allocator@D@2@@std@@V?$ptr@V?$set@PAVIEventListener@Pegas@@U?$less@PAVIEventListener@Pegas@@@std@@V?$allocator@PAVIEventListener@Pegas@@@4@@std@@@Pegas@@@std@@@2@$0A@@std@@@std@@@std@@QAEXPAPAU_Node@?$_Tree_nod@V?$_Tmap_traits@V?$basic_string@DU?$char_traits@D@std@@V?$allocator@D@2@@std@@V?$ptr@V?$set@PAVIEventListener@Pegas@@U?$less@PAVIEventListener@Pegas@@@std@@V?$allocator@PAVIEventListener@Pegas@@@4@@std@@@Pegas@@U?$less@V?$basic_string@DU?$char_traits@D@std@@V?$allocator@D@2@@std@@@2@V?$allocator@U?$pair@$$CBV?$basic_string@DU?$char_traits@D@std@@V?$allocator@D@2@@std@@V?$ptr@V?$set@PAVIEventListener@Pegas@@U?$less@PAVIEventListener@Pegas@@@std@@V?$allocator@PAVIEventListener@Pegas@@@4@@std@@@Pegas@@@std@@@2@$0A@@std@@@2@@Z 0042bb40 f i pacman.obj
 0001:0002ab90       ?_Left@?$_Tree@V?$_Tmap_traits@HV?$ptr@VProcess@Pegas@@@Pegas@@U?$less@H@std@@V?$allocator@U?$pair@$$CBHV?$ptr@VProcess@Pegas@@@Pegas@@@std@@@4@$0A@@std@@@std@@KAAAPAU_Node@?$_Tree_nod@V?$_Tmap_traits@HV?$ptr@VProcess@Pegas@@@Pegas@@U?$less@H@std@@V?$allocator@U?$pair@$$CBHV?$ptr@VProcess@Pegas@@@Pegas@@@std@@@4@$0A@@std@@@2@PAU342@@Z 0042bb90 f i pacman.obj
 0001:0002abc0       ?_Parent@?$_Tree@V?$_Tmap_traits@HV?$ptr@VProcess@Pegas@@@Pegas@@U?$less@H@std@@V?$allocator@U?$pair@$$CBHV?$ptr@VProcess@Pegas@@@Pegas@@@std@@@4@$0A@@std@@@std@@KAAAPAU_Node@?$_Tree_nod@V?$_Tmap_traits@HV?$ptr@VProcess@Pegas@@@Pegas@@U?$less@H@std@@V?$allocator@U?$pair@$$CBHV?$ptr@VProcess@Pegas@@@Pegas@@@std@@@4@$0A@@std@@@2@PAU342@@Z 0042bbc0 f i pacman.obj
 0001:0002abf0       ?_Right@?$_Tree@V?$_Tmap_traits@HV?$ptr@VProcess@Pegas@@@Pegas@@U?$less@H@std@@V?$allocator@U?$pair@$$CBHV?$ptr@VProcess@Pegas@@@Pegas@@@std@@@4@$0A@@std@@@std@@KAAAPAU_Node@?$_Tree_nod@V?$_Tmap_traits@HV?$ptr@VProcess@Pegas@@@Pegas@@U?$less@H@std@@V?$allocator@U?$pair@$$CBHV?$ptr@VProcess@Pegas@@@Pegas@@@std@@@4@$0A@@std@@@2@PAU342@@Z 0042bbf0 f i pacman.obj
 0001:0002ac20       ?begin@?$_Tree@V?$_Tmap_traits@HV?$ptr@VProcess@Pegas@@@Pegas@@U?$less@H@std@@V?$allocator@U?$pair@$$CBHV?$ptr@VProcess@Pegas@@@Pegas@@@std@@@4@$0A@@std@@@std@@QAE?AViterator@12@XZ 0042bc20 f i pacman.obj
 0001:0002ac90       ?end@?$_Tree@V?$_Tmap_traits@HV?$ptr@VProcess@Pegas@@@Pegas@@U?$less@H@std@@V?$allocator@U?$pair@$$CBHV?$ptr@VProcess@Pegas@@@Pegas@@@std@@@4@$0A@@std@@@std@@QAE?AViterator@12@XZ 0042bc90 f i pacman.obj
 0001:0002ad00       ?erase@?$_Tree@V?$_Tmap_traits@HV?$ptr@VProcess@Pegas@@@Pegas@@U?$less@H@std@@V?$allocator@U?$pair@$$CBHV?$ptr@VProcess@Pegas@@@Pegas@@@std@@@4@$0A@@std@@@std@@QAE?AViterator@12@Vconst_iterator@12@0@Z 0042bd00 f i pacman.obj
 0001:0002af90       ?_Init@?$_Tree@V?$_Tmap_traits@HV?$ptr@VProcess@Pegas@@@Pegas@@U?$less@H@std@@V?$allocator@U?$pair@$$CBHV?$ptr@VProcess@Pegas@@@Pegas@@@std@@@4@$0A@@std@@@std@@IAEXXZ 0042bf90 f i pacman.obj
 0001:0002b030       ??0?$_Tree_val@V?$_Tmap_traits@HV?$ptr@VProcess@Pegas@@@Pegas@@U?$less@H@std@@V?$allocator@U?$pair@$$CBHV?$ptr@VProcess@Pegas@@@Pegas@@@std@@@4@$0A@@std@@@std@@IAE@ABU?$less@H@1@V?$allocator@U?$pair@$$CBHV?$ptr@VProcess@Pegas@@@Pegas@@@std@@@1@@Z 0042c030 f i pacman.obj
 0001:0002b0a0       ??0?$allocator@U?$pair@$$CBHV?$ptr@VProcess@Pegas@@@Pegas@@@std@@@std@@QAE@ABV01@@Z 0042c0a0 f i pacman.obj
 0001:0002b0d0       ?deallocate@?$allocator@U_Node@?$_Tree_nod@V?$_Tmap_traits@HV?$ptr@VProcess@Pegas@@@Pegas@@U?$less@H@std@@V?$allocator@U?$pair@$$CBHV?$ptr@VProcess@Pegas@@@Pegas@@@std@@@4@$0A@@std@@@std@@@std@@QAEXPAU_Node@?$_Tree_nod@V?$_Tmap_traits@HV?$ptr@VProcess@Pegas@@@Pegas@@U?$less@H@std@@V?$allocator@U?$pair@$$CBHV?$ptr@VProcess@Pegas@@@Pegas@@@std@@@4@$0A@@std@@@2@I@Z 0042c0d0 f i pacman.obj
 0001:0002b120       ?destroy@?$allocator@PAU_Node@?$_Tree_nod@V?$_Tmap_traits@HV?$ptr@VProcess@Pegas@@@Pegas@@U?$less@H@std@@V?$allocator@U?$pair@$$CBHV?$ptr@VProcess@Pegas@@@Pegas@@@std@@@4@$0A@@std@@@std@@@std@@QAEXPAPAU_Node@?$_Tree_nod@V?$_Tmap_traits@HV?$ptr@VProcess@Pegas@@@Pegas@@U?$less@H@std@@V?$allocator@U?$pair@$$CBHV?$ptr@VProcess@Pegas@@@Pegas@@@std@@@4@$0A@@std@@@2@@Z 0042c120 f i pacman.obj
 0001:0002b170       ?empty@?$deque@HV?$allocator@H@std@@@std@@QBE_NXZ 0042c170 f i pacman.obj
 0001:0002b1b0       ?pop_back@?$deque@HV?$allocator@H@std@@@std@@QAEXXZ 0042c1b0 f i pacman.obj
 0001:0002b2b0       ??0?$_Deque_val@HV?$allocator@H@std@@@std@@IAE@V?$allocator@H@1@@Z 0042c2b0 f i pacman.obj
 0001:0002b320       ??0?$allocator@H@std@@QAE@ABV01@@Z 0042c320 f i pacman.obj
 0001:0002b350       ?deallocate@?$allocator@PAH@std@@QAEXPAPAHI@Z 0042c350 f i pacman.obj
 0001:0002b3a0       ?destroy@?$allocator@PAH@std@@QAEXPAPAH@Z 0042c3a0 f i pacman.obj
 0001:0002b3f0       ?_Init@?$_Tree@V?$_Tset_traits@PAVIKeyboardController@Pegas@@U?$less@PAVIKeyboardController@Pegas@@@std@@V?$allocator@PAVIKeyboardController@Pegas@@@4@$0A@@std@@@std@@IAEXXZ 0042c3f0 f i pacman.obj
 0001:0002b490       ??0?$_Tree_val@V?$_Tset_traits@PAVIKeyboardController@Pegas@@U?$less@PAVIKeyboardController@Pegas@@@std@@V?$allocator@PAVIKeyboardController@Pegas@@@4@$0A@@std@@@std@@IAE@ABU?$less@PAVIKeyboardController@Pegas@@@1@V?$allocator@PAVIKeyboardController@Pegas@@@1@@Z 0042c490 f i pacman.obj
 0001:0002b500       ??0?$allocator@PAVIKeyboardController@Pegas@@@std@@QAE@ABV01@@Z 0042c500 f i pacman.obj
 0001:0002b530       ?destroy@?$allocator@PAU_Node@?$_Tree_nod@V?$_Tset_traits@PAVIKeyboardController@Pegas@@U?$less@PAVIKeyboardController@Pegas@@@std@@V?$allocator@PAVIKeyboardController@Pegas@@@4@$0A@@std@@@std@@@std@@QAEXPAPAU_Node@?$_Tree_nod@V?$_Tset_traits@PAVIKeyboardController@Pegas@@U?$less@PAVIKeyboardController@Pegas@@@std@@V?$allocator@PAVIKeyboardController@Pegas@@@4@$0A@@std@@@2@@Z 0042c530 f i pacman.obj
 0001:0002b580       ?_Init@?$_Tree@V?$_Tset_traits@PAVIMouseController@Pegas@@U?$less@PAVIMouseController@Pegas@@@std@@V?$allocator@PAVIMouseController@Pegas@@@4@$0A@@std@@@std@@IAEXXZ 0042c580 f i pacman.obj
 0001:0002b620       ??0?$_Tree_val@V?$_Tset_traits@PAVIMouseController@Pegas@@U?$less@PAVIMouseController@Pegas@@@std@@V?$allocator@PAVIMouseController@Pegas@@@4@$0A@@std@@@std@@IAE@ABU?$less@PAVIMouseController@Pegas@@@1@V?$allocator@PAVIMouseController@Pegas@@@1@@Z 0042c620 f i pacman.obj
 0001:0002b690       ??0?$allocator@PAVIMouseController@Pegas@@@std@@QAE@ABV01@@Z 0042c690 f i pacman.obj
 0001:0002b6c0       ?destroy@?$allocator@PAU_Node@?$_Tree_nod@V?$_Tset_traits@PAVIMouseController@Pegas@@U?$less@PAVIMouseController@Pegas@@@std@@V?$allocator@PAVIMouseController@Pegas@@@4@$0A@@std@@@std@@@std@@QAEXPAPAU_Node@?$_Tree_nod@V?$_Tset_traits@PAVIMouseController@Pegas@@U?$less@PAVIMouseController@Pegas@@@std@@V?$allocator@PAVIMouseController@Pegas@@@4@$0A@@std@@@2@@Z 0042c6c0 f i pacman.obj
 0001:0002b710       ?_Init@?$_Tree@V?$_Tmap_traits@HV?$ptr@VIGameState@Pegas@@@Pegas@@U?$less@H@std@@V?$allocator@U?$pair@$$CBHV?$ptr@VIGameState@Pegas@@@Pegas@@@std@@@4@$0A@@std@@@std@@IAEXXZ 0042c710 f i pacman.obj
 0001:0002b7b0       ??0?$_Tree_val@V?$_Tmap_traits@HV?$ptr@VIGameState@Pegas@@@Pegas@@U?$less@H@std@@V?$allocator@U?$pair@$$CBHV?$ptr@VIGameState@Pegas@@@Pegas@@@std@@@4@$0A@@std@@@std@@IAE@ABU?$less@H@1@V?$allocator@U?$pair@$$CBHV?$ptr@VIGameState@Pegas@@@Pegas@@@std@@@1@@Z 0042c7b0 f i pacman.obj
 0001:0002b820       ??0?$allocator@U?$pair@$$CBHV?$ptr@VIGameState@Pegas@@@Pegas@@@std@@@std@@QAE@ABV01@@Z 0042c820 f i pacman.obj
 0001:0002b850       ?destroy@?$allocator@PAU_Node@?$_Tree_nod@V?$_Tmap_traits@HV?$ptr@VIGameState@Pegas@@@Pegas@@U?$less@H@std@@V?$allocator@U?$pair@$$CBHV?$ptr@VIGameState@Pegas@@@Pegas@@@std@@@4@$0A@@std@@@std@@@std@@QAEXPAPAU_Node@?$_Tree_nod@V?$_Tmap_traits@HV?$ptr@VIGameState@Pegas@@@Pegas@@U?$less@H@std@@V?$allocator@U?$pair@$$CBHV?$ptr@VIGameState@Pegas@@@Pegas@@@std@@@4@$0A@@std@@@2@@Z 0042c850 f i pacman.obj
 0001:0002b8a0       ??0?$_List_ptr@V?$ptr@VFile@Pegas@@@Pegas@@V?$allocator@V?$ptr@VFile@Pegas@@@Pegas@@@std@@@std@@IAE@V?$allocator@V?$ptr@VFile@Pegas@@@Pegas@@@1@@Z 0042c8a0 f i pacman.obj
 0001:0002b910       ??0?$allocator@V?$ptr@VFile@Pegas@@@Pegas@@@std@@QAE@ABV01@@Z 0042c910 f i pacman.obj
 0001:0002b940       ??0?$_Tree@V?$_Tmap_traits@HPAVStringResource@Pegas@@U?$less@H@std@@V?$allocator@U?$pair@$$CBHPAVStringResource@Pegas@@@std@@@4@$0A@@std@@@std@@QAE@ABU?$less@H@1@ABV?$allocator@U?$pair@$$CBHPAVStringResource@Pegas@@@std@@@1@@Z 0042c940 f i pacman.obj
 0001:0002b9e0       ?_Tidy@?$_Tree@V?$_Tmap_traits@HPAVStringResource@Pegas@@U?$less@H@std@@V?$allocator@U?$pair@$$CBHPAVStringResource@Pegas@@@std@@@4@$0A@@std@@@std@@IAEXXZ 0042c9e0 f i pacman.obj
 0001:0002bba0       ??1?$_Container_base_aux_alloc_empty@V?$allocator@U?$pair@$$CBHPAVStringResource@Pegas@@@std@@@std@@@std@@IAE@XZ 0042cba0 f i pacman.obj
 0001:0002bbe0       ??0?$allocator@U?$pair@$$CBHPAVStringResource@Pegas@@@std@@@std@@QAE@XZ 0042cbe0 f i pacman.obj
 0001:0002bc10       ??0?$_Tree@V?$_Tmap_traits@HPAVTextureResource@Pegas@@U?$less@H@std@@V?$allocator@U?$pair@$$CBHPAVTextureResource@Pegas@@@std@@@4@$0A@@std@@@std@@QAE@ABU?$less@H@1@ABV?$allocator@U?$pair@$$CBHPAVTextureResource@Pegas@@@std@@@1@@Z 0042cc10 f i pacman.obj
 0001:0002bcb0       ?_Tidy@?$_Tree@V?$_Tmap_traits@HPAVTextureResource@Pegas@@U?$less@H@std@@V?$allocator@U?$pair@$$CBHPAVTextureResource@Pegas@@@std@@@4@$0A@@std@@@std@@IAEXXZ 0042ccb0 f i pacman.obj
 0001:0002be70       ??1?$_Container_base_aux_alloc_empty@V?$allocator@U?$pair@$$CBHPAVTextureResource@Pegas@@@std@@@std@@@std@@IAE@XZ 0042ce70 f i pacman.obj
 0001:0002beb0       ??0?$allocator@U?$pair@$$CBHPAVTextureResource@Pegas@@@std@@@std@@QAE@XZ 0042ceb0 f i pacman.obj
 0001:0002bee0       ??0?$_Tree@V?$_Tmap_traits@HPAVFontResource@Pegas@@U?$less@H@std@@V?$allocator@U?$pair@$$CBHPAVFontResource@Pegas@@@std@@@4@$0A@@std@@@std@@QAE@ABU?$less@H@1@ABV?$allocator@U?$pair@$$CBHPAVFontResource@Pegas@@@std@@@1@@Z 0042cee0 f i pacman.obj
 0001:0002bf80       ?_Tidy@?$_Tree@V?$_Tmap_traits@HPAVFontResource@Pegas@@U?$less@H@std@@V?$allocator@U?$pair@$$CBHPAVFontResource@Pegas@@@std@@@4@$0A@@std@@@std@@IAEXXZ 0042cf80 f i pacman.obj
 0001:0002c140       ??1?$_Container_base_aux_alloc_empty@V?$allocator@U?$pair@$$CBHPAVFontResource@Pegas@@@std@@@std@@@std@@IAE@XZ 0042d140 f i pacman.obj
 0001:0002c180       ??0?$allocator@U?$pair@$$CBHPAVFontResource@Pegas@@@std@@@std@@QAE@XZ 0042d180 f i pacman.obj
 0001:0002c1b0       ??0?$_Tree@V?$_Tmap_traits@HPAVSoundResource@Pegas@@U?$less@H@std@@V?$allocator@U?$pair@$$CBHPAVSoundResource@Pegas@@@std@@@4@$0A@@std@@@std@@QAE@ABU?$less@H@1@ABV?$allocator@U?$pair@$$CBHPAVSoundResource@Pegas@@@std@@@1@@Z 0042d1b0 f i pacman.obj
 0001:0002c250       ?_Tidy@?$_Tree@V?$_Tmap_traits@HPAVSoundResource@Pegas@@U?$less@H@std@@V?$allocator@U?$pair@$$CBHPAVSoundResource@Pegas@@@std@@@4@$0A@@std@@@std@@IAEXXZ 0042d250 f i pacman.obj
 0001:0002c410       ??1?$_Container_base_aux_alloc_empty@V?$allocator@U?$pair@$$CBHPAVSoundResource@Pegas@@@std@@@std@@@std@@IAE@XZ 0042d410 f i pacman.obj
 0001:0002c450       ??0?$allocator@U?$pair@$$CBHPAVSoundResource@Pegas@@@std@@@std@@QAE@XZ 0042d450 f i pacman.obj
 0001:0002c480       ??0const_iterator@?$_Tree@V?$_Tmap_traits@HPAVStringResource@Pegas@@U?$less@H@std@@V?$allocator@U?$pair@$$CBHPAVStringResource@Pegas@@@std@@@4@$0A@@std@@@std@@QAE@ABV012@@Z 0042d480 f i pacman.obj
 0001:0002c4e0       ??0const_iterator@?$_Tree@V?$_Tmap_traits@HPAVSoundResource@Pegas@@U?$less@H@std@@V?$allocator@U?$pair@$$CBHPAVSoundResource@Pegas@@@std@@@4@$0A@@std@@@std@@QAE@ABV012@@Z 0042d4e0 f i pacman.obj
 0001:0002c540       ??0?$_Bidit@U?$pair@$$CBHPAVStringResource@Pegas@@@std@@HPBU12@ABU12@@std@@QAE@ABU01@@Z 0042d540 f i pacman.obj
 0001:0002c590       ??0?$_Bidit@U?$pair@$$CBHPAVSoundResource@Pegas@@@std@@HPBU12@ABU12@@std@@QAE@ABU01@@Z 0042d590 f i pacman.obj
 0001:0002c5e0       ??0?$_Iterator_with_base@Ubidirectional_iterator_tag@std@@U?$pair@$$CBHPAVStringResource@Pegas@@@2@HPBU32@ABU32@V_Iterator_base@2@@std@@QAE@ABU01@@Z 0042d5e0 f i pacman.obj
 0001:0002c630       ??0?$_Iterator_with_base@Ubidirectional_iterator_tag@std@@U?$pair@$$CBHPAVSoundResource@Pegas@@@2@HPBU32@ABU32@V_Iterator_base@2@@std@@QAE@ABU01@@Z 0042d630 f i pacman.obj
 0001:0002c680       ?_Orphan_ptr@?$list@PAVIDrawable@Pegas@@V?$allocator@PAVIDrawable@Pegas@@@std@@@std@@IBEXAAV12@PAU_Node@?$_List_nod@PAVIDrawable@Pegas@@V?$allocator@PAVIDrawable@Pegas@@@std@@@2@@Z 0042d680 f i pacman.obj
 0001:0002c750       ??0?$_List_nod@PAVIDrawable@Pegas@@V?$allocator@PAVIDrawable@Pegas@@@std@@@std@@IAE@V?$allocator@PAVIDrawable@Pegas@@@1@@Z 0042d750 f i pacman.obj
 0001:0002c7c0       ?destroy@?$allocator@U_Node@?$_List_nod@PAVIDrawable@Pegas@@V?$allocator@PAVIDrawable@Pegas@@@std@@@std@@@std@@QAEXPAU_Node@?$_List_nod@PAVIDrawable@Pegas@@V?$allocator@PAVIDrawable@Pegas@@@std@@@2@@Z 0042d7c0 f i pacman.obj
 0001:0002c810       ?destroy@?$allocator@H@std@@QAEXPAH@Z 0042d810 f i pacman.obj
 0001:0002c860       ?_Orphan_off@?$deque@V?$ptr@UEvent@Pegas@@@Pegas@@V?$allocator@V?$ptr@UEvent@Pegas@@@Pegas@@@std@@@std@@IBEXI@Z 0042d860 f i pacman.obj
 0001:0002c990       ??0?$_Deque_map@V?$ptr@UEvent@Pegas@@@Pegas@@V?$allocator@V?$ptr@UEvent@Pegas@@@Pegas@@@std@@@std@@IAE@V?$allocator@V?$ptr@UEvent@Pegas@@@Pegas@@@1@@Z 0042d990 f i pacman.obj
 0001:0002ca00       ??0?$allocator@V?$ptr@UEvent@Pegas@@@Pegas@@@std@@QAE@ABV01@@Z 0042da00 f i pacman.obj
 0001:0002ca30       ?destroy@?$allocator@V?$ptr@UEvent@Pegas@@@Pegas@@@std@@QAEXPAV?$ptr@UEvent@Pegas@@@Pegas@@@Z 0042da30 f i pacman.obj
 0001:0002ca80       ?_Isnil@?$_Tree@V?$_Tmap_traits@V?$basic_string@DU?$char_traits@D@std@@V?$allocator@D@2@@std@@V?$ptr@V?$set@PAVIEventListener@Pegas@@U?$less@PAVIEventListener@Pegas@@@std@@V?$allocator@PAVIEventListener@Pegas@@@4@@std@@@Pegas@@U?$less@V?$basic_string@DU?$char_traits@D@std@@V?$allocator@D@2@@std@@@2@V?$allocator@U?$pair@$$CBV?$basic_string@DU?$char_traits@D@std@@V?$allocator@D@2@@std@@V?$ptr@V?$set@PAVIEventListener@Pegas@@U?$less@PAVIEventListener@Pegas@@@std@@V?$allocator@PAVIEventListener@Pegas@@@4@@std@@@Pegas@@@std@@@2@$0A@@std@@@std@@KAAADPAU_Node@?$_Tree_nod@V?$_Tmap_traits@V?$basic_string@DU?$char_traits@D@std@@V?$allocator@D@2@@std@@V?$ptr@V?$set@PAVIEventListener@Pegas@@U?$less@PAVIEventListener@Pegas@@@std@@V?$allocator@PAVIEventListener@Pegas@@@4@@std@@@Pegas@@U?$less@V?$basic_string@DU?$char_traits@D@std@@V?$allocator@D@2@@std@@@2@V?$allocator@U?$pair@$$CBV?$basic_string@DU?$char_traits@D@std@@V?$allocator@D@2@@std@@V?$ptr@V?$set@PAVIEventListener@Pegas@@U?$less@PAVIEventListener@Pegas@@@std@@V?$allocator@PAVIEventListener@Pegas@@@4@@std@@@Pegas@@@std@@@2@$0A@@std@@@2@@Z 0042da80 f i pacman.obj
 0001:0002cab0       ?_Make_iter@?$_Tree@V?$_Tmap_traits@V?$basic_string@DU?$char_traits@D@std@@V?$allocator@D@2@@std@@V?$ptr@V?$set@PAVIEventListener@Pegas@@U?$less@PAVIEventListener@Pegas@@@std@@V?$allocator@PAVIEventListener@Pegas@@@4@@std@@@Pegas@@U?$less@V?$basic_string@DU?$char_traits@D@std@@V?$allocator@D@2@@std@@@2@V?$allocator@U?$pair@$$CBV?$basic_string@DU?$char_traits@D@std@@V?$allocator@D@2@@std@@V?$ptr@V?$set@PAVIEventListener@Pegas@@U?$less@PAVIEventListener@Pegas@@@std@@V?$allocator@PAVIEventListener@Pegas@@@4@@std@@@Pegas@@@std@@@2@$0A@@std@@@std@@QBE?AViterator@12@Vconst_iterator@12@@Z 0042dab0 f i pacman.obj
 0001:0002cb90       ?erase@?$_Tree@V?$_Tmap_traits@V?$basic_string@DU?$char_traits@D@std@@V?$allocator@D@2@@std@@V?$ptr@V?$set@PAVIEventListener@Pegas@@U?$less@PAVIEventListener@Pegas@@@std@@V?$allocator@PAVIEventListener@Pegas@@@4@@std@@@Pegas@@U?$less@V?$basic_string@DU?$char_traits@D@std@@V?$allocator@D@2@@std@@@2@V?$allocator@U?$pair@$$CBV?$basic_string@DU?$char_traits@D@std@@V?$allocator@D@2@@std@@V?$ptr@V?$set@PAVIEventListener@Pegas@@U?$less@PAVIEventListener@Pegas@@@std@@V?$allocator@PAVIEventListener@Pegas@@@4@@std@@@Pegas@@@std@@@2@$0A@@std@@@std@@QAE?AViterator@12@Vconst_iterator@12@@Z 0042db90 f i pacman.obj
 0001:0002d3e0       ?clear@?$_Tree@V?$_Tmap_traits@V?$basic_string@DU?$char_traits@D@std@@V?$allocator@D@2@@std@@V?$ptr@V?$set@PAVIEventListener@Pegas@@U?$less@PAVIEventListener@Pegas@@@std@@V?$allocator@PAVIEventListener@Pegas@@@4@@std@@@Pegas@@U?$less@V?$basic_string@DU?$char_traits@D@std@@V?$allocator@D@2@@std@@@2@V?$allocator@U?$pair@$$CBV?$basic_string@DU?$char_traits@D@std@@V?$allocator@D@2@@std@@V?$ptr@V?$set@PAVIEventListener@Pegas@@U?$less@PAVIEventListener@Pegas@@@std@@V?$allocator@PAVIEventListener@Pegas@@@4@@std@@@Pegas@@@std@@@2@$0A@@std@@@std@@QAEXXZ 0042e3e0 f i pacman.obj
 0001:0002d480       ?_Lmost@?$_Tree@V?$_Tmap_traits@V?$basic_string@DU?$char_traits@D@std@@V?$allocator@D@2@@std@@V?$ptr@V?$set@PAVIEventListener@Pegas@@U?$less@PAVIEventListener@Pegas@@@std@@V?$allocator@PAVIEventListener@Pegas@@@4@@std@@@Pegas@@U?$less@V?$basic_string@DU?$char_traits@D@std@@V?$allocator@D@2@@std@@@2@V?$allocator@U?$pair@$$CBV?$basic_string@DU?$char_traits@D@std@@V?$allocator@D@2@@std@@V?$ptr@V?$set@PAVIEventListener@Pegas@@U?$less@PAVIEventListener@Pegas@@@std@@V?$allocator@PAVIEventListener@Pegas@@@4@@std@@@Pegas@@@std@@@2@$0A@@std@@@std@@IBEAAPAU_Node@?$_Tree_nod@V?$_Tmap_traits@V?$basic_string@DU?$char_traits@D@std@@V?$allocator@D@2@@std@@V?$ptr@V?$set@PAVIEventListener@Pegas@@U?$less@PAVIEventListener@Pegas@@@std@@V?$allocator@PAVIEventListener@Pegas@@@4@@std@@@Pegas@@U?$less@V?$basic_string@DU?$char_traits@D@std@@V?$allocator@D@2@@std@@@2@V?$allocator@U?$pair@$$CBV?$basic_string@DU?$char_traits@D@std@@V?$allocator@D@2@@std@@V?$ptr@V?$set@PAVIEventListener@Pegas@@U?$less@PAVIEventListener@Pegas@@@std@@V?$allocator@PAVIEventListener@Pegas@@@4@@std@@@Pegas@@@std@@@2@$0A@@std@@@2@XZ 0042e480 f i pacman.obj
 0001:0002d4d0       ?_Rmost@?$_Tree@V?$_Tmap_traits@V?$basic_string@DU?$char_traits@D@std@@V?$allocator@D@2@@std@@V?$ptr@V?$set@PAVIEventListener@Pegas@@U?$less@PAVIEventListener@Pegas@@@std@@V?$allocator@PAVIEventListener@Pegas@@@4@@std@@@Pegas@@U?$less@V?$basic_string@DU?$char_traits@D@std@@V?$allocator@D@2@@std@@@2@V?$allocator@U?$pair@$$CBV?$basic_string@DU?$char_traits@D@std@@V?$allocator@D@2@@std@@V?$ptr@V?$set@PAVIEventListener@Pegas@@U?$less@PAVIEventListener@Pegas@@@std@@V?$allocator@PAVIEventListener@Pegas@@@4@@std@@@Pegas@@@std@@@2@$0A@@std@@@std@@IBEAAPAU_Node@?$_Tree_nod@V?$_Tmap_traits@V?$basic_string@DU?$char_traits@D@std@@V?$allocator@D@2@@std@@V?$ptr@V?$set@PAVIEventListener@Pegas@@U?$less@PAVIEventListener@Pegas@@@std@@V?$allocator@PAVIEventListener@Pegas@@@4@@std@@@Pegas@@U?$less@V?$basic_string@DU?$char_traits@D@std@@V?$allocator@D@2@@std@@@2@V?$allocator@U?$pair@$$CBV?$basic_string@DU?$char_traits@D@std@@V?$allocator@D@2@@std@@V?$ptr@V?$set@PAVIEventListener@Pegas@@U?$less@PAVIEventListener@Pegas@@@std@@V?$allocator@PAVIEventListener@Pegas@@@4@@std@@@Pegas@@@std@@@2@$0A@@std@@@2@XZ 0042e4d0 f i pacman.obj
 0001:0002d520       ?_Root@?$_Tree@V?$_Tmap_traits@V?$basic_string@DU?$char_traits@D@std@@V?$allocator@D@2@@std@@V?$ptr@V?$set@PAVIEventListener@Pegas@@U?$less@PAVIEventListener@Pegas@@@std@@V?$allocator@PAVIEventListener@Pegas@@@4@@std@@@Pegas@@U?$less@V?$basic_string@DU?$char_traits@D@std@@V?$allocator@D@2@@std@@@2@V?$allocator@U?$pair@$$CBV?$basic_string@DU?$char_traits@D@std@@V?$allocator@D@2@@std@@V?$ptr@V?$set@PAVIEventListener@Pegas@@U?$less@PAVIEventListener@Pegas@@@std@@V?$allocator@PAVIEventListener@Pegas@@@4@@std@@@Pegas@@@std@@@2@$0A@@std@@@std@@IBEAAPAU_Node@?$_Tree_nod@V?$_Tmap_traits@V?$basic_string@DU?$char_traits@D@std@@V?$allocator@D@2@@std@@V?$ptr@V?$set@PAVIEventListener@Pegas@@U?$less@PAVIEventListener@Pegas@@@std@@V?$allocator@PAVIEventListener@Pegas@@@4@@std@@@Pegas@@U?$less@V?$basic_string@DU?$char_traits@D@std@@V?$allocator@D@2@@std@@@2@V?$allocator@U?$pair@$$CBV?$basic_string@DU?$char_traits@D@std@@V?$allocator@D@2@@std@@V?$ptr@V?$set@PAVIEventListener@Pegas@@U?$less@PAVIEventListener@Pegas@@@std@@V?$allocator@PAVIEventListener@Pegas@@@4@@std@@@Pegas@@@std@@@2@$0A@@std@@@2@XZ 0042e520 f i pacman.obj
 0001:0002d570       ?_Buynode@?$_Tree@V?$_Tmap_traits@V?$basic_string@DU?$char_traits@D@std@@V?$allocator@D@2@@std@@V?$ptr@V?$set@PAVIEventListener@Pegas@@U?$less@PAVIEventListener@Pegas@@@std@@V?$allocator@PAVIEventListener@Pegas@@@4@@std@@@Pegas@@U?$less@V?$basic_string@DU?$char_traits@D@std@@V?$allocator@D@2@@std@@@2@V?$allocator@U?$pair@$$CBV?$basic_string@DU?$char_traits@D@std@@V?$allocator@D@2@@std@@V?$ptr@V?$set@PAVIEventListener@Pegas@@U?$less@PAVIEventListener@Pegas@@@std@@V?$allocator@PAVIEventListener@Pegas@@@4@@std@@@Pegas@@@std@@@2@$0A@@std@@@std@@IAEPAU_Node@?$_Tree_nod@V?$_Tmap_traits@V?$basic_string@DU?$char_traits@D@std@@V?$allocator@D@2@@std@@V?$ptr@V?$set@PAVIEventListener@Pegas@@U?$less@PAVIEventListener@Pegas@@@std@@V?$allocator@PAVIEventListener@Pegas@@@4@@std@@@Pegas@@U?$less@V?$basic_string@DU?$char_traits@D@std@@V?$allocator@D@2@@std@@@2@V?$allocator@U?$pair@$$CBV?$basic_string@DU?$char_traits@D@std@@V?$allocator@D@2@@std@@V?$ptr@V?$set@PAVIEventListener@Pegas@@U?$less@PAVIEventListener@Pegas@@@std@@V?$allocator@PAVIEventListener@Pegas@@@4@@std@@@Pegas@@@std@@@2@$0A@@std@@@2@XZ 0042e570 f i pacman.obj
 0001:0002d740       ??0?$_Tree_ptr@V?$_Tmap_traits@V?$basic_string@DU?$char_traits@D@std@@V?$allocator@D@2@@std@@V?$ptr@V?$set@PAVIEventListener@Pegas@@U?$less@PAVIEventListener@Pegas@@@std@@V?$allocator@PAVIEventListener@Pegas@@@4@@std@@@Pegas@@U?$less@V?$basic_string@DU?$char_traits@D@std@@V?$allocator@D@2@@std@@@2@V?$allocator@U?$pair@$$CBV?$basic_string@DU?$char_traits@D@std@@V?$allocator@D@2@@std@@V?$ptr@V?$set@PAVIEventListener@Pegas@@U?$less@PAVIEventListener@Pegas@@@std@@V?$allocator@PAVIEventListener@Pegas@@@4@@std@@@Pegas@@@std@@@2@$0A@@std@@@std@@QAE@ABU?$less@V?$basic_string@DU?$char_traits@D@std@@V?$allocator@D@2@@std@@@1@V?$allocator@U?$pair@$$CBV?$basic_string@DU?$char_traits@D@std@@V?$allocator@D@2@@std@@V?$ptr@V?$set@PAVIEventListener@Pegas@@U?$less@PAVIEventListener@Pegas@@@std@@V?$allocator@PAVIEventListener@Pegas@@@4@@std@@@Pegas@@@std@@@1@@Z 0042e740 f i pacman.obj
 0001:0002d7b0       ?_Isnil@?$_Tree@V?$_Tmap_traits@HV?$ptr@VProcess@Pegas@@@Pegas@@U?$less@H@std@@V?$allocator@U?$pair@$$CBHV?$ptr@VProcess@Pegas@@@Pegas@@@std@@@4@$0A@@std@@@std@@KAAADPAU_Node@?$_Tree_nod@V?$_Tmap_traits@HV?$ptr@VProcess@Pegas@@@Pegas@@U?$less@H@std@@V?$allocator@U?$pair@$$CBHV?$ptr@VProcess@Pegas@@@Pegas@@@std@@@4@$0A@@std@@@2@@Z 0042e7b0 f i pacman.obj
 0001:0002d7e0       ?_Make_iter@?$_Tree@V?$_Tmap_traits@HV?$ptr@VProcess@Pegas@@@Pegas@@U?$less@H@std@@V?$allocator@U?$pair@$$CBHV?$ptr@VProcess@Pegas@@@Pegas@@@std@@@4@$0A@@std@@@std@@QBE?AViterator@12@Vconst_iterator@12@@Z 0042e7e0 f i pacman.obj
 0001:0002d8c0       ?erase@?$_Tree@V?$_Tmap_traits@HV?$ptr@VProcess@Pegas@@@Pegas@@U?$less@H@std@@V?$allocator@U?$pair@$$CBHV?$ptr@VProcess@Pegas@@@Pegas@@@std@@@4@$0A@@std@@@std@@QAE?AViterator@12@Vconst_iterator@12@@Z 0042e8c0 f i pacman.obj
 0001:0002e110       ?clear@?$_Tree@V?$_Tmap_traits@HV?$ptr@VProcess@Pegas@@@Pegas@@U?$less@H@std@@V?$allocator@U?$pair@$$CBHV?$ptr@VProcess@Pegas@@@Pegas@@@std@@@4@$0A@@std@@@std@@QAEXXZ 0042f110 f i pacman.obj
 0001:0002e1b0       ?_Lmost@?$_Tree@V?$_Tmap_traits@HV?$ptr@VProcess@Pegas@@@Pegas@@U?$less@H@std@@V?$allocator@U?$pair@$$CBHV?$ptr@VProcess@Pegas@@@Pegas@@@std@@@4@$0A@@std@@@std@@IBEAAPAU_Node@?$_Tree_nod@V?$_Tmap_traits@HV?$ptr@VProcess@Pegas@@@Pegas@@U?$less@H@std@@V?$allocator@U?$pair@$$CBHV?$ptr@VProcess@Pegas@@@Pegas@@@std@@@4@$0A@@std@@@2@XZ 0042f1b0 f i pacman.obj
 0001:0002e200       ?_Rmost@?$_Tree@V?$_Tmap_traits@HV?$ptr@VProcess@Pegas@@@Pegas@@U?$less@H@std@@V?$allocator@U?$pair@$$CBHV?$ptr@VProcess@Pegas@@@Pegas@@@std@@@4@$0A@@std@@@std@@IBEAAPAU_Node@?$_Tree_nod@V?$_Tmap_traits@HV?$ptr@VProcess@Pegas@@@Pegas@@U?$less@H@std@@V?$allocator@U?$pair@$$CBHV?$ptr@VProcess@Pegas@@@Pegas@@@std@@@4@$0A@@std@@@2@XZ 0042f200 f i pacman.obj
 0001:0002e250       ?_Root@?$_Tree@V?$_Tmap_traits@HV?$ptr@VProcess@Pegas@@@Pegas@@U?$less@H@std@@V?$allocator@U?$pair@$$CBHV?$ptr@VProcess@Pegas@@@Pegas@@@std@@@4@$0A@@std@@@std@@IBEAAPAU_Node@?$_Tree_nod@V?$_Tmap_traits@HV?$ptr@VProcess@Pegas@@@Pegas@@U?$less@H@std@@V?$allocator@U?$pair@$$CBHV?$ptr@VProcess@Pegas@@@Pegas@@@std@@@4@$0A@@std@@@2@XZ 0042f250 f i pacman.obj
 0001:0002e2a0       ?_Buynode@?$_Tree@V?$_Tmap_traits@HV?$ptr@VProcess@Pegas@@@Pegas@@U?$less@H@std@@V?$allocator@U?$pair@$$CBHV?$ptr@VProcess@Pegas@@@Pegas@@@std@@@4@$0A@@std@@@std@@IAEPAU_Node@?$_Tree_nod@V?$_Tmap_traits@HV?$ptr@VProcess@Pegas@@@Pegas@@U?$less@H@std@@V?$allocator@U?$pair@$$CBHV?$ptr@VProcess@Pegas@@@Pegas@@@std@@@4@$0A@@std@@@2@XZ 0042f2a0 f i pacman.obj
 0001:0002e470       ??0?$_Tree_ptr@V?$_Tmap_traits@HV?$ptr@VProcess@Pegas@@@Pegas@@U?$less@H@std@@V?$allocator@U?$pair@$$CBHV?$ptr@VProcess@Pegas@@@Pegas@@@std@@@4@$0A@@std@@@std@@QAE@ABU?$less@H@1@V?$allocator@U?$pair@$$CBHV?$ptr@VProcess@Pegas@@@Pegas@@@std@@@1@@Z 0042f470 f i pacman.obj
 0001:0002e4e0       ?_Orphan_off@?$deque@HV?$allocator@H@std@@@std@@IBEXI@Z 0042f4e0 f i pacman.obj
 0001:0002e610       ??0?$_Deque_map@HV?$allocator@H@std@@@std@@IAE@V?$allocator@H@1@@Z 0042f610 f i pacman.obj
 0001:0002e680       ?_Buynode@?$_Tree@V?$_Tset_traits@PAVIKeyboardController@Pegas@@U?$less@PAVIKeyboardController@Pegas@@@std@@V?$allocator@PAVIKeyboardController@Pegas@@@4@$0A@@std@@@std@@IAEPAU_Node@?$_Tree_nod@V?$_Tset_traits@PAVIKeyboardController@Pegas@@U?$less@PAVIKeyboardController@Pegas@@@std@@V?$allocator@PAVIKeyboardController@Pegas@@@4@$0A@@std@@@2@XZ 0042f680 f i pacman.obj
 0001:0002e850       ??0?$_Tree_ptr@V?$_Tset_traits@PAVIKeyboardController@Pegas@@U?$less@PAVIKeyboardController@Pegas@@@std@@V?$allocator@PAVIKeyboardController@Pegas@@@4@$0A@@std@@@std@@QAE@ABU?$less@PAVIKeyboardController@Pegas@@@1@V?$allocator@PAVIKeyboardController@Pegas@@@1@@Z 0042f850 f i pacman.obj
 0001:0002e8c0       ?_Buynode@?$_Tree@V?$_Tset_traits@PAVIMouseController@Pegas@@U?$less@PAVIMouseController@Pegas@@@std@@V?$allocator@PAVIMouseController@Pegas@@@4@$0A@@std@@@std@@IAEPAU_Node@?$_Tree_nod@V?$_Tset_traits@PAVIMouseController@Pegas@@U?$less@PAVIMouseController@Pegas@@@std@@V?$allocator@PAVIMouseController@Pegas@@@4@$0A@@std@@@2@XZ 0042f8c0 f i pacman.obj
 0001:0002ea90       ??0?$_Tree_ptr@V?$_Tset_traits@PAVIMouseController@Pegas@@U?$less@PAVIMouseController@Pegas@@@std@@V?$allocator@PAVIMouseController@Pegas@@@4@$0A@@std@@@std@@QAE@ABU?$less@PAVIMouseController@Pegas@@@1@V?$allocator@PAVIMouseController@Pegas@@@1@@Z 0042fa90 f i pacman.obj
 0001:0002eb00       ?_Buynode@?$_Tree@V?$_Tmap_traits@HV?$ptr@VIGameState@Pegas@@@Pegas@@U?$less@H@std@@V?$allocator@U?$pair@$$CBHV?$ptr@VIGameState@Pegas@@@Pegas@@@std@@@4@$0A@@std@@@std@@IAEPAU_Node@?$_Tree_nod@V?$_Tmap_traits@HV?$ptr@VIGameState@Pegas@@@Pegas@@U?$less@H@std@@V?$allocator@U?$pair@$$CBHV?$ptr@VIGameState@Pegas@@@Pegas@@@std@@@4@$0A@@std@@@2@XZ 0042fb00 f i pacman.obj
 0001:0002ecd0       ??0?$_Tree_ptr@V?$_Tmap_traits@HV?$ptr@VIGameState@Pegas@@@Pegas@@U?$less@H@std@@V?$allocator@U?$pair@$$CBHV?$ptr@VIGameState@Pegas@@@Pegas@@@std@@@4@$0A@@std@@@std@@QAE@ABU?$less@H@1@V?$allocator@U?$pair@$$CBHV?$ptr@VIGameState@Pegas@@@Pegas@@@std@@@1@@Z 0042fcd0 f i pacman.obj
 0001:0002ed40       ??0?$_List_nod@V?$ptr@VFile@Pegas@@@Pegas@@V?$allocator@V?$ptr@VFile@Pegas@@@Pegas@@@std@@@std@@IAE@V?$allocator@V?$ptr@VFile@Pegas@@@Pegas@@@1@@Z 0042fd40 f i pacman.obj
 0001:0002edb0       ?erase@?$_Tree@V?$_Tmap_traits@HPAVStringResource@Pegas@@U?$less@H@std@@V?$allocator@U?$pair@$$CBHPAVStringResource@Pegas@@@std@@@4@$0A@@std@@@std@@QAE?AViterator@12@Vconst_iterator@12@0@Z 0042fdb0 f i pacman.obj
 0001:0002f040       ?_Init@?$_Tree@V?$_Tmap_traits@HPAVStringResource@Pegas@@U?$less@H@std@@V?$allocator@U?$pair@$$CBHPAVStringResource@Pegas@@@std@@@4@$0A@@std@@@std@@IAEXXZ 00430040 f i pacman.obj
 0001:0002f0e0       ??0?$_Tree_val@V?$_Tmap_traits@HPAVStringResource@Pegas@@U?$less@H@std@@V?$allocator@U?$pair@$$CBHPAVStringResource@Pegas@@@std@@@4@$0A@@std@@@std@@IAE@ABU?$less@H@1@V?$allocator@U?$pair@$$CBHPAVStringResource@Pegas@@@std@@@1@@Z 004300e0 f i pacman.obj
 0001:0002f150       ??0?$allocator@U?$pair@$$CBHPAVStringResource@Pegas@@@std@@@std@@QAE@ABV01@@Z 00430150 f i pacman.obj
 0001:0002f180       ?destroy@?$allocator@PAU_Node@?$_Tree_nod@V?$_Tmap_traits@HPAVStringResource@Pegas@@U?$less@H@std@@V?$allocator@U?$pair@$$CBHPAVStringResource@Pegas@@@std@@@4@$0A@@std@@@std@@@std@@QAEXPAPAU_Node@?$_Tree_nod@V?$_Tmap_traits@HPAVStringResource@Pegas@@U?$less@H@std@@V?$allocator@U?$pair@$$CBHPAVStringResource@Pegas@@@std@@@4@$0A@@std@@@2@@Z 00430180 f i pacman.obj
 0001:0002f1d0       ?erase@?$_Tree@V?$_Tmap_traits@HPAVTextureResource@Pegas@@U?$less@H@std@@V?$allocator@U?$pair@$$CBHPAVTextureResource@Pegas@@@std@@@4@$0A@@std@@@std@@QAE?AViterator@12@Vconst_iterator@12@0@Z 004301d0 f i pacman.obj
 0001:0002f460       ?_Init@?$_Tree@V?$_Tmap_traits@HPAVTextureResource@Pegas@@U?$less@H@std@@V?$allocator@U?$pair@$$CBHPAVTextureResource@Pegas@@@std@@@4@$0A@@std@@@std@@IAEXXZ 00430460 f i pacman.obj
 0001:0002f500       ??0?$_Tree_val@V?$_Tmap_traits@HPAVTextureResource@Pegas@@U?$less@H@std@@V?$allocator@U?$pair@$$CBHPAVTextureResource@Pegas@@@std@@@4@$0A@@std@@@std@@IAE@ABU?$less@H@1@V?$allocator@U?$pair@$$CBHPAVTextureResource@Pegas@@@std@@@1@@Z 00430500 f i pacman.obj
 0001:0002f570       ??0?$allocator@U?$pair@$$CBHPAVTextureResource@Pegas@@@std@@@std@@QAE@ABV01@@Z 00430570 f i pacman.obj
 0001:0002f5a0       ?destroy@?$allocator@PAU_Node@?$_Tree_nod@V?$_Tmap_traits@HPAVTextureResource@Pegas@@U?$less@H@std@@V?$allocator@U?$pair@$$CBHPAVTextureResource@Pegas@@@std@@@4@$0A@@std@@@std@@@std@@QAEXPAPAU_Node@?$_Tree_nod@V?$_Tmap_traits@HPAVTextureResource@Pegas@@U?$less@H@std@@V?$allocator@U?$pair@$$CBHPAVTextureResource@Pegas@@@std@@@4@$0A@@std@@@2@@Z 004305a0 f i pacman.obj
 0001:0002f5f0       ?erase@?$_Tree@V?$_Tmap_traits@HPAVFontResource@Pegas@@U?$less@H@std@@V?$allocator@U?$pair@$$CBHPAVFontResource@Pegas@@@std@@@4@$0A@@std@@@std@@QAE?AViterator@12@Vconst_iterator@12@0@Z 004305f0 f i pacman.obj
 0001:0002f880       ?_Init@?$_Tree@V?$_Tmap_traits@HPAVFontResource@Pegas@@U?$less@H@std@@V?$allocator@U?$pair@$$CBHPAVFontResource@Pegas@@@std@@@4@$0A@@std@@@std@@IAEXXZ 00430880 f i pacman.obj
 0001:0002f920       ??0?$_Tree_val@V?$_Tmap_traits@HPAVFontResource@Pegas@@U?$less@H@std@@V?$allocator@U?$pair@$$CBHPAVFontResource@Pegas@@@std@@@4@$0A@@std@@@std@@IAE@ABU?$less@H@1@V?$allocator@U?$pair@$$CBHPAVFontResource@Pegas@@@std@@@1@@Z 00430920 f i pacman.obj
 0001:0002f990       ??0?$allocator@U?$pair@$$CBHPAVFontResource@Pegas@@@std@@@std@@QAE@ABV01@@Z 00430990 f i pacman.obj
 0001:0002f9c0       ?destroy@?$allocator@PAU_Node@?$_Tree_nod@V?$_Tmap_traits@HPAVFontResource@Pegas@@U?$less@H@std@@V?$allocator@U?$pair@$$CBHPAVFontResource@Pegas@@@std@@@4@$0A@@std@@@std@@@std@@QAEXPAPAU_Node@?$_Tree_nod@V?$_Tmap_traits@HPAVFontResource@Pegas@@U?$less@H@std@@V?$allocator@U?$pair@$$CBHPAVFontResource@Pegas@@@std@@@4@$0A@@std@@@2@@Z 004309c0 f i pacman.obj
 0001:0002fa10       ?erase@?$_Tree@V?$_Tmap_traits@HPAVSoundResource@Pegas@@U?$less@H@std@@V?$allocator@U?$pair@$$CBHPAVSoundResource@Pegas@@@std@@@4@$0A@@std@@@std@@QAE?AViterator@12@Vconst_iterator@12@0@Z 00430a10 f i pacman.obj
 0001:0002fca0       ?_Init@?$_Tree@V?$_Tmap_traits@HPAVSoundResource@Pegas@@U?$less@H@std@@V?$allocator@U?$pair@$$CBHPAVSoundResource@Pegas@@@std@@@4@$0A@@std@@@std@@IAEXXZ 00430ca0 f i pacman.obj
 0001:0002fd40       ??0?$_Tree_val@V?$_Tmap_traits@HPAVSoundResource@Pegas@@U?$less@H@std@@V?$allocator@U?$pair@$$CBHPAVSoundResource@Pegas@@@std@@@4@$0A@@std@@@std@@IAE@ABU?$less@H@1@V?$allocator@U?$pair@$$CBHPAVSoundResource@Pegas@@@std@@@1@@Z 00430d40 f i pacman.obj
 0001:0002fdb0       ??0?$allocator@U?$pair@$$CBHPAVSoundResource@Pegas@@@std@@@std@@QAE@ABV01@@Z 00430db0 f i pacman.obj
 0001:0002fde0       ?destroy@?$allocator@PAU_Node@?$_Tree_nod@V?$_Tmap_traits@HPAVSoundResource@Pegas@@U?$less@H@std@@V?$allocator@U?$pair@$$CBHPAVSoundResource@Pegas@@@std@@@4@$0A@@std@@@std@@@std@@QAEXPAPAU_Node@?$_Tree_nod@V?$_Tmap_traits@HPAVSoundResource@Pegas@@U?$less@H@std@@V?$allocator@U?$pair@$$CBHPAVSoundResource@Pegas@@@std@@@4@$0A@@std@@@2@@Z 00430de0 f i pacman.obj
 0001:0002fe30       ??0iterator@?$_Tree@V?$_Tmap_traits@V?$basic_string@DU?$char_traits@D@std@@V?$allocator@D@2@@std@@V?$ptr@V?$set@PAVIEventListener@Pegas@@U?$less@PAVIEventListener@Pegas@@@std@@V?$allocator@PAVIEventListener@Pegas@@@4@@std@@@Pegas@@U?$less@V?$basic_string@DU?$char_traits@D@std@@V?$allocator@D@2@@std@@@2@V?$allocator@U?$pair@$$CBV?$basic_string@DU?$char_traits@D@std@@V?$allocator@D@2@@std@@V?$ptr@V?$set@PAVIEventListener@Pegas@@U?$less@PAVIEventListener@Pegas@@@std@@V?$allocator@PAVIEventListener@Pegas@@@4@@std@@@Pegas@@@std@@@2@$0A@@std@@@std@@QAE@PAU_Node@?$_Tree_nod@V?$_Tmap_traits@V?$basic_string@DU?$char_traits@D@std@@V?$allocator@D@2@@std@@V?$ptr@V?$set@PAVIEventListener@Pegas@@U?$less@PAVIEventListener@Pegas@@@std@@V?$allocator@PAVIEventListener@Pegas@@@4@@std@@@Pegas@@U?$less@V?$basic_string@DU?$char_traits@D@std@@V?$allocator@D@2@@std@@@2@V?$allocator@U?$pair@$$CBV?$basic_string@DU?$char_traits@D@std@@V?$allocator@D@2@@std@@V?$ptr@V?$set@PAVIEventListener@Pegas@@U?$less@PAVIEventListener@Pegas@@@std@@V?$allocator@PAVIEventListener@Pegas@@@4@@std@@@Pegas@@@std@@@2@$0A@@std@@@2@PBV12@@Z 00430e30 f i pacman.obj
 0001:0002fe80       ??Econst_iterator@?$_Tree@V?$_Tmap_traits@V?$basic_string@DU?$char_traits@D@std@@V?$allocator@D@2@@std@@V?$ptr@V?$set@PAVIEventListener@Pegas@@U?$less@PAVIEventListener@Pegas@@@std@@V?$allocator@PAVIEventListener@Pegas@@@4@@std@@@Pegas@@U?$less@V?$basic_string@DU?$char_traits@D@std@@V?$allocator@D@2@@std@@@2@V?$allocator@U?$pair@$$CBV?$basic_string@DU?$char_traits@D@std@@V?$allocator@D@2@@std@@V?$ptr@V?$set@PAVIEventListener@Pegas@@U?$less@PAVIEventListener@Pegas@@@std@@V?$allocator@PAVIEventListener@Pegas@@@4@@std@@@Pegas@@@std@@@2@$0A@@std@@@std@@QAE?AV012@H@Z 00430e80 f i pacman.obj
 0001:0002ff60       ??8const_iterator@?$_Tree@V?$_Tmap_traits@V?$basic_string@DU?$char_traits@D@std@@V?$allocator@D@2@@std@@V?$ptr@V?$set@PAVIEventListener@Pegas@@U?$less@PAVIEventListener@Pegas@@@std@@V?$allocator@PAVIEventListener@Pegas@@@4@@std@@@Pegas@@U?$less@V?$basic_string@DU?$char_traits@D@std@@V?$allocator@D@2@@std@@@2@V?$allocator@U?$pair@$$CBV?$basic_string@DU?$char_traits@D@std@@V?$allocator@D@2@@std@@V?$ptr@V?$set@PAVIEventListener@Pegas@@U?$less@PAVIEventListener@Pegas@@@std@@V?$allocator@PAVIEventListener@Pegas@@@4@@std@@@Pegas@@@std@@@2@$0A@@std@@@std@@QBE_NABV012@@Z 00430f60 f i pacman.obj
 0001:00030020       ??9const_iterator@?$_Tree@V?$_Tmap_traits@V?$basic_string@DU?$char_traits@D@std@@V?$allocator@D@2@@std@@V?$ptr@V?$set@PAVIEventListener@Pegas@@U?$less@PAVIEventListener@Pegas@@@std@@V?$allocator@PAVIEventListener@Pegas@@@4@@std@@@Pegas@@U?$less@V?$basic_string@DU?$char_traits@D@std@@V?$allocator@D@2@@std@@@2@V?$allocator@U?$pair@$$CBV?$basic_string@DU?$char_traits@D@std@@V?$allocator@D@2@@std@@V?$ptr@V?$set@PAVIEventListener@Pegas@@U?$less@PAVIEventListener@Pegas@@@std@@V?$allocator@PAVIEventListener@Pegas@@@4@@std@@@Pegas@@@std@@@2@$0A@@std@@@std@@QBE_NABV012@@Z 00431020 f i pacman.obj
 0001:00030070       ??0iterator@?$_Tree@V?$_Tmap_traits@HV?$ptr@VProcess@Pegas@@@Pegas@@U?$less@H@std@@V?$allocator@U?$pair@$$CBHV?$ptr@VProcess@Pegas@@@Pegas@@@std@@@4@$0A@@std@@@std@@QAE@PAU_Node@?$_Tree_nod@V?$_Tmap_traits@HV?$ptr@VProcess@Pegas@@@Pegas@@U?$less@H@std@@V?$allocator@U?$pair@$$CBHV?$ptr@VProcess@Pegas@@@Pegas@@@std@@@4@$0A@@std@@@2@PBV12@@Z 00431070 f i pacman.obj
 0001:000300c0       ??Econst_iterator@?$_Tree@V?$_Tmap_traits@HV?$ptr@VProcess@Pegas@@@Pegas@@U?$less@H@std@@V?$allocator@U?$pair@$$CBHV?$ptr@VProcess@Pegas@@@Pegas@@@std@@@4@$0A@@std@@@std@@QAE?AV012@H@Z 004310c0 f i pacman.obj
 0001:000301a0       ??8const_iterator@?$_Tree@V?$_Tmap_traits@HV?$ptr@VProcess@Pegas@@@Pegas@@U?$less@H@std@@V?$allocator@U?$pair@$$CBHV?$ptr@VProcess@Pegas@@@Pegas@@@std@@@4@$0A@@std@@@std@@QBE_NABV012@@Z 004311a0 f i pacman.obj
 0001:00030260       ??9const_iterator@?$_Tree@V?$_Tmap_traits@HV?$ptr@VProcess@Pegas@@@Pegas@@U?$less@H@std@@V?$allocator@U?$pair@$$CBHV?$ptr@VProcess@Pegas@@@Pegas@@@std@@@4@$0A@@std@@@std@@QBE_NABV012@@Z 00431260 f i pacman.obj
 0001:000302b0       ??0iterator@?$_Tree@V?$_Tmap_traits@V?$basic_string@DU?$char_traits@D@std@@V?$allocator@D@2@@std@@V?$ptr@V?$set@PAVIEventListener@Pegas@@U?$less@PAVIEventListener@Pegas@@@std@@V?$allocator@PAVIEventListener@Pegas@@@4@@std@@@Pegas@@U?$less@V?$basic_string@DU?$char_traits@D@std@@V?$allocator@D@2@@std@@@2@V?$allocator@U?$pair@$$CBV?$basic_string@DU?$char_traits@D@std@@V?$allocator@D@2@@std@@V?$ptr@V?$set@PAVIEventListener@Pegas@@U?$less@PAVIEventListener@Pegas@@@std@@V?$allocator@PAVIEventListener@Pegas@@@4@@std@@@Pegas@@@std@@@2@$0A@@std@@@std@@QAE@ABV012@@Z 004312b0 f i pacman.obj
 0001:00030300       ??0iterator@?$_Tree@V?$_Tmap_traits@HV?$ptr@VProcess@Pegas@@@Pegas@@U?$less@H@std@@V?$allocator@U?$pair@$$CBHV?$ptr@VProcess@Pegas@@@Pegas@@@std@@@4@$0A@@std@@@std@@QAE@ABV012@@Z 00431300 f i pacman.obj
 0001:00030350       ??0?$_Container_base_aux_alloc_empty@V?$allocator@PAVIDrawable@Pegas@@@std@@@std@@IAE@V?$allocator@PAVIDrawable@Pegas@@@1@@Z 00431350 f i pacman.obj
 0001:000303a0       ??0?$_Container_base_aux_alloc_empty@V?$allocator@H@std@@@std@@IAE@V?$allocator@H@1@@Z 004313a0 f i pacman.obj
 0001:000303f0       ??0?$_Container_base_aux_alloc_empty@V?$allocator@V?$ptr@UEvent@Pegas@@@Pegas@@@std@@@std@@IAE@V?$allocator@V?$ptr@UEvent@Pegas@@@Pegas@@@1@@Z 004313f0 f i pacman.obj
 0001:00030440       ?_Color@?$_Tree@V?$_Tmap_traits@V?$basic_string@DU?$char_traits@D@std@@V?$allocator@D@2@@std@@V?$ptr@V?$set@PAVIEventListener@Pegas@@U?$less@PAVIEventListener@Pegas@@@std@@V?$allocator@PAVIEventListener@Pegas@@@4@@std@@@Pegas@@U?$less@V?$basic_string@DU?$char_traits@D@std@@V?$allocator@D@2@@std@@@2@V?$allocator@U?$pair@$$CBV?$basic_string@DU?$char_traits@D@std@@V?$allocator@D@2@@std@@V?$ptr@V?$set@PAVIEventListener@Pegas@@U?$less@PAVIEventListener@Pegas@@@std@@V?$allocator@PAVIEventListener@Pegas@@@4@@std@@@Pegas@@@std@@@2@$0A@@std@@@std@@KAAADPAU_Node@?$_Tree_nod@V?$_Tmap_traits@V?$basic_string@DU?$char_traits@D@std@@V?$allocator@D@2@@std@@V?$ptr@V?$set@PAVIEventListener@Pegas@@U?$less@PAVIEventListener@Pegas@@@std@@V?$allocator@PAVIEventListener@Pegas@@@4@@std@@@Pegas@@U?$less@V?$basic_string@DU?$char_traits@D@std@@V?$allocator@D@2@@std@@@2@V?$allocator@U?$pair@$$CBV?$basic_string@DU?$char_traits@D@std@@V?$allocator@D@2@@std@@V?$ptr@V?$set@PAVIEventListener@Pegas@@U?$less@PAVIEventListener@Pegas@@@std@@V?$allocator@PAVIEventListener@Pegas@@@4@@std@@@Pegas@@@std@@@2@$0A@@std@@@2@@Z 00431440 f i pacman.obj
 0001:00030470       ?_Erase@?$_Tree@V?$_Tmap_traits@V?$basic_string@DU?$char_traits@D@std@@V?$allocator@D@2@@std@@V?$ptr@V?$set@PAVIEventListener@Pegas@@U?$less@PAVIEventListener@Pegas@@@std@@V?$allocator@PAVIEventListener@Pegas@@@4@@std@@@Pegas@@U?$less@V?$basic_string@DU?$char_traits@D@std@@V?$allocator@D@2@@std@@@2@V?$allocator@U?$pair@$$CBV?$basic_string@DU?$char_traits@D@std@@V?$allocator@D@2@@std@@V?$ptr@V?$set@PAVIEventListener@Pegas@@U?$less@PAVIEventListener@Pegas@@@std@@V?$allocator@PAVIEventListener@Pegas@@@4@@std@@@Pegas@@@std@@@2@$0A@@std@@@std@@IAEXPAU_Node@?$_Tree_nod@V?$_Tmap_traits@V?$basic_string@DU?$char_traits@D@std@@V?$allocator@D@2@@std@@V?$ptr@V?$set@PAVIEventListener@Pegas@@U?$less@PAVIEventListener@Pegas@@@std@@V?$allocator@PAVIEventListener@Pegas@@@4@@std@@@Pegas@@U?$less@V?$basic_string@DU?$char_traits@D@std@@V?$allocator@D@2@@std@@@2@V?$allocator@U?$pair@$$CBV?$basic_string@DU?$char_traits@D@std@@V?$allocator@D@2@@std@@V?$ptr@V?$set@PAVIEventListener@Pegas@@U?$less@PAVIEventListener@Pegas@@@std@@V?$allocator@PAVIEventListener@Pegas@@@4@@std@@@Pegas@@@std@@@2@$0A@@std@@@2@@Z 00431470 f i pacman.obj
 0001:00030520       ?_Lrotate@?$_Tree@V?$_Tmap_traits@V?$basic_string@DU?$char_traits@D@std@@V?$allocator@D@2@@std@@V?$ptr@V?$set@PAVIEventListener@Pegas@@U?$less@PAVIEventListener@Pegas@@@std@@V?$allocator@PAVIEventListener@Pegas@@@4@@std@@@Pegas@@U?$less@V?$basic_string@DU?$char_traits@D@std@@V?$allocator@D@2@@std@@@2@V?$allocator@U?$pair@$$CBV?$basic_string@DU?$char_traits@D@std@@V?$allocator@D@2@@std@@V?$ptr@V?$set@PAVIEventListener@Pegas@@U?$less@PAVIEventListener@Pegas@@@std@@V?$allocator@PAVIEventListener@Pegas@@@4@@std@@@Pegas@@@std@@@2@$0A@@std@@@std@@IAEXPAU_Node@?$_Tree_nod@V?$_Tmap_traits@V?$basic_string@DU?$char_traits@D@std@@V?$allocator@D@2@@std@@V?$ptr@V?$set@PAVIEventListener@Pegas@@U?$less@PAVIEventListener@Pegas@@@std@@V?$allocator@PAVIEventListener@Pegas@@@4@@std@@@Pegas@@U?$less@V?$basic_string@DU?$char_traits@D@std@@V?$allocator@D@2@@std@@@2@V?$allocator@U?$pair@$$CBV?$basic_string@DU?$char_traits@D@std@@V?$allocator@D@2@@std@@V?$ptr@V?$set@PAVIEventListener@Pegas@@U?$less@PAVIEventListener@Pegas@@@std@@V?$allocator@PAVIEventListener@Pegas@@@4@@std@@@Pegas@@@std@@@2@$0A@@std@@@2@@Z 00431520 f i pacman.obj
 0001:00030680       ?_Max@?$_Tree@V?$_Tmap_traits@V?$basic_string@DU?$char_traits@D@std@@V?$allocator@D@2@@std@@V?$ptr@V?$set@PAVIEventListener@Pegas@@U?$less@PAVIEventListener@Pegas@@@std@@V?$allocator@PAVIEventListener@Pegas@@@4@@std@@@Pegas@@U?$less@V?$basic_string@DU?$char_traits@D@std@@V?$allocator@D@2@@std@@@2@V?$allocator@U?$pair@$$CBV?$basic_string@DU?$char_traits@D@std@@V?$allocator@D@2@@std@@V?$ptr@V?$set@PAVIEventListener@Pegas@@U?$less@PAVIEventListener@Pegas@@@std@@V?$allocator@PAVIEventListener@Pegas@@@4@@std@@@Pegas@@@std@@@2@$0A@@std@@@std@@KAPAU_Node@?$_Tree_nod@V?$_Tmap_traits@V?$basic_string@DU?$char_traits@D@std@@V?$allocator@D@2@@std@@V?$ptr@V?$set@PAVIEventListener@Pegas@@U?$less@PAVIEventListener@Pegas@@@std@@V?$allocator@PAVIEventListener@Pegas@@@4@@std@@@Pegas@@U?$less@V?$basic_string@DU?$char_traits@D@std@@V?$allocator@D@2@@std@@@2@V?$allocator@U?$pair@$$CBV?$basic_string@DU?$char_traits@D@std@@V?$allocator@D@2@@std@@V?$ptr@V?$set@PAVIEventListener@Pegas@@U?$less@PAVIEventListener@Pegas@@@std@@V?$allocator@PAVIEventListener@Pegas@@@4@@std@@@Pegas@@@std@@@2@$0A@@std@@@2@PAU342@@Z 00431680 f i pacman.obj
 0001:000306f0       ?_Min@?$_Tree@V?$_Tmap_traits@V?$basic_string@DU?$char_traits@D@std@@V?$allocator@D@2@@std@@V?$ptr@V?$set@PAVIEventListener@Pegas@@U?$less@PAVIEventListener@Pegas@@@std@@V?$allocator@PAVIEventListener@Pegas@@@4@@std@@@Pegas@@U?$less@V?$basic_string@DU?$char_traits@D@std@@V?$allocator@D@2@@std@@@2@V?$allocator@U?$pair@$$CBV?$basic_string@DU?$char_traits@D@std@@V?$allocator@D@2@@std@@V?$ptr@V?$set@PAVIEventListener@Pegas@@U?$less@PAVIEventListener@Pegas@@@std@@V?$allocator@PAVIEventListener@Pegas@@@4@@std@@@Pegas@@@std@@@2@$0A@@std@@@std@@KAPAU_Node@?$_Tree_nod@V?$_Tmap_traits@V?$basic_string@DU?$char_traits@D@std@@V?$allocator@D@2@@std@@V?$ptr@V?$set@PAVIEventListener@Pegas@@U?$less@PAVIEventListener@Pegas@@@std@@V?$allocator@PAVIEventListener@Pegas@@@4@@std@@@Pegas@@U?$less@V?$basic_string@DU?$char_traits@D@std@@V?$allocator@D@2@@std@@@2@V?$allocator@U?$pair@$$CBV?$basic_string@DU?$char_traits@D@std@@V?$allocator@D@2@@std@@V?$ptr@V?$set@PAVIEventListener@Pegas@@U?$less@PAVIEventListener@Pegas@@@std@@V?$allocator@PAVIEventListener@Pegas@@@4@@std@@@Pegas@@@std@@@2@$0A@@std@@@2@PAU342@@Z 004316f0 f i pacman.obj
 0001:00030760       ?_Rrotate@?$_Tree@V?$_Tmap_traits@V?$basic_string@DU?$char_traits@D@std@@V?$allocator@D@2@@std@@V?$ptr@V?$set@PAVIEventListener@Pegas@@U?$less@PAVIEventListener@Pegas@@@std@@V?$allocator@PAVIEventListener@Pegas@@@4@@std@@@Pegas@@U?$less@V?$basic_string@DU?$char_traits@D@std@@V?$allocator@D@2@@std@@@2@V?$allocator@U?$pair@$$CBV?$basic_string@DU?$char_traits@D@std@@V?$allocator@D@2@@std@@V?$ptr@V?$set@PAVIEventListener@Pegas@@U?$less@PAVIEventListener@Pegas@@@std@@V?$allocator@PAVIEventListener@Pegas@@@4@@std@@@Pegas@@@std@@@2@$0A@@std@@@std@@IAEXPAU_Node@?$_Tree_nod@V?$_Tmap_traits@V?$basic_string@DU?$char_traits@D@std@@V?$allocator@D@2@@std@@V?$ptr@V?$set@PAVIEventListener@Pegas@@U?$less@PAVIEventListener@Pegas@@@std@@V?$allocator@PAVIEventListener@Pegas@@@4@@std@@@Pegas@@U?$less@V?$basic_string@DU?$char_traits@D@std@@V?$allocator@D@2@@std@@@2@V?$allocator@U?$pair@$$CBV?$basic_string@DU?$char_traits@D@std@@V?$allocator@D@2@@std@@V?$ptr@V?$set@PAVIEventListener@Pegas@@U?$less@PAVIEventListener@Pegas@@@std@@V?$allocator@PAVIEventListener@Pegas@@@4@@std@@@Pegas@@@std@@@2@$0A@@std@@@2@@Z 00431760 f i pacman.obj
 0001:000308c0       ?_Orphan_ptr@?$_Tree@V?$_Tmap_traits@V?$basic_string@DU?$char_traits@D@std@@V?$allocator@D@2@@std@@V?$ptr@V?$set@PAVIEventListener@Pegas@@U?$less@PAVIEventListener@Pegas@@@std@@V?$allocator@PAVIEventListener@Pegas@@@4@@std@@@Pegas@@U?$less@V?$basic_string@DU?$char_traits@D@std@@V?$allocator@D@2@@std@@@2@V?$allocator@U?$pair@$$CBV?$basic_string@DU?$char_traits@D@std@@V?$allocator@D@2@@std@@V?$ptr@V?$set@PAVIEventListener@Pegas@@U?$less@PAVIEventListener@Pegas@@@std@@V?$allocator@PAVIEventListener@Pegas@@@4@@std@@@Pegas@@@std@@@2@$0A@@std@@@std@@IBEXAAV12@PAU_Node@?$_Tree_nod@V?$_Tmap_traits@V?$basic_string@DU?$char_traits@D@std@@V?$allocator@D@2@@std@@V?$ptr@V?$set@PAVIEventListener@Pegas@@U?$less@PAVIEventListener@Pegas@@@std@@V?$allocator@PAVIEventListener@Pegas@@@4@@std@@@Pegas@@U?$less@V?$basic_string@DU?$char_traits@D@std@@V?$allocator@D@2@@std@@@2@V?$allocator@U?$pair@$$CBV?$basic_string@DU?$char_traits@D@std@@V?$allocator@D@2@@std@@V?$ptr@V?$set@PAVIEventListener@Pegas@@U?$less@PAVIEventListener@Pegas@@@std@@V?$allocator@PAVIEventListener@Pegas@@@4@@std@@@Pegas@@@std@@@2@$0A@@std@@@2@@Z 004318c0 f i pacman.obj
 0001:00030990       ??0?$_Tree_nod@V?$_Tmap_traits@V?$basic_string@DU?$char_traits@D@std@@V?$allocator@D@2@@std@@V?$ptr@V?$set@PAVIEventListener@Pegas@@U?$less@PAVIEventListener@Pegas@@@std@@V?$allocator@PAVIEventListener@Pegas@@@4@@std@@@Pegas@@U?$less@V?$basic_string@DU?$char_traits@D@std@@V?$allocator@D@2@@std@@@2@V?$allocator@U?$pair@$$CBV?$basic_string@DU?$char_traits@D@std@@V?$allocator@D@2@@std@@V?$ptr@V?$set@PAVIEventListener@Pegas@@U?$less@PAVIEventListener@Pegas@@@std@@V?$allocator@PAVIEventListener@Pegas@@@4@@std@@@Pegas@@@std@@@2@$0A@@std@@@std@@IAE@ABU?$less@V?$basic_string@DU?$char_traits@D@std@@V?$allocator@D@2@@std@@@1@V?$allocator@U?$pair@$$CBV?$basic_string@DU?$char_traits@D@std@@V?$allocator@D@2@@std@@V?$ptr@V?$set@PAVIEventListener@Pegas@@U?$less@PAVIEventListener@Pegas@@@std@@V?$allocator@PAVIEventListener@Pegas@@@4@@std@@@Pegas@@@std@@@1@@Z 00431990 f i pacman.obj
 0001:00030a00       ?allocate@?$allocator@U_Node@?$_Tree_nod@V?$_Tmap_traits@V?$basic_string@DU?$char_traits@D@std@@V?$allocator@D@2@@std@@V?$ptr@V?$set@PAVIEventListener@Pegas@@U?$less@PAVIEventListener@Pegas@@@std@@V?$allocator@PAVIEventListener@Pegas@@@4@@std@@@Pegas@@U?$less@V?$basic_string@DU?$char_traits@D@std@@V?$allocator@D@2@@std@@@2@V?$allocator@U?$pair@$$CBV?$basic_string@DU?$char_traits@D@std@@V?$allocator@D@2@@std@@V?$ptr@V?$set@PAVIEventListener@Pegas@@U?$less@PAVIEventListener@Pegas@@@std@@V?$allocator@PAVIEventListener@Pegas@@@4@@std@@@Pegas@@@std@@@2@$0A@@std@@@std@@@std@@QAEPAU_Node@?$_Tree_nod@V?$_Tmap_traits@V?$basic_string@DU?$char_traits@D@std@@V?$allocator@D@2@@std@@V?$ptr@V?$set@PAVIEventListener@Pegas@@U?$less@PAVIEventListener@Pegas@@@std@@V?$allocator@PAVIEventListener@Pegas@@@4@@std@@@Pegas@@U?$less@V?$basic_string@DU?$char_traits@D@std@@V?$allocator@D@2@@std@@@2@V?$allocator@U?$pair@$$CBV?$basic_string@DU?$char_traits@D@std@@V?$allocator@D@2@@std@@V?$ptr@V?$set@PAVIEventListener@Pegas@@U?$less@PAVIEventListener@Pegas@@@std@@V?$allocator@PAVIEventListener@Pegas@@@4@@std@@@Pegas@@@std@@@2@$0A@@std@@@2@I@Z 00431a00 f i pacman.obj
 0001:00030a50       ?destroy@?$allocator@U_Node@?$_Tree_nod@V?$_Tmap_traits@V?$basic_string@DU?$char_traits@D@std@@V?$allocator@D@2@@std@@V?$ptr@V?$set@PAVIEventListener@Pegas@@U?$less@PAVIEventListener@Pegas@@@std@@V?$allocator@PAVIEventListener@Pegas@@@4@@std@@@Pegas@@U?$less@V?$basic_string@DU?$char_traits@D@std@@V?$allocator@D@2@@std@@@2@V?$allocator@U?$pair@$$CBV?$basic_string@DU?$char_traits@D@std@@V?$allocator@D@2@@std@@V?$ptr@V?$set@PAVIEventListener@Pegas@@U?$less@PAVIEventListener@Pegas@@@std@@V?$allocator@PAVIEventListener@Pegas@@@4@@std@@@Pegas@@@std@@@2@$0A@@std@@@std@@@std@@QAEXPAU_Node@?$_Tree_nod@V?$_Tmap_traits@V?$basic_string@DU?$char_traits@D@std@@V?$allocator@D@2@@std@@V?$ptr@V?$set@PAVIEventListener@Pegas@@U?$less@PAVIEventListener@Pegas@@@std@@V?$allocator@PAVIEventListener@Pegas@@@4@@std@@@Pegas@@U?$less@V?$basic_string@DU?$char_traits@D@std@@V?$allocator@D@2@@std@@@2@V?$allocator@U?$pair@$$CBV?$basic_string@DU?$char_traits@D@std@@V?$allocator@D@2@@std@@V?$ptr@V?$set@PAVIEventListener@Pegas@@U?$less@PAVIEventListener@Pegas@@@std@@V?$allocator@PAVIEventListener@Pegas@@@4@@std@@@Pegas@@@std@@@2@$0A@@std@@@2@@Z 00431a50 f i pacman.obj
 0001:00030aa0       ?construct@?$allocator@PAU_Node@?$_Tree_nod@V?$_Tmap_traits@V?$basic_string@DU?$char_traits@D@std@@V?$allocator@D@2@@std@@V?$ptr@V?$set@PAVIEventListener@Pegas@@U?$less@PAVIEventListener@Pegas@@@std@@V?$allocator@PAVIEventListener@Pegas@@@4@@std@@@Pegas@@U?$less@V?$basic_string@DU?$char_traits@D@std@@V?$allocator@D@2@@std@@@2@V?$allocator@U?$pair@$$CBV?$basic_string@DU?$char_traits@D@std@@V?$allocator@D@2@@std@@V?$ptr@V?$set@PAVIEventListener@Pegas@@U?$less@PAVIEventListener@Pegas@@@std@@V?$allocator@PAVIEventListener@Pegas@@@4@@std@@@Pegas@@@std@@@2@$0A@@std@@@std@@@std@@QAEXPAPAU_Node@?$_Tree_nod@V?$_Tmap_traits@V?$basic_string@DU?$char_traits@D@std@@V?$allocator@D@2@@std@@V?$ptr@V?$set@PAVIEventListener@Pegas@@U?$less@PAVIEventListener@Pegas@@@std@@V?$allocator@PAVIEventListener@Pegas@@@4@@std@@@Pegas@@U?$less@V?$basic_string@DU?$char_traits@D@std@@V?$allocator@D@2@@std@@@2@V?$allocator@U?$pair@$$CBV?$basic_string@DU?$char_traits@D@std@@V?$allocator@D@2@@std@@V?$ptr@V?$set@PAVIEventListener@Pegas@@U?$less@PAVIEventListener@Pegas@@@std@@V?$allocator@PAVIEventListener@Pegas@@@4@@std@@@Pegas@@@std@@@2@$0A@@std@@@2@ABQAU342@@Z 00431aa0 f i pacman.obj
 0001:00030af0       ?_Color@?$_Tree@V?$_Tmap_traits@HV?$ptr@VProcess@Pegas@@@Pegas@@U?$less@H@std@@V?$allocator@U?$pair@$$CBHV?$ptr@VProcess@Pegas@@@Pegas@@@std@@@4@$0A@@std@@@std@@KAAADPAU_Node@?$_Tree_nod@V?$_Tmap_traits@HV?$ptr@VProcess@Pegas@@@Pegas@@U?$less@H@std@@V?$allocator@U?$pair@$$CBHV?$ptr@VProcess@Pegas@@@Pegas@@@std@@@4@$0A@@std@@@2@@Z 00431af0 f i pacman.obj
 0001:00030b20       ?_Erase@?$_Tree@V?$_Tmap_traits@HV?$ptr@VProcess@Pegas@@@Pegas@@U?$less@H@std@@V?$allocator@U?$pair@$$CBHV?$ptr@VProcess@Pegas@@@Pegas@@@std@@@4@$0A@@std@@@std@@IAEXPAU_Node@?$_Tree_nod@V?$_Tmap_traits@HV?$ptr@VProcess@Pegas@@@Pegas@@U?$less@H@std@@V?$allocator@U?$pair@$$CBHV?$ptr@VProcess@Pegas@@@Pegas@@@std@@@4@$0A@@std@@@2@@Z 00431b20 f i pacman.obj
 0001:00030bd0       ?_Lrotate@?$_Tree@V?$_Tmap_traits@HV?$ptr@VProcess@Pegas@@@Pegas@@U?$less@H@std@@V?$allocator@U?$pair@$$CBHV?$ptr@VProcess@Pegas@@@Pegas@@@std@@@4@$0A@@std@@@std@@IAEXPAU_Node@?$_Tree_nod@V?$_Tmap_traits@HV?$ptr@VProcess@Pegas@@@Pegas@@U?$less@H@std@@V?$allocator@U?$pair@$$CBHV?$ptr@VProcess@Pegas@@@Pegas@@@std@@@4@$0A@@std@@@2@@Z 00431bd0 f i pacman.obj
 0001:00030d30       ?_Max@?$_Tree@V?$_Tmap_traits@HV?$ptr@VProcess@Pegas@@@Pegas@@U?$less@H@std@@V?$allocator@U?$pair@$$CBHV?$ptr@VProcess@Pegas@@@Pegas@@@std@@@4@$0A@@std@@@std@@KAPAU_Node@?$_Tree_nod@V?$_Tmap_traits@HV?$ptr@VProcess@Pegas@@@Pegas@@U?$less@H@std@@V?$allocator@U?$pair@$$CBHV?$ptr@VProcess@Pegas@@@Pegas@@@std@@@4@$0A@@std@@@2@PAU342@@Z 00431d30 f i pacman.obj
 0001:00030da0       ?_Min@?$_Tree@V?$_Tmap_traits@HV?$ptr@VProcess@Pegas@@@Pegas@@U?$less@H@std@@V?$allocator@U?$pair@$$CBHV?$ptr@VProcess@Pegas@@@Pegas@@@std@@@4@$0A@@std@@@std@@KAPAU_Node@?$_Tree_nod@V?$_Tmap_traits@HV?$ptr@VProcess@Pegas@@@Pegas@@U?$less@H@std@@V?$allocator@U?$pair@$$CBHV?$ptr@VProcess@Pegas@@@Pegas@@@std@@@4@$0A@@std@@@2@PAU342@@Z 00431da0 f i pacman.obj
 0001:00030e10       ?_Rrotate@?$_Tree@V?$_Tmap_traits@HV?$ptr@VProcess@Pegas@@@Pegas@@U?$less@H@std@@V?$allocator@U?$pair@$$CBHV?$ptr@VProcess@Pegas@@@Pegas@@@std@@@4@$0A@@std@@@std@@IAEXPAU_Node@?$_Tree_nod@V?$_Tmap_traits@HV?$ptr@VProcess@Pegas@@@Pegas@@U?$less@H@std@@V?$allocator@U?$pair@$$CBHV?$ptr@VProcess@Pegas@@@Pegas@@@std@@@4@$0A@@std@@@2@@Z 00431e10 f i pacman.obj
 0001:00030f70       ?_Orphan_ptr@?$_Tree@V?$_Tmap_traits@HV?$ptr@VProcess@Pegas@@@Pegas@@U?$less@H@std@@V?$allocator@U?$pair@$$CBHV?$ptr@VProcess@Pegas@@@Pegas@@@std@@@4@$0A@@std@@@std@@IBEXAAV12@PAU_Node@?$_Tree_nod@V?$_Tmap_traits@HV?$ptr@VProcess@Pegas@@@Pegas@@U?$less@H@std@@V?$allocator@U?$pair@$$CBHV?$ptr@VProcess@Pegas@@@Pegas@@@std@@@4@$0A@@std@@@2@@Z 00431f70 f i pacman.obj
 0001:00031040       ??0?$_Tree_nod@V?$_Tmap_traits@HV?$ptr@VProcess@Pegas@@@Pegas@@U?$less@H@std@@V?$allocator@U?$pair@$$CBHV?$ptr@VProcess@Pegas@@@Pegas@@@std@@@4@$0A@@std@@@std@@IAE@ABU?$less@H@1@V?$allocator@U?$pair@$$CBHV?$ptr@VProcess@Pegas@@@Pegas@@@std@@@1@@Z 00432040 f i pacman.obj
 0001:000310b0       ?allocate@?$allocator@U_Node@?$_Tree_nod@V?$_Tmap_traits@HV?$ptr@VProcess@Pegas@@@Pegas@@U?$less@H@std@@V?$allocator@U?$pair@$$CBHV?$ptr@VProcess@Pegas@@@Pegas@@@std@@@4@$0A@@std@@@std@@@std@@QAEPAU_Node@?$_Tree_nod@V?$_Tmap_traits@HV?$ptr@VProcess@Pegas@@@Pegas@@U?$less@H@std@@V?$allocator@U?$pair@$$CBHV?$ptr@VProcess@Pegas@@@Pegas@@@std@@@4@$0A@@std@@@2@I@Z 004320b0 f i pacman.obj
 0001:00031100       ?destroy@?$allocator@U_Node@?$_Tree_nod@V?$_Tmap_traits@HV?$ptr@VProcess@Pegas@@@Pegas@@U?$less@H@std@@V?$allocator@U?$pair@$$CBHV?$ptr@VProcess@Pegas@@@Pegas@@@std@@@4@$0A@@std@@@std@@@std@@QAEXPAU_Node@?$_Tree_nod@V?$_Tmap_traits@HV?$ptr@VProcess@Pegas@@@Pegas@@U?$less@H@std@@V?$allocator@U?$pair@$$CBHV?$ptr@VProcess@Pegas@@@Pegas@@@std@@@4@$0A@@std@@@2@@Z 00432100 f i pacman.obj
 0001:00031150       ?construct@?$allocator@PAU_Node@?$_Tree_nod@V?$_Tmap_traits@HV?$ptr@VProcess@Pegas@@@Pegas@@U?$less@H@std@@V?$allocator@U?$pair@$$CBHV?$ptr@VProcess@Pegas@@@Pegas@@@std@@@4@$0A@@std@@@std@@@std@@QAEXPAPAU_Node@?$_Tree_nod@V?$_Tmap_traits@HV?$ptr@VProcess@Pegas@@@Pegas@@U?$less@H@std@@V?$allocator@U?$pair@$$CBHV?$ptr@VProcess@Pegas@@@Pegas@@@std@@@4@$0A@@std@@@2@ABQAU342@@Z 00432150 f i pacman.obj
 0001:000311a0       ??0?$_Tree_nod@V?$_Tset_traits@PAVIKeyboardController@Pegas@@U?$less@PAVIKeyboardController@Pegas@@@std@@V?$allocator@PAVIKeyboardController@Pegas@@@4@$0A@@std@@@std@@IAE@ABU?$less@PAVIKeyboardController@Pegas@@@1@V?$allocator@PAVIKeyboardController@Pegas@@@1@@Z 004321a0 f i pacman.obj
 0001:00031210       ?construct@?$allocator@PAU_Node@?$_Tree_nod@V?$_Tset_traits@PAVIKeyboardController@Pegas@@U?$less@PAVIKeyboardController@Pegas@@@std@@V?$allocator@PAVIKeyboardController@Pegas@@@4@$0A@@std@@@std@@@std@@QAEXPAPAU_Node@?$_Tree_nod@V?$_Tset_traits@PAVIKeyboardController@Pegas@@U?$less@PAVIKeyboardController@Pegas@@@std@@V?$allocator@PAVIKeyboardController@Pegas@@@4@$0A@@std@@@2@ABQAU342@@Z 00432210 f i pacman.obj
 0001:00031260       ??0?$_Tree_nod@V?$_Tset_traits@PAVIMouseController@Pegas@@U?$less@PAVIMouseController@Pegas@@@std@@V?$allocator@PAVIMouseController@Pegas@@@4@$0A@@std@@@std@@IAE@ABU?$less@PAVIMouseController@Pegas@@@1@V?$allocator@PAVIMouseController@Pegas@@@1@@Z 00432260 f i pacman.obj
 0001:000312d0       ?construct@?$allocator@PAU_Node@?$_Tree_nod@V?$_Tset_traits@PAVIMouseController@Pegas@@U?$less@PAVIMouseController@Pegas@@@std@@V?$allocator@PAVIMouseController@Pegas@@@4@$0A@@std@@@std@@@std@@QAEXPAPAU_Node@?$_Tree_nod@V?$_Tset_traits@PAVIMouseController@Pegas@@U?$less@PAVIMouseController@Pegas@@@std@@V?$allocator@PAVIMouseController@Pegas@@@4@$0A@@std@@@2@ABQAU342@@Z 004322d0 f i pacman.obj
 0001:00031320       ??0?$_Tree_nod@V?$_Tmap_traits@HV?$ptr@VIGameState@Pegas@@@Pegas@@U?$less@H@std@@V?$allocator@U?$pair@$$CBHV?$ptr@VIGameState@Pegas@@@Pegas@@@std@@@4@$0A@@std@@@std@@IAE@ABU?$less@H@1@V?$allocator@U?$pair@$$CBHV?$ptr@VIGameState@Pegas@@@Pegas@@@std@@@1@@Z 00432320 f i pacman.obj
 0001:00031390       ?construct@?$allocator@PAU_Node@?$_Tree_nod@V?$_Tmap_traits@HV?$ptr@VIGameState@Pegas@@@Pegas@@U?$less@H@std@@V?$allocator@U?$pair@$$CBHV?$ptr@VIGameState@Pegas@@@Pegas@@@std@@@4@$0A@@std@@@std@@@std@@QAEXPAPAU_Node@?$_Tree_nod@V?$_Tmap_traits@HV?$ptr@VIGameState@Pegas@@@Pegas@@U?$less@H@std@@V?$allocator@U?$pair@$$CBHV?$ptr@VIGameState@Pegas@@@Pegas@@@std@@@4@$0A@@std@@@2@ABQAU342@@Z 00432390 f i pacman.obj
 0001:000313e0       ??0?$_Container_base_aux_alloc_empty@V?$allocator@V?$ptr@VFile@Pegas@@@Pegas@@@std@@@std@@IAE@V?$allocator@V?$ptr@VFile@Pegas@@@Pegas@@@1@@Z 004323e0 f i pacman.obj
 0001:00031430       ?_Make_iter@?$_Tree@V?$_Tmap_traits@HPAVStringResource@Pegas@@U?$less@H@std@@V?$allocator@U?$pair@$$CBHPAVStringResource@Pegas@@@std@@@4@$0A@@std@@@std@@QBE?AViterator@12@Vconst_iterator@12@@Z 00432430 f i pacman.obj
 0001:00031510       ?erase@?$_Tree@V?$_Tmap_traits@HPAVStringResource@Pegas@@U?$less@H@std@@V?$allocator@U?$pair@$$CBHPAVStringResource@Pegas@@@std@@@4@$0A@@std@@@std@@QAE?AViterator@12@Vconst_iterator@12@@Z 00432510 f i pacman.obj
 0001:00031d60       ?_Buynode@?$_Tree@V?$_Tmap_traits@HPAVStringResource@Pegas@@U?$less@H@std@@V?$allocator@U?$pair@$$CBHPAVStringResource@Pegas@@@std@@@4@$0A@@std@@@std@@IAEPAU_Node@?$_Tree_nod@V?$_Tmap_traits@HPAVStringResource@Pegas@@U?$less@H@std@@V?$allocator@U?$pair@$$CBHPAVStringResource@Pegas@@@std@@@4@$0A@@std@@@2@XZ 00432d60 f i pacman.obj
 0001:00031f30       ??0?$_Tree_ptr@V?$_Tmap_traits@HPAVStringResource@Pegas@@U?$less@H@std@@V?$allocator@U?$pair@$$CBHPAVStringResource@Pegas@@@std@@@4@$0A@@std@@@std@@QAE@ABU?$less@H@1@V?$allocator@U?$pair@$$CBHPAVStringResource@Pegas@@@std@@@1@@Z 00432f30 f i pacman.obj
 0001:00031fa0       ?_Make_iter@?$_Tree@V?$_Tmap_traits@HPAVTextureResource@Pegas@@U?$less@H@std@@V?$allocator@U?$pair@$$CBHPAVTextureResource@Pegas@@@std@@@4@$0A@@std@@@std@@QBE?AViterator@12@Vconst_iterator@12@@Z 00432fa0 f i pacman.obj
 0001:00032080       ?erase@?$_Tree@V?$_Tmap_traits@HPAVTextureResource@Pegas@@U?$less@H@std@@V?$allocator@U?$pair@$$CBHPAVTextureResource@Pegas@@@std@@@4@$0A@@std@@@std@@QAE?AViterator@12@Vconst_iterator@12@@Z 00433080 f i pacman.obj
 0001:000328d0       ?_Buynode@?$_Tree@V?$_Tmap_traits@HPAVTextureResource@Pegas@@U?$less@H@std@@V?$allocator@U?$pair@$$CBHPAVTextureResource@Pegas@@@std@@@4@$0A@@std@@@std@@IAEPAU_Node@?$_Tree_nod@V?$_Tmap_traits@HPAVTextureResource@Pegas@@U?$less@H@std@@V?$allocator@U?$pair@$$CBHPAVTextureResource@Pegas@@@std@@@4@$0A@@std@@@2@XZ 004338d0 f i pacman.obj
 0001:00032aa0       ??0?$_Tree_ptr@V?$_Tmap_traits@HPAVTextureResource@Pegas@@U?$less@H@std@@V?$allocator@U?$pair@$$CBHPAVTextureResource@Pegas@@@std@@@4@$0A@@std@@@std@@QAE@ABU?$less@H@1@V?$allocator@U?$pair@$$CBHPAVTextureResource@Pegas@@@std@@@1@@Z 00433aa0 f i pacman.obj
 0001:00032b10       ?_Make_iter@?$_Tree@V?$_Tmap_traits@HPAVFontResource@Pegas@@U?$less@H@std@@V?$allocator@U?$pair@$$CBHPAVFontResource@Pegas@@@std@@@4@$0A@@std@@@std@@QBE?AViterator@12@Vconst_iterator@12@@Z 00433b10 f i pacman.obj
 0001:00032bf0       ?erase@?$_Tree@V?$_Tmap_traits@HPAVFontResource@Pegas@@U?$less@H@std@@V?$allocator@U?$pair@$$CBHPAVFontResource@Pegas@@@std@@@4@$0A@@std@@@std@@QAE?AViterator@12@Vconst_iterator@12@@Z 00433bf0 f i pacman.obj
 0001:00033440       ?_Buynode@?$_Tree@V?$_Tmap_traits@HPAVFontResource@Pegas@@U?$less@H@std@@V?$allocator@U?$pair@$$CBHPAVFontResource@Pegas@@@std@@@4@$0A@@std@@@std@@IAEPAU_Node@?$_Tree_nod@V?$_Tmap_traits@HPAVFontResource@Pegas@@U?$less@H@std@@V?$allocator@U?$pair@$$CBHPAVFontResource@Pegas@@@std@@@4@$0A@@std@@@2@XZ 00434440 f i pacman.obj
 0001:00033610       ??0?$_Tree_ptr@V?$_Tmap_traits@HPAVFontResource@Pegas@@U?$less@H@std@@V?$allocator@U?$pair@$$CBHPAVFontResource@Pegas@@@std@@@4@$0A@@std@@@std@@QAE@ABU?$less@H@1@V?$allocator@U?$pair@$$CBHPAVFontResource@Pegas@@@std@@@1@@Z 00434610 f i pacman.obj
 0001:00033680       ?_Make_iter@?$_Tree@V?$_Tmap_traits@HPAVSoundResource@Pegas@@U?$less@H@std@@V?$allocator@U?$pair@$$CBHPAVSoundResource@Pegas@@@std@@@4@$0A@@std@@@std@@QBE?AViterator@12@Vconst_iterator@12@@Z 00434680 f i pacman.obj
 0001:00033760       ?erase@?$_Tree@V?$_Tmap_traits@HPAVSoundResource@Pegas@@U?$less@H@std@@V?$allocator@U?$pair@$$CBHPAVSoundResource@Pegas@@@std@@@4@$0A@@std@@@std@@QAE?AViterator@12@Vconst_iterator@12@@Z 00434760 f i pacman.obj
 0001:00033fb0       ?_Buynode@?$_Tree@V?$_Tmap_traits@HPAVSoundResource@Pegas@@U?$less@H@std@@V?$allocator@U?$pair@$$CBHPAVSoundResource@Pegas@@@std@@@4@$0A@@std@@@std@@IAEPAU_Node@?$_Tree_nod@V?$_Tmap_traits@HPAVSoundResource@Pegas@@U?$less@H@std@@V?$allocator@U?$pair@$$CBHPAVSoundResource@Pegas@@@std@@@4@$0A@@std@@@2@XZ 00434fb0 f i pacman.obj
 0001:00034180       ??0?$_Tree_ptr@V?$_Tmap_traits@HPAVSoundResource@Pegas@@U?$less@H@std@@V?$allocator@U?$pair@$$CBHPAVSoundResource@Pegas@@@std@@@4@$0A@@std@@@std@@QAE@ABU?$less@H@1@V?$allocator@U?$pair@$$CBHPAVSoundResource@Pegas@@@std@@@1@@Z 00435180 f i pacman.obj
 0001:000341f0       ??0const_iterator@?$_Tree@V?$_Tmap_traits@V?$basic_string@DU?$char_traits@D@std@@V?$allocator@D@2@@std@@V?$ptr@V?$set@PAVIEventListener@Pegas@@U?$less@PAVIEventListener@Pegas@@@std@@V?$allocator@PAVIEventListener@Pegas@@@4@@std@@@Pegas@@U?$less@V?$basic_string@DU?$char_traits@D@std@@V?$allocator@D@2@@std@@@2@V?$allocator@U?$pair@$$CBV?$basic_string@DU?$char_traits@D@std@@V?$allocator@D@2@@std@@V?$ptr@V?$set@PAVIEventListener@Pegas@@U?$less@PAVIEventListener@Pegas@@@std@@V?$allocator@PAVIEventListener@Pegas@@@4@@std@@@Pegas@@@std@@@2@$0A@@std@@@std@@QAE@PAU_Node@?$_Tree_nod@V?$_Tmap_traits@V?$basic_string@DU?$char_traits@D@std@@V?$allocator@D@2@@std@@V?$ptr@V?$set@PAVIEventListener@Pegas@@U?$less@PAVIEventListener@Pegas@@@std@@V?$allocator@PAVIEventListener@Pegas@@@4@@std@@@Pegas@@U?$less@V?$basic_string@DU?$char_traits@D@std@@V?$allocator@D@2@@std@@@2@V?$allocator@U?$pair@$$CBV?$basic_string@DU?$char_traits@D@std@@V?$allocator@D@2@@std@@V?$ptr@V?$set@PAVIEventListener@Pegas@@U?$less@PAVIEventListener@Pegas@@@std@@V?$allocator@PAVIEventListener@Pegas@@@4@@std@@@Pegas@@@std@@@2@$0A@@std@@@2@PBV12@@Z 004351f0 f i pacman.obj
 0001:00034290       ??Econst_iterator@?$_Tree@V?$_Tmap_traits@V?$basic_string@DU?$char_traits@D@std@@V?$allocator@D@2@@std@@V?$ptr@V?$set@PAVIEventListener@Pegas@@U?$less@PAVIEventListener@Pegas@@@std@@V?$allocator@PAVIEventListener@Pegas@@@4@@std@@@Pegas@@U?$less@V?$basic_string@DU?$char_traits@D@std@@V?$allocator@D@2@@std@@@2@V?$allocator@U?$pair@$$CBV?$basic_string@DU?$char_traits@D@std@@V?$allocator@D@2@@std@@V?$ptr@V?$set@PAVIEventListener@Pegas@@U?$less@PAVIEventListener@Pegas@@@std@@V?$allocator@PAVIEventListener@Pegas@@@4@@std@@@Pegas@@@std@@@2@$0A@@std@@@std@@QAEAAV012@XZ 00435290 f i pacman.obj
 0001:000342e0       ?_Mynode@const_iterator@?$_Tree@V?$_Tmap_traits@V?$basic_string@DU?$char_traits@D@std@@V?$allocator@D@2@@std@@V?$ptr@V?$set@PAVIEventListener@Pegas@@U?$less@PAVIEventListener@Pegas@@@std@@V?$allocator@PAVIEventListener@Pegas@@@4@@std@@@Pegas@@U?$less@V?$basic_string@DU?$char_traits@D@std@@V?$allocator@D@2@@std@@@2@V?$allocator@U?$pair@$$CBV?$basic_string@DU?$char_traits@D@std@@V?$allocator@D@2@@std@@V?$ptr@V?$set@PAVIEventListener@Pegas@@U?$less@PAVIEventListener@Pegas@@@std@@V?$allocator@PAVIEventListener@Pegas@@@4@@std@@@Pegas@@@std@@@2@$0A@@std@@@std@@QBEPAU_Node@?$_Tree_nod@V?$_Tmap_traits@V?$basic_string@DU?$char_traits@D@std@@V?$allocator@D@2@@std@@V?$ptr@V?$set@PAVIEventListener@Pegas@@U?$less@PAVIEventListener@Pegas@@@std@@V?$allocator@PAVIEventListener@Pegas@@@4@@std@@@Pegas@@U?$less@V?$basic_string@DU?$char_traits@D@std@@V?$allocator@D@2@@std@@@2@V?$allocator@U?$pair@$$CBV?$basic_string@DU?$char_traits@D@std@@V?$allocator@D@2@@std@@V?$ptr@V?$set@PAVIEventListener@Pegas@@U?$less@PAVIEventListener@Pegas@@@std@@V?$allocator@PAVIEventListener@Pegas@@@4@@std@@@Pegas@@@std@@@2@$0A@@std@@@3@XZ 004352e0 f i pacman.obj
 0001:00034310       ??0const_iterator@?$_Tree@V?$_Tmap_traits@HV?$ptr@VProcess@Pegas@@@Pegas@@U?$less@H@std@@V?$allocator@U?$pair@$$CBHV?$ptr@VProcess@Pegas@@@Pegas@@@std@@@4@$0A@@std@@@std@@QAE@PAU_Node@?$_Tree_nod@V?$_Tmap_traits@HV?$ptr@VProcess@Pegas@@@Pegas@@U?$less@H@std@@V?$allocator@U?$pair@$$CBHV?$ptr@VProcess@Pegas@@@Pegas@@@std@@@4@$0A@@std@@@2@PBV12@@Z 00435310 f i pacman.obj
 0001:000343b0       ??Econst_iterator@?$_Tree@V?$_Tmap_traits@HV?$ptr@VProcess@Pegas@@@Pegas@@U?$less@H@std@@V?$allocator@U?$pair@$$CBHV?$ptr@VProcess@Pegas@@@Pegas@@@std@@@4@$0A@@std@@@std@@QAEAAV012@XZ 004353b0 f i pacman.obj
 0001:00034400       ?_Mynode@const_iterator@?$_Tree@V?$_Tmap_traits@HV?$ptr@VProcess@Pegas@@@Pegas@@U?$less@H@std@@V?$allocator@U?$pair@$$CBHV?$ptr@VProcess@Pegas@@@Pegas@@@std@@@4@$0A@@std@@@std@@QBEPAU_Node@?$_Tree_nod@V?$_Tmap_traits@HV?$ptr@VProcess@Pegas@@@Pegas@@U?$less@H@std@@V?$allocator@U?$pair@$$CBHV?$ptr@VProcess@Pegas@@@Pegas@@@std@@@4@$0A@@std@@@3@XZ 00435400 f i pacman.obj
 0001:00034430       ??Econst_iterator@?$_Tree@V?$_Tmap_traits@HPAVStringResource@Pegas@@U?$less@H@std@@V?$allocator@U?$pair@$$CBHPAVStringResource@Pegas@@@std@@@4@$0A@@std@@@std@@QAE?AV012@H@Z 00435430 f i pacman.obj
 0001:00034510       ??Econst_iterator@?$_Tree@V?$_Tmap_traits@HPAVTextureResource@Pegas@@U?$less@H@std@@V?$allocator@U?$pair@$$CBHPAVTextureResource@Pegas@@@std@@@4@$0A@@std@@@std@@QAE?AV012@H@Z 00435510 f i pacman.obj
 0001:000345f0       ??Econst_iterator@?$_Tree@V?$_Tmap_traits@HPAVFontResource@Pegas@@U?$less@H@std@@V?$allocator@U?$pair@$$CBHPAVFontResource@Pegas@@@std@@@4@$0A@@std@@@std@@QAE?AV012@H@Z 004355f0 f i pacman.obj
 0001:000346d0       ??Econst_iterator@?$_Tree@V?$_Tmap_traits@HPAVSoundResource@Pegas@@U?$less@H@std@@V?$allocator@U?$pair@$$CBHPAVSoundResource@Pegas@@@std@@@4@$0A@@std@@@std@@QAE?AV012@H@Z 004356d0 f i pacman.obj
 0001:000347b0       ??0iterator@?$_Tree@V?$_Tmap_traits@HPAVStringResource@Pegas@@U?$less@H@std@@V?$allocator@U?$pair@$$CBHPAVStringResource@Pegas@@@std@@@4@$0A@@std@@@std@@QAE@ABV012@@Z 004357b0 f i pacman.obj
 0001:00034800       ??0iterator@?$_Tree@V?$_Tmap_traits@HPAVSoundResource@Pegas@@U?$less@H@std@@V?$allocator@U?$pair@$$CBHPAVSoundResource@Pegas@@@std@@@4@$0A@@std@@@std@@QAE@ABV012@@Z 00435800 f i pacman.obj
 0001:00034850       ??0?$_Bidit@U?$pair@$$CBV?$basic_string@DU?$char_traits@D@std@@V?$allocator@D@2@@std@@V?$ptr@V?$set@PAVIEventListener@Pegas@@U?$less@PAVIEventListener@Pegas@@@std@@V?$allocator@PAVIEventListener@Pegas@@@4@@std@@@Pegas@@@std@@HPBU12@ABU12@@std@@QAE@XZ 00435850 f i pacman.obj
 0001:000348a0       ??0?$_Bidit@U?$pair@$$CBHV?$ptr@VProcess@Pegas@@@Pegas@@@std@@HPBU12@ABU12@@std@@QAE@XZ 004358a0 f i pacman.obj
 0001:000348f0       ??0?$_Iterator_with_base@Ubidirectional_iterator_tag@std@@U?$pair@$$CBV?$basic_string@DU?$char_traits@D@std@@V?$allocator@D@2@@std@@V?$ptr@V?$set@PAVIEventListener@Pegas@@U?$less@PAVIEventListener@Pegas@@@std@@V?$allocator@PAVIEventListener@Pegas@@@4@@std@@@Pegas@@@2@HPBU32@ABU32@V_Iterator_base@2@@std@@QAE@XZ 004358f0 f i pacman.obj
 0001:00034940       ??0?$_Iterator_with_base@Ubidirectional_iterator_tag@std@@U?$pair@$$CBHV?$ptr@VProcess@Pegas@@@Pegas@@@2@HPBU32@ABU32@V_Iterator_base@2@@std@@QAE@XZ 00435940 f i pacman.obj
 0001:00034990       ??0?$_Tmap_traits@V?$basic_string@DU?$char_traits@D@std@@V?$allocator@D@2@@std@@V?$ptr@V?$set@PAVIEventListener@Pegas@@U?$less@PAVIEventListener@Pegas@@@std@@V?$allocator@PAVIEventListener@Pegas@@@4@@std@@@Pegas@@U?$less@V?$basic_string@DU?$char_traits@D@std@@V?$allocator@D@2@@std@@@2@V?$allocator@U?$pair@$$CBV?$basic_string@DU?$char_traits@D@std@@V?$allocator@D@2@@std@@V?$ptr@V?$set@PAVIEventListener@Pegas@@U?$less@PAVIEventListener@Pegas@@@std@@V?$allocator@PAVIEventListener@Pegas@@@4@@std@@@Pegas@@@std@@@2@$0A@@std@@QAE@U?$less@V?$basic_string@DU?$char_traits@D@std@@V?$allocator@D@2@@std@@@1@V?$allocator@U?$pair@$$CBV?$basic_string@DU?$char_traits@D@std@@V?$allocator@D@2@@std@@V?$ptr@V?$set@PAVIEventListener@Pegas@@U?$less@PAVIEventListener@Pegas@@@std@@V?$allocator@PAVIEventListener@Pegas@@@4@@std@@@Pegas@@@std@@@1@@Z 00435990 f i pacman.obj
 0001:000349f0       ??0?$_Tmap_traits@HV?$ptr@VProcess@Pegas@@@Pegas@@U?$less@H@std@@V?$allocator@U?$pair@$$CBHV?$ptr@VProcess@Pegas@@@Pegas@@@std@@@4@$0A@@std@@QAE@U?$less@H@1@V?$allocator@U?$pair@$$CBHV?$ptr@VProcess@Pegas@@@Pegas@@@std@@@1@@Z 004359f0 f i pacman.obj
 0001:00034a50       ??0?$_Tset_traits@PAVIKeyboardController@Pegas@@U?$less@PAVIKeyboardController@Pegas@@@std@@V?$allocator@PAVIKeyboardController@Pegas@@@4@$0A@@std@@QAE@U?$less@PAVIKeyboardController@Pegas@@@1@V?$allocator@PAVIKeyboardController@Pegas@@@1@@Z 00435a50 f i pacman.obj
 0001:00034ab0       ??0?$_Tset_traits@PAVIMouseController@Pegas@@U?$less@PAVIMouseController@Pegas@@@std@@V?$allocator@PAVIMouseController@Pegas@@@4@$0A@@std@@QAE@U?$less@PAVIMouseController@Pegas@@@1@V?$allocator@PAVIMouseController@Pegas@@@1@@Z 00435ab0 f i pacman.obj
 0001:00034b10       ??0?$_Tmap_traits@HV?$ptr@VIGameState@Pegas@@@Pegas@@U?$less@H@std@@V?$allocator@U?$pair@$$CBHV?$ptr@VIGameState@Pegas@@@Pegas@@@std@@@4@$0A@@std@@QAE@U?$less@H@1@V?$allocator@U?$pair@$$CBHV?$ptr@VIGameState@Pegas@@@Pegas@@@std@@@1@@Z 00435b10 f i pacman.obj
 0001:00034b70       ?_Color@?$_Tree@V?$_Tmap_traits@HPAVStringResource@Pegas@@U?$less@H@std@@V?$allocator@U?$pair@$$CBHPAVStringResource@Pegas@@@std@@@4@$0A@@std@@@std@@KAAADPAU_Node@?$_Tree_nod@V?$_Tmap_traits@HPAVStringResource@Pegas@@U?$less@H@std@@V?$allocator@U?$pair@$$CBHPAVStringResource@Pegas@@@std@@@4@$0A@@std@@@2@@Z 00435b70 f i pacman.obj
 0001:00034ba0       ?_Lrotate@?$_Tree@V?$_Tmap_traits@HPAVStringResource@Pegas@@U?$less@H@std@@V?$allocator@U?$pair@$$CBHPAVStringResource@Pegas@@@std@@@4@$0A@@std@@@std@@IAEXPAU_Node@?$_Tree_nod@V?$_Tmap_traits@HPAVStringResource@Pegas@@U?$less@H@std@@V?$allocator@U?$pair@$$CBHPAVStringResource@Pegas@@@std@@@4@$0A@@std@@@2@@Z 00435ba0 f i pacman.obj
 0001:00034d00       ?_Max@?$_Tree@V?$_Tmap_traits@HPAVStringResource@Pegas@@U?$less@H@std@@V?$allocator@U?$pair@$$CBHPAVStringResource@Pegas@@@std@@@4@$0A@@std@@@std@@KAPAU_Node@?$_Tree_nod@V?$_Tmap_traits@HPAVStringResource@Pegas@@U?$less@H@std@@V?$allocator@U?$pair@$$CBHPAVStringResource@Pegas@@@std@@@4@$0A@@std@@@2@PAU342@@Z 00435d00 f i pacman.obj
 0001:00034d70       ?_Rrotate@?$_Tree@V?$_Tmap_traits@HPAVStringResource@Pegas@@U?$less@H@std@@V?$allocator@U?$pair@$$CBHPAVStringResource@Pegas@@@std@@@4@$0A@@std@@@std@@IAEXPAU_Node@?$_Tree_nod@V?$_Tmap_traits@HPAVStringResource@Pegas@@U?$less@H@std@@V?$allocator@U?$pair@$$CBHPAVStringResource@Pegas@@@std@@@4@$0A@@std@@@2@@Z 00435d70 f i pacman.obj
 0001:00034ed0       ??0?$_Tree_nod@V?$_Tmap_traits@HPAVStringResource@Pegas@@U?$less@H@std@@V?$allocator@U?$pair@$$CBHPAVStringResource@Pegas@@@std@@@4@$0A@@std@@@std@@IAE@ABU?$less@H@1@V?$allocator@U?$pair@$$CBHPAVStringResource@Pegas@@@std@@@1@@Z 00435ed0 f i pacman.obj
 0001:00034f40       ?allocate@?$allocator@U_Node@?$_Tree_nod@V?$_Tmap_traits@HPAVStringResource@Pegas@@U?$less@H@std@@V?$allocator@U?$pair@$$CBHPAVStringResource@Pegas@@@std@@@4@$0A@@std@@@std@@@std@@QAEPAU_Node@?$_Tree_nod@V?$_Tmap_traits@HPAVStringResource@Pegas@@U?$less@H@std@@V?$allocator@U?$pair@$$CBHPAVStringResource@Pegas@@@std@@@4@$0A@@std@@@2@I@Z 00435f40 f i pacman.obj
 0001:00034f90       ?construct@?$allocator@PAU_Node@?$_Tree_nod@V?$_Tmap_traits@HPAVStringResource@Pegas@@U?$less@H@std@@V?$allocator@U?$pair@$$CBHPAVStringResource@Pegas@@@std@@@4@$0A@@std@@@std@@@std@@QAEXPAPAU_Node@?$_Tree_nod@V?$_Tmap_traits@HPAVStringResource@Pegas@@U?$less@H@std@@V?$allocator@U?$pair@$$CBHPAVStringResource@Pegas@@@std@@@4@$0A@@std@@@2@ABQAU342@@Z 00435f90 f i pacman.obj
 0001:00034fe0       ??0?$_Tree_nod@V?$_Tmap_traits@HPAVTextureResource@Pegas@@U?$less@H@std@@V?$allocator@U?$pair@$$CBHPAVTextureResource@Pegas@@@std@@@4@$0A@@std@@@std@@IAE@ABU?$less@H@1@V?$allocator@U?$pair@$$CBHPAVTextureResource@Pegas@@@std@@@1@@Z 00435fe0 f i pacman.obj
 0001:00035050       ?construct@?$allocator@PAU_Node@?$_Tree_nod@V?$_Tmap_traits@HPAVTextureResource@Pegas@@U?$less@H@std@@V?$allocator@U?$pair@$$CBHPAVTextureResource@Pegas@@@std@@@4@$0A@@std@@@std@@@std@@QAEXPAPAU_Node@?$_Tree_nod@V?$_Tmap_traits@HPAVTextureResource@Pegas@@U?$less@H@std@@V?$allocator@U?$pair@$$CBHPAVTextureResource@Pegas@@@std@@@4@$0A@@std@@@2@ABQAU342@@Z 00436050 f i pacman.obj
 0001:000350a0       ??0?$_Tree_nod@V?$_Tmap_traits@HPAVFontResource@Pegas@@U?$less@H@std@@V?$allocator@U?$pair@$$CBHPAVFontResource@Pegas@@@std@@@4@$0A@@std@@@std@@IAE@ABU?$less@H@1@V?$allocator@U?$pair@$$CBHPAVFontResource@Pegas@@@std@@@1@@Z 004360a0 f i pacman.obj
 0001:00035110       ?construct@?$allocator@PAU_Node@?$_Tree_nod@V?$_Tmap_traits@HPAVFontResource@Pegas@@U?$less@H@std@@V?$allocator@U?$pair@$$CBHPAVFontResource@Pegas@@@std@@@4@$0A@@std@@@std@@@std@@QAEXPAPAU_Node@?$_Tree_nod@V?$_Tmap_traits@HPAVFontResource@Pegas@@U?$less@H@std@@V?$allocator@U?$pair@$$CBHPAVFontResource@Pegas@@@std@@@4@$0A@@std@@@2@ABQAU342@@Z 00436110 f i pacman.obj
 0001:00035160       ?_Color@?$_Tree@V?$_Tmap_traits@HPAVSoundResource@Pegas@@U?$less@H@std@@V?$allocator@U?$pair@$$CBHPAVSoundResource@Pegas@@@std@@@4@$0A@@std@@@std@@KAAADPAU_Node@?$_Tree_nod@V?$_Tmap_traits@HPAVSoundResource@Pegas@@U?$less@H@std@@V?$allocator@U?$pair@$$CBHPAVSoundResource@Pegas@@@std@@@4@$0A@@std@@@2@@Z 00436160 f i pacman.obj
 0001:00035190       ?_Lrotate@?$_Tree@V?$_Tmap_traits@HPAVSoundResource@Pegas@@U?$less@H@std@@V?$allocator@U?$pair@$$CBHPAVSoundResource@Pegas@@@std@@@4@$0A@@std@@@std@@IAEXPAU_Node@?$_Tree_nod@V?$_Tmap_traits@HPAVSoundResource@Pegas@@U?$less@H@std@@V?$allocator@U?$pair@$$CBHPAVSoundResource@Pegas@@@std@@@4@$0A@@std@@@2@@Z 00436190 f i pacman.obj
 0001:000352f0       ?_Max@?$_Tree@V?$_Tmap_traits@HPAVSoundResource@Pegas@@U?$less@H@std@@V?$allocator@U?$pair@$$CBHPAVSoundResource@Pegas@@@std@@@4@$0A@@std@@@std@@KAPAU_Node@?$_Tree_nod@V?$_Tmap_traits@HPAVSoundResource@Pegas@@U?$less@H@std@@V?$allocator@U?$pair@$$CBHPAVSoundResource@Pegas@@@std@@@4@$0A@@std@@@2@PAU342@@Z 004362f0 f i pacman.obj
 0001:00035360       ?_Rrotate@?$_Tree@V?$_Tmap_traits@HPAVSoundResource@Pegas@@U?$less@H@std@@V?$allocator@U?$pair@$$CBHPAVSoundResource@Pegas@@@std@@@4@$0A@@std@@@std@@IAEXPAU_Node@?$_Tree_nod@V?$_Tmap_traits@HPAVSoundResource@Pegas@@U?$less@H@std@@V?$allocator@U?$pair@$$CBHPAVSoundResource@Pegas@@@std@@@4@$0A@@std@@@2@@Z 00436360 f i pacman.obj
 0001:000354c0       ??0?$_Tree_nod@V?$_Tmap_traits@HPAVSoundResource@Pegas@@U?$less@H@std@@V?$allocator@U?$pair@$$CBHPAVSoundResource@Pegas@@@std@@@4@$0A@@std@@@std@@IAE@ABU?$less@H@1@V?$allocator@U?$pair@$$CBHPAVSoundResource@Pegas@@@std@@@1@@Z 004364c0 f i pacman.obj
 0001:00035530       ?allocate@?$allocator@U_Node@?$_Tree_nod@V?$_Tmap_traits@HPAVSoundResource@Pegas@@U?$less@H@std@@V?$allocator@U?$pair@$$CBHPAVSoundResource@Pegas@@@std@@@4@$0A@@std@@@std@@@std@@QAEPAU_Node@?$_Tree_nod@V?$_Tmap_traits@HPAVSoundResource@Pegas@@U?$less@H@std@@V?$allocator@U?$pair@$$CBHPAVSoundResource@Pegas@@@std@@@4@$0A@@std@@@2@I@Z 00436530 f i pacman.obj
 0001:00035580       ?construct@?$allocator@PAU_Node@?$_Tree_nod@V?$_Tmap_traits@HPAVSoundResource@Pegas@@U?$less@H@std@@V?$allocator@U?$pair@$$CBHPAVSoundResource@Pegas@@@std@@@4@$0A@@std@@@std@@@std@@QAEXPAPAU_Node@?$_Tree_nod@V?$_Tmap_traits@HPAVSoundResource@Pegas@@U?$less@H@std@@V?$allocator@U?$pair@$$CBHPAVSoundResource@Pegas@@@std@@@4@$0A@@std@@@2@ABQAU342@@Z 00436580 f i pacman.obj
 0001:000355d0       ?_Inc@const_iterator@?$_Tree@V?$_Tmap_traits@V?$basic_string@DU?$char_traits@D@std@@V?$allocator@D@2@@std@@V?$ptr@V?$set@PAVIEventListener@Pegas@@U?$less@PAVIEventListener@Pegas@@@std@@V?$allocator@PAVIEventListener@Pegas@@@4@@std@@@Pegas@@U?$less@V?$basic_string@DU?$char_traits@D@std@@V?$allocator@D@2@@std@@@2@V?$allocator@U?$pair@$$CBV?$basic_string@DU?$char_traits@D@std@@V?$allocator@D@2@@std@@V?$ptr@V?$set@PAVIEventListener@Pegas@@U?$less@PAVIEventListener@Pegas@@@std@@V?$allocator@PAVIEventListener@Pegas@@@4@@std@@@Pegas@@@std@@@2@$0A@@std@@@std@@QAEXXZ 004365d0 f i pacman.obj
 0001:00035730       ?_Inc@const_iterator@?$_Tree@V?$_Tmap_traits@HV?$ptr@VProcess@Pegas@@@Pegas@@U?$less@H@std@@V?$allocator@U?$pair@$$CBHV?$ptr@VProcess@Pegas@@@Pegas@@@std@@@4@$0A@@std@@@std@@QAEXXZ 00436730 f i pacman.obj
 0001:00035890       ?_Mynode@const_iterator@?$_Tree@V?$_Tmap_traits@HPAVStringResource@Pegas@@U?$less@H@std@@V?$allocator@U?$pair@$$CBHPAVStringResource@Pegas@@@std@@@4@$0A@@std@@@std@@QBEPAU_Node@?$_Tree_nod@V?$_Tmap_traits@HPAVStringResource@Pegas@@U?$less@H@std@@V?$allocator@U?$pair@$$CBHPAVStringResource@Pegas@@@std@@@4@$0A@@std@@@3@XZ 00436890 f i pacman.obj
 0001:000358c0       ?_Mynode@const_iterator@?$_Tree@V?$_Tmap_traits@HPAVSoundResource@Pegas@@U?$less@H@std@@V?$allocator@U?$pair@$$CBHPAVSoundResource@Pegas@@@std@@@4@$0A@@std@@@std@@QBEPAU_Node@?$_Tree_nod@V?$_Tmap_traits@HPAVSoundResource@Pegas@@U?$less@H@std@@V?$allocator@U?$pair@$$CBHPAVSoundResource@Pegas@@@std@@@4@$0A@@std@@@3@XZ 004368c0 f i pacman.obj
 0001:000358f0       ??0?$_Container_base_aux_alloc_empty@V?$allocator@U?$pair@$$CBV?$basic_string@DU?$char_traits@D@std@@V?$allocator@D@2@@std@@V?$ptr@V?$set@PAVIEventListener@Pegas@@U?$less@PAVIEventListener@Pegas@@@std@@V?$allocator@PAVIEventListener@Pegas@@@4@@std@@@Pegas@@@std@@@std@@@std@@IAE@V?$allocator@U?$pair@$$CBV?$basic_string@DU?$char_traits@D@std@@V?$allocator@D@2@@std@@V?$ptr@V?$set@PAVIEventListener@Pegas@@U?$less@PAVIEventListener@Pegas@@@std@@V?$allocator@PAVIEventListener@Pegas@@@4@@std@@@Pegas@@@std@@@1@@Z 004368f0 f i pacman.obj
 0001:00035940       ??0?$_Container_base_aux_alloc_empty@V?$allocator@U?$pair@$$CBHV?$ptr@VProcess@Pegas@@@Pegas@@@std@@@std@@@std@@IAE@V?$allocator@U?$pair@$$CBHV?$ptr@VProcess@Pegas@@@Pegas@@@std@@@1@@Z 00436940 f i pacman.obj
 0001:00035990       ??0?$_Container_base_aux_alloc_empty@V?$allocator@PAVIKeyboardController@Pegas@@@std@@@std@@IAE@V?$allocator@PAVIKeyboardController@Pegas@@@1@@Z 00436990 f i pacman.obj
 0001:000359e0       ??0?$_Container_base_aux_alloc_empty@V?$allocator@PAVIMouseController@Pegas@@@std@@@std@@IAE@V?$allocator@PAVIMouseController@Pegas@@@1@@Z 004369e0 f i pacman.obj
 0001:00035a30       ??0?$_Container_base_aux_alloc_empty@V?$allocator@U?$pair@$$CBHV?$ptr@VIGameState@Pegas@@@Pegas@@@std@@@std@@@std@@IAE@V?$allocator@U?$pair@$$CBHV?$ptr@VIGameState@Pegas@@@Pegas@@@std@@@1@@Z 00436a30 f i pacman.obj
 0001:00035a80       ??0?$_Tmap_traits@HPAVStringResource@Pegas@@U?$less@H@std@@V?$allocator@U?$pair@$$CBHPAVStringResource@Pegas@@@std@@@4@$0A@@std@@QAE@U?$less@H@1@V?$allocator@U?$pair@$$CBHPAVStringResource@Pegas@@@std@@@1@@Z 00436a80 f i pacman.obj
 0001:00035ae0       ??0?$_Tmap_traits@HPAVTextureResource@Pegas@@U?$less@H@std@@V?$allocator@U?$pair@$$CBHPAVTextureResource@Pegas@@@std@@@4@$0A@@std@@QAE@U?$less@H@1@V?$allocator@U?$pair@$$CBHPAVTextureResource@Pegas@@@std@@@1@@Z 00436ae0 f i pacman.obj
 0001:00035b40       ??0?$_Tmap_traits@HPAVFontResource@Pegas@@U?$less@H@std@@V?$allocator@U?$pair@$$CBHPAVFontResource@Pegas@@@std@@@4@$0A@@std@@QAE@U?$less@H@1@V?$allocator@U?$pair@$$CBHPAVFontResource@Pegas@@@std@@@1@@Z 00436b40 f i pacman.obj
 0001:00035ba0       ??0?$_Tmap_traits@HPAVSoundResource@Pegas@@U?$less@H@std@@V?$allocator@U?$pair@$$CBHPAVSoundResource@Pegas@@@std@@@4@$0A@@std@@QAE@U?$less@H@1@V?$allocator@U?$pair@$$CBHPAVSoundResource@Pegas@@@std@@@1@@Z 00436ba0 f i pacman.obj
 0001:00035c00       ??0?$_Container_base_aux_alloc_empty@V?$allocator@U?$pair@$$CBHPAVStringResource@Pegas@@@std@@@std@@@std@@IAE@V?$allocator@U?$pair@$$CBHPAVStringResource@Pegas@@@std@@@1@@Z 00436c00 f i pacman.obj
 0001:00035c50       ??0?$_Container_base_aux_alloc_empty@V?$allocator@U?$pair@$$CBHPAVTextureResource@Pegas@@@std@@@std@@@std@@IAE@V?$allocator@U?$pair@$$CBHPAVTextureResource@Pegas@@@std@@@1@@Z 00436c50 f i pacman.obj
 0001:00035ca0       ??0?$_Container_base_aux_alloc_empty@V?$allocator@U?$pair@$$CBHPAVFontResource@Pegas@@@std@@@std@@@std@@IAE@V?$allocator@U?$pair@$$CBHPAVFontResource@Pegas@@@std@@@1@@Z 00436ca0 f i pacman.obj
 0001:00035cf0       ??0?$_Container_base_aux_alloc_empty@V?$allocator@U?$pair@$$CBHPAVSoundResource@Pegas@@@std@@@std@@@std@@IAE@V?$allocator@U?$pair@$$CBHPAVSoundResource@Pegas@@@std@@@1@@Z 00436cf0 f i pacman.obj
 0001:00035d40       ??$?0PAVIDrawable@Pegas@@@?$allocator@PAU_Node@?$_List_nod@PAVIDrawable@Pegas@@V?$allocator@PAVIDrawable@Pegas@@@std@@@std@@@std@@QAE@ABV?$allocator@PAVIDrawable@Pegas@@@1@@Z 00436d40 f i pacman.obj
 0001:00035d70       ??$_Allocate@U_Node@?$_List_nod@PAVIDrawable@Pegas@@V?$allocator@PAVIDrawable@Pegas@@@std@@@std@@@std@@YAPAU_Node@?$_List_nod@PAVIDrawable@Pegas@@V?$allocator@PAVIDrawable@Pegas@@@std@@@0@IPAU120@@Z 00436d70 f i pacman.obj
 0001:00035df0       ??$_Construct@PAU_Node@?$_List_nod@PAVIDrawable@Pegas@@V?$allocator@PAVIDrawable@Pegas@@@std@@@std@@PAU123@@std@@YAXPAPAU_Node@?$_List_nod@PAVIDrawable@Pegas@@V?$allocator@PAVIDrawable@Pegas@@@std@@@0@ABQAU120@@Z 00436df0 f i pacman.obj
 0001:00035e70       ??$_Destroy@PAU_Node@?$_List_nod@PAVIDrawable@Pegas@@V?$allocator@PAVIDrawable@Pegas@@@std@@@std@@@std@@YAXPAPAU_Node@?$_List_nod@PAVIDrawable@Pegas@@V?$allocator@PAVIDrawable@Pegas@@@std@@@0@@Z 00436e70 f i pacman.obj
 0001:00035ea0       ??$_Destroy@PAV?$ptr@UEvent@Pegas@@@Pegas@@@std@@YAXPAPAV?$ptr@UEvent@Pegas@@@Pegas@@@Z 00436ea0 f i pacman.obj
 0001:00035ed0       ??$_Destroy@PAU_Node@?$_Tree_nod@V?$_Tmap_traits@V?$basic_string@DU?$char_traits@D@std@@V?$allocator@D@2@@std@@V?$ptr@V?$set@PAVIEventListener@Pegas@@U?$less@PAVIEventListener@Pegas@@@std@@V?$allocator@PAVIEventListener@Pegas@@@4@@std@@@Pegas@@U?$less@V?$basic_string@DU?$char_traits@D@std@@V?$allocator@D@2@@std@@@2@V?$allocator@U?$pair@$$CBV?$basic_string@DU?$char_traits@D@std@@V?$allocator@D@2@@std@@V?$ptr@V?$set@PAVIEventListener@Pegas@@U?$less@PAVIEventListener@Pegas@@@std@@V?$allocator@PAVIEventListener@Pegas@@@4@@std@@@Pegas@@@std@@@2@$0A@@std@@@std@@@std@@YAXPAPAU_Node@?$_Tree_nod@V?$_Tmap_traits@V?$basic_string@DU?$char_traits@D@std@@V?$allocator@D@2@@std@@V?$ptr@V?$set@PAVIEventListener@Pegas@@U?$less@PAVIEventListener@Pegas@@@std@@V?$allocator@PAVIEventListener@Pegas@@@4@@std@@@Pegas@@U?$less@V?$basic_string@DU?$char_traits@D@std@@V?$allocator@D@2@@std@@@2@V?$allocator@U?$pair@$$CBV?$basic_string@DU?$char_traits@D@std@@V?$allocator@D@2@@std@@V?$ptr@V?$set@PAVIEventListener@Pegas@@U?$less@PAVIEventListener@Pegas@@@std@@V?$allocator@PAVIEventListener@Pegas@@@4@@std@@@Pegas@@@std@@@2@$0A@@std@@@0@@Z 00436ed0 f i pacman.obj
 0001:00035f00       ??$_Destroy@PAU_Node@?$_Tree_nod@V?$_Tmap_traits@HV?$ptr@VProcess@Pegas@@@Pegas@@U?$less@H@std@@V?$allocator@U?$pair@$$CBHV?$ptr@VProcess@Pegas@@@Pegas@@@std@@@4@$0A@@std@@@std@@@std@@YAXPAPAU_Node@?$_Tree_nod@V?$_Tmap_traits@HV?$ptr@VProcess@Pegas@@@Pegas@@U?$less@H@std@@V?$allocator@U?$pair@$$CBHV?$ptr@VProcess@Pegas@@@Pegas@@@std@@@4@$0A@@std@@@0@@Z 00436f00 f i pacman.obj
 0001:00035f30       ??$_Destroy@PAH@std@@YAXPAPAH@Z 00436f30 f i pacman.obj
 0001:00035f60       ??$_Destroy@PAU_Node@?$_Tree_nod@V?$_Tset_traits@PAVIKeyboardController@Pegas@@U?$less@PAVIKeyboardController@Pegas@@@std@@V?$allocator@PAVIKeyboardController@Pegas@@@4@$0A@@std@@@std@@@std@@YAXPAPAU_Node@?$_Tree_nod@V?$_Tset_traits@PAVIKeyboardController@Pegas@@U?$less@PAVIKeyboardController@Pegas@@@std@@V?$allocator@PAVIKeyboardController@Pegas@@@4@$0A@@std@@@0@@Z 00436f60 f i pacman.obj
 0001:00035f90       ??$_Destroy@PAU_Node@?$_Tree_nod@V?$_Tset_traits@PAVIMouseController@Pegas@@U?$less@PAVIMouseController@Pegas@@@std@@V?$allocator@PAVIMouseController@Pegas@@@4@$0A@@std@@@std@@@std@@YAXPAPAU_Node@?$_Tree_nod@V?$_Tset_traits@PAVIMouseController@Pegas@@U?$less@PAVIMouseController@Pegas@@@std@@V?$allocator@PAVIMouseController@Pegas@@@4@$0A@@std@@@0@@Z 00436f90 f i pacman.obj
 0001:00035fc0       ??$_Destroy@PAU_Node@?$_Tree_nod@V?$_Tmap_traits@HV?$ptr@VIGameState@Pegas@@@Pegas@@U?$less@H@std@@V?$allocator@U?$pair@$$CBHV?$ptr@VIGameState@Pegas@@@Pegas@@@std@@@4@$0A@@std@@@std@@@std@@YAXPAPAU_Node@?$_Tree_nod@V?$_Tmap_traits@HV?$ptr@VIGameState@Pegas@@@Pegas@@U?$less@H@std@@V?$allocator@U?$pair@$$CBHV?$ptr@VIGameState@Pegas@@@Pegas@@@std@@@4@$0A@@std@@@0@@Z 00436fc0 f i pacman.obj
 0001:00035ff0       ??$?0V?$ptr@VFile@Pegas@@@Pegas@@@?$allocator@PAU_Node@?$_List_nod@V?$ptr@VFile@Pegas@@@Pegas@@V?$allocator@V?$ptr@VFile@Pegas@@@Pegas@@@std@@@std@@@std@@QAE@ABV?$allocator@V?$ptr@VFile@Pegas@@@Pegas@@@1@@Z 00436ff0 f i pacman.obj
 0001:00036020       ??$?0PAVIDrawable@Pegas@@@?$allocator@U_Node@?$_List_nod@PAVIDrawable@Pegas@@V?$allocator@PAVIDrawable@Pegas@@@std@@@std@@@std@@QAE@ABV?$allocator@PAVIDrawable@Pegas@@@1@@Z 00437020 f i pacman.obj
 0001:00036050       ??$_Destroy@U_Node@?$_List_nod@PAVIDrawable@Pegas@@V?$allocator@PAVIDrawable@Pegas@@@std@@@std@@@std@@YAXPAU_Node@?$_List_nod@PAVIDrawable@Pegas@@V?$allocator@PAVIDrawable@Pegas@@@std@@@0@@Z 00437050 f i pacman.obj
 0001:00036080       ??$_Destroy@H@std@@YAXPAH@Z 00437080 f i pacman.obj
 0001:000360b0       ??$?0V?$ptr@UEvent@Pegas@@@Pegas@@@?$allocator@PAV?$ptr@UEvent@Pegas@@@Pegas@@@std@@QAE@ABV?$allocator@V?$ptr@UEvent@Pegas@@@Pegas@@@1@@Z 004370b0 f i pacman.obj
 0001:000360e0       ??$_Destroy@V?$ptr@UEvent@Pegas@@@Pegas@@@std@@YAXPAV?$ptr@UEvent@Pegas@@@Pegas@@@Z 004370e0 f i pacman.obj
 0001:00036120       ??$?0U?$pair@$$CBV?$basic_string@DU?$char_traits@D@std@@V?$allocator@D@2@@std@@V?$ptr@V?$set@PAVIEventListener@Pegas@@U?$less@PAVIEventListener@Pegas@@@std@@V?$allocator@PAVIEventListener@Pegas@@@4@@std@@@Pegas@@@std@@@?$allocator@PAU_Node@?$_Tree_nod@V?$_Tmap_traits@V?$basic_string@DU?$char_traits@D@std@@V?$allocator@D@2@@std@@V?$ptr@V?$set@PAVIEventListener@Pegas@@U?$less@PAVIEventListener@Pegas@@@std@@V?$allocator@PAVIEventListener@Pegas@@@4@@std@@@Pegas@@U?$less@V?$basic_string@DU?$char_traits@D@std@@V?$allocator@D@2@@std@@@2@V?$allocator@U?$pair@$$CBV?$basic_string@DU?$char_traits@D@std@@V?$allocator@D@2@@std@@V?$ptr@V?$set@PAVIEventListener@Pegas@@U?$less@PAVIEventListener@Pegas@@@std@@V?$allocator@PAVIEventListener@Pegas@@@4@@std@@@Pegas@@@std@@@2@$0A@@std@@@std@@@std@@QAE@ABV?$allocator@U?$pair@$$CBV?$basic_string@DU?$char_traits@D@std@@V?$allocator@D@2@@std@@V?$ptr@V?$set@PAVIEventListener@Pegas@@U?$less@PAVIEventListener@Pegas@@@std@@V?$allocator@PAVIEventListener@Pegas@@@4@@std@@@Pegas@@@std@@@1@@Z 00437120 f i pacman.obj
 0001:00036150       ??$?0U?$pair@$$CBHV?$ptr@VProcess@Pegas@@@Pegas@@@std@@@?$allocator@PAU_Node@?$_Tree_nod@V?$_Tmap_traits@HV?$ptr@VProcess@Pegas@@@Pegas@@U?$less@H@std@@V?$allocator@U?$pair@$$CBHV?$ptr@VProcess@Pegas@@@Pegas@@@std@@@4@$0A@@std@@@std@@@std@@QAE@ABV?$allocator@U?$pair@$$CBHV?$ptr@VProcess@Pegas@@@Pegas@@@std@@@1@@Z 00437150 f i pacman.obj
 0001:00036180       ??$?0H@?$allocator@PAH@std@@QAE@ABV?$allocator@H@1@@Z 00437180 f i pacman.obj
 0001:000361b0       ??$?0PAVIKeyboardController@Pegas@@@?$allocator@PAU_Node@?$_Tree_nod@V?$_Tset_traits@PAVIKeyboardController@Pegas@@U?$less@PAVIKeyboardController@Pegas@@@std@@V?$allocator@PAVIKeyboardController@Pegas@@@4@$0A@@std@@@std@@@std@@QAE@ABV?$allocator@PAVIKeyboardController@Pegas@@@1@@Z 004371b0 f i pacman.obj
 0001:000361e0       ??$?0PAVIMouseController@Pegas@@@?$allocator@PAU_Node@?$_Tree_nod@V?$_Tset_traits@PAVIMouseController@Pegas@@U?$less@PAVIMouseController@Pegas@@@std@@V?$allocator@PAVIMouseController@Pegas@@@4@$0A@@std@@@std@@@std@@QAE@ABV?$allocator@PAVIMouseController@Pegas@@@1@@Z 004371e0 f i pacman.obj
 0001:00036210       ??$?0U?$pair@$$CBHV?$ptr@VIGameState@Pegas@@@Pegas@@@std@@@?$allocator@PAU_Node@?$_Tree_nod@V?$_Tmap_traits@HV?$ptr@VIGameState@Pegas@@@Pegas@@U?$less@H@std@@V?$allocator@U?$pair@$$CBHV?$ptr@VIGameState@Pegas@@@Pegas@@@std@@@4@$0A@@std@@@std@@@std@@QAE@ABV?$allocator@U?$pair@$$CBHV?$ptr@VIGameState@Pegas@@@Pegas@@@std@@@1@@Z 00437210 f i pacman.obj
 0001:00036240       ??$?0V?$ptr@VFile@Pegas@@@Pegas@@@?$allocator@U_Node@?$_List_nod@V?$ptr@VFile@Pegas@@@Pegas@@V?$allocator@V?$ptr@VFile@Pegas@@@Pegas@@@std@@@std@@@std@@QAE@ABV?$allocator@V?$ptr@VFile@Pegas@@@Pegas@@@1@@Z 00437240 f i pacman.obj
 0001:00036270       ??$_Destroy@PAU_Node@?$_Tree_nod@V?$_Tmap_traits@HPAVStringResource@Pegas@@U?$less@H@std@@V?$allocator@U?$pair@$$CBHPAVStringResource@Pegas@@@std@@@4@$0A@@std@@@std@@@std@@YAXPAPAU_Node@?$_Tree_nod@V?$_Tmap_traits@HPAVStringResource@Pegas@@U?$less@H@std@@V?$allocator@U?$pair@$$CBHPAVStringResource@Pegas@@@std@@@4@$0A@@std@@@0@@Z 00437270 f i pacman.obj
 0001:000362a0       ??$_Destroy@PAU_Node@?$_Tree_nod@V?$_Tmap_traits@HPAVTextureResource@Pegas@@U?$less@H@std@@V?$allocator@U?$pair@$$CBHPAVTextureResource@Pegas@@@std@@@4@$0A@@std@@@std@@@std@@YAXPAPAU_Node@?$_Tree_nod@V?$_Tmap_traits@HPAVTextureResource@Pegas@@U?$less@H@std@@V?$allocator@U?$pair@$$CBHPAVTextureResource@Pegas@@@std@@@4@$0A@@std@@@0@@Z 004372a0 f i pacman.obj
 0001:000362d0       ??$_Destroy@PAU_Node@?$_Tree_nod@V?$_Tmap_traits@HPAVFontResource@Pegas@@U?$less@H@std@@V?$allocator@U?$pair@$$CBHPAVFontResource@Pegas@@@std@@@4@$0A@@std@@@std@@@std@@YAXPAPAU_Node@?$_Tree_nod@V?$_Tmap_traits@HPAVFontResource@Pegas@@U?$less@H@std@@V?$allocator@U?$pair@$$CBHPAVFontResource@Pegas@@@std@@@4@$0A@@std@@@0@@Z 004372d0 f i pacman.obj
 0001:00036300       ??$_Destroy@PAU_Node@?$_Tree_nod@V?$_Tmap_traits@HPAVSoundResource@Pegas@@U?$less@H@std@@V?$allocator@U?$pair@$$CBHPAVSoundResource@Pegas@@@std@@@4@$0A@@std@@@std@@@std@@YAXPAPAU_Node@?$_Tree_nod@V?$_Tmap_traits@HPAVSoundResource@Pegas@@U?$less@H@std@@V?$allocator@U?$pair@$$CBHPAVSoundResource@Pegas@@@std@@@4@$0A@@std@@@0@@Z 00437300 f i pacman.obj
 0001:00036330       ??$?0U?$pair@$$CBV?$basic_string@DU?$char_traits@D@std@@V?$allocator@D@2@@std@@V?$ptr@V?$set@PAVIEventListener@Pegas@@U?$less@PAVIEventListener@Pegas@@@std@@V?$allocator@PAVIEventListener@Pegas@@@4@@std@@@Pegas@@@std@@@?$allocator@U_Node@?$_Tree_nod@V?$_Tmap_traits@V?$basic_string@DU?$char_traits@D@std@@V?$allocator@D@2@@std@@V?$ptr@V?$set@PAVIEventListener@Pegas@@U?$less@PAVIEventListener@Pegas@@@std@@V?$allocator@PAVIEventListener@Pegas@@@4@@std@@@Pegas@@U?$less@V?$basic_string@DU?$char_traits@D@std@@V?$allocator@D@2@@std@@@2@V?$allocator@U?$pair@$$CBV?$basic_string@DU?$char_traits@D@std@@V?$allocator@D@2@@std@@V?$ptr@V?$set@PAVIEventListener@Pegas@@U?$less@PAVIEventListener@Pegas@@@std@@V?$allocator@PAVIEventListener@Pegas@@@4@@std@@@Pegas@@@std@@@2@$0A@@std@@@std@@@std@@QAE@ABV?$allocator@U?$pair@$$CBV?$basic_string@DU?$char_traits@D@std@@V?$allocator@D@2@@std@@V?$ptr@V?$set@PAVIEventListener@Pegas@@U?$less@PAVIEventListener@Pegas@@@std@@V?$allocator@PAVIEventListener@Pegas@@@4@@std@@@Pegas@@@std@@@1@@Z 00437330 f i pacman.obj
 0001:00036360       ??$_Allocate@U_Node@?$_Tree_nod@V?$_Tmap_traits@V?$basic_string@DU?$char_traits@D@std@@V?$allocator@D@2@@std@@V?$ptr@V?$set@PAVIEventListener@Pegas@@U?$less@PAVIEventListener@Pegas@@@std@@V?$allocator@PAVIEventListener@Pegas@@@4@@std@@@Pegas@@U?$less@V?$basic_string@DU?$char_traits@D@std@@V?$allocator@D@2@@std@@@2@V?$allocator@U?$pair@$$CBV?$basic_string@DU?$char_traits@D@std@@V?$allocator@D@2@@std@@V?$ptr@V?$set@PAVIEventListener@Pegas@@U?$less@PAVIEventListener@Pegas@@@std@@V?$allocator@PAVIEventListener@Pegas@@@4@@std@@@Pegas@@@std@@@2@$0A@@std@@@std@@@std@@YAPAU_Node@?$_Tree_nod@V?$_Tmap_traits@V?$basic_string@DU?$char_traits@D@std@@V?$allocator@D@2@@std@@V?$ptr@V?$set@PAVIEventListener@Pegas@@U?$less@PAVIEventListener@Pegas@@@std@@V?$allocator@PAVIEventListener@Pegas@@@4@@std@@@Pegas@@U?$less@V?$basic_string@DU?$char_traits@D@std@@V?$allocator@D@2@@std@@@2@V?$allocator@U?$pair@$$CBV?$basic_string@DU?$char_traits@D@std@@V?$allocator@D@2@@std@@V?$ptr@V?$set@PAVIEventListener@Pegas@@U?$less@PAVIEventListener@Pegas@@@std@@V?$allocator@PAVIEventListener@Pegas@@@4@@std@@@Pegas@@@std@@@2@$0A@@std@@@0@IPAU120@@Z 00437360 f i pacman.obj
 0001:000363e0       ??$_Destroy@U_Node@?$_Tree_nod@V?$_Tmap_traits@V?$basic_string@DU?$char_traits@D@std@@V?$allocator@D@2@@std@@V?$ptr@V?$set@PAVIEventListener@Pegas@@U?$less@PAVIEventListener@Pegas@@@std@@V?$allocator@PAVIEventListener@Pegas@@@4@@std@@@Pegas@@U?$less@V?$basic_string@DU?$char_traits@D@std@@V?$allocator@D@2@@std@@@2@V?$allocator@U?$pair@$$CBV?$basic_string@DU?$char_traits@D@std@@V?$allocator@D@2@@std@@V?$ptr@V?$set@PAVIEventListener@Pegas@@U?$less@PAVIEventListener@Pegas@@@std@@V?$allocator@PAVIEventListener@Pegas@@@4@@std@@@Pegas@@@std@@@2@$0A@@std@@@std@@@std@@YAXPAU_Node@?$_Tree_nod@V?$_Tmap_traits@V?$basic_string@DU?$char_traits@D@std@@V?$allocator@D@2@@std@@V?$ptr@V?$set@PAVIEventListener@Pegas@@U?$less@PAVIEventListener@Pegas@@@std@@V?$allocator@PAVIEventListener@Pegas@@@4@@std@@@Pegas@@U?$less@V?$basic_string@DU?$char_traits@D@std@@V?$allocator@D@2@@std@@@2@V?$allocator@U?$pair@$$CBV?$basic_string@DU?$char_traits@D@std@@V?$allocator@D@2@@std@@V?$ptr@V?$set@PAVIEventListener@Pegas@@U?$less@PAVIEventListener@Pegas@@@std@@V?$allocator@PAVIEventListener@Pegas@@@4@@std@@@Pegas@@@std@@@2@$0A@@std@@@0@@Z 004373e0 f i pacman.obj
 0001:00036420       ??$_Construct@PAU_Node@?$_Tree_nod@V?$_Tmap_traits@V?$basic_string@DU?$char_traits@D@std@@V?$allocator@D@2@@std@@V?$ptr@V?$set@PAVIEventListener@Pegas@@U?$less@PAVIEventListener@Pegas@@@std@@V?$allocator@PAVIEventListener@Pegas@@@4@@std@@@Pegas@@U?$less@V?$basic_string@DU?$char_traits@D@std@@V?$allocator@D@2@@std@@@2@V?$allocator@U?$pair@$$CBV?$basic_string@DU?$char_traits@D@std@@V?$allocator@D@2@@std@@V?$ptr@V?$set@PAVIEventListener@Pegas@@U?$less@PAVIEventListener@Pegas@@@std@@V?$allocator@PAVIEventListener@Pegas@@@4@@std@@@Pegas@@@std@@@2@$0A@@std@@@std@@PAU123@@std@@YAXPAPAU_Node@?$_Tree_nod@V?$_Tmap_traits@V?$basic_string@DU?$char_traits@D@std@@V?$allocator@D@2@@std@@V?$ptr@V?$set@PAVIEventListener@Pegas@@U?$less@PAVIEventListener@Pegas@@@std@@V?$allocator@PAVIEventListener@Pegas@@@4@@std@@@Pegas@@U?$less@V?$basic_string@DU?$char_traits@D@std@@V?$allocator@D@2@@std@@@2@V?$allocator@U?$pair@$$CBV?$basic_string@DU?$char_traits@D@std@@V?$allocator@D@2@@std@@V?$ptr@V?$set@PAVIEventListener@Pegas@@U?$less@PAVIEventListener@Pegas@@@std@@V?$allocator@PAVIEventListener@Pegas@@@4@@std@@@Pegas@@@std@@@2@$0A@@std@@@0@ABQAU120@@Z 00437420 f i pacman.obj
 0001:000364a0       ??$?0U?$pair@$$CBHV?$ptr@VProcess@Pegas@@@Pegas@@@std@@@?$allocator@U_Node@?$_Tree_nod@V?$_Tmap_traits@HV?$ptr@VProcess@Pegas@@@Pegas@@U?$less@H@std@@V?$allocator@U?$pair@$$CBHV?$ptr@VProcess@Pegas@@@Pegas@@@std@@@4@$0A@@std@@@std@@@std@@QAE@ABV?$allocator@U?$pair@$$CBHV?$ptr@VProcess@Pegas@@@Pegas@@@std@@@1@@Z 004374a0 f i pacman.obj
 0001:000364d0       ??$_Allocate@U_Node@?$_Tree_nod@V?$_Tmap_traits@HV?$ptr@VProcess@Pegas@@@Pegas@@U?$less@H@std@@V?$allocator@U?$pair@$$CBHV?$ptr@VProcess@Pegas@@@Pegas@@@std@@@4@$0A@@std@@@std@@@std@@YAPAU_Node@?$_Tree_nod@V?$_Tmap_traits@HV?$ptr@VProcess@Pegas@@@Pegas@@U?$less@H@std@@V?$allocator@U?$pair@$$CBHV?$ptr@VProcess@Pegas@@@Pegas@@@std@@@4@$0A@@std@@@0@IPAU120@@Z 004374d0 f i pacman.obj
 0001:00036550       ??$_Destroy@U_Node@?$_Tree_nod@V?$_Tmap_traits@HV?$ptr@VProcess@Pegas@@@Pegas@@U?$less@H@std@@V?$allocator@U?$pair@$$CBHV?$ptr@VProcess@Pegas@@@Pegas@@@std@@@4@$0A@@std@@@std@@@std@@YAXPAU_Node@?$_Tree_nod@V?$_Tmap_traits@HV?$ptr@VProcess@Pegas@@@Pegas@@U?$less@H@std@@V?$allocator@U?$pair@$$CBHV?$ptr@VProcess@Pegas@@@Pegas@@@std@@@4@$0A@@std@@@0@@Z 00437550 f i pacman.obj
 0001:00036590       ??$_Construct@PAU_Node@?$_Tree_nod@V?$_Tmap_traits@HV?$ptr@VProcess@Pegas@@@Pegas@@U?$less@H@std@@V?$allocator@U?$pair@$$CBHV?$ptr@VProcess@Pegas@@@Pegas@@@std@@@4@$0A@@std@@@std@@PAU123@@std@@YAXPAPAU_Node@?$_Tree_nod@V?$_Tmap_traits@HV?$ptr@VProcess@Pegas@@@Pegas@@U?$less@H@std@@V?$allocator@U?$pair@$$CBHV?$ptr@VProcess@Pegas@@@Pegas@@@std@@@4@$0A@@std@@@0@ABQAU120@@Z 00437590 f i pacman.obj
 0001:00036610       ??$?0PAVIKeyboardController@Pegas@@@?$allocator@U_Node@?$_Tree_nod@V?$_Tset_traits@PAVIKeyboardController@Pegas@@U?$less@PAVIKeyboardController@Pegas@@@std@@V?$allocator@PAVIKeyboardController@Pegas@@@4@$0A@@std@@@std@@@std@@QAE@ABV?$allocator@PAVIKeyboardController@Pegas@@@1@@Z 00437610 f i pacman.obj
 0001:00036640       ??$_Construct@PAU_Node@?$_Tree_nod@V?$_Tset_traits@PAVIKeyboardController@Pegas@@U?$less@PAVIKeyboardController@Pegas@@@std@@V?$allocator@PAVIKeyboardController@Pegas@@@4@$0A@@std@@@std@@PAU123@@std@@YAXPAPAU_Node@?$_Tree_nod@V?$_Tset_traits@PAVIKeyboardController@Pegas@@U?$less@PAVIKeyboardController@Pegas@@@std@@V?$allocator@PAVIKeyboardController@Pegas@@@4@$0A@@std@@@0@ABQAU120@@Z 00437640 f i pacman.obj
 0001:000366c0       ??$?0PAVIMouseController@Pegas@@@?$allocator@U_Node@?$_Tree_nod@V?$_Tset_traits@PAVIMouseController@Pegas@@U?$less@PAVIMouseController@Pegas@@@std@@V?$allocator@PAVIMouseController@Pegas@@@4@$0A@@std@@@std@@@std@@QAE@ABV?$allocator@PAVIMouseController@Pegas@@@1@@Z 004376c0 f i pacman.obj
 0001:000366f0       ??$_Construct@PAU_Node@?$_Tree_nod@V?$_Tset_traits@PAVIMouseController@Pegas@@U?$less@PAVIMouseController@Pegas@@@std@@V?$allocator@PAVIMouseController@Pegas@@@4@$0A@@std@@@std@@PAU123@@std@@YAXPAPAU_Node@?$_Tree_nod@V?$_Tset_traits@PAVIMouseController@Pegas@@U?$less@PAVIMouseController@Pegas@@@std@@V?$allocator@PAVIMouseController@Pegas@@@4@$0A@@std@@@0@ABQAU120@@Z 004376f0 f i pacman.obj
 0001:00036770       ??$?0U?$pair@$$CBHV?$ptr@VIGameState@Pegas@@@Pegas@@@std@@@?$allocator@U_Node@?$_Tree_nod@V?$_Tmap_traits@HV?$ptr@VIGameState@Pegas@@@Pegas@@U?$less@H@std@@V?$allocator@U?$pair@$$CBHV?$ptr@VIGameState@Pegas@@@Pegas@@@std@@@4@$0A@@std@@@std@@@std@@QAE@ABV?$allocator@U?$pair@$$CBHV?$ptr@VIGameState@Pegas@@@Pegas@@@std@@@1@@Z 00437770 f i pacman.obj
 0001:000367a0       ??$_Construct@PAU_Node@?$_Tree_nod@V?$_Tmap_traits@HV?$ptr@VIGameState@Pegas@@@Pegas@@U?$less@H@std@@V?$allocator@U?$pair@$$CBHV?$ptr@VIGameState@Pegas@@@Pegas@@@std@@@4@$0A@@std@@@std@@PAU123@@std@@YAXPAPAU_Node@?$_Tree_nod@V?$_Tmap_traits@HV?$ptr@VIGameState@Pegas@@@Pegas@@U?$less@H@std@@V?$allocator@U?$pair@$$CBHV?$ptr@VIGameState@Pegas@@@Pegas@@@std@@@4@$0A@@std@@@0@ABQAU120@@Z 004377a0 f i pacman.obj
 0001:00036820       ??$?0U?$pair@$$CBHPAVStringResource@Pegas@@@std@@@?$allocator@PAU_Node@?$_Tree_nod@V?$_Tmap_traits@HPAVStringResource@Pegas@@U?$less@H@std@@V?$allocator@U?$pair@$$CBHPAVStringResource@Pegas@@@std@@@4@$0A@@std@@@std@@@std@@QAE@ABV?$allocator@U?$pair@$$CBHPAVStringResource@Pegas@@@std@@@1@@Z 00437820 f i pacman.obj
 0001:00036850       ??$?0U?$pair@$$CBHPAVTextureResource@Pegas@@@std@@@?$allocator@PAU_Node@?$_Tree_nod@V?$_Tmap_traits@HPAVTextureResource@Pegas@@U?$less@H@std@@V?$allocator@U?$pair@$$CBHPAVTextureResource@Pegas@@@std@@@4@$0A@@std@@@std@@@std@@QAE@ABV?$allocator@U?$pair@$$CBHPAVTextureResource@Pegas@@@std@@@1@@Z 00437850 f i pacman.obj
 0001:00036880       ??$?0U?$pair@$$CBHPAVFontResource@Pegas@@@std@@@?$allocator@PAU_Node@?$_Tree_nod@V?$_Tmap_traits@HPAVFontResource@Pegas@@U?$less@H@std@@V?$allocator@U?$pair@$$CBHPAVFontResource@Pegas@@@std@@@4@$0A@@std@@@std@@@std@@QAE@ABV?$allocator@U?$pair@$$CBHPAVFontResource@Pegas@@@std@@@1@@Z 00437880 f i pacman.obj
 0001:000368b0       ??$?0U?$pair@$$CBHPAVSoundResource@Pegas@@@std@@@?$allocator@PAU_Node@?$_Tree_nod@V?$_Tmap_traits@HPAVSoundResource@Pegas@@U?$less@H@std@@V?$allocator@U?$pair@$$CBHPAVSoundResource@Pegas@@@std@@@4@$0A@@std@@@std@@@std@@QAE@ABV?$allocator@U?$pair@$$CBHPAVSoundResource@Pegas@@@std@@@1@@Z 004378b0 f i pacman.obj
 0001:000368e0       ??$?0U?$pair@$$CBHPAVStringResource@Pegas@@@std@@@?$allocator@U_Node@?$_Tree_nod@V?$_Tmap_traits@HPAVStringResource@Pegas@@U?$less@H@std@@V?$allocator@U?$pair@$$CBHPAVStringResource@Pegas@@@std@@@4@$0A@@std@@@std@@@std@@QAE@ABV?$allocator@U?$pair@$$CBHPAVStringResource@Pegas@@@std@@@1@@Z 004378e0 f i pacman.obj
 0001:00036910       ??$_Allocate@U_Node@?$_Tree_nod@V?$_Tmap_traits@HPAVStringResource@Pegas@@U?$less@H@std@@V?$allocator@U?$pair@$$CBHPAVStringResource@Pegas@@@std@@@4@$0A@@std@@@std@@@std@@YAPAU_Node@?$_Tree_nod@V?$_Tmap_traits@HPAVStringResource@Pegas@@U?$less@H@std@@V?$allocator@U?$pair@$$CBHPAVStringResource@Pegas@@@std@@@4@$0A@@std@@@0@IPAU120@@Z 00437910 f i pacman.obj
 0001:00036990       ??$_Construct@PAU_Node@?$_Tree_nod@V?$_Tmap_traits@HPAVStringResource@Pegas@@U?$less@H@std@@V?$allocator@U?$pair@$$CBHPAVStringResource@Pegas@@@std@@@4@$0A@@std@@@std@@PAU123@@std@@YAXPAPAU_Node@?$_Tree_nod@V?$_Tmap_traits@HPAVStringResource@Pegas@@U?$less@H@std@@V?$allocator@U?$pair@$$CBHPAVStringResource@Pegas@@@std@@@4@$0A@@std@@@0@ABQAU120@@Z 00437990 f i pacman.obj
 0001:00036a10       ??$?0U?$pair@$$CBHPAVTextureResource@Pegas@@@std@@@?$allocator@U_Node@?$_Tree_nod@V?$_Tmap_traits@HPAVTextureResource@Pegas@@U?$less@H@std@@V?$allocator@U?$pair@$$CBHPAVTextureResource@Pegas@@@std@@@4@$0A@@std@@@std@@@std@@QAE@ABV?$allocator@U?$pair@$$CBHPAVTextureResource@Pegas@@@std@@@1@@Z 00437a10 f i pacman.obj
 0001:00036a40       ??$_Construct@PAU_Node@?$_Tree_nod@V?$_Tmap_traits@HPAVTextureResource@Pegas@@U?$less@H@std@@V?$allocator@U?$pair@$$CBHPAVTextureResource@Pegas@@@std@@@4@$0A@@std@@@std@@PAU123@@std@@YAXPAPAU_Node@?$_Tree_nod@V?$_Tmap_traits@HPAVTextureResource@Pegas@@U?$less@H@std@@V?$allocator@U?$pair@$$CBHPAVTextureResource@Pegas@@@std@@@4@$0A@@std@@@0@ABQAU120@@Z 00437a40 f i pacman.obj
 0001:00036ac0       ??$?0U?$pair@$$CBHPAVFontResource@Pegas@@@std@@@?$allocator@U_Node@?$_Tree_nod@V?$_Tmap_traits@HPAVFontResource@Pegas@@U?$less@H@std@@V?$allocator@U?$pair@$$CBHPAVFontResource@Pegas@@@std@@@4@$0A@@std@@@std@@@std@@QAE@ABV?$allocator@U?$pair@$$CBHPAVFontResource@Pegas@@@std@@@1@@Z 00437ac0 f i pacman.obj
 0001:00036af0       ??$_Construct@PAU_Node@?$_Tree_nod@V?$_Tmap_traits@HPAVFontResource@Pegas@@U?$less@H@std@@V?$allocator@U?$pair@$$CBHPAVFontResource@Pegas@@@std@@@4@$0A@@std@@@std@@PAU123@@std@@YAXPAPAU_Node@?$_Tree_nod@V?$_Tmap_traits@HPAVFontResource@Pegas@@U?$less@H@std@@V?$allocator@U?$pair@$$CBHPAVFontResource@Pegas@@@std@@@4@$0A@@std@@@0@ABQAU120@@Z 00437af0 f i pacman.obj
 0001:00036b70       ??$?0U?$pair@$$CBHPAVSoundResource@Pegas@@@std@@@?$allocator@U_Node@?$_Tree_nod@V?$_Tmap_traits@HPAVSoundResource@Pegas@@U?$less@H@std@@V?$allocator@U?$pair@$$CBHPAVSoundResource@Pegas@@@std@@@4@$0A@@std@@@std@@@std@@QAE@ABV?$allocator@U?$pair@$$CBHPAVSoundResource@Pegas@@@std@@@1@@Z 00437b70 f i pacman.obj
 0001:00036ba0       ??$_Allocate@U_Node@?$_Tree_nod@V?$_Tmap_traits@HPAVSoundResource@Pegas@@U?$less@H@std@@V?$allocator@U?$pair@$$CBHPAVSoundResource@Pegas@@@std@@@4@$0A@@std@@@std@@@std@@YAPAU_Node@?$_Tree_nod@V?$_Tmap_traits@HPAVSoundResource@Pegas@@U?$less@H@std@@V?$allocator@U?$pair@$$CBHPAVSoundResource@Pegas@@@std@@@4@$0A@@std@@@0@IPAU120@@Z 00437ba0 f i pacman.obj
 0001:00036c20       ??$_Construct@PAU_Node@?$_Tree_nod@V?$_Tmap_traits@HPAVSoundResource@Pegas@@U?$less@H@std@@V?$allocator@U?$pair@$$CBHPAVSoundResource@Pegas@@@std@@@4@$0A@@std@@@std@@PAU123@@std@@YAXPAPAU_Node@?$_Tree_nod@V?$_Tmap_traits@HPAVSoundResource@Pegas@@U?$less@H@std@@V?$allocator@U?$pair@$$CBHPAVSoundResource@Pegas@@@std@@@4@$0A@@std@@@0@ABQAU120@@Z 00437c20 f i pacman.obj
 0001:00036ca0       ??_G?$ptr@UEvent@Pegas@@@Pegas@@QAEPAXI@Z 00437ca0 f i pacman.obj
 0001:00036d00       ??_G_Node@?$_Tree_nod@V?$_Tmap_traits@V?$basic_string@DU?$char_traits@D@std@@V?$allocator@D@2@@std@@V?$ptr@V?$set@PAVIEventListener@Pegas@@U?$less@PAVIEventListener@Pegas@@@std@@V?$allocator@PAVIEventListener@Pegas@@@4@@std@@@Pegas@@U?$less@V?$basic_string@DU?$char_traits@D@std@@V?$allocator@D@2@@std@@@2@V?$allocator@U?$pair@$$CBV?$basic_string@DU?$char_traits@D@std@@V?$allocator@D@2@@std@@V?$ptr@V?$set@PAVIEventListener@Pegas@@U?$less@PAVIEventListener@Pegas@@@std@@V?$allocator@PAVIEventListener@Pegas@@@4@@std@@@Pegas@@@std@@@2@$0A@@std@@@std@@QAEPAXI@Z 00437d00 f i pacman.obj
 0001:00036d60       ??_G_Node@?$_Tree_nod@V?$_Tmap_traits@HV?$ptr@VProcess@Pegas@@@Pegas@@U?$less@H@std@@V?$allocator@U?$pair@$$CBHV?$ptr@VProcess@Pegas@@@Pegas@@@std@@@4@$0A@@std@@@std@@QAEPAXI@Z 00437d60 f i pacman.obj
 0001:00036dc0       ??1_Node@?$_Tree_nod@V?$_Tmap_traits@V?$basic_string@DU?$char_traits@D@std@@V?$allocator@D@2@@std@@V?$ptr@V?$set@PAVIEventListener@Pegas@@U?$less@PAVIEventListener@Pegas@@@std@@V?$allocator@PAVIEventListener@Pegas@@@4@@std@@@Pegas@@U?$less@V?$basic_string@DU?$char_traits@D@std@@V?$allocator@D@2@@std@@@2@V?$allocator@U?$pair@$$CBV?$basic_string@DU?$char_traits@D@std@@V?$allocator@D@2@@std@@V?$ptr@V?$set@PAVIEventListener@Pegas@@U?$less@PAVIEventListener@Pegas@@@std@@V?$allocator@PAVIEventListener@Pegas@@@4@@std@@@Pegas@@@std@@@2@$0A@@std@@@std@@QAE@XZ 00437dc0 f i pacman.obj
 0001:00036e10       ??1_Node@?$_Tree_nod@V?$_Tmap_traits@HV?$ptr@VProcess@Pegas@@@Pegas@@U?$less@H@std@@V?$allocator@U?$pair@$$CBHV?$ptr@VProcess@Pegas@@@Pegas@@@std@@@4@$0A@@std@@@std@@QAE@XZ 00437e10 f i pacman.obj
 0001:00036e60       ??1?$pair@$$CBV?$basic_string@DU?$char_traits@D@std@@V?$allocator@D@2@@std@@V?$ptr@V?$set@PAVIEventListener@Pegas@@U?$less@PAVIEventListener@Pegas@@@std@@V?$allocator@PAVIEventListener@Pegas@@@4@@std@@@Pegas@@@std@@QAE@XZ 00437e60 f i pacman.obj
 0001:00036ef0       ??1?$pair@$$CBHV?$ptr@VProcess@Pegas@@@Pegas@@@std@@QAE@XZ 00437ef0 f i pacman.obj
 0001:00036f40       ??1?$ptr@V?$set@PAVIEventListener@Pegas@@U?$less@PAVIEventListener@Pegas@@@std@@V?$allocator@PAVIEventListener@Pegas@@@4@@std@@@Pegas@@QAE@XZ 00437f40 f i pacman.obj
 0001:00036f80       ?release@?$ptr@V?$set@PAVIEventListener@Pegas@@U?$less@PAVIEventListener@Pegas@@@std@@V?$allocator@PAVIEventListener@Pegas@@@4@@std@@@Pegas@@AAEXXZ 00437f80 f i pacman.obj
 0001:00037050       ??_G?$set@PAVIEventListener@Pegas@@U?$less@PAVIEventListener@Pegas@@@std@@V?$allocator@PAVIEventListener@Pegas@@@4@@std@@QAEPAXI@Z 00438050 f i pacman.obj
 0001:000370b0       ??1?$set@PAVIEventListener@Pegas@@U?$less@PAVIEventListener@Pegas@@@std@@V?$allocator@PAVIEventListener@Pegas@@@4@@std@@QAE@XZ 004380b0 f i pacman.obj
 0001:000370f0       ??1?$_Tree@V?$_Tset_traits@PAVIEventListener@Pegas@@U?$less@PAVIEventListener@Pegas@@@std@@V?$allocator@PAVIEventListener@Pegas@@@4@$0A@@std@@@std@@QAE@XZ 004380f0 f i pacman.obj
 0001:00037170       ??1?$_Tree_val@V?$_Tset_traits@PAVIEventListener@Pegas@@U?$less@PAVIEventListener@Pegas@@@std@@V?$allocator@PAVIEventListener@Pegas@@@4@$0A@@std@@@std@@QAE@XZ 00438170 f i pacman.obj
 0001:000371b0       ??1?$_Tree_ptr@V?$_Tset_traits@PAVIEventListener@Pegas@@U?$less@PAVIEventListener@Pegas@@@std@@V?$allocator@PAVIEventListener@Pegas@@@4@$0A@@std@@@std@@QAE@XZ 004381b0 f i pacman.obj
 0001:000371f0       ??1?$_Tree_nod@V?$_Tset_traits@PAVIEventListener@Pegas@@U?$less@PAVIEventListener@Pegas@@@std@@V?$allocator@PAVIEventListener@Pegas@@@4@$0A@@std@@@std@@QAE@XZ 004381f0 f i pacman.obj
 0001:00037230       ??1?$_Tset_traits@PAVIEventListener@Pegas@@U?$less@PAVIEventListener@Pegas@@@std@@V?$allocator@PAVIEventListener@Pegas@@@4@$0A@@std@@QAE@XZ 00438230 f i pacman.obj
 0001:00037270       ?_Tidy@?$_Tree@V?$_Tset_traits@PAVIEventListener@Pegas@@U?$less@PAVIEventListener@Pegas@@@std@@V?$allocator@PAVIEventListener@Pegas@@@4@$0A@@std@@@std@@IAEXXZ 00438270 f i pacman.obj
 0001:00037430       ??1?$_Container_base_aux_alloc_empty@V?$allocator@PAVIEventListener@Pegas@@@std@@@std@@IAE@XZ 00438430 f i pacman.obj
 0001:00037470       ??1iterator@?$_Tree@V?$_Tset_traits@PAVIEventListener@Pegas@@U?$less@PAVIEventListener@Pegas@@@std@@V?$allocator@PAVIEventListener@Pegas@@@4@$0A@@std@@@std@@QAE@XZ 00438470 f i pacman.obj
 0001:000374b0       ??0const_iterator@?$_Tree@V?$_Tset_traits@PAVIEventListener@Pegas@@U?$less@PAVIEventListener@Pegas@@@std@@V?$allocator@PAVIEventListener@Pegas@@@4@$0A@@std@@@std@@QAE@ABV012@@Z 004384b0 f i pacman.obj
 0001:00037510       ??1const_iterator@?$_Tree@V?$_Tset_traits@PAVIEventListener@Pegas@@U?$less@PAVIEventListener@Pegas@@@std@@V?$allocator@PAVIEventListener@Pegas@@@4@$0A@@std@@@std@@QAE@XZ 00438510 f i pacman.obj
 0001:00037550       ??0?$_Bidit@PAVIEventListener@Pegas@@HPBQAV12@ABQAV12@@std@@QAE@ABU01@@Z 00438550 f i pacman.obj
 0001:000375a0       ??1?$_Bidit@PAVIEventListener@Pegas@@HPBQAV12@ABQAV12@@std@@QAE@XZ 004385a0 f i pacman.obj
 0001:000375e0       ??0?$_Iterator_with_base@Ubidirectional_iterator_tag@std@@PAVIEventListener@Pegas@@HPBQAV34@ABQAV34@V_Iterator_base@2@@std@@QAE@ABU01@@Z 004385e0 f i pacman.obj
 0001:00037630       ??1?$_Iterator_with_base@Ubidirectional_iterator_tag@std@@PAVIEventListener@Pegas@@HPBQAV34@ABQAV34@V_Iterator_base@2@@std@@QAE@XZ 00438630 f i pacman.obj
 0001:00037670       ?_Left@?$_Tree@V?$_Tset_traits@PAVIEventListener@Pegas@@U?$less@PAVIEventListener@Pegas@@@std@@V?$allocator@PAVIEventListener@Pegas@@@4@$0A@@std@@@std@@KAAAPAU_Node@?$_Tree_nod@V?$_Tset_traits@PAVIEventListener@Pegas@@U?$less@PAVIEventListener@Pegas@@@std@@V?$allocator@PAVIEventListener@Pegas@@@4@$0A@@std@@@2@PAU342@@Z 00438670 f i pacman.obj
 0001:000376a0       ?_Parent@?$_Tree@V?$_Tset_traits@PAVIEventListener@Pegas@@U?$less@PAVIEventListener@Pegas@@@std@@V?$allocator@PAVIEventListener@Pegas@@@4@$0A@@std@@@std@@KAAAPAU_Node@?$_Tree_nod@V?$_Tset_traits@PAVIEventListener@Pegas@@U?$less@PAVIEventListener@Pegas@@@std@@V?$allocator@PAVIEventListener@Pegas@@@4@$0A@@std@@@2@PAU342@@Z 004386a0 f i pacman.obj
 0001:000376d0       ?_Right@?$_Tree@V?$_Tset_traits@PAVIEventListener@Pegas@@U?$less@PAVIEventListener@Pegas@@@std@@V?$allocator@PAVIEventListener@Pegas@@@4@$0A@@std@@@std@@KAAAPAU_Node@?$_Tree_nod@V?$_Tset_traits@PAVIEventListener@Pegas@@U?$less@PAVIEventListener@Pegas@@@std@@V?$allocator@PAVIEventListener@Pegas@@@4@$0A@@std@@@2@PAU342@@Z 004386d0 f i pacman.obj
 0001:00037700       ?begin@?$_Tree@V?$_Tset_traits@PAVIEventListener@Pegas@@U?$less@PAVIEventListener@Pegas@@@std@@V?$allocator@PAVIEventListener@Pegas@@@4@$0A@@std@@@std@@QAE?AViterator@12@XZ 00438700 f i pacman.obj
 0001:00037770       ?end@?$_Tree@V?$_Tset_traits@PAVIEventListener@Pegas@@U?$less@PAVIEventListener@Pegas@@@std@@V?$allocator@PAVIEventListener@Pegas@@@4@$0A@@std@@@std@@QAE?AViterator@12@XZ 00438770 f i pacman.obj
 0001:000377e0       ?erase@?$_Tree@V?$_Tset_traits@PAVIEventListener@Pegas@@U?$less@PAVIEventListener@Pegas@@@std@@V?$allocator@PAVIEventListener@Pegas@@@4@$0A@@std@@@std@@QAE?AViterator@12@Vconst_iterator@12@0@Z 004387e0 f i pacman.obj
 0001:00037a70       ?deallocate@?$allocator@U_Node@?$_Tree_nod@V?$_Tset_traits@PAVIEventListener@Pegas@@U?$less@PAVIEventListener@Pegas@@@std@@V?$allocator@PAVIEventListener@Pegas@@@4@$0A@@std@@@std@@@std@@QAEXPAU_Node@?$_Tree_nod@V?$_Tset_traits@PAVIEventListener@Pegas@@U?$less@PAVIEventListener@Pegas@@@std@@V?$allocator@PAVIEventListener@Pegas@@@4@$0A@@std@@@2@I@Z 00438a70 f i pacman.obj
 0001:00037ac0       ?destroy@?$allocator@PAU_Node@?$_Tree_nod@V?$_Tset_traits@PAVIEventListener@Pegas@@U?$less@PAVIEventListener@Pegas@@@std@@V?$allocator@PAVIEventListener@Pegas@@@4@$0A@@std@@@std@@@std@@QAEXPAPAU_Node@?$_Tree_nod@V?$_Tset_traits@PAVIEventListener@Pegas@@U?$less@PAVIEventListener@Pegas@@@std@@V?$allocator@PAVIEventListener@Pegas@@@4@$0A@@std@@@2@@Z 00438ac0 f i pacman.obj
 0001:00037b10       ?_Make_iter@?$_Tree@V?$_Tset_traits@PAVIEventListener@Pegas@@U?$less@PAVIEventListener@Pegas@@@std@@V?$allocator@PAVIEventListener@Pegas@@@4@$0A@@std@@@std@@QBE?AViterator@12@Vconst_iterator@12@@Z 00438b10 f i pacman.obj
 0001:00037bf0       ?erase@?$_Tree@V?$_Tset_traits@PAVIEventListener@Pegas@@U?$less@PAVIEventListener@Pegas@@@std@@V?$allocator@PAVIEventListener@Pegas@@@4@$0A@@std@@@std@@QAE?AViterator@12@Vconst_iterator@12@@Z 00438bf0 f i pacman.obj
 0001:00038440       ?clear@?$_Tree@V?$_Tset_traits@PAVIEventListener@Pegas@@U?$less@PAVIEventListener@Pegas@@@std@@V?$allocator@PAVIEventListener@Pegas@@@4@$0A@@std@@@std@@QAEXXZ 00439440 f i pacman.obj
 0001:000384e0       ?_Lmost@?$_Tree@V?$_Tset_traits@PAVIEventListener@Pegas@@U?$less@PAVIEventListener@Pegas@@@std@@V?$allocator@PAVIEventListener@Pegas@@@4@$0A@@std@@@std@@IBEAAPAU_Node@?$_Tree_nod@V?$_Tset_traits@PAVIEventListener@Pegas@@U?$less@PAVIEventListener@Pegas@@@std@@V?$allocator@PAVIEventListener@Pegas@@@4@$0A@@std@@@2@XZ 004394e0 f i pacman.obj
 0001:00038530       ??0iterator@?$_Tree@V?$_Tset_traits@PAVIEventListener@Pegas@@U?$less@PAVIEventListener@Pegas@@@std@@V?$allocator@PAVIEventListener@Pegas@@@4@$0A@@std@@@std@@QAE@PAU_Node@?$_Tree_nod@V?$_Tset_traits@PAVIEventListener@Pegas@@U?$less@PAVIEventListener@Pegas@@@std@@V?$allocator@PAVIEventListener@Pegas@@@4@$0A@@std@@@2@PBV12@@Z 00439530 f i pacman.obj
 0001:00038580       ??Econst_iterator@?$_Tree@V?$_Tset_traits@PAVIEventListener@Pegas@@U?$less@PAVIEventListener@Pegas@@@std@@V?$allocator@PAVIEventListener@Pegas@@@4@$0A@@std@@@std@@QAE?AV012@H@Z 00439580 f i pacman.obj
 0001:00038660       ??8const_iterator@?$_Tree@V?$_Tset_traits@PAVIEventListener@Pegas@@U?$less@PAVIEventListener@Pegas@@@std@@V?$allocator@PAVIEventListener@Pegas@@@4@$0A@@std@@@std@@QBE_NABV012@@Z 00439660 f i pacman.obj
 0001:00038720       ??9const_iterator@?$_Tree@V?$_Tset_traits@PAVIEventListener@Pegas@@U?$less@PAVIEventListener@Pegas@@@std@@V?$allocator@PAVIEventListener@Pegas@@@4@$0A@@std@@@std@@QBE_NABV012@@Z 00439720 f i pacman.obj
 0001:00038770       ??0iterator@?$_Tree@V?$_Tset_traits@PAVIEventListener@Pegas@@U?$less@PAVIEventListener@Pegas@@@std@@V?$allocator@PAVIEventListener@Pegas@@@4@$0A@@std@@@std@@QAE@ABV012@@Z 00439770 f i pacman.obj
 0001:000387c0       ?_Color@?$_Tree@V?$_Tset_traits@PAVIEventListener@Pegas@@U?$less@PAVIEventListener@Pegas@@@std@@V?$allocator@PAVIEventListener@Pegas@@@4@$0A@@std@@@std@@KAAADPAU_Node@?$_Tree_nod@V?$_Tset_traits@PAVIEventListener@Pegas@@U?$less@PAVIEventListener@Pegas@@@std@@V?$allocator@PAVIEventListener@Pegas@@@4@$0A@@std@@@2@@Z 004397c0 f i pacman.obj
 0001:000387f0       ?_Isnil@?$_Tree@V?$_Tset_traits@PAVIEventListener@Pegas@@U?$less@PAVIEventListener@Pegas@@@std@@V?$allocator@PAVIEventListener@Pegas@@@4@$0A@@std@@@std@@KAAADPAU_Node@?$_Tree_nod@V?$_Tset_traits@PAVIEventListener@Pegas@@U?$less@PAVIEventListener@Pegas@@@std@@V?$allocator@PAVIEventListener@Pegas@@@4@$0A@@std@@@2@@Z 004397f0 f i pacman.obj
 0001:00038820       ?_Erase@?$_Tree@V?$_Tset_traits@PAVIEventListener@Pegas@@U?$less@PAVIEventListener@Pegas@@@std@@V?$allocator@PAVIEventListener@Pegas@@@4@$0A@@std@@@std@@IAEXPAU_Node@?$_Tree_nod@V?$_Tset_traits@PAVIEventListener@Pegas@@U?$less@PAVIEventListener@Pegas@@@std@@V?$allocator@PAVIEventListener@Pegas@@@4@$0A@@std@@@2@@Z 00439820 f i pacman.obj
 0001:000388d0       ?_Lrotate@?$_Tree@V?$_Tset_traits@PAVIEventListener@Pegas@@U?$less@PAVIEventListener@Pegas@@@std@@V?$allocator@PAVIEventListener@Pegas@@@4@$0A@@std@@@std@@IAEXPAU_Node@?$_Tree_nod@V?$_Tset_traits@PAVIEventListener@Pegas@@U?$less@PAVIEventListener@Pegas@@@std@@V?$allocator@PAVIEventListener@Pegas@@@4@$0A@@std@@@2@@Z 004398d0 f i pacman.obj
 0001:00038a30       ?_Max@?$_Tree@V?$_Tset_traits@PAVIEventListener@Pegas@@U?$less@PAVIEventListener@Pegas@@@std@@V?$allocator@PAVIEventListener@Pegas@@@4@$0A@@std@@@std@@KAPAU_Node@?$_Tree_nod@V?$_Tset_traits@PAVIEventListener@Pegas@@U?$less@PAVIEventListener@Pegas@@@std@@V?$allocator@PAVIEventListener@Pegas@@@4@$0A@@std@@@2@PAU342@@Z 00439a30 f i pacman.obj
 0001:00038aa0       ?_Min@?$_Tree@V?$_Tset_traits@PAVIEventListener@Pegas@@U?$less@PAVIEventListener@Pegas@@@std@@V?$allocator@PAVIEventListener@Pegas@@@4@$0A@@std@@@std@@KAPAU_Node@?$_Tree_nod@V?$_Tset_traits@PAVIEventListener@Pegas@@U?$less@PAVIEventListener@Pegas@@@std@@V?$allocator@PAVIEventListener@Pegas@@@4@$0A@@std@@@2@PAU342@@Z 00439aa0 f i pacman.obj
 0001:00038b10       ?_Rmost@?$_Tree@V?$_Tset_traits@PAVIEventListener@Pegas@@U?$less@PAVIEventListener@Pegas@@@std@@V?$allocator@PAVIEventListener@Pegas@@@4@$0A@@std@@@std@@IBEAAPAU_Node@?$_Tree_nod@V?$_Tset_traits@PAVIEventListener@Pegas@@U?$less@PAVIEventListener@Pegas@@@std@@V?$allocator@PAVIEventListener@Pegas@@@4@$0A@@std@@@2@XZ 00439b10 f i pacman.obj
 0001:00038b60       ?_Root@?$_Tree@V?$_Tset_traits@PAVIEventListener@Pegas@@U?$less@PAVIEventListener@Pegas@@@std@@V?$allocator@PAVIEventListener@Pegas@@@4@$0A@@std@@@std@@IBEAAPAU_Node@?$_Tree_nod@V?$_Tset_traits@PAVIEventListener@Pegas@@U?$less@PAVIEventListener@Pegas@@@std@@V?$allocator@PAVIEventListener@Pegas@@@4@$0A@@std@@@2@XZ 00439b60 f i pacman.obj
 0001:00038bb0       ?_Rrotate@?$_Tree@V?$_Tset_traits@PAVIEventListener@Pegas@@U?$less@PAVIEventListener@Pegas@@@std@@V?$allocator@PAVIEventListener@Pegas@@@4@$0A@@std@@@std@@IAEXPAU_Node@?$_Tree_nod@V?$_Tset_traits@PAVIEventListener@Pegas@@U?$less@PAVIEventListener@Pegas@@@std@@V?$allocator@PAVIEventListener@Pegas@@@4@$0A@@std@@@2@@Z 00439bb0 f i pacman.obj
 0001:00038d10       ?_Orphan_ptr@?$_Tree@V?$_Tset_traits@PAVIEventListener@Pegas@@U?$less@PAVIEventListener@Pegas@@@std@@V?$allocator@PAVIEventListener@Pegas@@@4@$0A@@std@@@std@@IBEXAAV12@PAU_Node@?$_Tree_nod@V?$_Tset_traits@PAVIEventListener@Pegas@@U?$less@PAVIEventListener@Pegas@@@std@@V?$allocator@PAVIEventListener@Pegas@@@4@$0A@@std@@@2@@Z 00439d10 f i pacman.obj
 0001:00038de0       ?destroy@?$allocator@U_Node@?$_Tree_nod@V?$_Tset_traits@PAVIEventListener@Pegas@@U?$less@PAVIEventListener@Pegas@@@std@@V?$allocator@PAVIEventListener@Pegas@@@4@$0A@@std@@@std@@@std@@QAEXPAU_Node@?$_Tree_nod@V?$_Tset_traits@PAVIEventListener@Pegas@@U?$less@PAVIEventListener@Pegas@@@std@@V?$allocator@PAVIEventListener@Pegas@@@4@$0A@@std@@@2@@Z 00439de0 f i pacman.obj
 0001:00038e30       ??0const_iterator@?$_Tree@V?$_Tset_traits@PAVIEventListener@Pegas@@U?$less@PAVIEventListener@Pegas@@@std@@V?$allocator@PAVIEventListener@Pegas@@@4@$0A@@std@@@std@@QAE@PAU_Node@?$_Tree_nod@V?$_Tset_traits@PAVIEventListener@Pegas@@U?$less@PAVIEventListener@Pegas@@@std@@V?$allocator@PAVIEventListener@Pegas@@@4@$0A@@std@@@2@PBV12@@Z 00439e30 f i pacman.obj
 0001:00038ed0       ??Econst_iterator@?$_Tree@V?$_Tset_traits@PAVIEventListener@Pegas@@U?$less@PAVIEventListener@Pegas@@@std@@V?$allocator@PAVIEventListener@Pegas@@@4@$0A@@std@@@std@@QAEAAV012@XZ 00439ed0 f i pacman.obj
 0001:00038f20       ?_Mynode@const_iterator@?$_Tree@V?$_Tset_traits@PAVIEventListener@Pegas@@U?$less@PAVIEventListener@Pegas@@@std@@V?$allocator@PAVIEventListener@Pegas@@@4@$0A@@std@@@std@@QBEPAU_Node@?$_Tree_nod@V?$_Tset_traits@PAVIEventListener@Pegas@@U?$less@PAVIEventListener@Pegas@@@std@@V?$allocator@PAVIEventListener@Pegas@@@4@$0A@@std@@@3@XZ 00439f20 f i pacman.obj
 0001:00038f50       ??0?$_Bidit@PAVIEventListener@Pegas@@HPBQAV12@ABQAV12@@std@@QAE@XZ 00439f50 f i pacman.obj
 0001:00038fa0       ??0?$_Iterator_with_base@Ubidirectional_iterator_tag@std@@PAVIEventListener@Pegas@@HPBQAV34@ABQAV34@V_Iterator_base@2@@std@@QAE@XZ 00439fa0 f i pacman.obj
 0001:00038ff0       ?_Inc@const_iterator@?$_Tree@V?$_Tset_traits@PAVIEventListener@Pegas@@U?$less@PAVIEventListener@Pegas@@@std@@V?$allocator@PAVIEventListener@Pegas@@@4@$0A@@std@@@std@@QAEXXZ 00439ff0 f i pacman.obj
 0001:00039150       ??$_Destroy@PAU_Node@?$_Tree_nod@V?$_Tset_traits@PAVIEventListener@Pegas@@U?$less@PAVIEventListener@Pegas@@@std@@V?$allocator@PAVIEventListener@Pegas@@@4@$0A@@std@@@std@@@std@@YAXPAPAU_Node@?$_Tree_nod@V?$_Tset_traits@PAVIEventListener@Pegas@@U?$less@PAVIEventListener@Pegas@@@std@@V?$allocator@PAVIEventListener@Pegas@@@4@$0A@@std@@@0@@Z 0043a150 f i pacman.obj
 0001:00039180       ??$_Destroy@U_Node@?$_Tree_nod@V?$_Tset_traits@PAVIEventListener@Pegas@@U?$less@PAVIEventListener@Pegas@@@std@@V?$allocator@PAVIEventListener@Pegas@@@4@$0A@@std@@@std@@@std@@YAXPAU_Node@?$_Tree_nod@V?$_Tset_traits@PAVIEventListener@Pegas@@U?$less@PAVIEventListener@Pegas@@@std@@V?$allocator@PAVIEventListener@Pegas@@@4@$0A@@std@@@0@@Z 0043a180 f i pacman.obj
 0001:000391b0       ?allocate@?$_DebugHeapAllocator@D@std@@QAAPADIPBX@Z 0043a1b0 f i stdafx.obj
 0001:00039250       ?allocate@?$_DebugHeapAllocator@D@std@@QAEPADI@Z 0043a250 f i stdafx.obj
 0001:000392f0       ?deallocate@?$_DebugHeapAllocator@D@std@@QAEXPADI@Z 0043a2f0 f i stdafx.obj
 0001:00039340       ??0?$_DebugHeapAllocator@D@std@@QAE@XZ 0043a340 f i stdafx.obj
 0001:00039390       ??0?$_DebugHeapAllocator@D@std@@QAE@ABV01@@Z 0043a390 f i stdafx.obj
 0001:000393e0       ??$_DebugHeapDelete@X@std@@YAXPAX@Z 0043a3e0 f i stdafx.obj
 0001:00039430       ??0BaseAIState@Pegas@@QAE@PAVTileGrid@1@HH@Z 0043a430 f   game_ai.obj
 0001:00039640       ?getListenerName@BaseAIState@Pegas@@UAE?AV?$basic_string@DU?$char_traits@D@std@@V?$allocator@D@2@@std@@XZ 0043a640 f i game_ai.obj
 0001:000396b0       ??_GBaseAIState@Pegas@@UAEPAXI@Z 0043a6b0 f i game_ai.obj
 0001:000396b0       ??_EBaseAIState@Pegas@@UAEPAXI@Z 0043a6b0 f i game_ai.obj
 0001:00039710       ??1BaseAIState@Pegas@@UAE@XZ 0043a710 f   game_ai.obj
 0001:000397e0       ?getGoalHeuristic@BaseAIState@Pegas@@MAEMHH@Z 0043a7e0 f   game_ai.obj
 0001:00039900       ?start@BaseAIState@Pegas@@MAEXHPAVProcessManager@2@@Z 0043a900 f   game_ai.obj
 0001:00039ad0       ?update@BaseAIState@Pegas@@UAEXH@Z 0043aad0 f   game_ai.obj
 0001:00039c70       ??0Event_ChangeDirection@Pegas@@QAE@HH@Z 0043ac70 f i game_ai.obj
 0001:00039cd0       ?getType@Event_ChangeDirection@Pegas@@UBE?AV?$basic_string@DU?$char_traits@D@std@@V?$allocator@D@2@@std@@XZ 0043acd0 f i game_ai.obj
 0001:00039d40       ??_EEvent_ChangeDirection@Pegas@@UAEPAXI@Z 0043ad40 f i game_ai.obj
 0001:00039d40       ??_GEvent_ChangeDirection@Pegas@@UAEPAXI@Z 0043ad40 f i game_ai.obj
 0001:00039da0       ??1Event_ChangeDirection@Pegas@@UAE@XZ 0043ada0 f i game_ai.obj
 0001:00039de0       ?chooseDirection@BaseAIState@Pegas@@MAEHXZ 0043ade0 f   game_ai.obj
 0001:00039fb0       ?isObstacle@BaseAIState@Pegas@@MAE_NHH@Z 0043afb0 f   game_ai.obj
 0001:0003a070       ?handleEvent@BaseAIState@Pegas@@UAEXV?$ptr@UEvent@Pegas@@@2@@Z 0043b070 f   game_ai.obj
 0001:0003a790       ?suspend@BaseAIState@Pegas@@UAEXXZ 0043b790 f   game_ai.obj
 0001:0003a7e0       ?resume@BaseAIState@Pegas@@UAEXXZ 0043b7e0 f   game_ai.obj
 0001:0003a840       ??0BlinkyChaseState@Pegas@@QAE@PAVTileGrid@1@@Z 0043b840 f   game_ai.obj
 0001:0003a8f0       ??_GBlinkyChaseState@Pegas@@UAEPAXI@Z 0043b8f0 f i game_ai.obj
 0001:0003a8f0       ??_EBlinkyChaseState@Pegas@@UAEPAXI@Z 0043b8f0 f i game_ai.obj
 0001:0003a950       ??1BlinkyChaseState@Pegas@@UAE@XZ 0043b950 f i game_ai.obj
 0001:0003a990       ?handleEvent@BlinkyChaseState@Pegas@@UAEXV?$ptr@UEvent@Pegas@@@2@@Z 0043b990 f   game_ai.obj
 0001:0003aae0       ?getGoalHeuristic@BlinkyChaseState@Pegas@@MAEMHH@Z 0043bae0 f   game_ai.obj
 0001:0003abe0       ??0PinkyChaseState@Pegas@@QAE@PAVTileGrid@1@@Z 0043bbe0 f   game_ai.obj
 0001:0003aca0       ??_GPinkyChaseState@Pegas@@UAEPAXI@Z 0043bca0 f i game_ai.obj
 0001:0003aca0       ??_EPinkyChaseState@Pegas@@UAEPAXI@Z 0043bca0 f i game_ai.obj
 0001:0003ad00       ??1PinkyChaseState@Pegas@@UAE@XZ 0043bd00 f i game_ai.obj
 0001:0003ad40       ?handleEvent@PinkyChaseState@Pegas@@UAEXV?$ptr@UEvent@Pegas@@@2@@Z 0043bd40 f   game_ai.obj
 0001:0003af50       ?getGoalHeuristic@PinkyChaseState@Pegas@@MAEMHH@Z 0043bf50 f   game_ai.obj
 0001:0003b050       ?calculateGoalPosition@PinkyChaseState@Pegas@@AAEXXZ 0043c050 f   game_ai.obj
 0001:0003b1a0       ??0InkyChaseState@Pegas@@QAE@PAVTileGrid@1@@Z 0043c1a0 f   game_ai.obj
 0001:0003b270       ??_GInkyChaseState@Pegas@@UAEPAXI@Z 0043c270 f i game_ai.obj
 0001:0003b270       ??_EInkyChaseState@Pegas@@UAEPAXI@Z 0043c270 f i game_ai.obj
 0001:0003b2d0       ??1InkyChaseState@Pegas@@UAE@XZ 0043c2d0 f i game_ai.obj
 0001:0003b310       ?handleEvent@InkyChaseState@Pegas@@UAEXV?$ptr@UEvent@Pegas@@@2@@Z 0043c310 f   game_ai.obj
 0001:0003b540       ?getGoalHeuristic@InkyChaseState@Pegas@@MAEMHH@Z 0043c540 f   game_ai.obj
 0001:0003b640       ?calculateGoalPosition@InkyChaseState@Pegas@@AAEXXZ 0043c640 f   game_ai.obj
 0001:0003b830       ??0ClydeChaseState@Pegas@@QAE@PAVTileGrid@1@@Z 0043c830 f   game_ai.obj
 0001:0003b9a0       ??_GClydeChaseState@Pegas@@UAEPAXI@Z 0043c9a0 f i game_ai.obj
 0001:0003b9a0       ??_EClydeChaseState@Pegas@@UAEPAXI@Z 0043c9a0 f i game_ai.obj
 0001:0003ba00       ??1ClydeChaseState@Pegas@@UAE@XZ 0043ca00 f i game_ai.obj
 0001:0003ba40       ?handleEvent@ClydeChaseState@Pegas@@UAEXV?$ptr@UEvent@Pegas@@@2@@Z 0043ca40 f   game_ai.obj
 0001:0003bba0       ?getGoalHeuristic@ClydeChaseState@Pegas@@MAEMHH@Z 0043cba0 f   game_ai.obj
 0001:0003bca0       ?calculateGoalPosition@ClydeChaseState@Pegas@@AAEXXZ 0043cca0 f   game_ai.obj
 0001:0003bda0       ?sqrt@@YAMM@Z              0043cda0 f i game_ai.obj
 0001:0003bdf0       _sqrtf                     0043cdf0 f i game_ai.obj
 0001:0003be40       ??0RunawayState@Pegas@@QAE@PAVTileGrid@1@H@Z 0043ce40 f   game_ai.obj
 0001:0003bef0       ??_ERunawayState@Pegas@@UAEPAXI@Z 0043cef0 f i game_ai.obj
 0001:0003bef0       ??_GRunawayState@Pegas@@UAEPAXI@Z 0043cef0 f i game_ai.obj
 0001:0003bf50       ??1RunawayState@Pegas@@UAE@XZ 0043cf50 f i game_ai.obj
 0001:0003bf90       ?handleEvent@RunawayState@Pegas@@UAEXV?$ptr@UEvent@Pegas@@@2@@Z 0043cf90 f   game_ai.obj
 0001:0003c0e0       ?chooseDirection@RunawayState@Pegas@@MAEHXZ 0043d0e0 f   game_ai.obj
 0001:0003c390       ??1?$_Vector_iterator@HV?$allocator@H@std@@@std@@QAE@XZ 0043d390 f i game_ai.obj
 0001:0003c3d0       ??1?$_Vector_const_iterator@HV?$allocator@H@std@@@std@@QAE@XZ 0043d3d0 f i game_ai.obj
 0001:0003c410       ??1?$_Ranit@HHPBHABH@std@@QAE@XZ 0043d410 f i game_ai.obj
 0001:0003c450       ??1?$_Iterator_with_base@Urandom_access_iterator_tag@std@@HHPBHABHV_Iterator_base@2@@std@@QAE@XZ 0043d450 f i game_ai.obj
 0001:0003c490       ??0GoalDrivenState@Pegas@@QAE@PAVTileGrid@1@HH@Z 0043d490 f   game_ai.obj
 0001:0003c500       ??_EGoalDrivenState@Pegas@@UAEPAXI@Z 0043d500 f i game_ai.obj
 0001:0003c500       ??_GGoalDrivenState@Pegas@@UAEPAXI@Z 0043d500 f i game_ai.obj
 0001:0003c560       ??1GoalDrivenState@Pegas@@UAE@XZ 0043d560 f i game_ai.obj
 0001:0003c5a0       ?setGoalPoint@GoalDrivenState@Pegas@@QAEXABVVector3@2@@Z 0043d5a0 f   game_ai.obj
 0001:0003c610       ?update@GoalDrivenState@Pegas@@UAEXH@Z 0043d610 f   game_ai.obj
 0001:0003c6a0       ?getGoalHeuristic@GoalDrivenState@Pegas@@MAEMHH@Z 0043d6a0 f   game_ai.obj
 0001:0003c7c0       ?onGoalAchieved@GoalDrivenState@Pegas@@MAEXXZ 0043d7c0 f   game_ai.obj
 0001:0003c810       ??0PrayState@Pegas@@QAE@PAVTileGrid@1@H@Z 0043d810 f   game_ai.obj
 0001:0003c940       ??_EPrayState@Pegas@@UAEPAXI@Z 0043d940 f i game_ai.obj
 0001:0003c940       ??_GPrayState@Pegas@@UAEPAXI@Z 0043d940 f i game_ai.obj
 0001:0003c9a0       ??1PrayState@Pegas@@UAE@XZ 0043d9a0 f i game_ai.obj
 0001:0003c9e0       ?onGoalAchieved@PrayState@Pegas@@MAEXXZ 0043d9e0 f   game_ai.obj
 0001:0003cb30       ??0Event_CharacterChangeState@Pegas@@QAE@HH@Z 0043db30 f i game_ai.obj
 0001:0003cb90       ?getType@Event_CharacterChangeState@Pegas@@UBE?AV?$basic_string@DU?$char_traits@D@std@@V?$allocator@D@2@@std@@XZ 0043db90 f i game_ai.obj
 0001:0003cc00       ??_EEvent_CharacterChangeState@Pegas@@UAEPAXI@Z 0043dc00 f i game_ai.obj
 0001:0003cc00       ??_GEvent_CharacterChangeState@Pegas@@UAEPAXI@Z 0043dc00 f i game_ai.obj
 0001:0003cc60       ??1Event_CharacterChangeState@Pegas@@UAE@XZ 0043dc60 f i game_ai.obj
 0001:0003cca0       ?isObstacle@PrayState@Pegas@@MAE_NHH@Z 0043dca0 f   game_ai.obj
 0001:0003cd40       ??0?$ptr@UEvent@Pegas@@@Pegas@@QAE@PAUEvent@1@PAUCounter@1@@Z 0043dd40 f i game_ai.obj
 0001:0003ce40       ??0?$list@VVector3@Pegas@@V?$allocator@VVector3@Pegas@@@std@@@std@@QAE@XZ 0043de40 f i game_ai.obj
 0001:0003cee0       ??1?$list@VVector3@Pegas@@V?$allocator@VVector3@Pegas@@@std@@@std@@QAE@XZ 0043dee0 f i game_ai.obj
 0001:0003cf60       ?size@?$list@VVector3@Pegas@@V?$allocator@VVector3@Pegas@@@std@@@std@@QBEIXZ 0043df60 f i game_ai.obj
 0001:0003cf90       ?front@?$list@VVector3@Pegas@@V?$allocator@VVector3@Pegas@@@std@@@std@@QAEAAVVector3@Pegas@@XZ 0043df90 f i game_ai.obj
 0001:0003d050       ??0?$vector@HV?$allocator@H@std@@@std@@QAE@XZ 0043e050 f i game_ai.obj
 0001:0003d0f0       ??1?$vector@HV?$allocator@H@std@@@std@@QAE@XZ 0043e0f0 f i game_ai.obj
 0001:0003d170       ?begin@?$vector@HV?$allocator@H@std@@@std@@QAE?AV?$_Vector_iterator@HV?$allocator@H@std@@@2@XZ 0043e170 f i game_ai.obj
 0001:0003d1e0       ?end@?$vector@HV?$allocator@H@std@@@std@@QAE?AV?$_Vector_iterator@HV?$allocator@H@std@@@2@XZ 0043e1e0 f i game_ai.obj
 0001:0003d250       ?size@?$vector@HV?$allocator@H@std@@@std@@QBEIXZ 0043e250 f i game_ai.obj
 0001:0003d290       ?front@?$vector@HV?$allocator@H@std@@@std@@QAEAAHXZ 0043e290 f i game_ai.obj
 0001:0003d350       ?push_back@?$vector@HV?$allocator@H@std@@@std@@QAEXABH@Z 0043e350 f i game_ai.obj
 0001:0003d480       ??1?$_List_val@VVector3@Pegas@@V?$allocator@VVector3@Pegas@@@std@@@std@@QAE@XZ 0043e480 f i game_ai.obj
 0001:0003d4c0       ??1?$_Iterator@$00@?$list@VVector3@Pegas@@V?$allocator@VVector3@Pegas@@@std@@@std@@QAE@XZ 0043e4c0 f i game_ai.obj
 0001:0003d500       ??1?$_Vector_val@HV?$allocator@H@std@@@std@@QAE@XZ 0043e500 f i game_ai.obj
 0001:0003d540       ??0?$_Vector_const_iterator@HV?$allocator@H@std@@@std@@QAE@ABV01@@Z 0043e540 f i game_ai.obj
 0001:0003d5a0       ??1?$_List_ptr@VVector3@Pegas@@V?$allocator@VVector3@Pegas@@@std@@@std@@QAE@XZ 0043e5a0 f i game_ai.obj
 0001:0003d5e0       ??1?$_Const_iterator@$00@?$list@VVector3@Pegas@@V?$allocator@VVector3@Pegas@@@std@@@std@@QAE@XZ 0043e5e0 f i game_ai.obj
 0001:0003d620       ??0?$_Ranit@HHPBHABH@std@@QAE@ABU01@@Z 0043e620 f i game_ai.obj
 0001:0003d670       ??1?$_List_nod@VVector3@Pegas@@V?$allocator@VVector3@Pegas@@@std@@@std@@QAE@XZ 0043e670 f i game_ai.obj
 0001:0003d6b0       ??1?$_Bidit@VVector3@Pegas@@HPBV12@ABV12@@std@@QAE@XZ 0043e6b0 f i game_ai.obj
 0001:0003d6f0       ??0?$_Iterator_with_base@Urandom_access_iterator_tag@std@@HHPBHABHV_Iterator_base@2@@std@@QAE@ABU01@@Z 0043e6f0 f i game_ai.obj
 0001:0003d740       ??1?$_Iterator_with_base@Ubidirectional_iterator_tag@std@@VVector3@Pegas@@HPBV34@ABV34@V_Iterator_base@2@@std@@QAE@XZ 0043e740 f i game_ai.obj
 0001:0003d780       ??0?$allocator@VVector3@Pegas@@@std@@QAE@XZ 0043e780 f i game_ai.obj
 0001:0003d7b0       ?begin@?$list@VVector3@Pegas@@V?$allocator@VVector3@Pegas@@@std@@@std@@QAE?AV?$_Iterator@$00@12@XZ 0043e7b0 f i game_ai.obj
 0001:0003d830       ?_Buynode@?$list@VVector3@Pegas@@V?$allocator@VVector3@Pegas@@@std@@@std@@IAEPAU_Node@?$_List_nod@VVector3@Pegas@@V?$allocator@VVector3@Pegas@@@std@@@2@XZ 0043e830 f i game_ai.obj
 0001:0003d990       ?_Tidy@?$list@VVector3@Pegas@@V?$allocator@VVector3@Pegas@@@std@@@std@@IAEXXZ 0043e990 f i game_ai.obj
 0001:0003da30       ??0?$_List_val@VVector3@Pegas@@V?$allocator@VVector3@Pegas@@@std@@@std@@QAE@V?$allocator@VVector3@Pegas@@@1@@Z 0043ea30 f i game_ai.obj
 0001:0003daa0       ?capacity@?$vector@HV?$allocator@H@std@@@std@@QBEIXZ 0043eaa0 f i game_ai.obj
 0001:0003db00       ?insert@?$vector@HV?$allocator@H@std@@@std@@QAE?AV?$_Vector_iterator@HV?$allocator@H@std@@@2@V?$_Vector_const_iterator@HV?$allocator@H@std@@@2@ABH@Z 0043eb00 f i game_ai.obj
 0001:0003dc90       ?_Buy@?$vector@HV?$allocator@H@std@@@std@@IAE_NI@Z 0043ec90 f i game_ai.obj
 0001:0003dd40       ?_Tidy@?$vector@HV?$allocator@H@std@@@std@@IAEXXZ 0043ed40 f i game_ai.obj
 0001:0003dde0       ?_Ufill@?$vector@HV?$allocator@H@std@@@std@@IAEPAHPAHIABH@Z 0043ede0 f i game_ai.obj
 0001:0003de40       ?_Orphan_range@?$vector@HV?$allocator@H@std@@@std@@IBEXPAH0@Z 0043ee40 f i game_ai.obj
 0001:0003df10       ??0?$_Vector_val@HV?$allocator@H@std@@@std@@IAE@V?$allocator@H@1@@Z 0043ef10 f i game_ai.obj
 0001:0003df80       ??0?$_Vector_iterator@HV?$allocator@H@std@@@std@@QAE@PAHPBV_Container_base_secure@1@@Z 0043ef80 f i game_ai.obj
 0001:0003dfd0       ??D?$_Vector_iterator@HV?$allocator@H@std@@@std@@QBEAAHXZ 0043efd0 f i game_ai.obj
 0001:0003e010       ??D?$_Iterator@$00@?$list@VVector3@Pegas@@V?$allocator@VVector3@Pegas@@@std@@@std@@QBEAAVVector3@Pegas@@XZ 0043f010 f i game_ai.obj
 0001:0003e050       ?allocate@?$allocator@H@std@@QAEPAHI@Z 0043f050 f i game_ai.obj
 0001:0003e0a0       ?_Nextnode@?$list@VVector3@Pegas@@V?$allocator@VVector3@Pegas@@@std@@@std@@KAAAPAU_Node@?$_List_nod@VVector3@Pegas@@V?$allocator@VVector3@Pegas@@@std@@@2@PAU342@@Z 0043f0a0 f i game_ai.obj
 0001:0003e0d0       ?_Prevnode@?$list@VVector3@Pegas@@V?$allocator@VVector3@Pegas@@@std@@@std@@KAAAPAU_Node@?$_List_nod@VVector3@Pegas@@V?$allocator@VVector3@Pegas@@@std@@@2@PAU342@@Z 0043f0d0 f i game_ai.obj
 0001:0003e100       ?clear@?$list@VVector3@Pegas@@V?$allocator@VVector3@Pegas@@@std@@@std@@QAEXXZ 0043f100 f i game_ai.obj
 0001:0003e1e0       ??0?$_List_ptr@VVector3@Pegas@@V?$allocator@VVector3@Pegas@@@std@@@std@@IAE@V?$allocator@VVector3@Pegas@@@1@@Z 0043f1e0 f i game_ai.obj
 0001:0003e250       ?deallocate@?$allocator@U_Node@?$_List_nod@VVector3@Pegas@@V?$allocator@VVector3@Pegas@@@std@@@std@@@std@@QAEXPAU_Node@?$_List_nod@VVector3@Pegas@@V?$allocator@VVector3@Pegas@@@std@@@2@I@Z 0043f250 f i game_ai.obj
 0001:0003e2a0       ?allocate@?$allocator@U_Node@?$_List_nod@VVector3@Pegas@@V?$allocator@VVector3@Pegas@@@std@@@std@@@std@@QAEPAU_Node@?$_List_nod@VVector3@Pegas@@V?$allocator@VVector3@Pegas@@@std@@@2@I@Z 0043f2a0 f i game_ai.obj
 0001:0003e2f0       ?construct@?$allocator@PAU_Node@?$_List_nod@VVector3@Pegas@@V?$allocator@VVector3@Pegas@@@std@@@std@@@std@@QAEXPAPAU_Node@?$_List_nod@VVector3@Pegas@@V?$allocator@VVector3@Pegas@@@std@@@2@ABQAU342@@Z 0043f2f0 f i game_ai.obj
 0001:0003e340       ?destroy@?$allocator@PAU_Node@?$_List_nod@VVector3@Pegas@@V?$allocator@VVector3@Pegas@@@std@@@std@@@std@@QAEXPAPAU_Node@?$_List_nod@VVector3@Pegas@@V?$allocator@VVector3@Pegas@@@std@@@2@@Z 0043f340 f i game_ai.obj
 0001:0003e390       ?max_size@?$vector@HV?$allocator@H@std@@@std@@QBEIXZ 0043f390 f i game_ai.obj
 0001:0003e3e0       ?_Destroy@?$vector@HV?$allocator@H@std@@@std@@IAEXPAH0@Z 0043f3e0 f i game_ai.obj
 0001:0003e430       ?_Insert_n@?$vector@HV?$allocator@H@std@@@std@@IAEXV?$_Vector_const_iterator@HV?$allocator@H@std@@@2@IABH@Z 0043f430 f i game_ai.obj
 0001:0003e870       ?_Xlen@?$vector@HV?$allocator@H@std@@@std@@KAXXZ 0043f870 f i game_ai.obj
 0001:0003e920       ??H?$_Vector_iterator@HV?$allocator@H@std@@@std@@QBE?AV01@H@Z 0043f920 f i game_ai.obj
 0001:0003ea00       ??0?$_Vector_const_iterator@HV?$allocator@H@std@@@std@@QAE@PAHPBV_Container_base_secure@1@@Z 0043fa00 f i game_ai.obj
 0001:0003eaf0       ??D?$_Vector_const_iterator@HV?$allocator@H@std@@@std@@QBEABHXZ 0043faf0 f i game_ai.obj
 0001:0003ebb0       ??G?$_Vector_const_iterator@HV?$allocator@H@std@@@std@@QBEHABV01@@Z 0043fbb0 f i game_ai.obj
 0001:0003ec10       ??0?$_Iterator@$00@?$list@VVector3@Pegas@@V?$allocator@VVector3@Pegas@@@std@@@std@@QAE@PAU_Node@?$_List_nod@VVector3@Pegas@@V?$allocator@VVector3@Pegas@@@std@@@2@PBV12@@Z 0043fc10 f i game_ai.obj
 0001:0003ec60       ??D?$_Const_iterator@$00@?$list@VVector3@Pegas@@V?$allocator@VVector3@Pegas@@@std@@@std@@QBEABVVector3@Pegas@@XZ 0043fc60 f i game_ai.obj
 0001:0003ed30       ??0?$_Vector_iterator@HV?$allocator@H@std@@@std@@QAE@ABV01@@Z 0043fd30 f i game_ai.obj
 0001:0003ed80       ??0?$_Ranit@HHPBHABH@std@@QAE@XZ 0043fd80 f i game_ai.obj
 0001:0003edd0       ??0?$_Iterator_with_base@Urandom_access_iterator_tag@std@@HHPBHABHV_Iterator_base@2@@std@@QAE@XZ 0043fdd0 f i game_ai.obj
 0001:0003ee20       ?max_size@?$allocator@H@std@@QBEIXZ 0043fe20 f i game_ai.obj
 0001:0003ee80       ?_Myval@?$list@VVector3@Pegas@@V?$allocator@VVector3@Pegas@@@std@@@std@@KAAAVVector3@Pegas@@PAU_Node@?$_List_nod@VVector3@Pegas@@V?$allocator@VVector3@Pegas@@@std@@@2@@Z 0043fe80 f i game_ai.obj
 0001:0003eeb0       ?_Orphan_ptr@?$list@VVector3@Pegas@@V?$allocator@VVector3@Pegas@@@std@@@std@@IBEXAAV12@PAU_Node@?$_List_nod@VVector3@Pegas@@V?$allocator@VVector3@Pegas@@@std@@@2@@Z 0043feb0 f i game_ai.obj
 0001:0003ef80       ??0?$_List_nod@VVector3@Pegas@@V?$allocator@VVector3@Pegas@@@std@@@std@@IAE@V?$allocator@VVector3@Pegas@@@1@@Z 0043ff80 f i game_ai.obj
 0001:0003eff0       ?destroy@?$allocator@U_Node@?$_List_nod@VVector3@Pegas@@V?$allocator@VVector3@Pegas@@@std@@@std@@@std@@QAEXPAU_Node@?$_List_nod@VVector3@Pegas@@V?$allocator@VVector3@Pegas@@@std@@@2@@Z 0043fff0 f i game_ai.obj
 0001:0003f040       ??Y?$_Vector_iterator@HV?$allocator@H@std@@@std@@QAEAAV01@H@Z 00440040 f i game_ai.obj
 0001:0003f090       ?_Compat@?$_Vector_const_iterator@HV?$allocator@H@std@@@std@@QBEXABV12@@Z 00440090 f i game_ai.obj
 0001:0003f140       ??0?$_Const_iterator@$00@?$list@VVector3@Pegas@@V?$allocator@VVector3@Pegas@@@std@@@std@@QAE@PAU_Node@?$_List_nod@VVector3@Pegas@@V?$allocator@VVector3@Pegas@@@std@@@2@PBV12@@Z 00440140 f i game_ai.obj
 0001:0003f1e0       ??0?$_Bidit@VVector3@Pegas@@HPBV12@ABV12@@std@@QAE@XZ 004401e0 f i game_ai.obj
 0001:0003f230       ??0?$_Iterator_with_base@Ubidirectional_iterator_tag@std@@VVector3@Pegas@@HPBV34@ABV34@V_Iterator_base@2@@std@@QAE@XZ 00440230 f i game_ai.obj
 0001:0003f280       ??Y?$_Vector_const_iterator@HV?$allocator@H@std@@@std@@QAEAAV01@H@Z 00440280 f i game_ai.obj
 0001:0003f3a0       ??$?0UEvent_ChangeDirection@Pegas@@@?$ptr@UEvent@Pegas@@@Pegas@@QAE@PAUEvent_ChangeDirection@1@PAUCounter@1@@Z 004403a0 f i game_ai.obj
 0001:0003f4a0       ??$cast@UEvent_CharacterMoved@Pegas@@@Event@Pegas@@QAEPAUEvent_CharacterMoved@1@XZ 004404a0 f i game_ai.obj
 0001:0003f4d0       ??$cast@UEvent_DirectionChanged@Pegas@@@Event@Pegas@@QAEPAUEvent_DirectionChanged@1@XZ 004404d0 f i game_ai.obj
 0001:0003f500       ??$cast@UEvent_CharacterStopped@Pegas@@@Event@Pegas@@QAEPAUEvent_CharacterStopped@1@XZ 00440500 f i game_ai.obj
 0001:0003f530       ??$cast@UEvent_CharacterStateChanged@Pegas@@@Event@Pegas@@QAEPAUEvent_CharacterStateChanged@1@XZ 00440530 f i game_ai.obj
 0001:0003f560       ??$random_shuffle@V?$_Vector_iterator@HV?$allocator@H@std@@@std@@@std@@YAXV?$_Vector_iterator@HV?$allocator@H@std@@@0@0@Z 00440560 f i game_ai.obj
 0001:0003f680       ??$unchecked_uninitialized_fill_n@PAHIHV?$allocator@H@std@@@stdext@@YAXPAHIABHAAV?$allocator@H@std@@@Z 00440680 f i game_ai.obj
 0001:0003f700       ??$_Allocate@H@std@@YAPAHIPAH@Z 00440700 f i game_ai.obj
 0001:0003f780       ??$?0VVector3@Pegas@@@?$allocator@PAU_Node@?$_List_nod@VVector3@Pegas@@V?$allocator@VVector3@Pegas@@@std@@@std@@@std@@QAE@ABV?$allocator@VVector3@Pegas@@@1@@Z 00440780 f i game_ai.obj
 0001:0003f7b0       ??$_Allocate@U_Node@?$_List_nod@VVector3@Pegas@@V?$allocator@VVector3@Pegas@@@std@@@std@@@std@@YAPAU_Node@?$_List_nod@VVector3@Pegas@@V?$allocator@VVector3@Pegas@@@std@@@0@IPAU120@@Z 004407b0 f i game_ai.obj
 0001:0003f830       ??$_Construct@PAU_Node@?$_List_nod@VVector3@Pegas@@V?$allocator@VVector3@Pegas@@@std@@@std@@PAU123@@std@@YAXPAPAU_Node@?$_List_nod@VVector3@Pegas@@V?$allocator@VVector3@Pegas@@@std@@@0@ABQAU120@@Z 00440830 f i game_ai.obj
 0001:0003f8b0       ??$_Destroy@PAU_Node@?$_List_nod@VVector3@Pegas@@V?$allocator@VVector3@Pegas@@@std@@@std@@@std@@YAXPAPAU_Node@?$_List_nod@VVector3@Pegas@@V?$allocator@VVector3@Pegas@@@std@@@0@@Z 004408b0 f i game_ai.obj
 0001:0003f8e0       ??$_Destroy_range@V?$allocator@H@std@@@std@@YAXPAH0AAV?$allocator@H@0@@Z 004408e0 f i game_ai.obj
 0001:0003f950       ??$_Umove@PAH@?$vector@HV?$allocator@H@std@@@std@@IAEPAHPAH00@Z 00440950 f i game_ai.obj
 0001:0003f9b0       ??$fill@PAHH@std@@YAXPAH0ABH@Z 004409b0 f i game_ai.obj
 0001:0003fa10       ??$_Unchecked_move_backward@PAHPAH@stdext@@YAPAHPAH00@Z 00440a10 f i game_ai.obj
 0001:0003fab0       ??$?0VVector3@Pegas@@@?$allocator@U_Node@?$_List_nod@VVector3@Pegas@@V?$allocator@VVector3@Pegas@@@std@@@std@@@std@@QAE@ABV?$allocator@VVector3@Pegas@@@1@@Z 00440ab0 f i game_ai.obj
 0001:0003fae0       ??$_Destroy@U_Node@?$_List_nod@VVector3@Pegas@@V?$allocator@VVector3@Pegas@@@std@@@std@@@std@@YAXPAU_Node@?$_List_nod@VVector3@Pegas@@V?$allocator@VVector3@Pegas@@@std@@@0@@Z 00440ae0 f i game_ai.obj
 0001:0003fb10       ??9?$_Vector_const_iterator@HV?$allocator@H@std@@@std@@QBE_NABV01@@Z 00440b10 f i game_ai.obj
 0001:0003fb60       ??8?$_Vector_const_iterator@HV?$allocator@H@std@@@std@@QBE_NABV01@@Z 00440b60 f i game_ai.obj
 0001:0003fbc0       ??$_Checked_base@V?$_Vector_iterator@HV?$allocator@H@std@@@std@@@std@@YA?AV?$_Vector_iterator@HV?$allocator@H@std@@@0@AAV10@@Z 00440bc0 f i game_ai.obj
 0001:0003fc60       ??$_Dist_type@V?$_Vector_iterator@HV?$allocator@H@std@@@std@@@std@@YAPAHV?$_Vector_iterator@HV?$allocator@H@std@@@0@@Z 00440c60 f i game_ai.obj
 0001:0003fcb0       ??$_Random_shuffle@V?$_Vector_iterator@HV?$allocator@H@std@@@std@@H@std@@YAXV?$_Vector_iterator@HV?$allocator@H@std@@@0@0PAH@Z 00440cb0 f i game_ai.obj
 0001:0003fec0       ??$_Ptr_cat@PAHPAH@std@@YA?AU_Scalar_ptr_iterator_tag@0@AAPAH0@Z 00440ec0 f i game_ai.obj
 0001:0003ff20       ??$_Uninit_fill_n@PAHIHV?$allocator@H@std@@@std@@YAXPAHIABHAAV?$allocator@H@0@U_Scalar_ptr_iterator_tag@0@U_Range_checked_iterator_tag@0@@Z 00440f20 f i game_ai.obj
 0001:0003ff70       ??$_Destroy_range@V?$allocator@H@std@@@std@@YAXPAH0AAV?$allocator@H@0@U_Scalar_ptr_iterator_tag@0@@Z 00440f70 f i game_ai.obj
 0001:0003ffa0       ??$_Unchecked_uninitialized_move@PAHPAHV?$allocator@H@std@@@stdext@@YAPAHPAH00AAV?$allocator@H@std@@@Z 00440fa0 f i game_ai.obj
 0001:00040030       ??$_Checked_base@PAH@std@@YAPAHAAPAH@Z 00441030 f i game_ai.obj
 0001:000400b0       ??$_Fill@PAHH@std@@YAXPAH0ABH@Z 004410b0 f i game_ai.obj
 0001:00040120       ??$_Iter_random@PAHPAH@std@@YA?AUrandom_access_iterator_tag@0@ABQAH0@Z 00441120 f i game_ai.obj
 0001:00040180       ??$_Move_cat@PAH@std@@YA?AU_Undefined_move_tag@0@ABQAH@Z 00441180 f i game_ai.obj
 0001:000401e0       ??$_Move_backward_opt@PAHPAHUrandom_access_iterator_tag@std@@U_Undefined_move_tag@2@@std@@YAPAHPAH00Urandom_access_iterator_tag@0@U_Undefined_move_tag@0@U_Range_checked_iterator_tag@0@@Z 004411e0 f i game_ai.obj
 0001:00040260       ??E?$_Vector_iterator@HV?$allocator@H@std@@@std@@QAEAAV01@XZ 00441260 f i game_ai.obj
 0001:000402b0       ??E?$_Vector_const_iterator@HV?$allocator@H@std@@@std@@QAEAAV01@XZ 004412b0 f i game_ai.obj
 0001:000403d0       ??$_Checked_base@V?$_Vector_iterator@HV?$allocator@H@std@@@std@@@std@@YA?AV?$_Vector_iterator@HV?$allocator@H@std@@@0@AAV10@U_Unchanged_checked_iterator_base_type_tag@0@@Z 004413d0 f i game_ai.obj
 0001:00040430       ??$_Debug_range@V?$_Vector_iterator@HV?$allocator@H@std@@@std@@@std@@YAXV?$_Vector_iterator@HV?$allocator@H@std@@@0@0PB_WI@Z 00441430 f i game_ai.obj
 0001:00040520       ??$iter_swap@V?$_Vector_iterator@HV?$allocator@H@std@@@std@@V12@@std@@YAXV?$_Vector_iterator@HV?$allocator@H@std@@@0@0@Z 00441520 f i game_ai.obj
 0001:000405c0       ??$unchecked_fill_n@PAHIH@stdext@@YAXPAHIABH@Z 004415c0 f i game_ai.obj
 0001:00040630       ??$_Uninit_move@PAHPAHV?$allocator@H@std@@U_Undefined_move_tag@2@@std@@YAPAHPAH00AAV?$allocator@H@0@U_Undefined_move_tag@0@U_Range_checked_iterator_tag@0@@Z 00441630 f i game_ai.obj
 0001:00040680       ??$_Checked_base@PAH@std@@YAPAHAAPAHU_Unchanged_checked_iterator_base_type_tag@0@@Z 00441680 f i game_ai.obj
 0001:000406b0       ??$_Debug_range@PAH@std@@YAXPAH0PB_WI@Z 004416b0 f i game_ai.obj
 0001:00040720       ??$_Copy_backward_opt@PAHPAHUrandom_access_iterator_tag@std@@@std@@YAPAHPAH00Urandom_access_iterator_tag@0@U_Scalar_ptr_iterator_tag@0@U_Range_checked_iterator_tag@0@@Z 00441720 f i game_ai.obj
 0001:000407d0       ??$_Iter_cat@V?$_Vector_iterator@HV?$allocator@H@std@@@std@@@std@@YA?AUrandom_access_iterator_tag@0@ABV?$_Vector_iterator@HV?$allocator@H@std@@@0@@Z 004417d0 f i game_ai.obj
 0001:00040830       ??$_Debug_range2@V?$_Vector_iterator@HV?$allocator@H@std@@@std@@@std@@YAXV?$_Vector_iterator@HV?$allocator@H@std@@@0@0PB_WIUrandom_access_iterator_tag@0@@Z 00441830 f i game_ai.obj
 0001:00040920       ??$swap@H@std@@YAXAAH0@Z   00441920 f i game_ai.obj
 0001:00040970       ??$_Iter_cat@PAH@std@@YA?AUrandom_access_iterator_tag@0@ABQAH@Z 00441970 f i game_ai.obj
 0001:000409d0       ??$_Fill_n@PAHIH@std@@YAXPAHIABHUrandom_access_iterator_tag@0@U_Range_checked_iterator_tag@0@@Z 004419d0 f i game_ai.obj
 0001:00040a40       ??$unchecked_uninitialized_copy@PAHPAHV?$allocator@H@std@@@stdext@@YAPAHPAH00AAV?$allocator@H@std@@@Z 00441a40 f i game_ai.obj
 0001:00040ad0       ??$_Debug_range2@PAH@std@@YAXPAH0PB_WIUrandom_access_iterator_tag@0@@Z 00441ad0 f i game_ai.obj
 0001:00040b50       ??$_Debug_pointer@H@std@@YAXPAHPB_WI@Z 00441b50 f i game_ai.obj
 0001:00040ba0       ??M?$_Vector_const_iterator@HV?$allocator@H@std@@@std@@QBE_NABV01@@Z 00441ba0 f i game_ai.obj
 0001:00040c00       ??$_Debug_pointer@V?$_Vector_iterator@HV?$allocator@H@std@@@std@@@std@@YAXAAV?$_Vector_iterator@HV?$allocator@H@std@@@0@PB_WI@Z 00441c00 f i game_ai.obj
 0001:00040c30       ??$_Fill_n@PAHIH@std@@YAXPAHIABHU_Range_checked_iterator_tag@0@@Z 00441c30 f i game_ai.obj
 0001:00040c80       ??$_Uninit_copy@PAHPAHV?$allocator@H@std@@@std@@YAPAHPAH00AAV?$allocator@H@0@U_Scalar_ptr_iterator_tag@0@U_Range_checked_iterator_tag@0@@Z 00441c80 f i game_ai.obj
 0001:00040d30       ??_EGoalDrivenState@Pegas@@WBI@AEPAXI@Z 00441d30 f i game_ai.obj
 0001:00040d40       ??_EInkyChaseState@Pegas@@WBI@AEPAXI@Z 00441d40 f i game_ai.obj
 0001:00040d50       ??_EBlinkyChaseState@Pegas@@WBI@AEPAXI@Z 00441d50 f i game_ai.obj
 0001:00040d60       ??_EBaseAIState@Pegas@@WBI@AEPAXI@Z 00441d60 f i game_ai.obj
 0001:00040d70       ??_EPinkyChaseState@Pegas@@WBI@AEPAXI@Z 00441d70 f i game_ai.obj
 0001:00040d80       ??_EClydeChaseState@Pegas@@WBI@AEPAXI@Z 00441d80 f i game_ai.obj
 0001:00040d90       ??_ERunawayState@Pegas@@WBI@AEPAXI@Z 00441d90 f i game_ai.obj
 0001:00040da0       ??_EPrayState@Pegas@@WBI@AEPAXI@Z 00441da0 f i game_ai.obj
 0001:00040db0       ??0Vector3@Pegas@@QAE@XZ   00441db0 f i game_ai.obj
 0001:00040e00       ??0Vector3@Pegas@@QAE@ABV01@@Z 00441e00 f i game_ai.obj
 0001:00040e60       ??HPegas@@YA?AVVector3@0@ABV10@0@Z 00441e60 f i game_ai.obj
 0001:00040ef0       ??0Vector3@Pegas@@QAE@MMM@Z 00441ef0 f i game_ai.obj
 0001:00040f40       ??GPegas@@YA?AVVector3@0@ABV10@0@Z 00441f40 f i game_ai.obj
 0001:00040fd0       ??DPegas@@YA?AVVector3@0@ABV10@M@Z 00441fd0 f i game_ai.obj
 0001:00041060       ?length@Vector3@Pegas@@QAEMXZ 00442060 f i game_ai.obj
 0001:000410e0       ??1Process@Pegas@@UAE@XZ   004420e0 f i game_ai.obj
 0001:00041130       ?getStatus@Process@Pegas@@QBE?AW4ProcessStatus@2@XZ 00442130 f i game_ai.obj
 0001:00041160       ??_GProcess@Pegas@@UAEPAXI@Z 00442160 f i game_ai.obj
 0001:00041160       ??_EProcess@Pegas@@UAEPAXI@Z 00442160 f i game_ai.obj
 0001:000411c0       ??1?$_Container_base_aux_alloc_empty@V?$allocator@VVector3@Pegas@@@std@@@std@@IAE@XZ 004421c0 f i game_ai.obj
 0001:00041200       ??0?$allocator@VVector3@Pegas@@@std@@QAE@ABV01@@Z 00442200 f i game_ai.obj
 0001:00041230       ??0?$_Container_base_aux_alloc_empty@V?$allocator@VVector3@Pegas@@@std@@@std@@IAE@V?$allocator@VVector3@Pegas@@@1@@Z 00442230 f i game_ai.obj
 0001:00041280       ??0Character@Pegas@@QAE@H@Z 00442280 f   game_objects.obj
 0001:00041470       ?getListenerName@Character@Pegas@@UAE?AV?$basic_string@DU?$char_traits@D@std@@V?$allocator@D@2@@std@@XZ 00442470 f i game_objects.obj
 0001:000414e0       ?draw@Character@Pegas@@UAEXXZ 004424e0 f i game_objects.obj
 0001:00041510       ??_GCharacter@Pegas@@UAEPAXI@Z 00442510 f i game_objects.obj
 0001:00041510       ??_ECharacter@Pegas@@UAEPAXI@Z 00442510 f i game_objects.obj
 0001:00041570       ??_H@YGXPAXIHP6EPAX0@Z@Z   00442570 f i game_objects.obj
 0001:000415d0       ??1Character@Pegas@@UAE@XZ 004425d0 f i game_objects.obj
 0001:00041610       ?create@Character@Pegas@@UAEXPAVTileGrid@2@ABVVector3@2@@Z 00442610 f   game_objects.obj
 0001:00041770       ?getCellWidth@TileGrid@Pegas@@QBEMXZ 00442770 f i game_objects.obj
 0001:000417a0       ?destroy@Character@Pegas@@UAEXXZ 004427a0 f   game_objects.obj
 0001:000417f0       ?handleEvent@Character@Pegas@@UAEXV?$ptr@UEvent@Pegas@@@2@@Z 004427f0 f   game_objects.obj
 0001:000423e0       ?isBlocked@Character@Pegas@@QBE_NXZ 004433e0 f i game_objects.obj
 0001:00042420       ?incrementBlock@Character@Pegas@@IAEXXZ 00443420 f i game_objects.obj
 0001:00042460       ?decrementBlock@Character@Pegas@@IAEXXZ 00443460 f i game_objects.obj
 0001:000424a0       ??0Event_DirectionChanged@Pegas@@QAE@HH@Z 004434a0 f i game_objects.obj
 0001:00042500       ?getType@Event_DirectionChanged@Pegas@@UBE?AV?$basic_string@DU?$char_traits@D@std@@V?$allocator@D@2@@std@@XZ 00443500 f i game_objects.obj
 0001:00042570       ??_EEvent_DirectionChanged@Pegas@@UAEPAXI@Z 00443570 f i game_objects.obj
 0001:00042570       ??_GEvent_DirectionChanged@Pegas@@UAEPAXI@Z 00443570 f i game_objects.obj
 0001:000425d0       ??1Event_DirectionChanged@Pegas@@UAE@XZ 004435d0 f i game_objects.obj
 0001:00042610       ??0Event_CharacterStopped@Pegas@@QAE@H@Z 00443610 f i game_objects.obj
 0001:00042670       ?getType@Event_CharacterStopped@Pegas@@UBE?AV?$basic_string@DU?$char_traits@D@std@@V?$allocator@D@2@@std@@XZ 00443670 f i game_objects.obj
 0001:000426e0       ??_GEvent_CharacterStopped@Pegas@@UAEPAXI@Z 004436e0 f i game_objects.obj
 0001:000426e0       ??_EEvent_CharacterStopped@Pegas@@UAEPAXI@Z 004436e0 f i game_objects.obj
 0001:00042740       ??1Event_CharacterStopped@Pegas@@UAE@XZ 00443740 f i game_objects.obj
 0001:00042780       ??0Event_CharacterMoveOn@Pegas@@QAE@H@Z 00443780 f i game_objects.obj
 0001:000427e0       ?getType@Event_CharacterMoveOn@Pegas@@UBE?AV?$basic_string@DU?$char_traits@D@std@@V?$allocator@D@2@@std@@XZ 004437e0 f i game_objects.obj
 0001:00042850       ??_GEvent_CharacterMoveOn@Pegas@@UAEPAXI@Z 00443850 f i game_objects.obj
 0001:00042850       ??_EEvent_CharacterMoveOn@Pegas@@UAEPAXI@Z 00443850 f i game_objects.obj
 0001:000428b0       ??1Event_CharacterMoveOn@Pegas@@UAE@XZ 004438b0 f i game_objects.obj
 0001:000428f0       ??0Event_CharacterMoved@Pegas@@QAE@HABVVector3@1@HH@Z 004438f0 f i game_objects.obj
 0001:000429a0       ?getType@Event_CharacterMoved@Pegas@@UBE?AV?$basic_string@DU?$char_traits@D@std@@V?$allocator@D@2@@std@@XZ 004439a0 f i game_objects.obj
 0001:00042a10       ??_EEvent_CharacterMoved@Pegas@@UAEPAXI@Z 00443a10 f i game_objects.obj
 0001:00042a10       ??_GEvent_CharacterMoved@Pegas@@UAEPAXI@Z 00443a10 f i game_objects.obj
 0001:00042a70       ??1Event_CharacterMoved@Pegas@@UAE@XZ 00443a70 f i game_objects.obj
 0001:00042ab0       ?update@Character@Pegas@@UAEXM@Z 00443ab0 f   game_objects.obj
 0001:000433b0       ??0Event_CharacterTonnelIn@Pegas@@QAE@HHH@Z 004443b0 f i game_objects.obj
 0001:00043420       ?getType@Event_CharacterTonnelIn@Pegas@@UBE?AV?$basic_string@DU?$char_traits@D@std@@V?$allocator@D@2@@std@@XZ 00444420 f i game_objects.obj
 0001:00043490       ??_GEvent_CharacterTonnelIn@Pegas@@UAEPAXI@Z 00444490 f i game_objects.obj
 0001:00043490       ??_EEvent_CharacterTonnelIn@Pegas@@UAEPAXI@Z 00444490 f i game_objects.obj
 0001:000434f0       ??1Event_CharacterTonnelIn@Pegas@@UAE@XZ 004444f0 f i game_objects.obj
 0001:00043530       ?isObstacle@Character@Pegas@@IAE_NVVector3@2@@Z 00444530 f   game_objects.obj
 0001:000435f0       ?isObstacle@Character@Pegas@@MAE_NHH@Z 004445f0 f   game_objects.obj
 0001:00043640       ??0Pacman@Pegas@@QAE@HPAVIPlatformContext@1@@Z 00444640 f   game_objects.obj
 0001:00043700       ??_GPacman@Pegas@@UAEPAXI@Z 00444700 f i game_objects.obj
 0001:00043700       ??_EPacman@Pegas@@UAEPAXI@Z 00444700 f i game_objects.obj
 0001:00043760       ??1Pacman@Pegas@@UAE@XZ    00444760 f i game_objects.obj
 0001:000437f0       ?create@Pacman@Pegas@@UAEXPAVTileGrid@2@ABVVector3@2@@Z 004447f0 f   game_objects.obj
 0001:00043880       ?setAnimation@Pacman@Pegas@@QAEXHV?$ptr@VProcess@Pegas@@@2@@Z 00444880 f   game_objects.obj
 0001:000439a0       ?handleEvent@Pacman@Pegas@@UAEXV?$ptr@UEvent@Pegas@@@2@@Z 004449a0 f   game_objects.obj
 0001:00043e90       ??0Event_PacmanDeathComplete@Pegas@@QAE@XZ 00444e90 f i game_objects.obj
 0001:00043ee0       ?getType@Event_PacmanDeathComplete@Pegas@@UBE?AV?$basic_string@DU?$char_traits@D@std@@V?$allocator@D@2@@std@@XZ 00444ee0 f i game_objects.obj
 0001:00043f50       ??_GEvent_PacmanDeathComplete@Pegas@@UAEPAXI@Z 00444f50 f i game_objects.obj
 0001:00043f50       ??_EEvent_PacmanDeathComplete@Pegas@@UAEPAXI@Z 00444f50 f i game_objects.obj
 0001:00043fb0       ??1Event_PacmanDeathComplete@Pegas@@UAE@XZ 00444fb0 f i game_objects.obj
 0001:00043ff0       ?update@Pacman@Pegas@@UAEXM@Z 00444ff0 f   game_objects.obj
 0001:000441f0       ??0Event_PacmanSwallowedPill@Pegas@@QAE@HHH@Z 004451f0 f i game_objects.obj
 0001:00044260       ?getType@Event_PacmanSwallowedPill@Pegas@@UBE?AV?$basic_string@DU?$char_traits@D@std@@V?$allocator@D@2@@std@@XZ 00445260 f i game_objects.obj
 0001:000442d0       ??_EEvent_PacmanSwallowedPill@Pegas@@UAEPAXI@Z 004452d0 f i game_objects.obj
 0001:000442d0       ??_GEvent_PacmanSwallowedPill@Pegas@@UAEPAXI@Z 004452d0 f i game_objects.obj
 0001:00044330       ??1Event_PacmanSwallowedPill@Pegas@@UAE@XZ 00445330 f i game_objects.obj
 0001:00044370       ?draw@Pacman@Pegas@@UAEXXZ 00445370 f   game_objects.obj
 0001:000444e0       ??0Ghost@Pegas@@QAE@HPAVIPlatformContext@1@@Z 004454e0 f   game_objects.obj
 0001:000445c0       ??_GGhost@Pegas@@UAEPAXI@Z 004455c0 f i game_objects.obj
 0001:000445c0       ??_EGhost@Pegas@@UAEPAXI@Z 004455c0 f i game_objects.obj
 0001:00044620       ??1Ghost@Pegas@@UAE@XZ     00445620 f i game_objects.obj
 0001:000446b0       ?create@Ghost@Pegas@@UAEXPAVTileGrid@2@ABVVector3@2@@Z 004456b0 f   game_objects.obj
 0001:00044920       ??0Event_CharacterStateChanged@Pegas@@QAE@HH@Z 00445920 f i game_objects.obj
 0001:00044980       ?getType@Event_CharacterStateChanged@Pegas@@UBE?AV?$basic_string@DU?$char_traits@D@std@@V?$allocator@D@2@@std@@XZ 00445980 f i game_objects.obj
 0001:000449f0       ??_GEvent_CharacterStateChanged@Pegas@@UAEPAXI@Z 004459f0 f i game_objects.obj
 0001:000449f0       ??_EEvent_CharacterStateChanged@Pegas@@UAEPAXI@Z 004459f0 f i game_objects.obj
 0001:00044a50       ??1Event_CharacterStateChanged@Pegas@@UAE@XZ 00445a50 f i game_objects.obj
 0001:00044a90       ?handleEvent@Ghost@Pegas@@UAEXV?$ptr@UEvent@Pegas@@@2@@Z 00445a90 f   game_objects.obj
 0001:00045610       ??0Event_HideCharacter@Pegas@@QAE@H@Z 00446610 f i game_objects.obj
 0001:00045670       ?getType@Event_HideCharacter@Pegas@@UBE?AV?$basic_string@DU?$char_traits@D@std@@V?$allocator@D@2@@std@@XZ 00446670 f i game_objects.obj
 0001:000456e0       ??_EEvent_HideCharacter@Pegas@@UAEPAXI@Z 004466e0 f i game_objects.obj
 0001:000456e0       ??_GEvent_HideCharacter@Pegas@@UAEPAXI@Z 004466e0 f i game_objects.obj
 0001:00045740       ??1Event_HideCharacter@Pegas@@UAE@XZ 00446740 f i game_objects.obj
 0001:00045780       ?update@Ghost@Pegas@@UAEXM@Z 00446780 f   game_objects.obj
 0001:00045ab0       ??0Event_CharacterKilled@Pegas@@QAE@HABVVector3@1@@Z 00446ab0 f i game_objects.obj
 0001:00045b50       ?getType@Event_CharacterKilled@Pegas@@UBE?AV?$basic_string@DU?$char_traits@D@std@@V?$allocator@D@2@@std@@XZ 00446b50 f i game_objects.obj
 0001:00045bc0       ??_EEvent_CharacterKilled@Pegas@@UAEPAXI@Z 00446bc0 f i game_objects.obj
 0001:00045bc0       ??_GEvent_CharacterKilled@Pegas@@UAEPAXI@Z 00446bc0 f i game_objects.obj
 0001:00045c20       ??1Event_CharacterKilled@Pegas@@UAE@XZ 00446c20 f i game_objects.obj
 0001:00045c60       ?draw@Ghost@Pegas@@UAEXXZ  00446c60 f   game_objects.obj
 0001:00045d70       ?setAnimation@Ghost@Pegas@@QAEXHV?$ptr@VProcess@Pegas@@@2@@Z 00446d70 f   game_objects.obj
 0001:00045eb0       ?changeAnimation@Ghost@Pegas@@AAEXH@Z 00446eb0 f   game_objects.obj
 0001:00045ff0       ?isObstacle@Ghost@Pegas@@MAE_NHH@Z 00446ff0 f   game_objects.obj
 0001:00046090       ?getInstance@?$Singleton@VGrafManager@Pegas@@@Pegas@@SAAAVGrafManager@2@XZ 00447090 f i game_objects.obj
 0001:000460e0       ??0?$ptr@VProcess@Pegas@@@Pegas@@QAE@XZ 004470e0 f i game_objects.obj
 0001:00046120       ??4?$ptr@VProcess@Pegas@@@Pegas@@QAEAAV01@ABV01@@Z 00447120 f i game_objects.obj
 0001:00046190       ??C?$ptr@VProcess@Pegas@@@Pegas@@QBEPAVProcess@1@XZ 00447190 f i game_objects.obj
 0001:000461d0       ?get@?$ptr@VProcess@Pegas@@@Pegas@@QBEPAVProcess@2@XZ 004471d0 f i game_objects.obj
 0001:00046210       ?GetRawPointer@?$ptr@VProcess@Pegas@@@Pegas@@QBEPAVProcess@2@XZ 00447210 f i game_objects.obj
 0001:000462b0       ??$cast@UEvent_ChangeDirection@Pegas@@@Event@Pegas@@QAEPAUEvent_ChangeDirection@1@XZ 004472b0 f i game_objects.obj
 0001:000462e0       ??$?0UEvent_DirectionChanged@Pegas@@@?$ptr@UEvent@Pegas@@@Pegas@@QAE@PAUEvent_DirectionChanged@1@PAUCounter@1@@Z 004472e0 f i game_objects.obj
 0001:000463e0       ??$?0UEvent_CharacterMoveOn@Pegas@@@?$ptr@UEvent@Pegas@@@Pegas@@QAE@PAUEvent_CharacterMoveOn@1@PAUCounter@1@@Z 004473e0 f i game_objects.obj
 0001:000464e0       ??$cast@UEvent_CancelChangingDirection@Pegas@@@Event@Pegas@@QAEPAUEvent_CancelChangingDirection@1@XZ 004474e0 f i game_objects.obj
 0001:00046510       ??$cast@UEvent_EnableCharacterControl@Pegas@@@Event@Pegas@@QAEPAUEvent_EnableCharacterControl@1@XZ 00447510 f i game_objects.obj
 0001:00046540       ??$cast@UEvent_CharacterTonnelOut@Pegas@@@Event@Pegas@@QAEPAUEvent_CharacterTonnelOut@1@XZ 00447540 f i game_objects.obj
 0001:00046570       ??$?0UEvent_CharacterMoved@Pegas@@@?$ptr@UEvent@Pegas@@@Pegas@@QAE@PAUEvent_CharacterMoved@1@PAUCounter@1@@Z 00447570 f i game_objects.obj
 0001:00046670       ??$cast@UEvent_DisableCharacterControl@Pegas@@@Event@Pegas@@QAEPAUEvent_DisableCharacterControl@1@XZ 00447670 f i game_objects.obj
 0001:000466a0       ??$?0UEvent_CharacterStopped@Pegas@@@?$ptr@UEvent@Pegas@@@Pegas@@QAE@PAUEvent_CharacterStopped@1@PAUCounter@1@@Z 004476a0 f i game_objects.obj
 0001:000467a0       ??$cast@UEvent_HideCharacter@Pegas@@@Event@Pegas@@QAEPAUEvent_HideCharacter@1@XZ 004477a0 f i game_objects.obj
 0001:000467d0       ??$cast@UEvent_ShowCharacter@Pegas@@@Event@Pegas@@QAEPAUEvent_ShowCharacter@1@XZ 004477d0 f i game_objects.obj
 0001:00046800       ??$?0UEvent_CharacterTonnelIn@Pegas@@@?$ptr@UEvent@Pegas@@@Pegas@@QAE@PAUEvent_CharacterTonnelIn@1@PAUCounter@1@@Z 00447800 f i game_objects.obj
 0001:00046900       ??$cast@UEvent_CharacterMoveOn@Pegas@@@Event@Pegas@@QAEPAUEvent_CharacterMoveOn@1@XZ 00447900 f i game_objects.obj
 0001:00046930       ??$?0UEvent_PacmanDeathComplete@Pegas@@@?$ptr@UEvent@Pegas@@@Pegas@@QAE@PAUEvent_PacmanDeathComplete@1@PAUCounter@1@@Z 00447930 f i game_objects.obj
 0001:00046a30       ??$?0VWaiting@Pegas@@@?$ptr@VProcess@Pegas@@@Pegas@@QAE@PAVWaiting@1@PAUCounter@1@@Z 00447a30 f i game_objects.obj
 0001:00046b30       ??$?0UEvent_PacmanSwallowedPill@Pegas@@@?$ptr@UEvent@Pegas@@@Pegas@@QAE@PAUEvent_PacmanSwallowedPill@1@PAUCounter@1@@Z 00447b30 f i game_objects.obj
 0001:00046c30       ??$?0UEvent_CharacterStateChanged@Pegas@@@?$ptr@UEvent@Pegas@@@Pegas@@QAE@PAUEvent_CharacterStateChanged@1@PAUCounter@1@@Z 00447c30 f i game_objects.obj
 0001:00046d30       ??$cast@UEvent_CharacterChangeState@Pegas@@@Event@Pegas@@QAEPAUEvent_CharacterChangeState@1@XZ 00447d30 f i game_objects.obj
 0001:00046d60       ??$?0UEvent_HideCharacter@Pegas@@@?$ptr@UEvent@Pegas@@@Pegas@@QAE@PAUEvent_HideCharacter@1@PAUCounter@1@@Z 00447d60 f i game_objects.obj
 0001:00046e60       ??$?0UEvent_CharacterKilled@Pegas@@@?$ptr@UEvent@Pegas@@@Pegas@@QAE@PAUEvent_CharacterKilled@1@PAUCounter@1@@Z 00447e60 f i game_objects.obj
 0001:00046f60       ?dotProduct@Vector3@Pegas@@QAEMABV12@@Z 00447f60 f i game_objects.obj
 0001:00046fc0       ?getSprite@SpriteAnimation@Pegas@@QAEPAUSpriteParameters@2@XZ 00447fc0 f i game_objects.obj
 0001:00046ff0       ??0GameWorld@Pegas@@QAE@XZ 00447ff0 f   game_world.obj
 0001:000470f0       ?getListenerName@GameWorld@Pegas@@UAE?AV?$basic_string@DU?$char_traits@D@std@@V?$allocator@D@2@@std@@XZ 004480f0 f i game_world.obj
 0001:00047160       ??_GGameWorld@Pegas@@UAEPAXI@Z 00448160 f i game_world.obj
 0001:00047160       ??_EGameWorld@Pegas@@UAEPAXI@Z 00448160 f i game_world.obj
 0001:000471c0       ??1?$map@HUSpriteParameters@Pegas@@U?$less@H@std@@V?$allocator@U?$pair@$$CBHUSpriteParameters@Pegas@@@std@@@4@@std@@QAE@XZ 004481c0 f i game_world.obj
 0001:00047200       ??1GameWorld@Pegas@@UAE@XZ 00448200 f i game_world.obj
 0001:000472c0       ?create@GameWorld@Pegas@@QAEXPAVIPlatformContext@2@@Z 004482c0 f   game_world.obj
 0001:000473e0       ?destroy@GameWorld@Pegas@@QAEXPAVIPlatformContext@2@@Z 004483e0 f   game_world.obj
 0001:00047550       ??1?$_Vector_iterator@V?$ptr@VCharacter@Pegas@@@Pegas@@V?$allocator@V?$ptr@VCharacter@Pegas@@@Pegas@@@std@@@std@@QAE@XZ 00448550 f i game_world.obj
 0001:00047590       ??1?$_Vector_const_iterator@V?$ptr@VCharacter@Pegas@@@Pegas@@V?$allocator@V?$ptr@VCharacter@Pegas@@@Pegas@@@std@@@std@@QAE@XZ 00448590 f i game_world.obj
 0001:000475d0       ??1?$_Ranit@V?$ptr@VCharacter@Pegas@@@Pegas@@HPBV12@ABV12@@std@@QAE@XZ 004485d0 f i game_world.obj
 0001:00047610       ??1?$_Iterator_with_base@Urandom_access_iterator_tag@std@@V?$ptr@VCharacter@Pegas@@@Pegas@@HPBV34@ABV34@V_Iterator_base@2@@std@@QAE@XZ 00448610 f i game_world.obj
 0001:00047650       ?loadMap@GameWorld@Pegas@@AAEXXZ 00448650 f   game_world.obj
 0001:00047ca0       ?createGameObjects@GameWorld@Pegas@@AAEXXZ 00448ca0 f   game_world.obj
 0001:000497f0       ?initializeGame@GameWorld@Pegas@@AAEXXZ 0044a7f0 f   game_world.obj
 0001:00049d90       ??0Event_DisableCharacterControl@Pegas@@QAE@H@Z 0044ad90 f i game_world.obj
 0001:00049df0       ?getType@Event_DisableCharacterControl@Pegas@@UBE?AV?$basic_string@DU?$char_traits@D@std@@V?$allocator@D@2@@std@@XZ 0044adf0 f i game_world.obj
 0001:00049e60       ??_EEvent_DisableCharacterControl@Pegas@@UAEPAXI@Z 0044ae60 f i game_world.obj
 0001:00049e60       ??_GEvent_DisableCharacterControl@Pegas@@UAEPAXI@Z 0044ae60 f i game_world.obj
 0001:00049ec0       ??1Event_DisableCharacterControl@Pegas@@UAE@XZ 0044aec0 f i game_world.obj
 0001:00049f00       ??0Event_RestartGame@Pegas@@QAE@XZ 0044af00 f i game_world.obj
 0001:00049f50       ?getType@Event_RestartGame@Pegas@@UBE?AV?$basic_string@DU?$char_traits@D@std@@V?$allocator@D@2@@std@@XZ 0044af50 f i game_world.obj
 0001:00049fc0       ??_EEvent_RestartGame@Pegas@@UAEPAXI@Z 0044afc0 f i game_world.obj
 0001:00049fc0       ??_GEvent_RestartGame@Pegas@@UAEPAXI@Z 0044afc0 f i game_world.obj
 0001:0004a020       ??1Event_RestartGame@Pegas@@UAE@XZ 0044b020 f i game_world.obj
 0001:0004a060       ??0Event_HUD_LevelChanged@Pegas@@QAE@H@Z 0044b060 f i game_world.obj
 0001:0004a130       ?getType@Event_HUD_LevelChanged@Pegas@@UBE?AV?$basic_string@DU?$char_traits@D@std@@V?$allocator@D@2@@std@@XZ 0044b130 f i game_world.obj
 0001:0004a1a0       ??_EEvent_HUD_LevelChanged@Pegas@@UAEPAXI@Z 0044b1a0 f i game_world.obj
 0001:0004a1a0       ??_GEvent_HUD_LevelChanged@Pegas@@UAEPAXI@Z 0044b1a0 f i game_world.obj
 0001:0004a200       ??1Event_HUD_LevelChanged@Pegas@@UAE@XZ 0044b200 f i game_world.obj
 0001:0004a240       ??0Event_HUD_ScoresChanged@Pegas@@QAE@H@Z 0044b240 f i game_world.obj
 0001:0004a310       ?getType@Event_HUD_ScoresChanged@Pegas@@UBE?AV?$basic_string@DU?$char_traits@D@std@@V?$allocator@D@2@@std@@XZ 0044b310 f i game_world.obj
 0001:0004a380       ??_GEvent_HUD_ScoresChanged@Pegas@@UAEPAXI@Z 0044b380 f i game_world.obj
 0001:0004a380       ??_EEvent_HUD_ScoresChanged@Pegas@@UAEPAXI@Z 0044b380 f i game_world.obj
 0001:0004a3e0       ??1Event_HUD_ScoresChanged@Pegas@@UAE@XZ 0044b3e0 f i game_world.obj
 0001:0004a420       ??0Event_HUD_LivesChanged@Pegas@@QAE@H@Z 0044b420 f i game_world.obj
 0001:0004a4f0       ?getType@Event_HUD_LivesChanged@Pegas@@UBE?AV?$basic_string@DU?$char_traits@D@std@@V?$allocator@D@2@@std@@XZ 0044b4f0 f i game_world.obj
 0001:0004a560       ??_GEvent_HUD_LivesChanged@Pegas@@UAEPAXI@Z 0044b560 f i game_world.obj
 0001:0004a560       ??_EEvent_HUD_LivesChanged@Pegas@@UAEPAXI@Z 0044b560 f i game_world.obj
 0001:0004a5c0       ??1Event_HUD_LivesChanged@Pegas@@UAE@XZ 0044b5c0 f i game_world.obj
 0001:0004a600       ??0Event_HUD_GetReady@Pegas@@QAE@_N@Z 0044b600 f i game_world.obj
 0001:0004a6d0       ?getType@Event_HUD_GetReady@Pegas@@UBE?AV?$basic_string@DU?$char_traits@D@std@@V?$allocator@D@2@@std@@XZ 0044b6d0 f i game_world.obj
 0001:0004a740       ??_GEvent_HUD_GetReady@Pegas@@UAEPAXI@Z 0044b740 f i game_world.obj
 0001:0004a740       ??_EEvent_HUD_GetReady@Pegas@@UAEPAXI@Z 0044b740 f i game_world.obj
 0001:0004a7a0       ??1Event_HUD_GetReady@Pegas@@UAE@XZ 0044b7a0 f i game_world.obj
 0001:0004a7e0       ?checkNewLife@GameWorld@Pegas@@AAEXXZ 0044b7e0 f   game_world.obj
 0001:0004a980       ?restartGame@GameWorld@Pegas@@AAEXXZ 0044b980 f   game_world.obj
 0001:0004af30       ??0Event_EnableCharacterControl@Pegas@@QAE@H@Z 0044bf30 f i game_world.obj
 0001:0004af90       ?getType@Event_EnableCharacterControl@Pegas@@UBE?AV?$basic_string@DU?$char_traits@D@std@@V?$allocator@D@2@@std@@XZ 0044bf90 f i game_world.obj
 0001:0004b000       ??_EEvent_EnableCharacterControl@Pegas@@UAEPAXI@Z 0044c000 f i game_world.obj
 0001:0004b000       ??_GEvent_EnableCharacterControl@Pegas@@UAEPAXI@Z 0044c000 f i game_world.obj
 0001:0004b060       ??1Event_EnableCharacterControl@Pegas@@UAE@XZ 0044c060 f i game_world.obj
 0001:0004b0a0       ?update@GameWorld@Pegas@@QAEXPAVIPlatformContext@2@HH@Z 0044c0a0 f   game_world.obj
 0001:0004b210       ?render@GameWorld@Pegas@@QAEXPAVIPlatformContext@2@@Z 0044c210 f   game_world.obj
 0001:0004b470       ??1?$_Vector_iterator@UTunnel@GameWorld@Pegas@@V?$allocator@UTunnel@GameWorld@Pegas@@@std@@@std@@QAE@XZ 0044c470 f i game_world.obj
 0001:0004b4b0       ??1?$_Vector_const_iterator@UTunnel@GameWorld@Pegas@@V?$allocator@UTunnel@GameWorld@Pegas@@@std@@@std@@QAE@XZ 0044c4b0 f i game_world.obj
 0001:0004b4f0       ??1?$_Ranit@UTunnel@GameWorld@Pegas@@HPBU123@ABU123@@std@@QAE@XZ 0044c4f0 f i game_world.obj
 0001:0004b530       ??1?$_Iterator_with_base@Urandom_access_iterator_tag@std@@UTunnel@GameWorld@Pegas@@HPBU345@ABU345@V_Iterator_base@2@@std@@QAE@XZ 0044c530 f i game_world.obj
 0001:0004b570       ?handleEvent@GameWorld@Pegas@@UAEXV?$ptr@UEvent@Pegas@@@2@@Z 0044c570 f   game_world.obj
 0001:0004d7c0       ??0Event_CharacterTonnelOut@Pegas@@QAE@HHH@Z 0044e7c0 f i game_world.obj
 0001:0004d830       ?getType@Event_CharacterTonnelOut@Pegas@@UBE?AV?$basic_string@DU?$char_traits@D@std@@V?$allocator@D@2@@std@@XZ 0044e830 f i game_world.obj
 0001:0004d8a0       ??_EEvent_CharacterTonnelOut@Pegas@@UAEPAXI@Z 0044e8a0 f i game_world.obj
 0001:0004d8a0       ??_GEvent_CharacterTonnelOut@Pegas@@UAEPAXI@Z 0044e8a0 f i game_world.obj
 0001:0004d900       ??1Event_CharacterTonnelOut@Pegas@@UAE@XZ 0044e900 f i game_world.obj
 0001:0004d940       ??0Event_PacmanDeath@Pegas@@QAE@XZ 0044e940 f i game_world.obj
 0001:0004d990       ?getType@Event_PacmanDeath@Pegas@@UBE?AV?$basic_string@DU?$char_traits@D@std@@V?$allocator@D@2@@std@@XZ 0044e990 f i game_world.obj
 0001:0004da00       ??_GEvent_PacmanDeath@Pegas@@UAEPAXI@Z 0044ea00 f i game_world.obj
 0001:0004da00       ??_EEvent_PacmanDeath@Pegas@@UAEPAXI@Z 0044ea00 f i game_world.obj
 0001:0004da60       ??1Event_PacmanDeath@Pegas@@UAE@XZ 0044ea60 f i game_world.obj
 0001:0004daa0       ??0Event_SuperForceOn@Pegas@@QAE@XZ 0044eaa0 f i game_world.obj
 0001:0004daf0       ?getType@Event_SuperForceOn@Pegas@@UBE?AV?$basic_string@DU?$char_traits@D@std@@V?$allocator@D@2@@std@@XZ 0044eaf0 f i game_world.obj
 0001:0004db60       ??_GEvent_SuperForceOn@Pegas@@UAEPAXI@Z 0044eb60 f i game_world.obj
 0001:0004db60       ??_EEvent_SuperForceOn@Pegas@@UAEPAXI@Z 0044eb60 f i game_world.obj
 0001:0004dbc0       ??1Event_SuperForceOn@Pegas@@UAE@XZ 0044ebc0 f i game_world.obj
 0001:0004dc00       ??0Event_SuperForceOff@Pegas@@QAE@XZ 0044ec00 f i game_world.obj
 0001:0004dc50       ?getType@Event_SuperForceOff@Pegas@@UBE?AV?$basic_string@DU?$char_traits@D@std@@V?$allocator@D@2@@std@@XZ 0044ec50 f i game_world.obj
 0001:0004dcc0       ??_EEvent_SuperForceOff@Pegas@@UAEPAXI@Z 0044ecc0 f i game_world.obj
 0001:0004dcc0       ??_GEvent_SuperForceOff@Pegas@@UAEPAXI@Z 0044ecc0 f i game_world.obj
 0001:0004dd20       ??1Event_SuperForceOff@Pegas@@UAE@XZ 0044ed20 f i game_world.obj
 0001:0004dd60       ??0Event_SuperForcePreOff@Pegas@@QAE@XZ 0044ed60 f i game_world.obj
 0001:0004ddb0       ?getType@Event_SuperForcePreOff@Pegas@@UBE?AV?$basic_string@DU?$char_traits@D@std@@V?$allocator@D@2@@std@@XZ 0044edb0 f i game_world.obj
 0001:0004de20       ??_EEvent_SuperForcePreOff@Pegas@@UAEPAXI@Z 0044ee20 f i game_world.obj
 0001:0004de20       ??_GEvent_SuperForcePreOff@Pegas@@UAEPAXI@Z 0044ee20 f i game_world.obj
 0001:0004de80       ??1Event_SuperForcePreOff@Pegas@@UAE@XZ 0044ee80 f i game_world.obj
 0001:0004dec0       ??0Event_ResetActors@Pegas@@QAE@XZ 0044eec0 f i game_world.obj
 0001:0004df10       ?getType@Event_ResetActors@Pegas@@UBE?AV?$basic_string@DU?$char_traits@D@std@@V?$allocator@D@2@@std@@XZ 0044ef10 f i game_world.obj
 0001:0004df80       ??_EEvent_ResetActors@Pegas@@UAEPAXI@Z 0044ef80 f i game_world.obj
 0001:0004df80       ??_GEvent_ResetActors@Pegas@@UAEPAXI@Z 0044ef80 f i game_world.obj
 0001:0004dfe0       ??1Event_ResetActors@Pegas@@UAE@XZ 0044efe0 f i game_world.obj
 0001:0004e020       ??0Event_HUD_NewLevel@Pegas@@QAE@HM@Z 0044f020 f i game_world.obj
 0001:0004e100       ?getType@Event_HUD_NewLevel@Pegas@@UBE?AV?$basic_string@DU?$char_traits@D@std@@V?$allocator@D@2@@std@@XZ 0044f100 f i game_world.obj
 0001:0004e170       ??_EEvent_HUD_NewLevel@Pegas@@UAEPAXI@Z 0044f170 f i game_world.obj
 0001:0004e170       ??_GEvent_HUD_NewLevel@Pegas@@UAEPAXI@Z 0044f170 f i game_world.obj
 0001:0004e1d0       ??1Event_HUD_NewLevel@Pegas@@UAE@XZ 0044f1d0 f i game_world.obj
 0001:0004e210       ??0Event_HUD_Frag@Pegas@@QAE@HABVVector3@1@@Z 0044f210 f i game_world.obj
 0001:0004e300       ?getType@Event_HUD_Frag@Pegas@@UBE?AV?$basic_string@DU?$char_traits@D@std@@V?$allocator@D@2@@std@@XZ 0044f300 f i game_world.obj
 0001:0004e370       ??_EEvent_HUD_Frag@Pegas@@UAEPAXI@Z 0044f370 f i game_world.obj
 0001:0004e370       ??_GEvent_HUD_Frag@Pegas@@UAEPAXI@Z 0044f370 f i game_world.obj
 0001:0004e3d0       ??1Event_HUD_Frag@Pegas@@UAE@XZ 0044f3d0 f i game_world.obj
 0001:0004e410       ??0Event_HUD_GameOver@Pegas@@QAE@_N@Z 0044f410 f i game_world.obj
 0001:0004e4e0       ?getType@Event_HUD_GameOver@Pegas@@UBE?AV?$basic_string@DU?$char_traits@D@std@@V?$allocator@D@2@@std@@XZ 0044f4e0 f i game_world.obj
 0001:0004e550       ??_GEvent_HUD_GameOver@Pegas@@UAEPAXI@Z 0044f550 f i game_world.obj
 0001:0004e550       ??_EEvent_HUD_GameOver@Pegas@@UAEPAXI@Z 0044f550 f i game_world.obj
 0001:0004e5b0       ??1Event_HUD_GameOver@Pegas@@UAE@XZ 0044f5b0 f i game_world.obj
 0001:0004e5f0       ??0?$ptr@VProcess@Pegas@@@Pegas@@QAE@PAVProcess@1@PAUCounter@1@@Z 0044f5f0 f i game_world.obj
 0001:0004e6f0       ??0?$vector@V?$ptr@VCharacter@Pegas@@@Pegas@@V?$allocator@V?$ptr@VCharacter@Pegas@@@Pegas@@@std@@@std@@QAE@XZ 0044f6f0 f i game_world.obj
 0001:0004e790       ??1?$vector@V?$ptr@VCharacter@Pegas@@@Pegas@@V?$allocator@V?$ptr@VCharacter@Pegas@@@Pegas@@@std@@@std@@QAE@XZ 0044f790 f i game_world.obj
 0001:0004e810       ?begin@?$vector@V?$ptr@VCharacter@Pegas@@@Pegas@@V?$allocator@V?$ptr@VCharacter@Pegas@@@Pegas@@@std@@@std@@QAE?AV?$_Vector_iterator@V?$ptr@VCharacter@Pegas@@@Pegas@@V?$allocator@V?$ptr@VCharacter@Pegas@@@Pegas@@@std@@@2@XZ 0044f810 f i game_world.obj
 0001:0004e880       ?end@?$vector@V?$ptr@VCharacter@Pegas@@@Pegas@@V?$allocator@V?$ptr@VCharacter@Pegas@@@Pegas@@@std@@@std@@QAE?AV?$_Vector_iterator@V?$ptr@VCharacter@Pegas@@@Pegas@@V?$allocator@V?$ptr@VCharacter@Pegas@@@Pegas@@@std@@@2@XZ 0044f880 f i game_world.obj
 0001:0004e8f0       ?push_back@?$vector@V?$ptr@VCharacter@Pegas@@@Pegas@@V?$allocator@V?$ptr@VCharacter@Pegas@@@Pegas@@@std@@@std@@QAEXABV?$ptr@VCharacter@Pegas@@@Pegas@@@Z 0044f8f0 f i game_world.obj
 0001:0004ea20       ??0?$vector@UTunnel@GameWorld@Pegas@@V?$allocator@UTunnel@GameWorld@Pegas@@@std@@@std@@QAE@XZ 0044fa20 f i game_world.obj
 0001:0004eac0       ??1?$vector@UTunnel@GameWorld@Pegas@@V?$allocator@UTunnel@GameWorld@Pegas@@@std@@@std@@QAE@XZ 0044fac0 f i game_world.obj
 0001:0004eb40       ?begin@?$vector@UTunnel@GameWorld@Pegas@@V?$allocator@UTunnel@GameWorld@Pegas@@@std@@@std@@QAE?AV?$_Vector_iterator@UTunnel@GameWorld@Pegas@@V?$allocator@UTunnel@GameWorld@Pegas@@@std@@@2@XZ 0044fb40 f i game_world.obj
 0001:0004ebb0       ?end@?$vector@UTunnel@GameWorld@Pegas@@V?$allocator@UTunnel@GameWorld@Pegas@@@std@@@std@@QAE?AV?$_Vector_iterator@UTunnel@GameWorld@Pegas@@V?$allocator@UTunnel@GameWorld@Pegas@@@std@@@2@XZ 0044fbb0 f i game_world.obj
 0001:0004ec20       ?size@?$vector@UTunnel@GameWorld@Pegas@@V?$allocator@UTunnel@GameWorld@Pegas@@@std@@@std@@QBEIXZ 0044fc20 f i game_world.obj
 0001:0004ec60       ??A?$vector@UTunnel@GameWorld@Pegas@@V?$allocator@UTunnel@GameWorld@Pegas@@@std@@@std@@QAEAAUTunnel@GameWorld@Pegas@@I@Z 0044fc60 f i game_world.obj
 0001:0004ed60       ?push_back@?$vector@UTunnel@GameWorld@Pegas@@V?$allocator@UTunnel@GameWorld@Pegas@@@std@@@std@@QAEXABUTunnel@GameWorld@Pegas@@@Z 0044fd60 f i game_world.obj
 0001:0004ee90       ??0?$map@HUSpriteParameters@Pegas@@U?$less@H@std@@V?$allocator@U?$pair@$$CBHUSpriteParameters@Pegas@@@std@@@4@@std@@QAE@XZ 0044fe90 f i game_world.obj
 0001:0004eef0       ??A?$map@HUSpriteParameters@Pegas@@U?$less@H@std@@V?$allocator@U?$pair@$$CBHUSpriteParameters@Pegas@@@std@@@4@@std@@QAEAAUSpriteParameters@Pegas@@ABH@Z 0044fef0 f i game_world.obj
 0001:0004f110       ??1?$_Tree@V?$_Tmap_traits@HUSpriteParameters@Pegas@@U?$less@H@std@@V?$allocator@U?$pair@$$CBHUSpriteParameters@Pegas@@@std@@@4@$0A@@std@@@std@@QAE@XZ 00450110 f i game_world.obj
 0001:0004f190       ?count@?$_Tree@V?$_Tmap_traits@HUSpriteParameters@Pegas@@U?$less@H@std@@V?$allocator@U?$pair@$$CBHUSpriteParameters@Pegas@@@std@@@4@$0A@@std@@@std@@QBEIABH@Z 00450190 f i game_world.obj
 0001:0004f2c0       ??D?$_Vector_iterator@V?$ptr@VCharacter@Pegas@@@Pegas@@V?$allocator@V?$ptr@VCharacter@Pegas@@@Pegas@@@std@@@std@@QBEAAV?$ptr@VCharacter@Pegas@@@Pegas@@XZ 004502c0 f i game_world.obj
 0001:0004f300       ??E?$_Vector_iterator@V?$ptr@VCharacter@Pegas@@@Pegas@@V?$allocator@V?$ptr@VCharacter@Pegas@@@Pegas@@@std@@@std@@QAEAAV01@XZ 00450300 f i game_world.obj
 0001:0004f350       ??9?$_Vector_const_iterator@V?$ptr@VCharacter@Pegas@@@Pegas@@V?$allocator@V?$ptr@VCharacter@Pegas@@@Pegas@@@std@@@std@@QBE_NABV01@@Z 00450350 f i game_world.obj
 0001:0004f3a0       ??1?$ptr@VCharacter@Pegas@@@Pegas@@QAE@XZ 004503a0 f i game_world.obj
 0001:0004f3e0       ??C?$ptr@VCharacter@Pegas@@@Pegas@@QBEPAVCharacter@1@XZ 004503e0 f i game_world.obj
 0001:0004f420       ?end@?$list@VVector3@Pegas@@V?$allocator@VVector3@Pegas@@@std@@@std@@QAE?AV?$_Iterator@$00@12@XZ 00450420 f i game_world.obj
 0001:0004f490       ??E?$_Iterator@$00@?$list@VVector3@Pegas@@V?$allocator@VVector3@Pegas@@@std@@@std@@QAEAAV012@XZ 00450490 f i game_world.obj
 0001:0004f4e0       ??9?$_Const_iterator@$00@?$list@VVector3@Pegas@@V?$allocator@VVector3@Pegas@@@std@@@std@@QBE_NABV012@@Z 004504e0 f i game_world.obj
 0001:0004f530       ??D?$_Vector_iterator@UTunnel@GameWorld@Pegas@@V?$allocator@UTunnel@GameWorld@Pegas@@@std@@@std@@QBEAAUTunnel@GameWorld@Pegas@@XZ 00450530 f i game_world.obj
 0001:0004f570       ??E?$_Vector_iterator@UTunnel@GameWorld@Pegas@@V?$allocator@UTunnel@GameWorld@Pegas@@@std@@@std@@QAEAAV01@XZ 00450570 f i game_world.obj
 0001:0004f5c0       ??9?$_Vector_const_iterator@UTunnel@GameWorld@Pegas@@V?$allocator@UTunnel@GameWorld@Pegas@@@std@@@std@@QBE_NABV01@@Z 004505c0 f i game_world.obj
 0001:0004f610       ??0?$FaderProcess@UEvent_GUI_StartFadein@Pegas@@UEvent_GUI_FadeinComplete@2@@Pegas@@QAE@M@Z 00450610 f i game_world.obj
 0001:0004f6f0       ?handleEvent@?$FaderProcess@UEvent_GUI_StartFadein@Pegas@@UEvent_GUI_FadeinComplete@2@@Pegas@@UAEXV?$ptr@UEvent@Pegas@@@2@@Z 004506f0 f i game_world.obj
 0001:0004f800       ?getListenerName@?$FaderProcess@UEvent_GUI_StartFadein@Pegas@@UEvent_GUI_FadeinComplete@2@@Pegas@@UAE?AV?$basic_string@DU?$char_traits@D@std@@V?$allocator@D@2@@std@@XZ 00450800 f i game_world.obj
 0001:0004f870       ?start@?$FaderProcess@UEvent_GUI_StartFadein@Pegas@@UEvent_GUI_FadeinComplete@2@@Pegas@@UAEXHPAVProcessManager@2@@Z 00450870 f i game_world.obj
 0001:0004f990       ?update@?$FaderProcess@UEvent_GUI_StartFadein@Pegas@@UEvent_GUI_FadeinComplete@2@@Pegas@@UAEXH@Z 00450990 f i game_world.obj
 0001:0004f9c0       ??1?$_Vector_val@V?$ptr@VCharacter@Pegas@@@Pegas@@V?$allocator@V?$ptr@VCharacter@Pegas@@@Pegas@@@std@@@std@@QAE@XZ 004509c0 f i game_world.obj
 0001:0004fa00       ??0?$_Vector_const_iterator@V?$ptr@VCharacter@Pegas@@@Pegas@@V?$allocator@V?$ptr@VCharacter@Pegas@@@Pegas@@@std@@@std@@QAE@ABV01@@Z 00450a00 f i game_world.obj
 0001:0004fa60       ??1?$_Vector_val@UTunnel@GameWorld@Pegas@@V?$allocator@UTunnel@GameWorld@Pegas@@@std@@@std@@QAE@XZ 00450a60 f i game_world.obj
 0001:0004faa0       ??0?$_Vector_const_iterator@UTunnel@GameWorld@Pegas@@V?$allocator@UTunnel@GameWorld@Pegas@@@std@@@std@@QAE@ABV01@@Z 00450aa0 f i game_world.obj
 0001:0004fb00       ??1iterator@?$_Tree@V?$_Tmap_traits@HUSpriteParameters@Pegas@@U?$less@H@std@@V?$allocator@U?$pair@$$CBHUSpriteParameters@Pegas@@@std@@@4@$0A@@std@@@std@@QAE@XZ 00450b00 f i game_world.obj
 0001:0004fb40       ??0const_iterator@?$_Tree@V?$_Tmap_traits@HUSpriteParameters@Pegas@@U?$less@H@std@@V?$allocator@U?$pair@$$CBHUSpriteParameters@Pegas@@@std@@@4@$0A@@std@@@std@@QAE@ABV012@@Z 00450b40 f i game_world.obj
 0001:0004fba0       ??1const_iterator@?$_Tree@V?$_Tmap_traits@HUSpriteParameters@Pegas@@U?$less@H@std@@V?$allocator@U?$pair@$$CBHUSpriteParameters@Pegas@@@std@@@4@$0A@@std@@@std@@QAE@XZ 00450ba0 f i game_world.obj
 0001:0004fbe0       ??4iterator@?$_Tree@V?$_Tmap_traits@HUSpriteParameters@Pegas@@U?$less@H@std@@V?$allocator@U?$pair@$$CBHUSpriteParameters@Pegas@@@std@@@4@$0A@@std@@@std@@QAEAAV012@ABV012@@Z 00450be0 f i game_world.obj
 0001:0004fc30       ??1?$_Tree_val@V?$_Tmap_traits@HUSpriteParameters@Pegas@@U?$less@H@std@@V?$allocator@U?$pair@$$CBHUSpriteParameters@Pegas@@@std@@@4@$0A@@std@@@std@@QAE@XZ 00450c30 f i game_world.obj
 0001:0004fc70       ??1?$pair@Vconst_iterator@?$_Tree@V?$_Tmap_traits@HUSpriteParameters@Pegas@@U?$less@H@std@@V?$allocator@U?$pair@$$CBHUSpriteParameters@Pegas@@@std@@@4@$0A@@std@@@std@@V123@@std@@QAE@XZ 00450c70 f i game_world.obj
 0001:0004fd00       ??_E?$FaderProcess@UEvent_GUI_StartFadein@Pegas@@UEvent_GUI_FadeinComplete@2@@Pegas@@UAEPAXI@Z 00450d00 f i game_world.obj
 0001:0004fd00       ??_G?$FaderProcess@UEvent_GUI_StartFadein@Pegas@@UEvent_GUI_FadeinComplete@2@@Pegas@@UAEPAXI@Z 00450d00 f i game_world.obj
 0001:0004fd60       ??1?$FaderProcess@UEvent_GUI_StartFadein@Pegas@@UEvent_GUI_FadeinComplete@2@@Pegas@@UAE@XZ 00450d60 f i game_world.obj
 0001:0004fe30       ??0?$_Ranit@V?$ptr@VCharacter@Pegas@@@Pegas@@HPBV12@ABV12@@std@@QAE@ABU01@@Z 00450e30 f i game_world.obj
 0001:0004fe80       ??0?$_Ranit@UTunnel@GameWorld@Pegas@@HPBU123@ABU123@@std@@QAE@ABU01@@Z 00450e80 f i game_world.obj
 0001:0004fed0       ??0?$_Bidit@U?$pair@$$CBHUSpriteParameters@Pegas@@@std@@HPBU12@ABU12@@std@@QAE@ABU01@@Z 00450ed0 f i game_world.obj
 0001:0004ff20       ??1?$_Bidit@U?$pair@$$CBHUSpriteParameters@Pegas@@@std@@HPBU12@ABU12@@std@@QAE@XZ 00450f20 f i game_world.obj
 0001:0004ff60       ??4const_iterator@?$_Tree@V?$_Tmap_traits@HUSpriteParameters@Pegas@@U?$less@H@std@@V?$allocator@U?$pair@$$CBHUSpriteParameters@Pegas@@@std@@@4@$0A@@std@@@std@@QAEAAV012@ABV012@@Z 00450f60 f i game_world.obj
 0001:0004ffc0       ??1?$_Tree_ptr@V?$_Tmap_traits@HUSpriteParameters@Pegas@@U?$less@H@std@@V?$allocator@U?$pair@$$CBHUSpriteParameters@Pegas@@@std@@@4@$0A@@std@@@std@@QAE@XZ 00450fc0 f i game_world.obj
 0001:00050000       ??0?$_Iterator_with_base@Urandom_access_iterator_tag@std@@V?$ptr@VCharacter@Pegas@@@Pegas@@HPBV34@ABV34@V_Iterator_base@2@@std@@QAE@ABU01@@Z 00451000 f i game_world.obj
 0001:00050050       ??0?$_Iterator_with_base@Urandom_access_iterator_tag@std@@UTunnel@GameWorld@Pegas@@HPBU345@ABU345@V_Iterator_base@2@@std@@QAE@ABU01@@Z 00451050 f i game_world.obj
 0001:000500a0       ??0?$_Iterator_with_base@Ubidirectional_iterator_tag@std@@U?$pair@$$CBHUSpriteParameters@Pegas@@@2@HPBU32@ABU32@V_Iterator_base@2@@std@@QAE@ABU01@@Z 004510a0 f i game_world.obj
 0001:000500f0       ??1?$_Iterator_with_base@Ubidirectional_iterator_tag@std@@U?$pair@$$CBHUSpriteParameters@Pegas@@@2@HPBU32@ABU32@V_Iterator_base@2@@std@@QAE@XZ 004510f0 f i game_world.obj
 0001:00050130       ??4?$_Bidit@U?$pair@$$CBHUSpriteParameters@Pegas@@@std@@HPBU12@ABU12@@std@@QAEAAU01@ABU01@@Z 00451130 f i game_world.obj
 0001:00050180       ??1?$_Tree_nod@V?$_Tmap_traits@HUSpriteParameters@Pegas@@U?$less@H@std@@V?$allocator@U?$pair@$$CBHUSpriteParameters@Pegas@@@std@@@4@$0A@@std@@@std@@QAE@XZ 00451180 f i game_world.obj
 0001:000501c0       ??4?$_Iterator_with_base@Ubidirectional_iterator_tag@std@@U?$pair@$$CBHUSpriteParameters@Pegas@@@2@HPBU32@ABU32@V_Iterator_base@2@@std@@QAEAAU01@ABU01@@Z 004511c0 f i game_world.obj
 0001:00050210       ??1?$_Tmap_traits@HUSpriteParameters@Pegas@@U?$less@H@std@@V?$allocator@U?$pair@$$CBHUSpriteParameters@Pegas@@@std@@@4@$0A@@std@@QAE@XZ 00451210 f i game_world.obj
 0001:00050250       ?capacity@?$vector@V?$ptr@VCharacter@Pegas@@@Pegas@@V?$allocator@V?$ptr@VCharacter@Pegas@@@Pegas@@@std@@@std@@QBEIXZ 00451250 f i game_world.obj
 0001:000502b0       ?size@?$vector@V?$ptr@VCharacter@Pegas@@@Pegas@@V?$allocator@V?$ptr@VCharacter@Pegas@@@Pegas@@@std@@@std@@QBEIXZ 004512b0 f i game_world.obj
 0001:000502f0       ?insert@?$vector@V?$ptr@VCharacter@Pegas@@@Pegas@@V?$allocator@V?$ptr@VCharacter@Pegas@@@Pegas@@@std@@@std@@QAE?AV?$_Vector_iterator@V?$ptr@VCharacter@Pegas@@@Pegas@@V?$allocator@V?$ptr@VCharacter@Pegas@@@Pegas@@@std@@@2@V?$_Vector_const_iterator@V?$ptr@VCharacter@Pegas@@@Pegas@@V?$allocator@V?$ptr@VCharacter@Pegas@@@Pegas@@@std@@@2@ABV?$ptr@VCharacter@Pegas@@@Pegas@@@Z 004512f0 f i game_world.obj
 0001:00050480       ?_Buy@?$vector@V?$ptr@VCharacter@Pegas@@@Pegas@@V?$allocator@V?$ptr@VCharacter@Pegas@@@Pegas@@@std@@@std@@IAE_NI@Z 00451480 f i game_world.obj
 0001:00050530       ?_Tidy@?$vector@V?$ptr@VCharacter@Pegas@@@Pegas@@V?$allocator@V?$ptr@VCharacter@Pegas@@@Pegas@@@std@@@std@@IAEXXZ 00451530 f i game_world.obj
 0001:000505d0       ?_Ufill@?$vector@V?$ptr@VCharacter@Pegas@@@Pegas@@V?$allocator@V?$ptr@VCharacter@Pegas@@@Pegas@@@std@@@std@@IAEPAV?$ptr@VCharacter@Pegas@@@Pegas@@PAV34@IABV34@@Z 004515d0 f i game_world.obj
 0001:00050630       ?_Orphan_range@?$vector@V?$ptr@VCharacter@Pegas@@@Pegas@@V?$allocator@V?$ptr@VCharacter@Pegas@@@Pegas@@@std@@@std@@IBEXPAV?$ptr@VCharacter@Pegas@@@Pegas@@0@Z 00451630 f i game_world.obj
 0001:00050700       ??0?$_Vector_val@V?$ptr@VCharacter@Pegas@@@Pegas@@V?$allocator@V?$ptr@VCharacter@Pegas@@@Pegas@@@std@@@std@@IAE@V?$allocator@V?$ptr@VCharacter@Pegas@@@Pegas@@@1@@Z 00451700 f i game_world.obj
 0001:00050770       ??1?$_Container_base_aux_alloc_empty@V?$allocator@V?$ptr@VCharacter@Pegas@@@Pegas@@@std@@@std@@IAE@XZ 00451770 f i game_world.obj
 0001:000507b0       ??0?$allocator@V?$ptr@VCharacter@Pegas@@@Pegas@@@std@@QAE@XZ 004517b0 f i game_world.obj
 0001:000507e0       ?capacity@?$vector@UTunnel@GameWorld@Pegas@@V?$allocator@UTunnel@GameWorld@Pegas@@@std@@@std@@QBEIXZ 004517e0 f i game_world.obj
 0001:00050840       ?insert@?$vector@UTunnel@GameWorld@Pegas@@V?$allocator@UTunnel@GameWorld@Pegas@@@std@@@std@@QAE?AV?$_Vector_iterator@UTunnel@GameWorld@Pegas@@V?$allocator@UTunnel@GameWorld@Pegas@@@std@@@2@V?$_Vector_const_iterator@UTunnel@GameWorld@Pegas@@V?$allocator@UTunnel@GameWorld@Pegas@@@std@@@2@ABUTunnel@GameWorld@Pegas@@@Z 00451840 f i game_world.obj
 0001:000509d0       ?_Buy@?$vector@UTunnel@GameWorld@Pegas@@V?$allocator@UTunnel@GameWorld@Pegas@@@std@@@std@@IAE_NI@Z 004519d0 f i game_world.obj
 0001:00050a80       ?_Tidy@?$vector@UTunnel@GameWorld@Pegas@@V?$allocator@UTunnel@GameWorld@Pegas@@@std@@@std@@IAEXXZ 00451a80 f i game_world.obj
 0001:00050b30       ?_Ufill@?$vector@UTunnel@GameWorld@Pegas@@V?$allocator@UTunnel@GameWorld@Pegas@@@std@@@std@@IAEPAUTunnel@GameWorld@Pegas@@PAU345@IABU345@@Z 00451b30 f i game_world.obj
 0001:00050b90       ?_Orphan_range@?$vector@UTunnel@GameWorld@Pegas@@V?$allocator@UTunnel@GameWorld@Pegas@@@std@@@std@@IBEXPAUTunnel@GameWorld@Pegas@@0@Z 00451b90 f i game_world.obj
 0001:00050c60       ??0?$_Vector_val@UTunnel@GameWorld@Pegas@@V?$allocator@UTunnel@GameWorld@Pegas@@@std@@@std@@IAE@V?$allocator@UTunnel@GameWorld@Pegas@@@1@@Z 00451c60 f i game_world.obj
 0001:00050cd0       ??1?$_Container_base_aux_alloc_empty@V?$allocator@UTunnel@GameWorld@Pegas@@@std@@@std@@IAE@XZ 00451cd0 f i game_world.obj
 0001:00050d10       ??0?$allocator@UTunnel@GameWorld@Pegas@@@std@@QAE@XZ 00451d10 f i game_world.obj
 0001:00050d40       ?_Key@?$_Tree@V?$_Tmap_traits@HUSpriteParameters@Pegas@@U?$less@H@std@@V?$allocator@U?$pair@$$CBHUSpriteParameters@Pegas@@@std@@@4@$0A@@std@@@std@@KAABHPAU_Node@?$_Tree_nod@V?$_Tmap_traits@HUSpriteParameters@Pegas@@U?$less@H@std@@V?$allocator@U?$pair@$$CBHUSpriteParameters@Pegas@@@std@@@4@$0A@@std@@@2@@Z 00451d40 f i game_world.obj
 0001:00050d90       ??0?$_Tree@V?$_Tmap_traits@HUSpriteParameters@Pegas@@U?$less@H@std@@V?$allocator@U?$pair@$$CBHUSpriteParameters@Pegas@@@std@@@4@$0A@@std@@@std@@QAE@ABU?$less@H@1@ABV?$allocator@U?$pair@$$CBHUSpriteParameters@Pegas@@@std@@@1@@Z 00451d90 f i game_world.obj
 0001:00050e30       ?end@?$_Tree@V?$_Tmap_traits@HUSpriteParameters@Pegas@@U?$less@H@std@@V?$allocator@U?$pair@$$CBHUSpriteParameters@Pegas@@@std@@@4@$0A@@std@@@std@@QAE?AViterator@12@XZ 00451e30 f i game_world.obj
 0001:00050ea0       ?insert@?$_Tree@V?$_Tmap_traits@HUSpriteParameters@Pegas@@U?$less@H@std@@V?$allocator@U?$pair@$$CBHUSpriteParameters@Pegas@@@std@@@4@$0A@@std@@@std@@QAE?AViterator@12@Vconst_iterator@12@ABU?$pair@$$CBHUSpriteParameters@Pegas@@@2@@Z 00451ea0 f i game_world.obj
 0001:00051a70       ?lower_bound@?$_Tree@V?$_Tmap_traits@HUSpriteParameters@Pegas@@U?$less@H@std@@V?$allocator@U?$pair@$$CBHUSpriteParameters@Pegas@@@std@@@4@$0A@@std@@@std@@QAE?AViterator@12@ABH@Z 00452a70 f i game_world.obj
 0001:00051ae0       ?equal_range@?$_Tree@V?$_Tmap_traits@HUSpriteParameters@Pegas@@U?$less@H@std@@V?$allocator@U?$pair@$$CBHUSpriteParameters@Pegas@@@std@@@4@$0A@@std@@@std@@QBE?AU?$pair@Vconst_iterator@?$_Tree@V?$_Tmap_traits@HUSpriteParameters@Pegas@@U?$less@H@std@@V?$allocator@U?$pair@$$CBHUSpriteParameters@Pegas@@@std@@@4@$0A@@std@@@std@@V123@@2@ABH@Z 00452ae0 f i game_world.obj
 0001:00051b50       ?_Tidy@?$_Tree@V?$_Tmap_traits@HUSpriteParameters@Pegas@@U?$less@H@std@@V?$allocator@U?$pair@$$CBHUSpriteParameters@Pegas@@@std@@@4@$0A@@std@@@std@@IAEXXZ 00452b50 f i game_world.obj
 0001:00051d10       ??1?$_Container_base_aux_alloc_empty@V?$allocator@U?$pair@$$CBHUSpriteParameters@Pegas@@@std@@@std@@@std@@IAE@XZ 00452d10 f i game_world.obj
 0001:00051d50       ??0?$allocator@U?$pair@$$CBHUSpriteParameters@Pegas@@@std@@@std@@QAE@XZ 00452d50 f i game_world.obj
 0001:00051d80       ??0?$_Vector_iterator@V?$ptr@VCharacter@Pegas@@@Pegas@@V?$allocator@V?$ptr@VCharacter@Pegas@@@Pegas@@@std@@@std@@QAE@PAV?$ptr@VCharacter@Pegas@@@Pegas@@PBV_Container_base_secure@1@@Z 00452d80 f i game_world.obj
 0001:00051dd0       ??D?$_Vector_const_iterator@V?$ptr@VCharacter@Pegas@@@Pegas@@V?$allocator@V?$ptr@VCharacter@Pegas@@@Pegas@@@std@@@std@@QBEABV?$ptr@VCharacter@Pegas@@@Pegas@@XZ 00452dd0 f i game_world.obj
 0001:00051e90       ??E?$_Vector_const_iterator@V?$ptr@VCharacter@Pegas@@@Pegas@@V?$allocator@V?$ptr@VCharacter@Pegas@@@Pegas@@@std@@@std@@QAEAAV01@XZ 00452e90 f i game_world.obj
 0001:00051fb0       ??8?$_Vector_const_iterator@V?$ptr@VCharacter@Pegas@@@Pegas@@V?$allocator@V?$ptr@VCharacter@Pegas@@@Pegas@@@std@@@std@@QBE_NABV01@@Z 00452fb0 f i game_world.obj
 0001:00052010       ?GetRawPointer@?$ptr@VCharacter@Pegas@@@Pegas@@QBEPAVCharacter@2@XZ 00453010 f i game_world.obj
 0001:000520b0       ?release@?$ptr@VCharacter@Pegas@@@Pegas@@AAEXXZ 004530b0 f i game_world.obj
 0001:00052190       ??E?$_Const_iterator@$00@?$list@VVector3@Pegas@@V?$allocator@VVector3@Pegas@@@std@@@std@@QAEAAV012@XZ 00453190 f i game_world.obj
 0001:00052270       ??8?$_Const_iterator@$00@?$list@VVector3@Pegas@@V?$allocator@VVector3@Pegas@@@std@@@std@@QBE_NABV012@@Z 00453270 f i game_world.obj
 0001:000522d0       ??0?$_Vector_iterator@UTunnel@GameWorld@Pegas@@V?$allocator@UTunnel@GameWorld@Pegas@@@std@@@std@@QAE@PAUTunnel@GameWorld@Pegas@@PBV_Container_base_secure@1@@Z 004532d0 f i game_world.obj
 0001:00052320       ??D?$_Vector_const_iterator@UTunnel@GameWorld@Pegas@@V?$allocator@UTunnel@GameWorld@Pegas@@@std@@@std@@QBEABUTunnel@GameWorld@Pegas@@XZ 00453320 f i game_world.obj
 0001:000523e0       ??E?$_Vector_const_iterator@UTunnel@GameWorld@Pegas@@V?$allocator@UTunnel@GameWorld@Pegas@@@std@@@std@@QAEAAV01@XZ 004533e0 f i game_world.obj
 0001:00052500       ??8?$_Vector_const_iterator@UTunnel@GameWorld@Pegas@@V?$allocator@UTunnel@GameWorld@Pegas@@@std@@@std@@QBE_NABV01@@Z 00453500 f i game_world.obj
 0001:00052560       ??Diterator@?$_Tree@V?$_Tmap_traits@HUSpriteParameters@Pegas@@U?$less@H@std@@V?$allocator@U?$pair@$$CBHUSpriteParameters@Pegas@@@std@@@4@$0A@@std@@@std@@QBEAAU?$pair@$$CBHUSpriteParameters@Pegas@@@2@XZ 00453560 f i game_world.obj
 0001:000525a0       ??8const_iterator@?$_Tree@V?$_Tmap_traits@HUSpriteParameters@Pegas@@U?$less@H@std@@V?$allocator@U?$pair@$$CBHUSpriteParameters@Pegas@@@std@@@4@$0A@@std@@@std@@QBE_NABV012@@Z 004535a0 f i game_world.obj
 0001:00052660       ?_Mynode@const_iterator@?$_Tree@V?$_Tmap_traits@HUSpriteParameters@Pegas@@U?$less@H@std@@V?$allocator@U?$pair@$$CBHUSpriteParameters@Pegas@@@std@@@4@$0A@@std@@@std@@QBEPAU_Node@?$_Tree_nod@V?$_Tmap_traits@HUSpriteParameters@Pegas@@U?$less@H@std@@V?$allocator@U?$pair@$$CBHUSpriteParameters@Pegas@@@std@@@4@$0A@@std@@@3@XZ 00453660 f i game_world.obj
 0001:00052690       ??0?$pair@$$CBHUSpriteParameters@Pegas@@@std@@QAE@ABHABUSpriteParameters@Pegas@@@Z 00453690 f i game_world.obj
 0001:000526e0       ??1?$pair@Viterator@?$_Tree@V?$_Tmap_traits@HUSpriteParameters@Pegas@@U?$less@H@std@@V?$allocator@U?$pair@$$CBHUSpriteParameters@Pegas@@@std@@@4@$0A@@std@@@std@@_N@std@@QAE@XZ 004536e0 f i game_world.obj
 0001:00052720       ??0iterator@?$_Tree@V?$_Tmap_traits@HUSpriteParameters@Pegas@@U?$less@H@std@@V?$allocator@U?$pair@$$CBHUSpriteParameters@Pegas@@@std@@@4@$0A@@std@@@std@@QAE@ABV012@@Z 00453720 f i game_world.obj
 0001:00052770       ?max_size@?$vector@V?$ptr@VCharacter@Pegas@@@Pegas@@V?$allocator@V?$ptr@VCharacter@Pegas@@@Pegas@@@std@@@std@@QBEIXZ 00453770 f i game_world.obj
 0001:000527c0       ?_Destroy@?$vector@V?$ptr@VCharacter@Pegas@@@Pegas@@V?$allocator@V?$ptr@VCharacter@Pegas@@@Pegas@@@std@@@std@@IAEXPAV?$ptr@VCharacter@Pegas@@@Pegas@@0@Z 004537c0 f i game_world.obj
 0001:00052810       ?_Insert_n@?$vector@V?$ptr@VCharacter@Pegas@@@Pegas@@V?$allocator@V?$ptr@VCharacter@Pegas@@@Pegas@@@std@@@std@@IAEXV?$_Vector_const_iterator@V?$ptr@VCharacter@Pegas@@@Pegas@@V?$allocator@V?$ptr@VCharacter@Pegas@@@Pegas@@@std@@@2@IABV?$ptr@VCharacter@Pegas@@@Pegas@@@Z 00453810 f i game_world.obj
 0001:00052c80       ?_Xlen@?$vector@V?$ptr@VCharacter@Pegas@@@Pegas@@V?$allocator@V?$ptr@VCharacter@Pegas@@@Pegas@@@std@@@std@@KAXXZ 00453c80 f i game_world.obj
 0001:00052d30       ??0?$_Container_base_aux_alloc_empty@V?$allocator@V?$ptr@VCharacter@Pegas@@@Pegas@@@std@@@std@@IAE@V?$allocator@V?$ptr@VCharacter@Pegas@@@Pegas@@@1@@Z 00453d30 f i game_world.obj
 0001:00052d80       ??0?$allocator@V?$ptr@VCharacter@Pegas@@@Pegas@@@std@@QAE@ABV01@@Z 00453d80 f i game_world.obj
 0001:00052db0       ?deallocate@?$allocator@V?$ptr@VCharacter@Pegas@@@Pegas@@@std@@QAEXPAV?$ptr@VCharacter@Pegas@@@Pegas@@I@Z 00453db0 f i game_world.obj
 0001:00052e00       ?allocate@?$allocator@V?$ptr@VCharacter@Pegas@@@Pegas@@@std@@QAEPAV?$ptr@VCharacter@Pegas@@@Pegas@@I@Z 00453e00 f i game_world.obj
 0001:00052e50       ?max_size@?$vector@UTunnel@GameWorld@Pegas@@V?$allocator@UTunnel@GameWorld@Pegas@@@std@@@std@@QBEIXZ 00453e50 f i game_world.obj
 0001:00052ea0       ?_Destroy@?$vector@UTunnel@GameWorld@Pegas@@V?$allocator@UTunnel@GameWorld@Pegas@@@std@@@std@@IAEXPAUTunnel@GameWorld@Pegas@@0@Z 00453ea0 f i game_world.obj
 0001:00052ef0       ?_Insert_n@?$vector@UTunnel@GameWorld@Pegas@@V?$allocator@UTunnel@GameWorld@Pegas@@@std@@@std@@IAEXV?$_Vector_const_iterator@UTunnel@GameWorld@Pegas@@V?$allocator@UTunnel@GameWorld@Pegas@@@std@@@2@IABUTunnel@GameWorld@Pegas@@@Z 00453ef0 f i game_world.obj
 0001:00053390       ?_Xlen@?$vector@UTunnel@GameWorld@Pegas@@V?$allocator@UTunnel@GameWorld@Pegas@@@std@@@std@@KAXXZ 00454390 f i game_world.obj
 0001:00053440       ??0?$_Container_base_aux_alloc_empty@V?$allocator@UTunnel@GameWorld@Pegas@@@std@@@std@@IAE@V?$allocator@UTunnel@GameWorld@Pegas@@@1@@Z 00454440 f i game_world.obj
 0001:00053490       ??0?$allocator@UTunnel@GameWorld@Pegas@@@std@@QAE@ABV01@@Z 00454490 f i game_world.obj
 0001:000534c0       ?deallocate@?$allocator@UTunnel@GameWorld@Pegas@@@std@@QAEXPAUTunnel@GameWorld@Pegas@@I@Z 004544c0 f i game_world.obj
 0001:00053510       ?allocate@?$allocator@UTunnel@GameWorld@Pegas@@@std@@QAEPAUTunnel@GameWorld@Pegas@@I@Z 00454510 f i game_world.obj
 0001:00053560       ?_Isnil@?$_Tree@V?$_Tmap_traits@HUSpriteParameters@Pegas@@U?$less@H@std@@V?$allocator@U?$pair@$$CBHUSpriteParameters@Pegas@@@std@@@4@$0A@@std@@@std@@KAAADPAU_Node@?$_Tree_nod@V?$_Tmap_traits@HUSpriteParameters@Pegas@@U?$less@H@std@@V?$allocator@U?$pair@$$CBHUSpriteParameters@Pegas@@@std@@@4@$0A@@std@@@2@@Z 00454560 f i game_world.obj
 0001:00053590       ?_Left@?$_Tree@V?$_Tmap_traits@HUSpriteParameters@Pegas@@U?$less@H@std@@V?$allocator@U?$pair@$$CBHUSpriteParameters@Pegas@@@std@@@4@$0A@@std@@@std@@KAAAPAU_Node@?$_Tree_nod@V?$_Tmap_traits@HUSpriteParameters@Pegas@@U?$less@H@std@@V?$allocator@U?$pair@$$CBHUSpriteParameters@Pegas@@@std@@@4@$0A@@std@@@2@PAU342@@Z 00454590 f i game_world.obj
 0001:000535c0       ?_Parent@?$_Tree@V?$_Tmap_traits@HUSpriteParameters@Pegas@@U?$less@H@std@@V?$allocator@U?$pair@$$CBHUSpriteParameters@Pegas@@@std@@@4@$0A@@std@@@std@@KAAAPAU_Node@?$_Tree_nod@V?$_Tmap_traits@HUSpriteParameters@Pegas@@U?$less@H@std@@V?$allocator@U?$pair@$$CBHUSpriteParameters@Pegas@@@std@@@4@$0A@@std@@@2@PAU342@@Z 004545c0 f i game_world.obj
 0001:000535f0       ?_Right@?$_Tree@V?$_Tmap_traits@HUSpriteParameters@Pegas@@U?$less@H@std@@V?$allocator@U?$pair@$$CBHUSpriteParameters@Pegas@@@std@@@4@$0A@@std@@@std@@KAAAPAU_Node@?$_Tree_nod@V?$_Tmap_traits@HUSpriteParameters@Pegas@@U?$less@H@std@@V?$allocator@U?$pair@$$CBHUSpriteParameters@Pegas@@@std@@@4@$0A@@std@@@2@PAU342@@Z 004545f0 f i game_world.obj
 0001:00053620       ?_Myval@?$_Tree@V?$_Tmap_traits@HUSpriteParameters@Pegas@@U?$less@H@std@@V?$allocator@U?$pair@$$CBHUSpriteParameters@Pegas@@@std@@@4@$0A@@std@@@std@@KAAAU?$pair@$$CBHUSpriteParameters@Pegas@@@2@PAU_Node@?$_Tree_nod@V?$_Tmap_traits@HUSpriteParameters@Pegas@@U?$less@H@std@@V?$allocator@U?$pair@$$CBHUSpriteParameters@Pegas@@@std@@@4@$0A@@std@@@2@@Z 00454620 f i game_world.obj
 0001:00053650       ?begin@?$_Tree@V?$_Tmap_traits@HUSpriteParameters@Pegas@@U?$less@H@std@@V?$allocator@U?$pair@$$CBHUSpriteParameters@Pegas@@@std@@@4@$0A@@std@@@std@@QAE?AViterator@12@XZ 00454650 f i game_world.obj
 0001:000536c0       ?size@?$_Tree@V?$_Tmap_traits@HUSpriteParameters@Pegas@@U?$less@H@std@@V?$allocator@U?$pair@$$CBHUSpriteParameters@Pegas@@@std@@@4@$0A@@std@@@std@@QBEIXZ 004546c0 f i game_world.obj
 0001:000536f0       ?insert@?$_Tree@V?$_Tmap_traits@HUSpriteParameters@Pegas@@U?$less@H@std@@V?$allocator@U?$pair@$$CBHUSpriteParameters@Pegas@@@std@@@4@$0A@@std@@@std@@QAE?AU?$pair@Viterator@?$_Tree@V?$_Tmap_traits@HUSpriteParameters@Pegas@@U?$less@H@std@@V?$allocator@U?$pair@$$CBHUSpriteParameters@Pegas@@@std@@@4@$0A@@std@@@std@@_N@2@ABU?$pair@$$CBHUSpriteParameters@Pegas@@@2@@Z 004546f0 f i game_world.obj
 0001:00053ad0       ?erase@?$_Tree@V?$_Tmap_traits@HUSpriteParameters@Pegas@@U?$less@H@std@@V?$allocator@U?$pair@$$CBHUSpriteParameters@Pegas@@@std@@@4@$0A@@std@@@std@@QAE?AViterator@12@Vconst_iterator@12@0@Z 00454ad0 f i game_world.obj
 0001:00053d60       ?_Eqrange@?$_Tree@V?$_Tmap_traits@HUSpriteParameters@Pegas@@U?$less@H@std@@V?$allocator@U?$pair@$$CBHUSpriteParameters@Pegas@@@std@@@4@$0A@@std@@@std@@IBE?AU?$pair@Vconst_iterator@?$_Tree@V?$_Tmap_traits@HUSpriteParameters@Pegas@@U?$less@H@std@@V?$allocator@U?$pair@$$CBHUSpriteParameters@Pegas@@@std@@@4@$0A@@std@@@std@@V123@@2@ABH@Z 00454d60 f i game_world.obj
 0001:00054010       ?_Init@?$_Tree@V?$_Tmap_traits@HUSpriteParameters@Pegas@@U?$less@H@std@@V?$allocator@U?$pair@$$CBHUSpriteParameters@Pegas@@@std@@@4@$0A@@std@@@std@@IAEXXZ 00455010 f i game_world.obj
 0001:000540b0       ?_Insert@?$_Tree@V?$_Tmap_traits@HUSpriteParameters@Pegas@@U?$less@H@std@@V?$allocator@U?$pair@$$CBHUSpriteParameters@Pegas@@@std@@@4@$0A@@std@@@std@@IAE?AViterator@12@_NPAU_Node@?$_Tree_nod@V?$_Tmap_traits@HUSpriteParameters@Pegas@@U?$less@H@std@@V?$allocator@U?$pair@$$CBHUSpriteParameters@Pegas@@@std@@@4@$0A@@std@@@2@ABU?$pair@$$CBHUSpriteParameters@Pegas@@@2@@Z 004550b0 f i game_world.obj
 0001:00054580       ?_Lbound@?$_Tree@V?$_Tmap_traits@HUSpriteParameters@Pegas@@U?$less@H@std@@V?$allocator@U?$pair@$$CBHUSpriteParameters@Pegas@@@std@@@4@$0A@@std@@@std@@IBEPAU_Node@?$_Tree_nod@V?$_Tmap_traits@HUSpriteParameters@Pegas@@U?$less@H@std@@V?$allocator@U?$pair@$$CBHUSpriteParameters@Pegas@@@std@@@4@$0A@@std@@@2@ABH@Z 00455580 f i game_world.obj
 0001:00054650       ?_Rmost@?$_Tree@V?$_Tmap_traits@HUSpriteParameters@Pegas@@U?$less@H@std@@V?$allocator@U?$pair@$$CBHUSpriteParameters@Pegas@@@std@@@4@$0A@@std@@@std@@IBEAAPAU_Node@?$_Tree_nod@V?$_Tmap_traits@HUSpriteParameters@Pegas@@U?$less@H@std@@V?$allocator@U?$pair@$$CBHUSpriteParameters@Pegas@@@std@@@4@$0A@@std@@@2@XZ 00455650 f i game_world.obj
 0001:000546a0       ??0?$_Tree_val@V?$_Tmap_traits@HUSpriteParameters@Pegas@@U?$less@H@std@@V?$allocator@U?$pair@$$CBHUSpriteParameters@Pegas@@@std@@@4@$0A@@std@@@std@@IAE@ABU?$less@H@1@V?$allocator@U?$pair@$$CBHUSpriteParameters@Pegas@@@std@@@1@@Z 004556a0 f i game_world.obj
 0001:00054710       ?_Kfn@?$_Tmap_traits@HUSpriteParameters@Pegas@@U?$less@H@std@@V?$allocator@U?$pair@$$CBHUSpriteParameters@Pegas@@@std@@@4@$0A@@std@@SAABHABU?$pair@$$CBHUSpriteParameters@Pegas@@@2@@Z 00455710 f i game_world.obj
 0001:00054740       ??0?$allocator@U?$pair@$$CBHUSpriteParameters@Pegas@@@std@@@std@@QAE@ABV01@@Z 00455740 f i game_world.obj
 0001:00054770       ?deallocate@?$allocator@U_Node@?$_Tree_nod@V?$_Tmap_traits@HUSpriteParameters@Pegas@@U?$less@H@std@@V?$allocator@U?$pair@$$CBHUSpriteParameters@Pegas@@@std@@@4@$0A@@std@@@std@@@std@@QAEXPAU_Node@?$_Tree_nod@V?$_Tmap_traits@HUSpriteParameters@Pegas@@U?$less@H@std@@V?$allocator@U?$pair@$$CBHUSpriteParameters@Pegas@@@std@@@4@$0A@@std@@@2@I@Z 00455770 f i game_world.obj
 0001:000547c0       ?destroy@?$allocator@PAU_Node@?$_Tree_nod@V?$_Tmap_traits@HUSpriteParameters@Pegas@@U?$less@H@std@@V?$allocator@U?$pair@$$CBHUSpriteParameters@Pegas@@@std@@@4@$0A@@std@@@std@@@std@@QAEXPAPAU_Node@?$_Tree_nod@V?$_Tmap_traits@HUSpriteParameters@Pegas@@U?$less@H@std@@V?$allocator@U?$pair@$$CBHUSpriteParameters@Pegas@@@std@@@4@$0A@@std@@@2@@Z 004557c0 f i game_world.obj
 0001:00054810       ??H?$_Vector_iterator@V?$ptr@VCharacter@Pegas@@@Pegas@@V?$allocator@V?$ptr@VCharacter@Pegas@@@Pegas@@@std@@@std@@QBE?AV01@H@Z 00455810 f i game_world.obj
 0001:000548f0       ??0?$_Vector_const_iterator@V?$ptr@VCharacter@Pegas@@@Pegas@@V?$allocator@V?$ptr@VCharacter@Pegas@@@Pegas@@@std@@@std@@QAE@PAV?$ptr@VCharacter@Pegas@@@Pegas@@PBV_Container_base_secure@1@@Z 004558f0 f i game_world.obj
 0001:000549e0       ??G?$_Vector_const_iterator@V?$ptr@VCharacter@Pegas@@@Pegas@@V?$allocator@V?$ptr@VCharacter@Pegas@@@Pegas@@@std@@@std@@QBEHABV01@@Z 004559e0 f i game_world.obj
 0001:00054a40       ?_Compat@?$_Vector_const_iterator@V?$ptr@VCharacter@Pegas@@@Pegas@@V?$allocator@V?$ptr@VCharacter@Pegas@@@Pegas@@@std@@@std@@QBEXABV12@@Z 00455a40 f i game_world.obj
 0001:00054af0       ?_Compat@?$_Const_iterator@$00@?$list@VVector3@Pegas@@V?$allocator@VVector3@Pegas@@@std@@@std@@QBEXABV123@@Z 00455af0 f i game_world.obj
 0001:00054ba0       ??0SpriteParameters@Pegas@@QAE@XZ 00455ba0 f i game_world.obj
 0001:00054be0       ??H?$_Vector_iterator@UTunnel@GameWorld@Pegas@@V?$allocator@UTunnel@GameWorld@Pegas@@@std@@@std@@QBE?AV01@H@Z 00455be0 f i game_world.obj
 0001:00054cc0       ??0?$_Vector_const_iterator@UTunnel@GameWorld@Pegas@@V?$allocator@UTunnel@GameWorld@Pegas@@@std@@@std@@QAE@PAUTunnel@GameWorld@Pegas@@PBV_Container_base_secure@1@@Z 00455cc0 f i game_world.obj
 0001:00054db0       ??G?$_Vector_const_iterator@UTunnel@GameWorld@Pegas@@V?$allocator@UTunnel@GameWorld@Pegas@@@std@@@std@@QBEHABV01@@Z 00455db0 f i game_world.obj
 0001:00054e10       ?_Compat@?$_Vector_const_iterator@UTunnel@GameWorld@Pegas@@V?$allocator@UTunnel@GameWorld@Pegas@@@std@@@std@@QBEXABV12@@Z 00455e10 f i game_world.obj
 0001:00054ec0       ??0iterator@?$_Tree@V?$_Tmap_traits@HUSpriteParameters@Pegas@@U?$less@H@std@@V?$allocator@U?$pair@$$CBHUSpriteParameters@Pegas@@@std@@@4@$0A@@std@@@std@@QAE@PAU_Node@?$_Tree_nod@V?$_Tmap_traits@HUSpriteParameters@Pegas@@U?$less@H@std@@V?$allocator@U?$pair@$$CBHUSpriteParameters@Pegas@@@std@@@4@$0A@@std@@@2@PBV12@@Z 00455ec0 f i game_world.obj
 0001:00054f10       ??0const_iterator@?$_Tree@V?$_Tmap_traits@HUSpriteParameters@Pegas@@U?$less@H@std@@V?$allocator@U?$pair@$$CBHUSpriteParameters@Pegas@@@std@@@4@$0A@@std@@@std@@QAE@XZ 00455f10 f i game_world.obj
 0001:00054f60       ??Dconst_iterator@?$_Tree@V?$_Tmap_traits@HUSpriteParameters@Pegas@@U?$less@H@std@@V?$allocator@U?$pair@$$CBHUSpriteParameters@Pegas@@@std@@@4@$0A@@std@@@std@@QBEABU?$pair@$$CBHUSpriteParameters@Pegas@@@2@XZ 00455f60 f i game_world.obj
 0001:00055030       ??Econst_iterator@?$_Tree@V?$_Tmap_traits@HUSpriteParameters@Pegas@@U?$less@H@std@@V?$allocator@U?$pair@$$CBHUSpriteParameters@Pegas@@@std@@@4@$0A@@std@@@std@@QAEAAV012@XZ 00456030 f i game_world.obj
 0001:00055080       ??Fconst_iterator@?$_Tree@V?$_Tmap_traits@HUSpriteParameters@Pegas@@U?$less@H@std@@V?$allocator@U?$pair@$$CBHUSpriteParameters@Pegas@@@std@@@4@$0A@@std@@@std@@QAEAAV012@XZ 00456080 f i game_world.obj
 0001:000550d0       ??0?$_Vector_iterator@V?$ptr@VCharacter@Pegas@@@Pegas@@V?$allocator@V?$ptr@VCharacter@Pegas@@@Pegas@@@std@@@std@@QAE@ABV01@@Z 004560d0 f i game_world.obj
 0001:00055120       ??0?$_Ranit@V?$ptr@VCharacter@Pegas@@@Pegas@@HPBV12@ABV12@@std@@QAE@XZ 00456120 f i game_world.obj
 0001:00055170       ??0?$_Vector_iterator@UTunnel@GameWorld@Pegas@@V?$allocator@UTunnel@GameWorld@Pegas@@@std@@@std@@QAE@ABV01@@Z 00456170 f i game_world.obj
 0001:000551c0       ??0?$_Ranit@UTunnel@GameWorld@Pegas@@HPBU123@ABU123@@std@@QAE@XZ 004561c0 f i game_world.obj
 0001:00055210       ??0?$_Bidit@U?$pair@$$CBHUSpriteParameters@Pegas@@@std@@HPBU12@ABU12@@std@@QAE@XZ 00456210 f i game_world.obj
 0001:00055260       ??0?$_Iterator_with_base@Urandom_access_iterator_tag@std@@V?$ptr@VCharacter@Pegas@@@Pegas@@HPBV34@ABV34@V_Iterator_base@2@@std@@QAE@XZ 00456260 f i game_world.obj
 0001:000552b0       ??0?$_Iterator_with_base@Urandom_access_iterator_tag@std@@UTunnel@GameWorld@Pegas@@HPBU345@ABU345@V_Iterator_base@2@@std@@QAE@XZ 004562b0 f i game_world.obj
 0001:00055300       ??0?$_Iterator_with_base@Ubidirectional_iterator_tag@std@@U?$pair@$$CBHUSpriteParameters@Pegas@@@2@HPBU32@ABU32@V_Iterator_base@2@@std@@QAE@XZ 00456300 f i game_world.obj
 0001:00055350       ?max_size@?$allocator@V?$ptr@VCharacter@Pegas@@@Pegas@@@std@@QBEIXZ 00456350 f i game_world.obj
 0001:000553b0       ?max_size@?$allocator@UTunnel@GameWorld@Pegas@@@std@@QBEIXZ 004563b0 f i game_world.obj
 0001:00055410       ?_Color@?$_Tree@V?$_Tmap_traits@HUSpriteParameters@Pegas@@U?$less@H@std@@V?$allocator@U?$pair@$$CBHUSpriteParameters@Pegas@@@std@@@4@$0A@@std@@@std@@KAAADPAU_Node@?$_Tree_nod@V?$_Tmap_traits@HUSpriteParameters@Pegas@@U?$less@H@std@@V?$allocator@U?$pair@$$CBHUSpriteParameters@Pegas@@@std@@@4@$0A@@std@@@2@@Z 00456410 f i game_world.obj
 0001:00055440       ?_Make_iter@?$_Tree@V?$_Tmap_traits@HUSpriteParameters@Pegas@@U?$less@H@std@@V?$allocator@U?$pair@$$CBHUSpriteParameters@Pegas@@@std@@@4@$0A@@std@@@std@@QBE?AViterator@12@Vconst_iterator@12@@Z 00456440 f i game_world.obj
 0001:00055520       ?max_size@?$_Tree@V?$_Tmap_traits@HUSpriteParameters@Pegas@@U?$less@H@std@@V?$allocator@U?$pair@$$CBHUSpriteParameters@Pegas@@@std@@@4@$0A@@std@@@std@@QBEIXZ 00456520 f i game_world.obj
 0001:00055570       ?erase@?$_Tree@V?$_Tmap_traits@HUSpriteParameters@Pegas@@U?$less@H@std@@V?$allocator@U?$pair@$$CBHUSpriteParameters@Pegas@@@std@@@4@$0A@@std@@@std@@QAE?AViterator@12@Vconst_iterator@12@@Z 00456570 f i game_world.obj
 0001:00055dc0       ?clear@?$_Tree@V?$_Tmap_traits@HUSpriteParameters@Pegas@@U?$less@H@std@@V?$allocator@U?$pair@$$CBHUSpriteParameters@Pegas@@@std@@@4@$0A@@std@@@std@@QAEXXZ 00456dc0 f i game_world.obj
 0001:00055e60       ?_Lmost@?$_Tree@V?$_Tmap_traits@HUSpriteParameters@Pegas@@U?$less@H@std@@V?$allocator@U?$pair@$$CBHUSpriteParameters@Pegas@@@std@@@4@$0A@@std@@@std@@IBEAAPAU_Node@?$_Tree_nod@V?$_Tmap_traits@HUSpriteParameters@Pegas@@U?$less@H@std@@V?$allocator@U?$pair@$$CBHUSpriteParameters@Pegas@@@std@@@4@$0A@@std@@@2@XZ 00456e60 f i game_world.obj
 0001:00055eb0       ?_Lrotate@?$_Tree@V?$_Tmap_traits@HUSpriteParameters@Pegas@@U?$less@H@std@@V?$allocator@U?$pair@$$CBHUSpriteParameters@Pegas@@@std@@@4@$0A@@std@@@std@@IAEXPAU_Node@?$_Tree_nod@V?$_Tmap_traits@HUSpriteParameters@Pegas@@U?$less@H@std@@V?$allocator@U?$pair@$$CBHUSpriteParameters@Pegas@@@std@@@4@$0A@@std@@@2@@Z 00456eb0 f i game_world.obj
 0001:00056010       ?_Root@?$_Tree@V?$_Tmap_traits@HUSpriteParameters@Pegas@@U?$less@H@std@@V?$allocator@U?$pair@$$CBHUSpriteParameters@Pegas@@@std@@@4@$0A@@std@@@std@@IBEAAPAU_Node@?$_Tree_nod@V?$_Tmap_traits@HUSpriteParameters@Pegas@@U?$less@H@std@@V?$allocator@U?$pair@$$CBHUSpriteParameters@Pegas@@@std@@@4@$0A@@std@@@2@XZ 00457010 f i game_world.obj
 0001:00056060       ?_Rrotate@?$_Tree@V?$_Tmap_traits@HUSpriteParameters@Pegas@@U?$less@H@std@@V?$allocator@U?$pair@$$CBHUSpriteParameters@Pegas@@@std@@@4@$0A@@std@@@std@@IAEXPAU_Node@?$_Tree_nod@V?$_Tmap_traits@HUSpriteParameters@Pegas@@U?$less@H@std@@V?$allocator@U?$pair@$$CBHUSpriteParameters@Pegas@@@std@@@4@$0A@@std@@@2@@Z 00457060 f i game_world.obj
 0001:000561c0       ?_Buynode@?$_Tree@V?$_Tmap_traits@HUSpriteParameters@Pegas@@U?$less@H@std@@V?$allocator@U?$pair@$$CBHUSpriteParameters@Pegas@@@std@@@4@$0A@@std@@@std@@IAEPAU_Node@?$_Tree_nod@V?$_Tmap_traits@HUSpriteParameters@Pegas@@U?$less@H@std@@V?$allocator@U?$pair@$$CBHUSpriteParameters@Pegas@@@std@@@4@$0A@@std@@@2@XZ 004571c0 f i game_world.obj
 0001:00056390       ?_Buynode@?$_Tree@V?$_Tmap_traits@HUSpriteParameters@Pegas@@U?$less@H@std@@V?$allocator@U?$pair@$$CBHUSpriteParameters@Pegas@@@std@@@4@$0A@@std@@@std@@IAEPAU_Node@?$_Tree_nod@V?$_Tmap_traits@HUSpriteParameters@Pegas@@U?$less@H@std@@V?$allocator@U?$pair@$$CBHUSpriteParameters@Pegas@@@std@@@4@$0A@@std@@@2@PAU342@00ABU?$pair@$$CBHUSpriteParameters@Pegas@@@2@D@Z 00457390 f i game_world.obj
 0001:000564b0       ??0?$_Tree_ptr@V?$_Tmap_traits@HUSpriteParameters@Pegas@@U?$less@H@std@@V?$allocator@U?$pair@$$CBHUSpriteParameters@Pegas@@@std@@@4@$0A@@std@@@std@@QAE@ABU?$less@H@1@V?$allocator@U?$pair@$$CBHUSpriteParameters@Pegas@@@std@@@1@@Z 004574b0 f i game_world.obj
 0001:00056520       ??Y?$_Vector_iterator@V?$ptr@VCharacter@Pegas@@@Pegas@@V?$allocator@V?$ptr@VCharacter@Pegas@@@Pegas@@@std@@@std@@QAEAAV01@H@Z 00457520 f i game_world.obj
 0001:00056570       ??0?$ptr@VCharacter@Pegas@@@Pegas@@QAE@ABV01@@Z 00457570 f i game_world.obj
 0001:000565d0       ??Y?$_Vector_iterator@UTunnel@GameWorld@Pegas@@V?$allocator@UTunnel@GameWorld@Pegas@@@std@@@std@@QAEAAV01@H@Z 004575d0 f i game_world.obj
 0001:00056620       ??Fiterator@?$_Tree@V?$_Tmap_traits@HUSpriteParameters@Pegas@@U?$less@H@std@@V?$allocator@U?$pair@$$CBHUSpriteParameters@Pegas@@@std@@@4@$0A@@std@@@std@@QAEAAV012@XZ 00457620 f i game_world.obj
 0001:00056670       ??0const_iterator@?$_Tree@V?$_Tmap_traits@HUSpriteParameters@Pegas@@U?$less@H@std@@V?$allocator@U?$pair@$$CBHUSpriteParameters@Pegas@@@std@@@4@$0A@@std@@@std@@QAE@PAU_Node@?$_Tree_nod@V?$_Tmap_traits@HUSpriteParameters@Pegas@@U?$less@H@std@@V?$allocator@U?$pair@$$CBHUSpriteParameters@Pegas@@@std@@@4@$0A@@std@@@2@PBV12@@Z 00457670 f i game_world.obj
 0001:00056710       ??Econst_iterator@?$_Tree@V?$_Tmap_traits@HUSpriteParameters@Pegas@@U?$less@H@std@@V?$allocator@U?$pair@$$CBHUSpriteParameters@Pegas@@@std@@@4@$0A@@std@@@std@@QAE?AV012@H@Z 00457710 f i game_world.obj
 0001:000567f0       ??0Event_GUI_StartFadein@Pegas@@QAE@M@Z 004577f0 f i game_world.obj
 0001:000568c0       ??9const_iterator@?$_Tree@V?$_Tmap_traits@HUSpriteParameters@Pegas@@U?$less@H@std@@V?$allocator@U?$pair@$$CBHUSpriteParameters@Pegas@@@std@@@4@$0A@@std@@@std@@QBE_NABV012@@Z 004578c0 f i game_world.obj
 0001:00056910       ?_Dec@const_iterator@?$_Tree@V?$_Tmap_traits@HUSpriteParameters@Pegas@@U?$less@H@std@@V?$allocator@U?$pair@$$CBHUSpriteParameters@Pegas@@@std@@@4@$0A@@std@@@std@@QAEXXZ 00457910 f i game_world.obj
 0001:00056b70       ?getType@Event_GUI_StartFadein@Pegas@@UBE?AV?$basic_string@DU?$char_traits@D@std@@V?$allocator@D@2@@std@@XZ 00457b70 f i game_world.obj
 0001:00056be0       ??_EEvent_GUI_StartFadein@Pegas@@UAEPAXI@Z 00457be0 f i game_world.obj
 0001:00056be0       ??_GEvent_GUI_StartFadein@Pegas@@UAEPAXI@Z 00457be0 f i game_world.obj
 0001:00056c40       ??1Event_GUI_StartFadein@Pegas@@UAE@XZ 00457c40 f i game_world.obj
 0001:00056c80       ??0Event_GUI_FadeOn@Pegas@@QAE@H@Z 00457c80 f i game_world.obj
 0001:00056d50       ?_Inc@const_iterator@?$_Tree@V?$_Tmap_traits@HUSpriteParameters@Pegas@@U?$less@H@std@@V?$allocator@U?$pair@$$CBHUSpriteParameters@Pegas@@@std@@@4@$0A@@std@@@std@@QAEXXZ 00457d50 f i game_world.obj
 0001:00056eb0       ?getType@Event_GUI_FadeOn@Pegas@@UBE?AV?$basic_string@DU?$char_traits@D@std@@V?$allocator@D@2@@std@@XZ 00457eb0 f i game_world.obj
 0001:00056f20       ??_EEvent_GUI_FadeOn@Pegas@@UAEPAXI@Z 00457f20 f i game_world.obj
 0001:00056f20       ??_GEvent_GUI_FadeOn@Pegas@@UAEPAXI@Z 00457f20 f i game_world.obj
 0001:00056f80       ??1Event_GUI_FadeOn@Pegas@@UAE@XZ 00457f80 f i game_world.obj
 0001:00056fc0       ??0Event_GUI_FadeOff@Pegas@@QAE@XZ 00457fc0 f i game_world.obj
 0001:00057080       ??0?$pair@Vconst_iterator@?$_Tree@V?$_Tmap_traits@HUSpriteParameters@Pegas@@U?$less@H@std@@V?$allocator@U?$pair@$$CBHUSpriteParameters@Pegas@@@std@@@4@$0A@@std@@@std@@V123@@std@@QAE@ABVconst_iterator@?$_Tree@V?$_Tmap_traits@HUSpriteParameters@Pegas@@U?$less@H@std@@V?$allocator@U?$pair@$$CBHUSpriteParameters@Pegas@@@std@@@4@$0A@@std@@@1@0@Z 00458080 f i game_world.obj
 0001:00057110       ??0?$pair@Viterator@?$_Tree@V?$_Tmap_traits@HUSpriteParameters@Pegas@@U?$less@H@std@@V?$allocator@U?$pair@$$CBHUSpriteParameters@Pegas@@@std@@@4@$0A@@std@@@std@@_N@std@@QAE@ABViterator@?$_Tree@V?$_Tmap_traits@HUSpriteParameters@Pegas@@U?$less@H@std@@V?$allocator@U?$pair@$$CBHUSpriteParameters@Pegas@@@std@@@4@$0A@@std@@@1@AB_N@Z 00458110 f i game_world.obj
 0001:00057170       ?getType@Event_GUI_FadeOff@Pegas@@UBE?AV?$basic_string@DU?$char_traits@D@std@@V?$allocator@D@2@@std@@XZ 00458170 f i game_world.obj
 0001:000571e0       ??_GEvent_GUI_FadeOff@Pegas@@UAEPAXI@Z 004581e0 f i game_world.obj
 0001:000571e0       ??_EEvent_GUI_FadeOff@Pegas@@UAEPAXI@Z 004581e0 f i game_world.obj
 0001:00057240       ?_Erase@?$_Tree@V?$_Tmap_traits@HUSpriteParameters@Pegas@@U?$less@H@std@@V?$allocator@U?$pair@$$CBHUSpriteParameters@Pegas@@@std@@@4@$0A@@std@@@std@@IAEXPAU_Node@?$_Tree_nod@V?$_Tmap_traits@HUSpriteParameters@Pegas@@U?$less@H@std@@V?$allocator@U?$pair@$$CBHUSpriteParameters@Pegas@@@std@@@4@$0A@@std@@@2@@Z 00458240 f i game_world.obj
 0001:000572f0       ??1Event_GUI_FadeOff@Pegas@@UAE@XZ 004582f0 f i game_world.obj
 0001:00057330       ?_Max@?$_Tree@V?$_Tmap_traits@HUSpriteParameters@Pegas@@U?$less@H@std@@V?$allocator@U?$pair@$$CBHUSpriteParameters@Pegas@@@std@@@4@$0A@@std@@@std@@KAPAU_Node@?$_Tree_nod@V?$_Tmap_traits@HUSpriteParameters@Pegas@@U?$less@H@std@@V?$allocator@U?$pair@$$CBHUSpriteParameters@Pegas@@@std@@@4@$0A@@std@@@2@PAU342@@Z 00458330 f i game_world.obj
 0001:000573a0       ?_Min@?$_Tree@V?$_Tmap_traits@HUSpriteParameters@Pegas@@U?$less@H@std@@V?$allocator@U?$pair@$$CBHUSpriteParameters@Pegas@@@std@@@4@$0A@@std@@@std@@KAPAU_Node@?$_Tree_nod@V?$_Tmap_traits@HUSpriteParameters@Pegas@@U?$less@H@std@@V?$allocator@U?$pair@$$CBHUSpriteParameters@Pegas@@@std@@@4@$0A@@std@@@2@PAU342@@Z 004583a0 f i game_world.obj
 0001:00057410       ?_Orphan_ptr@?$_Tree@V?$_Tmap_traits@HUSpriteParameters@Pegas@@U?$less@H@std@@V?$allocator@U?$pair@$$CBHUSpriteParameters@Pegas@@@std@@@4@$0A@@std@@@std@@IBEXAAV12@PAU_Node@?$_Tree_nod@V?$_Tmap_traits@HUSpriteParameters@Pegas@@U?$less@H@std@@V?$allocator@U?$pair@$$CBHUSpriteParameters@Pegas@@@std@@@4@$0A@@std@@@2@@Z 00458410 f i game_world.obj
 0001:000574e0       ??0?$_Tree_nod@V?$_Tmap_traits@HUSpriteParameters@Pegas@@U?$less@H@std@@V?$allocator@U?$pair@$$CBHUSpriteParameters@Pegas@@@std@@@4@$0A@@std@@@std@@IAE@ABU?$less@H@1@V?$allocator@U?$pair@$$CBHUSpriteParameters@Pegas@@@std@@@1@@Z 004584e0 f i game_world.obj
 0001:00057550       ?max_size@?$allocator@U?$pair@$$CBHUSpriteParameters@Pegas@@@std@@@std@@QBEIXZ 00458550 f i game_world.obj
 0001:000575b0       ?allocate@?$allocator@U_Node@?$_Tree_nod@V?$_Tmap_traits@HUSpriteParameters@Pegas@@U?$less@H@std@@V?$allocator@U?$pair@$$CBHUSpriteParameters@Pegas@@@std@@@4@$0A@@std@@@std@@@std@@QAEPAU_Node@?$_Tree_nod@V?$_Tmap_traits@HUSpriteParameters@Pegas@@U?$less@H@std@@V?$allocator@U?$pair@$$CBHUSpriteParameters@Pegas@@@std@@@4@$0A@@std@@@2@I@Z 004585b0 f i game_world.obj
 0001:00057600       ?destroy@?$allocator@U_Node@?$_Tree_nod@V?$_Tmap_traits@HUSpriteParameters@Pegas@@U?$less@H@std@@V?$allocator@U?$pair@$$CBHUSpriteParameters@Pegas@@@std@@@4@$0A@@std@@@std@@@std@@QAEXPAU_Node@?$_Tree_nod@V?$_Tmap_traits@HUSpriteParameters@Pegas@@U?$less@H@std@@V?$allocator@U?$pair@$$CBHUSpriteParameters@Pegas@@@std@@@4@$0A@@std@@@2@@Z 00458600 f i game_world.obj
 0001:00057650       ?construct@?$allocator@PAU_Node@?$_Tree_nod@V?$_Tmap_traits@HUSpriteParameters@Pegas@@U?$less@H@std@@V?$allocator@U?$pair@$$CBHUSpriteParameters@Pegas@@@std@@@4@$0A@@std@@@std@@@std@@QAEXPAPAU_Node@?$_Tree_nod@V?$_Tmap_traits@HUSpriteParameters@Pegas@@U?$less@H@std@@V?$allocator@U?$pair@$$CBHUSpriteParameters@Pegas@@@std@@@4@$0A@@std@@@2@ABQAU342@@Z 00458650 f i game_world.obj
 0001:000576a0       ??Y?$_Vector_const_iterator@V?$ptr@VCharacter@Pegas@@@Pegas@@V?$allocator@V?$ptr@VCharacter@Pegas@@@Pegas@@@std@@@std@@QAEAAV01@H@Z 004586a0 f i game_world.obj
 0001:000577c0       ?acquire@?$ptr@VCharacter@Pegas@@@Pegas@@AAEXPAUCounter@2@@Z 004587c0 f i game_world.obj
 0001:00057810       ??Y?$_Vector_const_iterator@UTunnel@GameWorld@Pegas@@V?$allocator@UTunnel@GameWorld@Pegas@@@std@@@std@@QAEAAV01@H@Z 00458810 f i game_world.obj
 0001:00057930       ??0_Node@?$_Tree_nod@V?$_Tmap_traits@HUSpriteParameters@Pegas@@U?$less@H@std@@V?$allocator@U?$pair@$$CBHUSpriteParameters@Pegas@@@std@@@4@$0A@@std@@@std@@QAE@PAU012@00ABU?$pair@$$CBHUSpriteParameters@Pegas@@@2@D@Z 00458930 f i game_world.obj
 0001:000579a0       ??0?$_Tmap_traits@HUSpriteParameters@Pegas@@U?$less@H@std@@V?$allocator@U?$pair@$$CBHUSpriteParameters@Pegas@@@std@@@4@$0A@@std@@QAE@U?$less@H@1@V?$allocator@U?$pair@$$CBHUSpriteParameters@Pegas@@@std@@@1@@Z 004589a0 f i game_world.obj
 0001:00057a00       ??0?$_Container_base_aux_alloc_empty@V?$allocator@U?$pair@$$CBHUSpriteParameters@Pegas@@@std@@@std@@@std@@IAE@V?$allocator@U?$pair@$$CBHUSpriteParameters@Pegas@@@std@@@1@@Z 00458a00 f i game_world.obj
 0001:00057a50       ??$?0VPacman@Pegas@@@?$ptr@VCharacter@Pegas@@@Pegas@@QAE@PAVPacman@1@PAUCounter@1@@Z 00458a50 f i game_world.obj
 0001:00057b50       ??$?0VSpriteAnimation@Pegas@@@?$ptr@VProcess@Pegas@@@Pegas@@QAE@PAVSpriteAnimation@1@PAUCounter@1@@Z 00458b50 f i game_world.obj
 0001:00057c50       ??$?0VGhost@Pegas@@@?$ptr@VCharacter@Pegas@@@Pegas@@QAE@PAVGhost@1@PAUCounter@1@@Z 00458c50 f i game_world.obj
 0001:00057d50       ??$?0UEvent_HUD_LevelChanged@Pegas@@@?$ptr@UEvent@Pegas@@@Pegas@@QAE@PAUEvent_HUD_LevelChanged@1@PAUCounter@1@@Z 00458d50 f i game_world.obj
 0001:00057e50       ??$?0UEvent_HUD_ScoresChanged@Pegas@@@?$ptr@UEvent@Pegas@@@Pegas@@QAE@PAUEvent_HUD_ScoresChanged@1@PAUCounter@1@@Z 00458e50 f i game_world.obj
 0001:00057f50       ??$?0UEvent_HUD_LivesChanged@Pegas@@@?$ptr@UEvent@Pegas@@@Pegas@@QAE@PAUEvent_HUD_LivesChanged@1@PAUCounter@1@@Z 00458f50 f i game_world.obj
 0001:00058050       ??$?0UEvent_DisableCharacterControl@Pegas@@@?$ptr@UEvent@Pegas@@@Pegas@@QAE@PAUEvent_DisableCharacterControl@1@PAUCounter@1@@Z 00459050 f i game_world.obj
 0001:00058150       ??$?0UEvent_HUD_GetReady@Pegas@@@?$ptr@UEvent@Pegas@@@Pegas@@QAE@PAUEvent_HUD_GetReady@1@PAUCounter@1@@Z 00459150 f i game_world.obj
 0001:00058250       ??$?0UEvent_RestartGame@Pegas@@@?$ptr@UEvent@Pegas@@@Pegas@@QAE@PAUEvent_RestartGame@1@PAUCounter@1@@Z 00459250 f i game_world.obj
 0001:00058350       ??$?0UEvent_EnableCharacterControl@Pegas@@@?$ptr@UEvent@Pegas@@@Pegas@@QAE@PAUEvent_EnableCharacterControl@1@PAUCounter@1@@Z 00459350 f i game_world.obj
 0001:00058450       ??$cast@UEvent_PacmanSwallowedPill@Pegas@@@Event@Pegas@@QAEPAUEvent_PacmanSwallowedPill@1@XZ 00459450 f i game_world.obj
 0001:00058480       ??$?0UEvent_GUI_FadeOn@Pegas@@@?$ptr@UEvent@Pegas@@@Pegas@@QAE@PAUEvent_GUI_FadeOn@1@PAUCounter@1@@Z 00459480 f i game_world.obj
 0001:00058580       ??$?0UEvent_HUD_NewLevel@Pegas@@@?$ptr@UEvent@Pegas@@@Pegas@@QAE@PAUEvent_HUD_NewLevel@1@PAUCounter@1@@Z 00459580 f i game_world.obj
 0001:00058680       ??$?0UEvent_ResetActors@Pegas@@@?$ptr@UEvent@Pegas@@@Pegas@@QAE@PAUEvent_ResetActors@1@PAUCounter@1@@Z 00459680 f i game_world.obj
 0001:00058780       ??$?0UEvent_GUI_FadeOff@Pegas@@@?$ptr@UEvent@Pegas@@@Pegas@@QAE@PAUEvent_GUI_FadeOff@1@PAUCounter@1@@Z 00459780 f i game_world.obj
 0001:00058880       ??0ChangeStateTask@Pegas@@QAE@PAVIPlatformContext@1@H@Z 00459880 f i game_world.obj
 0001:000588e0       ??$?0UEvent_SuperForceOn@Pegas@@@?$ptr@UEvent@Pegas@@@Pegas@@QAE@PAUEvent_SuperForceOn@1@PAUCounter@1@@Z 004598e0 f i game_world.obj
 0001:000589e0       ?start@ChangeStateTask@Pegas@@UAEXHPAVProcessManager@2@@Z 004599e0 f i game_world.obj
 0001:00058a50       ?update@ChangeStateTask@Pegas@@UAEXH@Z 00459a50 f i game_world.obj
 0001:00058a80       ??$?0UEvent_SuperForceOff@Pegas@@@?$ptr@UEvent@Pegas@@@Pegas@@QAE@PAUEvent_SuperForceOff@1@PAUCounter@1@@Z 00459a80 f i game_world.obj
 0001:00058b80       ??_EChangeStateTask@Pegas@@UAEPAXI@Z 00459b80 f i game_world.obj
 0001:00058b80       ??_GChangeStateTask@Pegas@@UAEPAXI@Z 00459b80 f i game_world.obj
 0001:00058be0       ??1ChangeStateTask@Pegas@@UAE@XZ 00459be0 f i game_world.obj
 0001:00058c20       ??$?0UEvent_SuperForcePreOff@Pegas@@@?$ptr@UEvent@Pegas@@@Pegas@@QAE@PAUEvent_SuperForcePreOff@1@PAUCounter@1@@Z 00459c20 f i game_world.obj
 0001:00058d20       ??$?0UEvent_HUD_Frag@Pegas@@@?$ptr@UEvent@Pegas@@@Pegas@@QAE@PAUEvent_HUD_Frag@1@PAUCounter@1@@Z 00459d20 f i game_world.obj
 0001:00058e20       ??$cast@UEvent_CharacterTonnelIn@Pegas@@@Event@Pegas@@QAEPAUEvent_CharacterTonnelIn@1@XZ 00459e20 f i game_world.obj
 0001:00058e50       ??$?0UEvent_CharacterTonnelOut@Pegas@@@?$ptr@UEvent@Pegas@@@Pegas@@QAE@PAUEvent_CharacterTonnelOut@1@PAUCounter@1@@Z 00459e50 f i game_world.obj
 0001:00058f50       ??$cast@UEvent_CharacterKilled@Pegas@@@Event@Pegas@@QAEPAUEvent_CharacterKilled@1@XZ 00459f50 f i game_world.obj
 0001:00058f80       ??$?0UEvent_PacmanDeath@Pegas@@@?$ptr@UEvent@Pegas@@@Pegas@@QAE@PAUEvent_PacmanDeath@1@PAUCounter@1@@Z 00459f80 f i game_world.obj
 0001:00059080       ??$?0UEvent_HUD_GameOver@Pegas@@@?$ptr@UEvent@Pegas@@@Pegas@@QAE@PAUEvent_HUD_GameOver@1@PAUCounter@1@@Z 0045a080 f i game_world.obj
 0001:00059180       ??$?0V?$FaderProcess@UEvent_GUI_StartFadein@Pegas@@UEvent_GUI_FadeinComplete@2@@Pegas@@@?$ptr@VProcess@Pegas@@@Pegas@@QAE@PAV?$FaderProcess@UEvent_GUI_StartFadein@Pegas@@UEvent_GUI_FadeinComplete@2@@1@PAUCounter@1@@Z 0045a180 f i game_world.obj
 0001:00059280       ??$?0VChangeStateTask@Pegas@@@?$ptr@VProcess@Pegas@@@Pegas@@QAE@PAVChangeStateTask@1@PAUCounter@1@@Z 0045a280 f i game_world.obj
 0001:00059380       ??$cast@UEvent_BonusOn@Pegas@@@Event@Pegas@@QAEPAUEvent_BonusOn@1@XZ 0045a380 f i game_world.obj
 0001:000593b0       ??$_Distance@Vconst_iterator@?$_Tree@V?$_Tmap_traits@HUSpriteParameters@Pegas@@U?$less@H@std@@V?$allocator@U?$pair@$$CBHUSpriteParameters@Pegas@@@std@@@4@$0A@@std@@@std@@I@std@@YAXVconst_iterator@?$_Tree@V?$_Tmap_traits@HUSpriteParameters@Pegas@@U?$less@H@std@@V?$allocator@U?$pair@$$CBHUSpriteParameters@Pegas@@@std@@@4@$0A@@std@@@0@0AAI@Z 0045a3b0 f i game_world.obj
 0001:000594a0       ??$?0UEvent_GUI_StartFadein@Pegas@@@?$ptr@UEvent@Pegas@@@Pegas@@QAE@PAUEvent_GUI_StartFadein@1@PAUCounter@1@@Z 0045a4a0 f i game_world.obj
 0001:000595a0       ??$unchecked_uninitialized_fill_n@PAV?$ptr@VCharacter@Pegas@@@Pegas@@IV12@V?$allocator@V?$ptr@VCharacter@Pegas@@@Pegas@@@std@@@stdext@@YAXPAV?$ptr@VCharacter@Pegas@@@Pegas@@IABV12@AAV?$allocator@V?$ptr@VCharacter@Pegas@@@Pegas@@@std@@@Z 0045a5a0 f i game_world.obj
 0001:00059620       ??$unchecked_uninitialized_fill_n@PAUTunnel@GameWorld@Pegas@@IU123@V?$allocator@UTunnel@GameWorld@Pegas@@@std@@@stdext@@YAXPAUTunnel@GameWorld@Pegas@@IABU123@AAV?$allocator@UTunnel@GameWorld@Pegas@@@std@@@Z 0045a620 f i game_world.obj
 0001:000596a0       ??$_Destroy_range@V?$allocator@V?$ptr@VCharacter@Pegas@@@Pegas@@@std@@@std@@YAXPAV?$ptr@VCharacter@Pegas@@@Pegas@@0AAV?$allocator@V?$ptr@VCharacter@Pegas@@@Pegas@@@0@@Z 0045a6a0 f i game_world.obj
 0001:00059710       ??$_Umove@PAV?$ptr@VCharacter@Pegas@@@Pegas@@@?$vector@V?$ptr@VCharacter@Pegas@@@Pegas@@V?$allocator@V?$ptr@VCharacter@Pegas@@@Pegas@@@std@@@std@@IAEPAV?$ptr@VCharacter@Pegas@@@Pegas@@PAV23@00@Z 0045a710 f i game_world.obj
 0001:00059770       ??$fill@PAV?$ptr@VCharacter@Pegas@@@Pegas@@V12@@std@@YAXPAV?$ptr@VCharacter@Pegas@@@Pegas@@0ABV12@@Z 0045a770 f i game_world.obj
 0001:000597d0       ??$_Unchecked_move_backward@PAV?$ptr@VCharacter@Pegas@@@Pegas@@PAV12@@stdext@@YAPAV?$ptr@VCharacter@Pegas@@@Pegas@@PAV12@00@Z 0045a7d0 f i game_world.obj
 0001:00059870       ??$_Allocate@V?$ptr@VCharacter@Pegas@@@Pegas@@@std@@YAPAV?$ptr@VCharacter@Pegas@@@Pegas@@IPAV12@@Z 0045a870 f i game_world.obj
 0001:000598f0       ??$_Destroy_range@V?$allocator@UTunnel@GameWorld@Pegas@@@std@@@std@@YAXPAUTunnel@GameWorld@Pegas@@0AAV?$allocator@UTunnel@GameWorld@Pegas@@@0@@Z 0045a8f0 f i game_world.obj
 0001:00059960       ??$_Umove@PAUTunnel@GameWorld@Pegas@@@?$vector@UTunnel@GameWorld@Pegas@@V?$allocator@UTunnel@GameWorld@Pegas@@@std@@@std@@IAEPAUTunnel@GameWorld@Pegas@@PAU234@00@Z 0045a960 f i game_world.obj
 0001:000599c0       ??$fill@PAUTunnel@GameWorld@Pegas@@U123@@std@@YAXPAUTunnel@GameWorld@Pegas@@0ABU123@@Z 0045a9c0 f i game_world.obj
 0001:00059a20       ??$_Unchecked_move_backward@PAUTunnel@GameWorld@Pegas@@PAU123@@stdext@@YAPAUTunnel@GameWorld@Pegas@@PAU123@00@Z 0045aa20 f i game_world.obj
 0001:00059ac0       ??$_Allocate@UTunnel@GameWorld@Pegas@@@std@@YAPAUTunnel@GameWorld@Pegas@@IPAU123@@Z 0045aac0 f i game_world.obj
 0001:00059b40       ??$_Destroy@PAU_Node@?$_Tree_nod@V?$_Tmap_traits@HUSpriteParameters@Pegas@@U?$less@H@std@@V?$allocator@U?$pair@$$CBHUSpriteParameters@Pegas@@@std@@@4@$0A@@std@@@std@@@std@@YAXPAPAU_Node@?$_Tree_nod@V?$_Tmap_traits@HUSpriteParameters@Pegas@@U?$less@H@std@@V?$allocator@U?$pair@$$CBHUSpriteParameters@Pegas@@@std@@@4@$0A@@std@@@0@@Z 0045ab40 f i game_world.obj
 0001:00059b70       ??$?0U?$pair@$$CBHUSpriteParameters@Pegas@@@std@@@?$allocator@PAU_Node@?$_Tree_nod@V?$_Tmap_traits@HUSpriteParameters@Pegas@@U?$less@H@std@@V?$allocator@U?$pair@$$CBHUSpriteParameters@Pegas@@@std@@@4@$0A@@std@@@std@@@std@@QAE@ABV?$allocator@U?$pair@$$CBHUSpriteParameters@Pegas@@@std@@@1@@Z 0045ab70 f i game_world.obj
 0001:00059ba0       ??$?0U?$pair@$$CBHUSpriteParameters@Pegas@@@std@@@?$allocator@U_Node@?$_Tree_nod@V?$_Tmap_traits@HUSpriteParameters@Pegas@@U?$less@H@std@@V?$allocator@U?$pair@$$CBHUSpriteParameters@Pegas@@@std@@@4@$0A@@std@@@std@@@std@@QAE@ABV?$allocator@U?$pair@$$CBHUSpriteParameters@Pegas@@@std@@@1@@Z 0045aba0 f i game_world.obj
 0001:00059bd0       ??$_Allocate@U_Node@?$_Tree_nod@V?$_Tmap_traits@HUSpriteParameters@Pegas@@U?$less@H@std@@V?$allocator@U?$pair@$$CBHUSpriteParameters@Pegas@@@std@@@4@$0A@@std@@@std@@@std@@YAPAU_Node@?$_Tree_nod@V?$_Tmap_traits@HUSpriteParameters@Pegas@@U?$less@H@std@@V?$allocator@U?$pair@$$CBHUSpriteParameters@Pegas@@@std@@@4@$0A@@std@@@0@IPAU120@@Z 0045abd0 f i game_world.obj
 0001:00059c50       ??$_Destroy@U_Node@?$_Tree_nod@V?$_Tmap_traits@HUSpriteParameters@Pegas@@U?$less@H@std@@V?$allocator@U?$pair@$$CBHUSpriteParameters@Pegas@@@std@@@4@$0A@@std@@@std@@@std@@YAXPAU_Node@?$_Tree_nod@V?$_Tmap_traits@HUSpriteParameters@Pegas@@U?$less@H@std@@V?$allocator@U?$pair@$$CBHUSpriteParameters@Pegas@@@std@@@4@$0A@@std@@@0@@Z 0045ac50 f i game_world.obj
 0001:00059c80       ??$_Construct@PAU_Node@?$_Tree_nod@V?$_Tmap_traits@HUSpriteParameters@Pegas@@U?$less@H@std@@V?$allocator@U?$pair@$$CBHUSpriteParameters@Pegas@@@std@@@4@$0A@@std@@@std@@PAU123@@std@@YAXPAPAU_Node@?$_Tree_nod@V?$_Tmap_traits@HUSpriteParameters@Pegas@@U?$less@H@std@@V?$allocator@U?$pair@$$CBHUSpriteParameters@Pegas@@@std@@@4@$0A@@std@@@0@ABQAU120@@Z 0045ac80 f i game_world.obj
 0001:00059d00       ??$_Iter_cat@Vconst_iterator@?$_Tree@V?$_Tmap_traits@HUSpriteParameters@Pegas@@U?$less@H@std@@V?$allocator@U?$pair@$$CBHUSpriteParameters@Pegas@@@std@@@4@$0A@@std@@@std@@@std@@YA?AUbidirectional_iterator_tag@0@ABVconst_iterator@?$_Tree@V?$_Tmap_traits@HUSpriteParameters@Pegas@@U?$less@H@std@@V?$allocator@U?$pair@$$CBHUSpriteParameters@Pegas@@@std@@@4@$0A@@std@@@0@@Z 0045ad00 f i game_world.obj
 0001:00059d60       ??$_Distance2@Vconst_iterator@?$_Tree@V?$_Tmap_traits@HUSpriteParameters@Pegas@@U?$less@H@std@@V?$allocator@U?$pair@$$CBHUSpriteParameters@Pegas@@@std@@@4@$0A@@std@@@std@@I@std@@YAXVconst_iterator@?$_Tree@V?$_Tmap_traits@HUSpriteParameters@Pegas@@U?$less@H@std@@V?$allocator@U?$pair@$$CBHUSpriteParameters@Pegas@@@std@@@4@$0A@@std@@@0@0AAIUbidirectional_iterator_tag@0@@Z 0045ad60 f i game_world.obj
 0001:00059e10       ??$_Ptr_cat@PAV?$ptr@VCharacter@Pegas@@@Pegas@@PAV12@@std@@YA?AU_Nonscalar_ptr_iterator_tag@0@AAPAV?$ptr@VCharacter@Pegas@@@Pegas@@0@Z 0045ae10 f i game_world.obj
 0001:00059e70       ??$_Uninit_fill_n@PAV?$ptr@VCharacter@Pegas@@@Pegas@@IV12@V?$allocator@V?$ptr@VCharacter@Pegas@@@Pegas@@@std@@@std@@YAXPAV?$ptr@VCharacter@Pegas@@@Pegas@@IABV12@AAV?$allocator@V?$ptr@VCharacter@Pegas@@@Pegas@@@0@U_Nonscalar_ptr_iterator_tag@0@U_Range_checked_iterator_tag@0@@Z 0045ae70 f i game_world.obj
 0001:00059f50       ??$_Ptr_cat@PAUTunnel@GameWorld@Pegas@@PAU123@@std@@YA?AU_Nonscalar_ptr_iterator_tag@0@AAPAUTunnel@GameWorld@Pegas@@0@Z 0045af50 f i game_world.obj
 0001:00059fb0       ??$_Uninit_fill_n@PAUTunnel@GameWorld@Pegas@@IU123@V?$allocator@UTunnel@GameWorld@Pegas@@@std@@@std@@YAXPAUTunnel@GameWorld@Pegas@@IABU123@AAV?$allocator@UTunnel@GameWorld@Pegas@@@0@U_Nonscalar_ptr_iterator_tag@0@U_Range_checked_iterator_tag@0@@Z 0045afb0 f i game_world.obj
 0001:0005a090       ??$_Destroy_range@V?$allocator@V?$ptr@VCharacter@Pegas@@@Pegas@@@std@@@std@@YAXPAV?$ptr@VCharacter@Pegas@@@Pegas@@0AAV?$allocator@V?$ptr@VCharacter@Pegas@@@Pegas@@@0@U_Nonscalar_ptr_iterator_tag@0@@Z 0045b090 f i game_world.obj
 0001:0005a0f0       ??$_Unchecked_uninitialized_move@PAV?$ptr@VCharacter@Pegas@@@Pegas@@PAV12@V?$allocator@V?$ptr@VCharacter@Pegas@@@Pegas@@@std@@@stdext@@YAPAV?$ptr@VCharacter@Pegas@@@Pegas@@PAV12@00AAV?$allocator@V?$ptr@VCharacter@Pegas@@@Pegas@@@std@@@Z 0045b0f0 f i game_world.obj
 0001:0005a180       ??$_Checked_base@PAV?$ptr@VCharacter@Pegas@@@Pegas@@@std@@YAPAV?$ptr@VCharacter@Pegas@@@Pegas@@AAPAV12@@Z 0045b180 f i game_world.obj
 0001:0005a200       ??$_Fill@PAV?$ptr@VCharacter@Pegas@@@Pegas@@V12@@std@@YAXPAV?$ptr@VCharacter@Pegas@@@Pegas@@0ABV12@@Z 0045b200 f i game_world.obj
 0001:0005a270       ??$_Iter_random@PAV?$ptr@VCharacter@Pegas@@@Pegas@@PAV12@@std@@YA?AUrandom_access_iterator_tag@0@ABQAV?$ptr@VCharacter@Pegas@@@Pegas@@0@Z 0045b270 f i game_world.obj
 0001:0005a2d0       ??$_Move_cat@PAV?$ptr@VCharacter@Pegas@@@Pegas@@@std@@YA?AU_Undefined_move_tag@0@ABQAV?$ptr@VCharacter@Pegas@@@Pegas@@@Z 0045b2d0 f i game_world.obj
 0001:0005a330       ??$_Move_backward_opt@PAV?$ptr@VCharacter@Pegas@@@Pegas@@PAV12@Urandom_access_iterator_tag@std@@U_Undefined_move_tag@4@@std@@YAPAV?$ptr@VCharacter@Pegas@@@Pegas@@PAV12@00Urandom_access_iterator_tag@0@U_Undefined_move_tag@0@U_Range_checked_iterator_tag@0@@Z 0045b330 f i game_world.obj
 0001:0005a3b0       ??$_Destroy_range@V?$allocator@UTunnel@GameWorld@Pegas@@@std@@@std@@YAXPAUTunnel@GameWorld@Pegas@@0AAV?$allocator@UTunnel@GameWorld@Pegas@@@0@U_Nonscalar_ptr_iterator_tag@0@@Z 0045b3b0 f i game_world.obj
 0001:0005a410       ??$_Unchecked_uninitialized_move@PAUTunnel@GameWorld@Pegas@@PAU123@V?$allocator@UTunnel@GameWorld@Pegas@@@std@@@stdext@@YAPAUTunnel@GameWorld@Pegas@@PAU123@00AAV?$allocator@UTunnel@GameWorld@Pegas@@@std@@@Z 0045b410 f i game_world.obj
 0001:0005a4a0       ??$_Checked_base@PAUTunnel@GameWorld@Pegas@@@std@@YAPAUTunnel@GameWorld@Pegas@@AAPAU123@@Z 0045b4a0 f i game_world.obj
 0001:0005a520       ??$_Fill@PAUTunnel@GameWorld@Pegas@@U123@@std@@YAXPAUTunnel@GameWorld@Pegas@@0ABU123@@Z 0045b520 f i game_world.obj
 0001:0005a5b0       ??$_Iter_random@PAUTunnel@GameWorld@Pegas@@PAU123@@std@@YA?AUrandom_access_iterator_tag@0@ABQAUTunnel@GameWorld@Pegas@@0@Z 0045b5b0 f i game_world.obj
 0001:0005a610       ??$_Move_cat@PAUTunnel@GameWorld@Pegas@@@std@@YA?AU_Undefined_move_tag@0@ABQAUTunnel@GameWorld@Pegas@@@Z 0045b610 f i game_world.obj
 0001:0005a670       ??$_Move_backward_opt@PAUTunnel@GameWorld@Pegas@@PAU123@Urandom_access_iterator_tag@std@@U_Undefined_move_tag@5@@std@@YAPAUTunnel@GameWorld@Pegas@@PAU123@00Urandom_access_iterator_tag@0@U_Undefined_move_tag@0@U_Range_checked_iterator_tag@0@@Z 0045b670 f i game_world.obj
 0001:0005a6f0       ?construct@?$allocator@V?$ptr@VCharacter@Pegas@@@Pegas@@@std@@QAEXPAV?$ptr@VCharacter@Pegas@@@Pegas@@ABV34@@Z 0045b6f0 f i game_world.obj
 0001:0005a740       ?destroy@?$allocator@V?$ptr@VCharacter@Pegas@@@Pegas@@@std@@QAEXPAV?$ptr@VCharacter@Pegas@@@Pegas@@@Z 0045b740 f i game_world.obj
 0001:0005a790       ?construct@?$allocator@UTunnel@GameWorld@Pegas@@@std@@QAEXPAUTunnel@GameWorld@Pegas@@ABU345@@Z 0045b790 f i game_world.obj
 0001:0005a7e0       ?destroy@?$allocator@UTunnel@GameWorld@Pegas@@@std@@QAEXPAUTunnel@GameWorld@Pegas@@@Z 0045b7e0 f i game_world.obj
 0001:0005a830       ??4?$ptr@VCharacter@Pegas@@@Pegas@@QAEAAV01@ABV01@@Z 0045b830 f i game_world.obj
 0001:0005a8a0       ??$_Uninit_move@PAV?$ptr@VCharacter@Pegas@@@Pegas@@PAV12@V?$allocator@V?$ptr@VCharacter@Pegas@@@Pegas@@@std@@U_Undefined_move_tag@4@@std@@YAPAV?$ptr@VCharacter@Pegas@@@Pegas@@PAV12@00AAV?$allocator@V?$ptr@VCharacter@Pegas@@@Pegas@@@0@U_Undefined_move_tag@0@U_Range_checked_iterator_tag@0@@Z 0045b8a0 f i game_world.obj
 0001:0005a8f0       ??$_Checked_base@PAV?$ptr@VCharacter@Pegas@@@Pegas@@@std@@YAPAV?$ptr@VCharacter@Pegas@@@Pegas@@AAPAV12@U_Unchanged_checked_iterator_base_type_tag@0@@Z 0045b8f0 f i game_world.obj
 0001:0005a920       ??$_Debug_range@PAV?$ptr@VCharacter@Pegas@@@Pegas@@@std@@YAXPAV?$ptr@VCharacter@Pegas@@@Pegas@@0PB_WI@Z 0045b920 f i game_world.obj
 0001:0005a990       ??$_Copy_backward_opt@PAV?$ptr@VCharacter@Pegas@@@Pegas@@PAV12@@std@@YAPAV?$ptr@VCharacter@Pegas@@@Pegas@@PAV12@00Urandom_access_iterator_tag@0@U_Nonscalar_ptr_iterator_tag@0@U_Range_checked_iterator_tag@0@@Z 0045b990 f i game_world.obj
 0001:0005aa20       ??$_Uninit_move@PAUTunnel@GameWorld@Pegas@@PAU123@V?$allocator@UTunnel@GameWorld@Pegas@@@std@@U_Undefined_move_tag@5@@std@@YAPAUTunnel@GameWorld@Pegas@@PAU123@00AAV?$allocator@UTunnel@GameWorld@Pegas@@@0@U_Undefined_move_tag@0@U_Range_checked_iterator_tag@0@@Z 0045ba20 f i game_world.obj
 0001:0005aa70       ??$_Checked_base@PAUTunnel@GameWorld@Pegas@@@std@@YAPAUTunnel@GameWorld@Pegas@@AAPAU123@U_Unchanged_checked_iterator_base_type_tag@0@@Z 0045ba70 f i game_world.obj
 0001:0005aaa0       ??$_Debug_range@PAUTunnel@GameWorld@Pegas@@@std@@YAXPAUTunnel@GameWorld@Pegas@@0PB_WI@Z 0045baa0 f i game_world.obj
 0001:0005ab10       ??$_Copy_backward_opt@PAUTunnel@GameWorld@Pegas@@PAU123@@std@@YAPAUTunnel@GameWorld@Pegas@@PAU123@00Urandom_access_iterator_tag@0@U_Nonscalar_ptr_iterator_tag@0@U_Range_checked_iterator_tag@0@@Z 0045bb10 f i game_world.obj
 0001:0005abb0       ??$_Construct@V?$ptr@VCharacter@Pegas@@@Pegas@@V12@@std@@YAXPAV?$ptr@VCharacter@Pegas@@@Pegas@@ABV12@@Z 0045bbb0 f i game_world.obj
 0001:0005ac70       ??$_Destroy@V?$ptr@VCharacter@Pegas@@@Pegas@@@std@@YAXPAV?$ptr@VCharacter@Pegas@@@Pegas@@@Z 0045bc70 f i game_world.obj
 0001:0005acb0       ??$_Construct@UTunnel@GameWorld@Pegas@@U123@@std@@YAXPAUTunnel@GameWorld@Pegas@@ABU123@@Z 0045bcb0 f i game_world.obj
 0001:0005ad50       ??$_Destroy@UTunnel@GameWorld@Pegas@@@std@@YAXPAUTunnel@GameWorld@Pegas@@@Z 0045bd50 f i game_world.obj
 0001:0005ad80       ??_G?$ptr@VCharacter@Pegas@@@Pegas@@QAEPAXI@Z 0045bd80 f i game_world.obj
 0001:0005ade0       ??$unchecked_uninitialized_copy@PAV?$ptr@VCharacter@Pegas@@@Pegas@@PAV12@V?$allocator@V?$ptr@VCharacter@Pegas@@@Pegas@@@std@@@stdext@@YAPAV?$ptr@VCharacter@Pegas@@@Pegas@@PAV12@00AAV?$allocator@V?$ptr@VCharacter@Pegas@@@Pegas@@@std@@@Z 0045bde0 f i game_world.obj
 0001:0005ae70       ??$_Iter_cat@PAV?$ptr@VCharacter@Pegas@@@Pegas@@@std@@YA?AUrandom_access_iterator_tag@0@ABQAV?$ptr@VCharacter@Pegas@@@Pegas@@@Z 0045be70 f i game_world.obj
 0001:0005aed0       ??$_Debug_range2@PAV?$ptr@VCharacter@Pegas@@@Pegas@@@std@@YAXPAV?$ptr@VCharacter@Pegas@@@Pegas@@0PB_WIUrandom_access_iterator_tag@0@@Z 0045bed0 f i game_world.obj
 0001:0005af50       ??$_Copy_backward_opt@PAV?$ptr@VCharacter@Pegas@@@Pegas@@PAV12@Uforward_iterator_tag@std@@@std@@YAPAV?$ptr@VCharacter@Pegas@@@Pegas@@PAV12@00Uforward_iterator_tag@0@U_Nonscalar_ptr_iterator_tag@0@U_Range_checked_iterator_tag@0@@Z 0045bf50 f i game_world.obj
 0001:0005afd0       ??$unchecked_uninitialized_copy@PAUTunnel@GameWorld@Pegas@@PAU123@V?$allocator@UTunnel@GameWorld@Pegas@@@std@@@stdext@@YAPAUTunnel@GameWorld@Pegas@@PAU123@00AAV?$allocator@UTunnel@GameWorld@Pegas@@@std@@@Z 0045bfd0 f i game_world.obj
 0001:0005b060       ??$_Iter_cat@PAUTunnel@GameWorld@Pegas@@@std@@YA?AUrandom_access_iterator_tag@0@ABQAUTunnel@GameWorld@Pegas@@@Z 0045c060 f i game_world.obj
 0001:0005b0c0       ??$_Debug_range2@PAUTunnel@GameWorld@Pegas@@@std@@YAXPAUTunnel@GameWorld@Pegas@@0PB_WIUrandom_access_iterator_tag@0@@Z 0045c0c0 f i game_world.obj
 0001:0005b140       ??$_Copy_backward_opt@PAUTunnel@GameWorld@Pegas@@PAU123@Uforward_iterator_tag@std@@@std@@YAPAUTunnel@GameWorld@Pegas@@PAU123@00Uforward_iterator_tag@0@U_Nonscalar_ptr_iterator_tag@0@U_Range_checked_iterator_tag@0@@Z 0045c140 f i game_world.obj
 0001:0005b1e0       ??$_Uninit_copy@PAV?$ptr@VCharacter@Pegas@@@Pegas@@PAV12@V?$allocator@V?$ptr@VCharacter@Pegas@@@Pegas@@@std@@@std@@YAPAV?$ptr@VCharacter@Pegas@@@Pegas@@PAV12@00AAV?$allocator@V?$ptr@VCharacter@Pegas@@@Pegas@@@0@U_Nonscalar_ptr_iterator_tag@0@U_Range_checked_iterator_tag@0@@Z 0045c1e0 f i game_world.obj
 0001:0005b2f0       ??$_Debug_pointer@V?$ptr@VCharacter@Pegas@@@Pegas@@@std@@YAXPAV?$ptr@VCharacter@Pegas@@@Pegas@@PB_WI@Z 0045c2f0 f i game_world.obj
 0001:0005b340       ??$_Uninit_copy@PAUTunnel@GameWorld@Pegas@@PAU123@V?$allocator@UTunnel@GameWorld@Pegas@@@std@@@std@@YAPAUTunnel@GameWorld@Pegas@@PAU123@00AAV?$allocator@UTunnel@GameWorld@Pegas@@@0@U_Nonscalar_ptr_iterator_tag@0@U_Range_checked_iterator_tag@0@@Z 0045c340 f i game_world.obj
 0001:0005b450       ??$_Debug_pointer@UTunnel@GameWorld@Pegas@@@std@@YAXPAUTunnel@GameWorld@Pegas@@PB_WI@Z 0045c450 f i game_world.obj
 0001:0005b4a0       ??_E?$FaderProcess@UEvent_GUI_StartFadein@Pegas@@UEvent_GUI_FadeinComplete@2@@Pegas@@WBI@AEPAXI@Z 0045c4a0 f i game_world.obj
 0001:0005b4b0       ??0TileGrid@Pegas@@QAE@XZ  0045c4b0 f   tile_grid.obj
 0001:0005b580       ??1TileGrid@Pegas@@QAE@XZ  0045c580 f   tile_grid.obj
 0001:0005b620       ?create@TileGrid@Pegas@@QAEXHH@Z 0045c620 f   tile_grid.obj
