 pacman

 Timestamp is 541b22bc (Fri Sep 19 00:21:48 2014)

 Preferred load address is 00400000

 Start         Length     Name                   Class
 0001:00000000 00047834H .text                   CODE
 0001:00047840 000030cfH .text$x                 CODE
 0001:0004a910 00000636H .text$yc                CODE
 0001:0004af50 00000788H .text$yd                CODE
 0002:00000000 00000298H .idata$5                DATA
 0002:00000298 00000004H .CRT$XCA                DATA
 0002:0000029c 000000b0H .CRT$XCU                DATA
 0002:0000034c 00000004H .CRT$XCZ                DATA
 0002:00000350 00000004H .CRT$XIA                DATA
 0002:00000354 00000014H .CRT$XIC                DATA
 0002:00000368 00000004H .CRT$XIY                DATA
 0002:0000036c 00000004H .CRT$XIZ                DATA
 0002:00000370 00000004H .CRT$XPA                DATA
 0002:00000374 00000004H .CRT$XPX                DATA
 0002:00000378 00000004H .CRT$XPXA               DATA
 0002:0000037c 00000004H .CRT$XPZ                DATA
 0002:00000380 00000004H .CRT$XTA                DATA
 0002:00000384 00000004H .CRT$XTZ                DATA
 0002:00000390 00004f48H .rdata                  DATA
 0002:000052d8 0000005aH .rdata$debug            DATA
 0002:00005334 00002780H .rdata$r                DATA
 0002:00007ac0 00000320H .rdata$sxdata           DATA
 0002:00007de0 00000004H .rtc$IAA                DATA
 0002:00007de4 00000004H .rtc$IZZ                DATA
 0002:00007de8 00000004H .rtc$TAA                DATA
 0002:00007dec 00000004H .rtc$TZZ                DATA
 0002:00007df0 00003f3cH .xdata$x                DATA
 0002:0000bd2c 00000078H .idata$2                DATA
 0002:0000bda4 00000014H .idata$3                DATA
 0002:0000bdb8 00000298H .idata$4                DATA
 0002:0000c050 00000aa8H .idata$6                DATA
 0002:0000caf8 00000000H .edata                  DATA
 0003:00000000 00002ce8H .data                   DATA
 0003:00002d00 0000207cH .bss                    DATA
 0004:00000000 00000928H .rsrc$01                DATA
 0004:00000930 00059a70H .rsrc$02                DATA

  Address         Publics by Value              Rva+Base       Lib:Object

 0000:00000000       __except_list              00000000     <absolute>
 0000:000000c8       ___safe_se_handler_count   000000c8     <absolute>
 0000:00000000       ___ImageBase               00400000     <linker-defined>
 0001:00000000       ?init@GameApplication@Pegas@@QAEXPAUHWND__@@@Z 00401000 f   game_app.obj
 0001:00000270       ?run@GameApplication@Pegas@@QAE_NXZ 00401270 f   game_app.obj
 0001:00000330       ?cleanup@GameApplication@Pegas@@QAEXXZ 00401330 f   game_app.obj
 0001:000003a0       ?resize@GameApplication@Pegas@@QAEXHH@Z 004013a0 f   game_app.obj
 0001:000003d0       ?registerResources@GameApplication@Pegas@@AAEXXZ 004013d0 f   game_app.obj
 0001:000009c0       ?processInput@GameApplication@Pegas@@QAEXIIJ@Z 004019c0 f   game_app.obj
 0001:00000da0       ?addKeyboardController@GameApplication@Pegas@@UAEXPAVIKeyboardController@2@@Z 00401da0 f   game_app.obj
 0001:00000e10       ?removeKeyboardController@GameApplication@Pegas@@UAEXPAVIKeyboardController@2@@Z 00401e10 f   game_app.obj
 0001:00000e30       ?addMouseController@GameApplication@Pegas@@UAEXPAVIMouseController@2@@Z 00401e30 f   game_app.obj
 0001:00000ea0       ?removeMouseController@GameApplication@Pegas@@UAEXPAVIMouseController@2@@Z 00401ea0 f   game_app.obj
 0001:00000ec0       ?attachProcess@GameApplication@Pegas@@UAEHV?$ptr@VProcess@Pegas@@@2@@Z 00401ec0 f   game_app.obj
 0001:00000f60       ?terminateProcess@GameApplication@Pegas@@UAEXABH@Z 00401f60 f   game_app.obj
 0001:00000f70       ?addGameState@GameApplication@Pegas@@UAEXV?$ptr@VIGameState@Pegas@@@2@@Z 00401f70 f   game_app.obj
 0001:000010e0       ?removeState@GameApplication@Pegas@@UAEXH@Z 004020e0 f   game_app.obj
 0001:00001310       ?changeState@GameApplication@Pegas@@UAEXH@Z 00402310 f   game_app.obj
 0001:00001410       ?forwardToState@GameApplication@Pegas@@UAEXH@Z 00402410 f   game_app.obj
 0001:00001510       ?backwardToPreviousState@GameApplication@Pegas@@UAEXXZ 00402510 f   game_app.obj
 0001:00001610       ?handleEvent@GameApplication@Pegas@@UAEXV?$ptr@UEvent@Pegas@@@2@@Z 00402610 f   game_app.obj
 0001:000018b0       ?_changeState@GameApplication@Pegas@@AAEXH@Z 004028b0 f   game_app.obj
 0001:00001980       ?_forwardToState@GameApplication@Pegas@@AAEXH@Z 00402980 f   game_app.obj
 0001:00001a50       ?_backwardToPreviousState@GameApplication@Pegas@@AAEXXZ 00402a50 f   game_app.obj
 0001:00001b20       ?shutdownGame@GameApplication@Pegas@@UAEXXZ 00402b20 f   game_app.obj
 0001:00001b30       ?createFile@GameApplication@Pegas@@UAEPAVISerializer@2@ABV?$basic_string@_WU?$char_traits@_W@std@@V?$allocator@_W@2@@std@@@Z 00402b30 f   game_app.obj
 0001:00001d60       ?openFile@GameApplication@Pegas@@UAEPAVISerializer@2@ABV?$basic_string@_WU?$char_traits@_W@std@@V?$allocator@_W@2@@std@@I@Z 00402d60 f   game_app.obj
 0001:00001f90       ?closeFile@GameApplication@Pegas@@UAEXPAVISerializer@2@@Z 00402f90 f   game_app.obj
 0001:00002080       ??4?$basic_string@_WU?$char_traits@_W@std@@V?$allocator@_W@2@@std@@QAEAAV01@ABV01@@Z 00403080 f i game_app.obj
 0001:000020a0       ?getInstance@?$Singleton@VEventManager@Pegas@@@Pegas@@SAAAVEventManager@2@XZ 004030a0 f i game_app.obj
 0001:000020c0       ??0?$ptr@UEvent@Pegas@@@Pegas@@QAE@ABV01@@Z 004030c0 f i game_app.obj
 0001:000020c0       ??0?$ptr@VProcess@Pegas@@@Pegas@@QAE@ABV01@@Z 004030c0 f i game_app.obj
 0001:000020e0       ?insert@?$_Tree@V?$_Tset_traits@PAVIKeyboardController@Pegas@@U?$less@PAVIKeyboardController@Pegas@@@std@@V?$allocator@PAVIKeyboardController@Pegas@@@4@$0A@@std@@@std@@QAE?AU?$pair@Viterator@?$_Tree@V?$_Tset_traits@PAVIKeyboardController@Pegas@@U?$less@PAVIKeyboardController@Pegas@@@std@@V?$allocator@PAVIKeyboardController@Pegas@@@4@$0A@@std@@@std@@_N@2@ABQAVIKeyboardController@Pegas@@@Z 004030e0 f i game_app.obj
 0001:000020e0       ?insert@?$_Tree@V?$_Tset_traits@PAVIMouseController@Pegas@@U?$less@PAVIMouseController@Pegas@@@std@@V?$allocator@PAVIMouseController@Pegas@@@4@$0A@@std@@@std@@QAE?AU?$pair@Viterator@?$_Tree@V?$_Tset_traits@PAVIMouseController@Pegas@@U?$less@PAVIMouseController@Pegas@@@std@@V?$allocator@PAVIMouseController@Pegas@@@4@$0A@@std@@@std@@_N@2@ABQAVIMouseController@Pegas@@@Z 004030e0 f i game_app.obj
 0001:000021e0       ?erase@?$_Tree@V?$_Tset_traits@PAVIMouseController@Pegas@@U?$less@PAVIMouseController@Pegas@@@std@@V?$allocator@PAVIMouseController@Pegas@@@4@$0A@@std@@@std@@QAEIABQAVIMouseController@Pegas@@@Z 004031e0 f i game_app.obj
 0001:000021e0       ?erase@?$_Tree@V?$_Tset_traits@PAVIKeyboardController@Pegas@@U?$less@PAVIKeyboardController@Pegas@@@std@@V?$allocator@PAVIKeyboardController@Pegas@@@4@$0A@@std@@@std@@QAEIABQAVIKeyboardController@Pegas@@@Z 004031e0 f i game_app.obj
 0001:00002250       ??A?$map@HV?$ptr@VIGameState@Pegas@@@Pegas@@U?$less@H@std@@V?$allocator@U?$pair@$$CBHV?$ptr@VIGameState@Pegas@@@Pegas@@@std@@@4@@std@@QAEAAV?$ptr@VIGameState@Pegas@@@Pegas@@ABH@Z 00403250 f i game_app.obj
 0001:00002370       ?erase@?$_Tree@V?$_Tmap_traits@HV?$ptr@VIGameState@Pegas@@@Pegas@@U?$less@H@std@@V?$allocator@U?$pair@$$CBHV?$ptr@VIGameState@Pegas@@@Pegas@@@std@@@4@$0A@@std@@@std@@QAEIABH@Z 00403370 f i game_app.obj
 0001:000023d0       ?count@?$_Tree@V?$_Tmap_traits@HV?$ptr@VIGameState@Pegas@@@Pegas@@U?$less@H@std@@V?$allocator@U?$pair@$$CBHV?$ptr@VIGameState@Pegas@@@Pegas@@@std@@@4@$0A@@std@@@std@@QBEIABH@Z 004033d0 f i game_app.obj
 0001:00002420       ??4?$deque@V?$ptr@VIGameState@Pegas@@@Pegas@@V?$allocator@V?$ptr@VIGameState@Pegas@@@Pegas@@@std@@@std@@QAEAAV01@ABV01@@Z 00403420 f i game_app.obj
 0001:000025c0       ?erase@?$list@V?$ptr@VFile@Pegas@@@Pegas@@V?$allocator@V?$ptr@VFile@Pegas@@@Pegas@@@std@@@std@@QAE?AV?$_Iterator@$00@12@V?$_Const_iterator@$00@12@@Z 004035c0 f i game_app.obj
 0001:000025c0       ?erase@?$list@V?$ptr@VProcess@Pegas@@@Pegas@@V?$allocator@V?$ptr@VProcess@Pegas@@@Pegas@@@std@@@std@@QAE?AV?$_Iterator@$00@12@V?$_Const_iterator@$00@12@@Z 004035c0 f i game_screen.obj
 0001:00002680       ??Diterator@?$_Tree@V?$_Tset_traits@PAVIMouseController@Pegas@@U?$less@PAVIMouseController@Pegas@@@std@@V?$allocator@PAVIMouseController@Pegas@@@4@$0A@@std@@@std@@QBEAAPAVIMouseController@Pegas@@XZ 00403680 f i game_app.obj
 0001:000026b0       ?find@?$basic_string@_WU?$char_traits@_W@std@@V?$allocator@_W@2@@std@@QBEIPB_WII@Z 004036b0 f i game_app.obj
 0001:000027a0       ??R?$less@H@std@@QBE_NABH0@Z 004037a0 f i game_app.obj
 0001:000027c0       ?acquire@?$ptr@UEvent@Pegas@@@Pegas@@AAEXPAUCounter@2@@Z 004037c0 f i game_app.obj
 0001:000027c0       ?acquire@?$ptr@VWidget@Pegas@@@Pegas@@AAEXPAUCounter@2@@Z 004037c0 f i editor.obj
 0001:000027c0       ?acquire@?$ptr@VBaseScreenLayer@Pegas@@@Pegas@@AAEXPAUCounter@2@@Z 004037c0 f i editor.obj
 0001:000027d0       ?_Insert@?$_Tree@V?$_Tset_traits@PAVIMouseController@Pegas@@U?$less@PAVIMouseController@Pegas@@@std@@V?$allocator@PAVIMouseController@Pegas@@@4@$0A@@std@@@std@@IAE?AViterator@12@_NPAU_Node@?$_Tree_nod@V?$_Tset_traits@PAVIMouseController@Pegas@@U?$less@PAVIMouseController@Pegas@@@std@@V?$allocator@PAVIMouseController@Pegas@@@4@$0A@@std@@@2@ABQAVIMouseController@Pegas@@@Z 004037d0 f i game_app.obj
 0001:000027d0       ?_Insert@?$_Tree@V?$_Tset_traits@PAVIKeyboardController@Pegas@@U?$less@PAVIKeyboardController@Pegas@@@std@@V?$allocator@PAVIKeyboardController@Pegas@@@4@$0A@@std@@@std@@IAE?AViterator@12@_NPAU_Node@?$_Tree_nod@V?$_Tset_traits@PAVIKeyboardController@Pegas@@U?$less@PAVIKeyboardController@Pegas@@@std@@V?$allocator@PAVIKeyboardController@Pegas@@@4@$0A@@std@@@2@ABQAVIKeyboardController@Pegas@@@Z 004037d0 f i game_app.obj
 0001:00002a10       ?insert@?$_Tree@V?$_Tmap_traits@HV?$ptr@VIGameState@Pegas@@@Pegas@@U?$less@H@std@@V?$allocator@U?$pair@$$CBHV?$ptr@VIGameState@Pegas@@@Pegas@@@std@@@4@$0A@@std@@@std@@QAE?AViterator@12@Vconst_iterator@12@ABU?$pair@$$CBHV?$ptr@VIGameState@Pegas@@@Pegas@@@2@@Z 00403a10 f i game_app.obj
 0001:00002be0       ?back@?$deque@V?$ptr@VIGameState@Pegas@@@Pegas@@V?$allocator@V?$ptr@VIGameState@Pegas@@@Pegas@@@std@@@std@@QAEAAV?$ptr@VIGameState@Pegas@@@Pegas@@XZ 00403be0 f i game_app.obj
 0001:00002c50       ?push_back@?$deque@V?$ptr@VIGameState@Pegas@@@Pegas@@V?$allocator@V?$ptr@VIGameState@Pegas@@@Pegas@@@std@@@std@@QAEXABV?$ptr@VIGameState@Pegas@@@Pegas@@@Z 00403c50 f i game_app.obj
 0001:00002ce0       ?erase@?$deque@V?$ptr@VIGameState@Pegas@@@Pegas@@V?$allocator@V?$ptr@VIGameState@Pegas@@@Pegas@@@std@@@std@@QAE?AV?$_Deque_iterator@V?$ptr@VIGameState@Pegas@@@Pegas@@V?$allocator@V?$ptr@VIGameState@Pegas@@@Pegas@@@std@@$00@2@V?$_Deque_const_iterator@V?$ptr@VIGameState@Pegas@@@Pegas@@V?$allocator@V?$ptr@VIGameState@Pegas@@@Pegas@@@std@@$00@2@0@Z 00403ce0 f i game_app.obj
 0001:00002e90       ??H?$_Deque_const_iterator@V?$ptr@VIGameState@Pegas@@@Pegas@@V?$allocator@V?$ptr@VIGameState@Pegas@@@Pegas@@@std@@$00@std@@QBE?AV01@H@Z 00403e90 f i game_app.obj
 0001:00002ee0       ?_Eqrange@?$_Tree@V?$_Tset_traits@PAVIMouseController@Pegas@@U?$less@PAVIMouseController@Pegas@@@std@@V?$allocator@PAVIMouseController@Pegas@@@4@$0A@@std@@@std@@IAE?AU?$pair@Viterator@?$_Tree@V?$_Tset_traits@PAVIMouseController@Pegas@@U?$less@PAVIMouseController@Pegas@@@std@@V?$allocator@PAVIMouseController@Pegas@@@4@$0A@@std@@@std@@V123@@2@ABQAVIMouseController@Pegas@@@Z 00403ee0 f i game_app.obj
 0001:00002ee0       ?_Eqrange@?$_Tree@V?$_Tset_traits@PAVIKeyboardController@Pegas@@U?$less@PAVIKeyboardController@Pegas@@@std@@V?$allocator@PAVIKeyboardController@Pegas@@@4@$0A@@std@@@std@@IBE?AU?$pair@Vconst_iterator@?$_Tree@V?$_Tset_traits@PAVIKeyboardController@Pegas@@U?$less@PAVIKeyboardController@Pegas@@@std@@V?$allocator@PAVIKeyboardController@Pegas@@@4@$0A@@std@@@std@@V123@@2@ABQAVIKeyboardController@Pegas@@@Z 00403ee0 f i game_app.obj
 0001:00002ee0       ?_Eqrange@?$_Tree@V?$_Tset_traits@PAVIKeyboardController@Pegas@@U?$less@PAVIKeyboardController@Pegas@@@std@@V?$allocator@PAVIKeyboardController@Pegas@@@4@$0A@@std@@@std@@IAE?AU?$pair@Viterator@?$_Tree@V?$_Tset_traits@PAVIKeyboardController@Pegas@@U?$less@PAVIKeyboardController@Pegas@@@std@@V?$allocator@PAVIKeyboardController@Pegas@@@4@$0A@@std@@@std@@V123@@2@ABQAVIKeyboardController@Pegas@@@Z 00403ee0 f i game_app.obj
 0001:00002ee0       ?_Eqrange@?$_Tree@V?$_Tset_traits@PAVIMouseController@Pegas@@U?$less@PAVIMouseController@Pegas@@@std@@V?$allocator@PAVIMouseController@Pegas@@@4@$0A@@std@@@std@@IBE?AU?$pair@Vconst_iterator@?$_Tree@V?$_Tset_traits@PAVIMouseController@Pegas@@U?$less@PAVIMouseController@Pegas@@@std@@V?$allocator@PAVIMouseController@Pegas@@@4@$0A@@std@@@std@@V123@@2@ABQAVIMouseController@Pegas@@@Z 00403ee0 f i game_app.obj
 0001:00002f70       ?_Buynode@?$_Tree@V?$_Tset_traits@PAVIKeyboardController@Pegas@@U?$less@PAVIKeyboardController@Pegas@@@std@@V?$allocator@PAVIKeyboardController@Pegas@@@4@$0A@@std@@@std@@IAEPAU_Node@?$_Tree_nod@V?$_Tset_traits@PAVIKeyboardController@Pegas@@U?$less@PAVIKeyboardController@Pegas@@@std@@V?$allocator@PAVIKeyboardController@Pegas@@@4@$0A@@std@@@2@PAU342@00ABQAVIKeyboardController@Pegas@@D@Z 00403f70 f i game_app.obj
 0001:00002f70       ?_Buynode@?$_Tree@V?$_Tset_traits@PAVIMouseController@Pegas@@U?$less@PAVIMouseController@Pegas@@@std@@V?$allocator@PAVIMouseController@Pegas@@@4@$0A@@std@@@std@@IAEPAU_Node@?$_Tree_nod@V?$_Tset_traits@PAVIMouseController@Pegas@@U?$less@PAVIMouseController@Pegas@@@std@@V?$allocator@PAVIMouseController@Pegas@@@4@$0A@@std@@@2@PAU342@00ABQAVIMouseController@Pegas@@D@Z 00403f70 f i game_app.obj
 0001:00002fb0       ?insert@?$_Tree@V?$_Tmap_traits@HV?$ptr@VIGameState@Pegas@@@Pegas@@U?$less@H@std@@V?$allocator@U?$pair@$$CBHV?$ptr@VIGameState@Pegas@@@Pegas@@@std@@@4@$0A@@std@@@std@@QAE?AU?$pair@Viterator@?$_Tree@V?$_Tmap_traits@HV?$ptr@VIGameState@Pegas@@@Pegas@@U?$less@H@std@@V?$allocator@U?$pair@$$CBHV?$ptr@VIGameState@Pegas@@@Pegas@@@std@@@4@$0A@@std@@@std@@_N@2@ABU?$pair@$$CBHV?$ptr@VIGameState@Pegas@@@Pegas@@@2@@Z 00403fb0 f i game_app.obj
 0001:000030a0       ?_Eqrange@?$_Tree@V?$_Tmap_traits@HV?$ptr@VIGameState@Pegas@@@Pegas@@U?$less@H@std@@V?$allocator@U?$pair@$$CBHV?$ptr@VIGameState@Pegas@@@Pegas@@@std@@@4@$0A@@std@@@std@@IBE?AU?$pair@Vconst_iterator@?$_Tree@V?$_Tmap_traits@HV?$ptr@VIGameState@Pegas@@@Pegas@@U?$less@H@std@@V?$allocator@U?$pair@$$CBHV?$ptr@VIGameState@Pegas@@@Pegas@@@std@@@4@$0A@@std@@@std@@V123@@2@ABH@Z 004040a0 f i game_app.obj
 0001:000030a0       ?_Eqrange@?$_Tree@V?$_Tmap_traits@HV?$ptr@VIGameState@Pegas@@@Pegas@@U?$less@H@std@@V?$allocator@U?$pair@$$CBHV?$ptr@VIGameState@Pegas@@@Pegas@@@std@@@4@$0A@@std@@@std@@IAE?AU?$pair@Viterator@?$_Tree@V?$_Tmap_traits@HV?$ptr@VIGameState@Pegas@@@Pegas@@U?$less@H@std@@V?$allocator@U?$pair@$$CBHV?$ptr@VIGameState@Pegas@@@Pegas@@@std@@@4@$0A@@std@@@std@@V123@@2@ABH@Z 004040a0 f i game_app.obj
 0001:00003130       ?_Insert@?$_Tree@V?$_Tmap_traits@HV?$ptr@VIGameState@Pegas@@@Pegas@@U?$less@H@std@@V?$allocator@U?$pair@$$CBHV?$ptr@VIGameState@Pegas@@@Pegas@@@std@@@4@$0A@@std@@@std@@IAE?AViterator@12@_NPAU_Node@?$_Tree_nod@V?$_Tmap_traits@HV?$ptr@VIGameState@Pegas@@@Pegas@@U?$less@H@std@@V?$allocator@U?$pair@$$CBHV?$ptr@VIGameState@Pegas@@@Pegas@@@std@@@4@$0A@@std@@@2@ABU?$pair@$$CBHV?$ptr@VIGameState@Pegas@@@Pegas@@@2@@Z 00404130 f i game_app.obj
 0001:00003380       ?pop_front@?$deque@V?$ptr@VIGameState@Pegas@@@Pegas@@V?$allocator@V?$ptr@VIGameState@Pegas@@@Pegas@@@std@@@std@@QAEXXZ 00404380 f i game_app.obj
 0001:00003400       ?_Growmap@?$deque@V?$ptr@VIGameState@Pegas@@@Pegas@@V?$allocator@V?$ptr@VIGameState@Pegas@@@Pegas@@@std@@@std@@IAEXI@Z 00404400 f i game_app.obj
 0001:00003560       ?_Incsize@?$list@V?$ptr@VFile@Pegas@@@Pegas@@V?$allocator@V?$ptr@VFile@Pegas@@@Pegas@@@std@@@std@@IAEXI@Z 00404560 f i game_app.obj
 0001:00003560       ?_Incsize@?$list@V?$ptr@VProcess@Pegas@@@Pegas@@V?$allocator@V?$ptr@VProcess@Pegas@@@Pegas@@@std@@@std@@IAEXI@Z 00404560 f i game_screen.obj
 0001:00003600       ?_Buynode@?$_Tree@V?$_Tmap_traits@HV?$ptr@VIGameState@Pegas@@@Pegas@@U?$less@H@std@@V?$allocator@U?$pair@$$CBHV?$ptr@VIGameState@Pegas@@@Pegas@@@std@@@4@$0A@@std@@@std@@IAEPAU_Node@?$_Tree_nod@V?$_Tmap_traits@HV?$ptr@VIGameState@Pegas@@@Pegas@@U?$less@H@std@@V?$allocator@U?$pair@$$CBHV?$ptr@VIGameState@Pegas@@@Pegas@@@std@@@4@$0A@@std@@@2@PAU342@00ABU?$pair@$$CBHV?$ptr@VIGameState@Pegas@@@Pegas@@@2@D@Z 00404600 f i game_app.obj
 0001:00003650       ?_Xlen@?$deque@V?$ptr@VIGameState@Pegas@@@Pegas@@V?$allocator@V?$ptr@VIGameState@Pegas@@@Pegas@@@std@@@std@@KAXXZ 00404650 f i game_app.obj
 0001:000036d0       ?allocate@?$allocator@PAV?$ptr@VIGameState@Pegas@@@Pegas@@@std@@QAEPAPAV?$ptr@VIGameState@Pegas@@@Pegas@@I@Z 004046d0 f i game_app.obj
 0001:000036d0       ??$_Allocate@H@std@@YAPAHIPAH@Z 004046d0 f i game_ai.obj
 0001:00003730       ?_Dec@const_iterator@?$_Tree@V?$_Tset_traits@PAVIMouseController@Pegas@@U?$less@PAVIMouseController@Pegas@@@std@@V?$allocator@PAVIMouseController@Pegas@@@4@$0A@@std@@@std@@QAEXXZ 00404730 f i game_app.obj
 0001:00003730       ?_Dec@const_iterator@?$_Tree@V?$_Tset_traits@PAVIKeyboardController@Pegas@@U?$less@PAVIKeyboardController@Pegas@@@std@@V?$allocator@PAVIKeyboardController@Pegas@@@4@$0A@@std@@@std@@QAEXXZ 00404730 f i game_app.obj
 0001:000037b0       ?_Dec@const_iterator@?$_Tree@V?$_Tmap_traits@HV?$ptr@VIGameState@Pegas@@@Pegas@@U?$less@H@std@@V?$allocator@U?$pair@$$CBHV?$ptr@VIGameState@Pegas@@@Pegas@@@std@@@4@$0A@@std@@@std@@QAEXXZ 004047b0 f i game_app.obj
 0001:00003830       ?registerResource@?$ResourceManager@VTextureResource@Pegas@@UIntResourceCode@2@@Pegas@@QAEPAVTextureResource@2@HABUIntResourceCode@2@@Z 00404830 f i game_app.obj
 0001:00003960       ?registerResource@?$ResourceManager@VFontResource@Pegas@@UFontResourceCode@2@@Pegas@@QAEPAVFontResource@2@HABUFontResourceCode@2@@Z 00404960 f i game_app.obj
 0001:00003a90       ??$?8DU?$char_traits@D@std@@V?$allocator@D@1@@std@@YA_NABV?$basic_string@DU?$char_traits@D@std@@V?$allocator@D@2@@0@0@Z 00404a90 f i game_app.obj
 0001:00003af0       ??$?H_WU?$char_traits@_W@std@@V?$allocator@_W@1@@std@@YA?AV?$basic_string@_WU?$char_traits@_W@std@@V?$allocator@_W@2@@0@PB_WABV10@@Z 00404af0 f i game_app.obj
 0001:00003bb0       ??$_Distance@Vconst_iterator@?$_Tree@V?$_Tset_traits@PAVIMouseController@Pegas@@U?$less@PAVIMouseController@Pegas@@@std@@V?$allocator@PAVIMouseController@Pegas@@@4@$0A@@std@@@std@@I@std@@YAXVconst_iterator@?$_Tree@V?$_Tset_traits@PAVIMouseController@Pegas@@U?$less@PAVIMouseController@Pegas@@@std@@V?$allocator@PAVIMouseController@Pegas@@@4@$0A@@std@@@0@0AAI@Z 00404bb0 f i game_app.obj
 0001:00003bb0       ??$_Distance@Viterator@?$_Tree@V?$_Tset_traits@PAVIMouseController@Pegas@@U?$less@PAVIMouseController@Pegas@@@std@@V?$allocator@PAVIMouseController@Pegas@@@4@$0A@@std@@@std@@I@std@@YAXViterator@?$_Tree@V?$_Tset_traits@PAVIMouseController@Pegas@@U?$less@PAVIMouseController@Pegas@@@std@@V?$allocator@PAVIMouseController@Pegas@@@4@$0A@@std@@@0@0AAI@Z 00404bb0 f i game_app.obj
 0001:00003bb0       ??$_Distance@Viterator@?$_Tree@V?$_Tset_traits@PAVIKeyboardController@Pegas@@U?$less@PAVIKeyboardController@Pegas@@@std@@V?$allocator@PAVIKeyboardController@Pegas@@@4@$0A@@std@@@std@@I@std@@YAXViterator@?$_Tree@V?$_Tset_traits@PAVIKeyboardController@Pegas@@U?$less@PAVIKeyboardController@Pegas@@@std@@V?$allocator@PAVIKeyboardController@Pegas@@@4@$0A@@std@@@0@0AAI@Z 00404bb0 f i game_app.obj
 0001:00003bb0       ??$_Distance@Vconst_iterator@?$_Tree@V?$_Tset_traits@PAVIKeyboardController@Pegas@@U?$less@PAVIKeyboardController@Pegas@@@std@@V?$allocator@PAVIKeyboardController@Pegas@@@4@$0A@@std@@@std@@I@std@@YAXVconst_iterator@?$_Tree@V?$_Tset_traits@PAVIKeyboardController@Pegas@@U?$less@PAVIKeyboardController@Pegas@@@std@@V?$allocator@PAVIKeyboardController@Pegas@@@4@$0A@@std@@@0@0AAI@Z 00404bb0 f i game_app.obj
 0001:00003c00       ??$_Distance@Vconst_iterator@?$_Tree@V?$_Tmap_traits@HV?$ptr@VIGameState@Pegas@@@Pegas@@U?$less@H@std@@V?$allocator@U?$pair@$$CBHV?$ptr@VIGameState@Pegas@@@Pegas@@@std@@@4@$0A@@std@@@std@@I@std@@YAXVconst_iterator@?$_Tree@V?$_Tmap_traits@HV?$ptr@VIGameState@Pegas@@@Pegas@@U?$less@H@std@@V?$allocator@U?$pair@$$CBHV?$ptr@VIGameState@Pegas@@@Pegas@@@std@@@4@$0A@@std@@@0@0AAI@Z 00404c00 f i game_app.obj
 0001:00003c00       ??$_Distance@Viterator@?$_Tree@V?$_Tmap_traits@HV?$ptr@VIGameState@Pegas@@@Pegas@@U?$less@H@std@@V?$allocator@U?$pair@$$CBHV?$ptr@VIGameState@Pegas@@@Pegas@@@std@@@4@$0A@@std@@@std@@I@std@@YAXViterator@?$_Tree@V?$_Tmap_traits@HV?$ptr@VIGameState@Pegas@@@Pegas@@U?$less@H@std@@V?$allocator@U?$pair@$$CBHV?$ptr@VIGameState@Pegas@@@Pegas@@@std@@@4@$0A@@std@@@0@0AAI@Z 00404c00 f i game_app.obj
 0001:00003c50       ??$copy@V?$_Deque_const_iterator@V?$ptr@VIGameState@Pegas@@@Pegas@@V?$allocator@V?$ptr@VIGameState@Pegas@@@Pegas@@@std@@$00@std@@V?$_Deque_iterator@V?$ptr@VIGameState@Pegas@@@Pegas@@V?$allocator@V?$ptr@VIGameState@Pegas@@@Pegas@@@std@@$00@2@@std@@YA?AV?$_Deque_iterator@V?$ptr@VIGameState@Pegas@@@Pegas@@V?$allocator@V?$ptr@VIGameState@Pegas@@@Pegas@@@std@@$00@0@V?$_Deque_const_iterator@V?$ptr@VIGameState@Pegas@@@Pegas@@V?$allocator@V?$ptr@VIGameState@Pegas@@@Pegas@@@std@@$00@0@0V10@@Z 00404c50 f i game_app.obj
 0001:00003cb0       ??$copy_backward@V?$_Deque_iterator@V?$ptr@VIGameState@Pegas@@@Pegas@@V?$allocator@V?$ptr@VIGameState@Pegas@@@Pegas@@@std@@$00@std@@V12@@std@@YA?AV?$_Deque_iterator@V?$ptr@VIGameState@Pegas@@@Pegas@@V?$allocator@V?$ptr@VIGameState@Pegas@@@Pegas@@@std@@$00@0@V10@00@Z 00404cb0 f i game_app.obj
 0001:00003d10       ??$copy@V?$_Deque_iterator@V?$ptr@VIGameState@Pegas@@@Pegas@@V?$allocator@V?$ptr@VIGameState@Pegas@@@Pegas@@@std@@$00@std@@V12@@std@@YA?AV?$_Deque_iterator@V?$ptr@VIGameState@Pegas@@@Pegas@@V?$allocator@V?$ptr@VIGameState@Pegas@@@Pegas@@@std@@$00@0@V10@00@Z 00404d10 f i game_app.obj
 0001:00003d70       ?insert@?$_Tree@V?$_Tmap_traits@HPAVTextureResource@Pegas@@U?$less@H@std@@V?$allocator@U?$pair@$$CBHPAVTextureResource@Pegas@@@std@@@4@$0A@@std@@@std@@QAE?AU?$pair@Viterator@?$_Tree@V?$_Tmap_traits@HPAVTextureResource@Pegas@@U?$less@H@std@@V?$allocator@U?$pair@$$CBHPAVTextureResource@Pegas@@@std@@@4@$0A@@std@@@std@@_N@2@ABU?$pair@$$CBHPAVTextureResource@Pegas@@@2@@Z 00404d70 f i game_app.obj
 0001:00003d70       ?insert@?$_Tree@V?$_Tmap_traits@HPAVFontResource@Pegas@@U?$less@H@std@@V?$allocator@U?$pair@$$CBHPAVFontResource@Pegas@@@std@@@4@$0A@@std@@@std@@QAE?AU?$pair@Viterator@?$_Tree@V?$_Tmap_traits@HPAVFontResource@Pegas@@U?$less@H@std@@V?$allocator@U?$pair@$$CBHPAVFontResource@Pegas@@@std@@@4@$0A@@std@@@std@@_N@2@ABU?$pair@$$CBHPAVFontResource@Pegas@@@2@@Z 00404d70 f i game_app.obj
 0001:00003e70       ?count@?$_Tree@V?$_Tmap_traits@HPAVFontResource@Pegas@@U?$less@H@std@@V?$allocator@U?$pair@$$CBHPAVFontResource@Pegas@@@std@@@4@$0A@@std@@@std@@QBEIABH@Z 00404e70 f i game_app.obj
 0001:00003ec0       ?_Insert@?$_Tree@V?$_Tmap_traits@HPAVFontResource@Pegas@@U?$less@H@std@@V?$allocator@U?$pair@$$CBHPAVFontResource@Pegas@@@std@@@4@$0A@@std@@@std@@IAE?AViterator@12@_NPAU_Node@?$_Tree_nod@V?$_Tmap_traits@HPAVFontResource@Pegas@@U?$less@H@std@@V?$allocator@U?$pair@$$CBHPAVFontResource@Pegas@@@std@@@4@$0A@@std@@@2@ABU?$pair@$$CBHPAVFontResource@Pegas@@@2@@Z 00404ec0 f i game_app.obj
 0001:00003ec0       ?_Insert@?$_Tree@V?$_Tmap_traits@HPAVTextureResource@Pegas@@U?$less@H@std@@V?$allocator@U?$pair@$$CBHPAVTextureResource@Pegas@@@std@@@4@$0A@@std@@@std@@IAE?AViterator@12@_NPAU_Node@?$_Tree_nod@V?$_Tmap_traits@HPAVTextureResource@Pegas@@U?$less@H@std@@V?$allocator@U?$pair@$$CBHPAVTextureResource@Pegas@@@std@@@4@$0A@@std@@@2@ABU?$pair@$$CBHPAVTextureResource@Pegas@@@2@@Z 00404ec0 f i game_app.obj
 0001:00004110       ?_Myval@?$_Tree@V?$_Tmap_traits@HPAVSoundResource@Pegas@@U?$less@H@std@@V?$allocator@U?$pair@$$CBHPAVSoundResource@Pegas@@@std@@@4@$0A@@std@@@std@@KAAAU?$pair@$$CBHPAVSoundResource@Pegas@@@2@PAU_Node@?$_Tree_nod@V?$_Tmap_traits@HPAVSoundResource@Pegas@@U?$less@H@std@@V?$allocator@U?$pair@$$CBHPAVSoundResource@Pegas@@@std@@@4@$0A@@std@@@2@@Z 00405110 f i game_app.obj
 0001:00004110       ?_Key@?$_Tree@V?$_Tmap_traits@HPAVFontResource@Pegas@@U?$less@H@std@@V?$allocator@U?$pair@$$CBHPAVFontResource@Pegas@@@std@@@4@$0A@@std@@@std@@KAABHPAU_Node@?$_Tree_nod@V?$_Tmap_traits@HPAVFontResource@Pegas@@U?$less@H@std@@V?$allocator@U?$pair@$$CBHPAVFontResource@Pegas@@@std@@@4@$0A@@std@@@2@@Z 00405110 f i game_app.obj
 0001:00004110       ?_Myval@?$_Tree@V?$_Tmap_traits@HPAVStringResource@Pegas@@U?$less@H@std@@V?$allocator@U?$pair@$$CBHPAVStringResource@Pegas@@@std@@@4@$0A@@std@@@std@@KAAAU?$pair@$$CBHPAVStringResource@Pegas@@@2@PAU_Node@?$_Tree_nod@V?$_Tmap_traits@HPAVStringResource@Pegas@@U?$less@H@std@@V?$allocator@U?$pair@$$CBHPAVStringResource@Pegas@@@std@@@4@$0A@@std@@@2@@Z 00405110 f i game_app.obj
 0001:00004110       ?_Key@?$_Tree@V?$_Tset_traits@HU?$less@H@std@@V?$allocator@H@2@$0A@@std@@@std@@KAABHPAU_Node@?$_Tree_nod@V?$_Tset_traits@HU?$less@H@std@@V?$allocator@H@2@$0A@@std@@@2@@Z 00405110 f i tile_grid.obj
 0001:00004120       ?append@?$basic_string@_WU?$char_traits@_W@std@@V?$allocator@_W@2@@std@@QAEAAV12@ABV12@II@Z 00405120 f i game_app.obj
 0001:00004230       ?_Buynode@?$_Tree@V?$_Tmap_traits@HPAVFontResource@Pegas@@U?$less@H@std@@V?$allocator@U?$pair@$$CBHPAVFontResource@Pegas@@@std@@@4@$0A@@std@@@std@@IAEPAU_Node@?$_Tree_nod@V?$_Tmap_traits@HPAVFontResource@Pegas@@U?$less@H@std@@V?$allocator@U?$pair@$$CBHPAVFontResource@Pegas@@@std@@@4@$0A@@std@@@2@PAU342@00ABU?$pair@$$CBHPAVFontResource@Pegas@@@2@D@Z 00405230 f i game_app.obj
 0001:00004230       ?_Buynode@?$_Tree@V?$_Tmap_traits@HPAVTextureResource@Pegas@@U?$less@H@std@@V?$allocator@U?$pair@$$CBHPAVTextureResource@Pegas@@@std@@@4@$0A@@std@@@std@@IAEPAU_Node@?$_Tree_nod@V?$_Tmap_traits@HPAVTextureResource@Pegas@@U?$less@H@std@@V?$allocator@U?$pair@$$CBHPAVTextureResource@Pegas@@@std@@@4@$0A@@std@@@2@PAU342@00ABU?$pair@$$CBHPAVTextureResource@Pegas@@@2@D@Z 00405230 f i game_app.obj
 0001:00004270       ?_Eqrange@?$_Tree@V?$_Tmap_traits@HPAVFontResource@Pegas@@U?$less@H@std@@V?$allocator@U?$pair@$$CBHPAVFontResource@Pegas@@@std@@@4@$0A@@std@@@std@@IBE?AU?$pair@Vconst_iterator@?$_Tree@V?$_Tmap_traits@HPAVFontResource@Pegas@@U?$less@H@std@@V?$allocator@U?$pair@$$CBHPAVFontResource@Pegas@@@std@@@4@$0A@@std@@@std@@V123@@2@ABH@Z 00405270 f i game_app.obj
 0001:00004270       ?_Eqrange@?$_Tree@V?$_Tmap_traits@HPAVTextureResource@Pegas@@U?$less@H@std@@V?$allocator@U?$pair@$$CBHPAVTextureResource@Pegas@@@std@@@4@$0A@@std@@@std@@IBE?AU?$pair@Vconst_iterator@?$_Tree@V?$_Tmap_traits@HPAVTextureResource@Pegas@@U?$less@H@std@@V?$allocator@U?$pair@$$CBHPAVTextureResource@Pegas@@@std@@@4@$0A@@std@@@std@@V123@@2@ABH@Z 00405270 f i game_app.obj
 0001:00004300       ??Fconst_iterator@?$_Tree@V?$_Tmap_traits@HPAVFontResource@Pegas@@U?$less@H@std@@V?$allocator@U?$pair@$$CBHPAVFontResource@Pegas@@@std@@@4@$0A@@std@@@std@@QAEAAV012@XZ 00405300 f i game_app.obj
 0001:00004310       ?_Dec@const_iterator@?$_Tree@V?$_Tmap_traits@HPAVFontResource@Pegas@@U?$less@H@std@@V?$allocator@U?$pair@$$CBHPAVFontResource@Pegas@@@std@@@4@$0A@@std@@@std@@QAEXXZ 00405310 f i game_app.obj
 0001:00004310       ?_Dec@const_iterator@?$_Tree@V?$_Tmap_traits@HPAVTextureResource@Pegas@@U?$less@H@std@@V?$allocator@U?$pair@$$CBHPAVTextureResource@Pegas@@@std@@@4@$0A@@std@@@std@@QAEXXZ 00405310 f i game_app.obj
 0001:000043a0       ??$_Copy_opt@V?$_Deque_const_iterator@V?$ptr@VIGameState@Pegas@@@Pegas@@V?$allocator@V?$ptr@VIGameState@Pegas@@@Pegas@@@std@@$0A@@std@@V?$_Deque_iterator@V?$ptr@VIGameState@Pegas@@@Pegas@@V?$allocator@V?$ptr@VIGameState@Pegas@@@Pegas@@@std@@$00@2@@std@@YA?AV?$_Deque_iterator@V?$ptr@VIGameState@Pegas@@@Pegas@@V?$allocator@V?$ptr@VIGameState@Pegas@@@Pegas@@@std@@$00@0@V?$_Deque_const_iterator@V?$ptr@VIGameState@Pegas@@@Pegas@@V?$allocator@V?$ptr@VIGameState@Pegas@@@Pegas@@@std@@$0A@@0@0V10@Urandom_access_iterator_tag@0@U_Nonscalar_ptr_iterator_tag@0@U_Range_checked_iterator_tag@0@@Z 004053a0 f i game_app.obj
 0001:00004460       ??$_Insert@V?$_Deque_const_iterator@V?$ptr@VIGameState@Pegas@@@Pegas@@V?$allocator@V?$ptr@VIGameState@Pegas@@@Pegas@@@std@@$00@std@@@?$deque@V?$ptr@VIGameState@Pegas@@@Pegas@@V?$allocator@V?$ptr@VIGameState@Pegas@@@Pegas@@@std@@@std@@QAEXV?$_Deque_const_iterator@V?$ptr@VIGameState@Pegas@@@Pegas@@V?$allocator@V?$ptr@VIGameState@Pegas@@@Pegas@@@std@@$00@1@00Uinput_iterator_tag@1@@Z 00405460 f i game_app.obj
 0001:00004710       ??$_Copy_backward_opt@V?$_Deque_iterator@V?$ptr@VIGameState@Pegas@@@Pegas@@V?$allocator@V?$ptr@VIGameState@Pegas@@@Pegas@@@std@@$0A@@std@@V?$_Deque_iterator@V?$ptr@VIGameState@Pegas@@@Pegas@@V?$allocator@V?$ptr@VIGameState@Pegas@@@Pegas@@@std@@$00@2@@std@@YA?AV?$_Deque_iterator@V?$ptr@VIGameState@Pegas@@@Pegas@@V?$allocator@V?$ptr@VIGameState@Pegas@@@Pegas@@@std@@$00@0@V?$_Deque_iterator@V?$ptr@VIGameState@Pegas@@@Pegas@@V?$allocator@V?$ptr@VIGameState@Pegas@@@Pegas@@@std@@$0A@@0@0V10@Urandom_access_iterator_tag@0@U_Nonscalar_ptr_iterator_tag@0@U_Range_checked_iterator_tag@0@@Z 00405710 f i game_app.obj
 0001:000047d0       ??$_Copy_opt@V?$_Deque_iterator@V?$ptr@VIGameState@Pegas@@@Pegas@@V?$allocator@V?$ptr@VIGameState@Pegas@@@Pegas@@@std@@$0A@@std@@V?$_Deque_iterator@V?$ptr@VIGameState@Pegas@@@Pegas@@V?$allocator@V?$ptr@VIGameState@Pegas@@@Pegas@@@std@@$00@2@@std@@YA?AV?$_Deque_iterator@V?$ptr@VIGameState@Pegas@@@Pegas@@V?$allocator@V?$ptr@VIGameState@Pegas@@@Pegas@@@std@@$00@0@V?$_Deque_iterator@V?$ptr@VIGameState@Pegas@@@Pegas@@V?$allocator@V?$ptr@VIGameState@Pegas@@@Pegas@@@std@@$0A@@0@0V10@Urandom_access_iterator_tag@0@U_Nonscalar_ptr_iterator_tag@0@U_Range_checked_iterator_tag@0@@Z 004057d0 f i game_app.obj
 0001:00004890       ?push_front@?$deque@V?$ptr@VIGameState@Pegas@@@Pegas@@V?$allocator@V?$ptr@VIGameState@Pegas@@@Pegas@@@std@@@std@@QAEXABV?$ptr@VIGameState@Pegas@@@Pegas@@@Z 00405890 f i game_app.obj
 0001:00004910       ?_Reverse@?$deque@V?$ptr@VIGameState@Pegas@@@Pegas@@V?$allocator@V?$ptr@VIGameState@Pegas@@@Pegas@@@std@@@std@@QAEXII@Z 00405910 f i game_app.obj
 0001:00004bc0       ??$_Copy_opt@V?$_Deque_const_iterator@V?$ptr@VIGameState@Pegas@@@Pegas@@V?$allocator@V?$ptr@VIGameState@Pegas@@@Pegas@@@std@@$0A@@std@@V?$_Deque_iterator@V?$ptr@VIGameState@Pegas@@@Pegas@@V?$allocator@V?$ptr@VIGameState@Pegas@@@Pegas@@@std@@$0A@@2@Uforward_iterator_tag@2@@std@@YA?AV?$_Deque_iterator@V?$ptr@VIGameState@Pegas@@@Pegas@@V?$allocator@V?$ptr@VIGameState@Pegas@@@Pegas@@@std@@$0A@@0@V?$_Deque_const_iterator@V?$ptr@VIGameState@Pegas@@@Pegas@@V?$allocator@V?$ptr@VIGameState@Pegas@@@Pegas@@@std@@$0A@@0@0V10@Uforward_iterator_tag@0@U_Nonscalar_ptr_iterator_tag@0@U_Range_checked_iterator_tag@0@@Z 00405bc0 f i game_app.obj
 0001:00004c60       ??$_Copy_backward_opt@V?$_Deque_iterator@V?$ptr@VIGameState@Pegas@@@Pegas@@V?$allocator@V?$ptr@VIGameState@Pegas@@@Pegas@@@std@@$0A@@std@@V12@Uforward_iterator_tag@2@@std@@YA?AV?$_Deque_iterator@V?$ptr@VIGameState@Pegas@@@Pegas@@V?$allocator@V?$ptr@VIGameState@Pegas@@@Pegas@@@std@@$0A@@0@V10@00Uforward_iterator_tag@0@U_Nonscalar_ptr_iterator_tag@0@U_Range_checked_iterator_tag@0@@Z 00405c60 f i game_app.obj
 0001:00004d00       ??$_Copy_opt@V?$_Deque_iterator@V?$ptr@VIGameState@Pegas@@@Pegas@@V?$allocator@V?$ptr@VIGameState@Pegas@@@Pegas@@@std@@$0A@@std@@V12@Uforward_iterator_tag@2@@std@@YA?AV?$_Deque_iterator@V?$ptr@VIGameState@Pegas@@@Pegas@@V?$allocator@V?$ptr@VIGameState@Pegas@@@Pegas@@@std@@$0A@@0@V10@00Uforward_iterator_tag@0@U_Nonscalar_ptr_iterator_tag@0@U_Range_checked_iterator_tag@0@@Z 00405d00 f i game_app.obj
 0001:00004da0       ??$_Distance2@Vconst_iterator@?$_Tree@V?$_Tmap_traits@HPAVTextureResource@Pegas@@U?$less@H@std@@V?$allocator@U?$pair@$$CBHPAVTextureResource@Pegas@@@std@@@4@$0A@@std@@@std@@I@std@@YAXVconst_iterator@?$_Tree@V?$_Tmap_traits@HPAVTextureResource@Pegas@@U?$less@H@std@@V?$allocator@U?$pair@$$CBHPAVTextureResource@Pegas@@@std@@@4@$0A@@std@@@0@0AAIUbidirectional_iterator_tag@0@@Z 00405da0 f i game_app.obj
 0001:00004da0       ??$_Distance2@Vconst_iterator@?$_Tree@V?$_Tmap_traits@HPAVFontResource@Pegas@@U?$less@H@std@@V?$allocator@U?$pair@$$CBHPAVFontResource@Pegas@@@std@@@4@$0A@@std@@@std@@I@std@@YAXVconst_iterator@?$_Tree@V?$_Tmap_traits@HPAVFontResource@Pegas@@U?$less@H@std@@V?$allocator@U?$pair@$$CBHPAVFontResource@Pegas@@@std@@@4@$0A@@std@@@0@0AAIUbidirectional_iterator_tag@0@@Z 00405da0 f i game_app.obj
 0001:00004de0       ??D?$_Deque_const_iterator@V?$ptr@VIGameState@Pegas@@@Pegas@@V?$allocator@V?$ptr@VIGameState@Pegas@@@Pegas@@@std@@$0A@@std@@QBEABV?$ptr@VIGameState@Pegas@@@Pegas@@XZ 00405de0 f i game_app.obj
 0001:00004de0       ??D?$_Deque_const_iterator@V?$ptr@VIGameState@Pegas@@@Pegas@@V?$allocator@V?$ptr@VIGameState@Pegas@@@Pegas@@@std@@$00@std@@QBEABV?$ptr@VIGameState@Pegas@@@Pegas@@XZ 00405de0 f i game_app.obj
 0001:00004e70       ?compare@?$char_traits@D@std@@SAHPBD0I@Z 00405e70 f i game_app.obj
 0001:00004ef0       ?compare@?$basic_string@DU?$char_traits@D@std@@V?$allocator@D@2@@std@@QBEHABV12@@Z 00405ef0 f i game_app.obj
 0001:00004f40       ??1out_of_range@std@@UAE@XZ 00405f40 f i game_app.obj
 0001:00004f40       ??1length_error@std@@UAE@XZ 00405f40 f i game_app.obj
 0001:00004f80       ??0length_error@std@@QAE@ABV01@@Z 00405f80 f i game_app.obj
 0001:00004fa0       ??_Gout_of_range@std@@UAEPAXI@Z 00405fa0 f i game_app.obj
 0001:00004fa0       ??_Elogic_error@std@@UAEPAXI@Z 00405fa0 f i  CIL library: CIL module
 0001:00004fa0       ??_Glength_error@std@@UAEPAXI@Z 00405fa0 f i game_app.obj
 0001:00004fa0       ??_Elength_error@std@@UAEPAXI@Z 00405fa0 f i  CIL library: CIL module
 0001:00004fa0       ??_Glogic_error@std@@UAEPAXI@Z 00405fa0 f i game_app.obj
 0001:00004fa0       ??_Eout_of_range@std@@UAEPAXI@Z 00405fa0 f i  CIL library: CIL module
 0001:00005000       ??0length_error@std@@QAE@ABV?$basic_string@DU?$char_traits@D@std@@V?$allocator@D@2@@1@@Z 00406000 f i game_app.obj
 0001:00005020       ??_GNullPointerException@Pegas@@UAEPAXI@Z 00406020 f i game_app.obj
 0001:00005020       ??_ENullPointerException@Pegas@@UAEPAXI@Z 00406020 f i  CIL library: CIL module
 0001:00005050       ?what@NullPointerException@Pegas@@UBEPBDXZ 00406050 f i game_app.obj
 0001:00005060       ??0NullPointerException@Pegas@@QAE@XZ 00406060 f i game_app.obj
 0001:00005070       ??0Counter@Pegas@@QAE@I@Z  00406070 f i game_app.obj
 0001:00005080       ??0?$basic_string@_WU?$char_traits@_W@std@@V?$allocator@_W@2@@std@@QAE@XZ 00406080 f i game_app.obj
 0001:000050a0       ??0File@Pegas@@QAE@XZ      004060a0 f i game_app.obj
 0001:00005110       ?getType@Event_Game_BackwardToPreviousState@Pegas@@UBE?AV?$basic_string@DU?$char_traits@D@std@@V?$allocator@D@2@@std@@XZ 00406110 f i game_app.obj
 0001:00005140       ??0Event_Game_BackwardToPreviousState@Pegas@@QAE@XZ 00406140 f i game_app.obj
 0001:000051b0       ?getType@Event_Game_ForwardToState@Pegas@@UBE?AV?$basic_string@DU?$char_traits@D@std@@V?$allocator@D@2@@std@@XZ 004061b0 f i game_app.obj
 0001:000051e0       ??0Event_Game_ForwardToState@Pegas@@QAE@ABH@Z 004061e0 f i game_app.obj
 0001:00005250       ?getType@Event_Game_ChangeState@Pegas@@UBE?AV?$basic_string@DU?$char_traits@D@std@@V?$allocator@D@2@@std@@XZ 00406250 f i game_app.obj
 0001:00005280       ??0Event_Game_ChangeState@Pegas@@QAE@ABH@Z 00406280 f i game_app.obj
 0001:000052f0       ?assign@?$basic_string@_WU?$char_traits@_W@std@@V?$allocator@_W@2@@std@@QAEAAV12@PB_WI@Z 004062f0 f i game_app.obj
 0001:000053e0       ??0?$basic_string@_WU?$char_traits@_W@std@@V?$allocator@_W@2@@std@@QAE@PB_W@Z 004063e0 f i game_app.obj
 0001:00005420       ?size@?$basic_string@_WU?$char_traits@_W@std@@V?$allocator@_W@2@@std@@QBEIXZ 00406420 f i game_app.obj
 0001:00005430       ?erase@?$basic_string@_WU?$char_traits@_W@std@@V?$allocator@_W@2@@std@@QAEAAV12@II@Z 00406430 f i game_app.obj
 0001:000054d0       ??$_Allocate@_W@std@@YAPA_WIPA_W@Z 004064d0 f i game_app.obj
 0001:00005530       ?_Copy@?$basic_string@_WU?$char_traits@_W@std@@V?$allocator@_W@2@@std@@IAEXII@Z 00406530 f i game_app.obj
 0001:00005680       ?_Myptr@?$basic_string@_WU?$char_traits@_W@std@@V?$allocator@_W@2@@std@@IBEPB_WXZ 00406680 f i game_app.obj
 0001:00005690       ?assign@?$basic_string@_WU?$char_traits@_W@std@@V?$allocator@_W@2@@std@@QAEAAV12@ABV12@II@Z 00406690 f i game_app.obj
 0001:00005790       ?getInstance@?$Singleton@VOSUtils@Pegas@@@Pegas@@SAAAVOSUtils@2@XZ 00406790 f i game_app.obj
 0001:000057b0       ??0Event@Pegas@@QAE@XZ     004067b0 f i game_app.obj
 0001:000057c0       ??1?$ptr@VProcess@Pegas@@@Pegas@@QAE@XZ 004067c0 f i game_app.obj
 0001:00005800       ??1Event@Pegas@@UAE@XZ     00406800 f i game_app.obj
 0001:00005810       ?_Inc@const_iterator@?$_Tree@V?$_Tmap_traits@HPAVSoundResource@Pegas@@U?$less@H@std@@V?$allocator@U?$pair@$$CBHPAVSoundResource@Pegas@@@std@@@4@$0A@@std@@@std@@QAEXXZ 00406810 f i game_app.obj
 0001:00005810       ?_Inc@const_iterator@?$_Tree@V?$_Tmap_traits@HPAVTextureResource@Pegas@@U?$less@H@std@@V?$allocator@U?$pair@$$CBHPAVTextureResource@Pegas@@@std@@@4@$0A@@std@@@std@@QAEXXZ 00406810 f i game_app.obj
 0001:00005810       ?_Inc@const_iterator@?$_Tree@V?$_Tmap_traits@HPAVStringResource@Pegas@@U?$less@H@std@@V?$allocator@U?$pair@$$CBHPAVStringResource@Pegas@@@std@@@4@$0A@@std@@@std@@QAEXXZ 00406810 f i game_app.obj
 0001:00005810       ?_Inc@const_iterator@?$_Tree@V?$_Tmap_traits@HPAVFontResource@Pegas@@U?$less@H@std@@V?$allocator@U?$pair@$$CBHPAVFontResource@Pegas@@@std@@@4@$0A@@std@@@std@@QAEXXZ 00406810 f i game_app.obj
 0001:00005880       ??Econst_iterator@?$_Tree@V?$_Tmap_traits@HPAVStringResource@Pegas@@U?$less@H@std@@V?$allocator@U?$pair@$$CBHPAVStringResource@Pegas@@@std@@@4@$0A@@std@@@std@@QAEAAV012@XZ 00406880 f i game_app.obj
 0001:00005880       ??Eiterator@?$_Tree@V?$_Tmap_traits@HPAVFontResource@Pegas@@U?$less@H@std@@V?$allocator@U?$pair@$$CBHPAVFontResource@Pegas@@@std@@@4@$0A@@std@@@std@@QAEAAV012@XZ 00406880 f i game_app.obj
 0001:00005880       ??Econst_iterator@?$_Tree@V?$_Tmap_traits@HPAVSoundResource@Pegas@@U?$less@H@std@@V?$allocator@U?$pair@$$CBHPAVSoundResource@Pegas@@@std@@@4@$0A@@std@@@std@@QAEAAV012@XZ 00406880 f i game_app.obj
 0001:00005880       ??Econst_iterator@?$_Tree@V?$_Tmap_traits@HPAVFontResource@Pegas@@U?$less@H@std@@V?$allocator@U?$pair@$$CBHPAVFontResource@Pegas@@@std@@@4@$0A@@std@@@std@@QAEAAV012@XZ 00406880 f i game_app.obj
 0001:00005880       ??Eiterator@?$_Tree@V?$_Tmap_traits@HPAVTextureResource@Pegas@@U?$less@H@std@@V?$allocator@U?$pair@$$CBHPAVTextureResource@Pegas@@@std@@@4@$0A@@std@@@std@@QAEAAV012@XZ 00406880 f i game_app.obj
 0001:00005890       ?_Left@?$_Tree@V?$_Tmap_traits@HPAVFontResource@Pegas@@U?$less@H@std@@V?$allocator@U?$pair@$$CBHPAVFontResource@Pegas@@@std@@@4@$0A@@std@@@std@@KAAAPAU_Node@?$_Tree_nod@V?$_Tmap_traits@HPAVFontResource@Pegas@@U?$less@H@std@@V?$allocator@U?$pair@$$CBHPAVFontResource@Pegas@@@std@@@4@$0A@@std@@@2@PAU342@@Z 00406890 f i game_app.obj
 0001:00005890       ?_Kfn@?$_Tmap_traits@HPAVFontResource@Pegas@@U?$less@H@std@@V?$allocator@U?$pair@$$CBHPAVFontResource@Pegas@@@std@@@4@$0A@@std@@SAABHABU?$pair@$$CBHPAVFontResource@Pegas@@@2@@Z 00406890 f i game_app.obj
 0001:00005890       ?_Left@?$_Tree@V?$_Tset_traits@HU?$less@H@std@@V?$allocator@H@2@$0A@@std@@@std@@KAAAPAU_Node@?$_Tree_nod@V?$_Tset_traits@HU?$less@H@std@@V?$allocator@H@2@$0A@@std@@@2@PAU342@@Z 00406890 f i tile_grid.obj
 0001:00005890       ?_Nextnode@?$list@PAVIDrawable@Pegas@@V?$allocator@PAVIDrawable@Pegas@@@std@@@std@@KAAAPAU_Node@?$_List_nod@PAVIDrawable@Pegas@@V?$allocator@PAVIDrawable@Pegas@@@std@@@2@PAU342@@Z 00406890 f i pacman.obj
 0001:00005890       ?_Left@?$_Tree@V?$_Tmap_traits@HPAVSoundResource@Pegas@@U?$less@H@std@@V?$allocator@U?$pair@$$CBHPAVSoundResource@Pegas@@@std@@@4@$0A@@std@@@std@@KAAAPAU_Node@?$_Tree_nod@V?$_Tmap_traits@HPAVSoundResource@Pegas@@U?$less@H@std@@V?$allocator@U?$pair@$$CBHPAVSoundResource@Pegas@@@std@@@4@$0A@@std@@@2@PAU342@@Z 00406890 f i game_app.obj
 0001:00005890       ?_Left@?$_Tree@V?$_Tmap_traits@HPAVStringResource@Pegas@@U?$less@H@std@@V?$allocator@U?$pair@$$CBHPAVStringResource@Pegas@@@std@@@4@$0A@@std@@@std@@KAAAPAU_Node@?$_Tree_nod@V?$_Tmap_traits@HPAVStringResource@Pegas@@U?$less@H@std@@V?$allocator@U?$pair@$$CBHPAVStringResource@Pegas@@@std@@@4@$0A@@std@@@2@PAU342@@Z 00406890 f i game_app.obj
 0001:000058a0       ?_Parent@?$_Tree@V?$_Tmap_traits@HPAVStringResource@Pegas@@U?$less@H@std@@V?$allocator@U?$pair@$$CBHPAVStringResource@Pegas@@@std@@@4@$0A@@std@@@std@@KAAAPAU_Node@?$_Tree_nod@V?$_Tmap_traits@HPAVStringResource@Pegas@@U?$less@H@std@@V?$allocator@U?$pair@$$CBHPAVStringResource@Pegas@@@std@@@4@$0A@@std@@@2@PAU342@@Z 004068a0 f i game_app.obj
 0001:000058a0       ?_Parent@?$_Tree@V?$_Tmap_traits@HPAVSoundResource@Pegas@@U?$less@H@std@@V?$allocator@U?$pair@$$CBHPAVSoundResource@Pegas@@@std@@@4@$0A@@std@@@std@@KAAAPAU_Node@?$_Tree_nod@V?$_Tmap_traits@HPAVSoundResource@Pegas@@U?$less@H@std@@V?$allocator@U?$pair@$$CBHPAVSoundResource@Pegas@@@std@@@4@$0A@@std@@@2@PAU342@@Z 004068a0 f i game_app.obj
 0001:000058b0       ?_Right@?$_Tree@V?$_Tmap_traits@HPAVStringResource@Pegas@@U?$less@H@std@@V?$allocator@U?$pair@$$CBHPAVStringResource@Pegas@@@std@@@4@$0A@@std@@@std@@KAAAPAU_Node@?$_Tree_nod@V?$_Tmap_traits@HPAVStringResource@Pegas@@U?$less@H@std@@V?$allocator@U?$pair@$$CBHPAVStringResource@Pegas@@@std@@@4@$0A@@std@@@2@PAU342@@Z 004068b0 f i game_app.obj
 0001:000058b0       ?_Right@?$_Tree@V?$_Tmap_traits@HPAVSoundResource@Pegas@@U?$less@H@std@@V?$allocator@U?$pair@$$CBHPAVSoundResource@Pegas@@@std@@@4@$0A@@std@@@std@@KAAAPAU_Node@?$_Tree_nod@V?$_Tmap_traits@HPAVSoundResource@Pegas@@U?$less@H@std@@V?$allocator@U?$pair@$$CBHPAVSoundResource@Pegas@@@std@@@4@$0A@@std@@@2@PAU342@@Z 004068b0 f i game_app.obj
 0001:000058b0       ?_Right@?$_Tree@V?$_Tset_traits@HU?$less@H@std@@V?$allocator@H@2@$0A@@std@@@std@@KAAAPAU_Node@?$_Tree_nod@V?$_Tset_traits@HU?$less@H@std@@V?$allocator@H@2@$0A@@std@@@2@PAU342@@Z 004068b0 f i tile_grid.obj
 0001:000058b0       ?_Right@?$_Tree@V?$_Tmap_traits@HPAVFontResource@Pegas@@U?$less@H@std@@V?$allocator@U?$pair@$$CBHPAVFontResource@Pegas@@@std@@@4@$0A@@std@@@std@@KAAAPAU_Node@?$_Tree_nod@V?$_Tmap_traits@HPAVFontResource@Pegas@@U?$less@H@std@@V?$allocator@U?$pair@$$CBHPAVFontResource@Pegas@@@std@@@4@$0A@@std@@@2@PAU342@@Z 004068b0 f i game_app.obj
 0001:000058c0       ??Diterator@?$_Tree@V?$_Tmap_traits@HPAVStringResource@Pegas@@U?$less@H@std@@V?$allocator@U?$pair@$$CBHPAVStringResource@Pegas@@@std@@@4@$0A@@std@@@std@@QBEAAU?$pair@$$CBHPAVStringResource@Pegas@@@2@XZ 004068c0 f i game_app.obj
 0001:000058c0       ??Diterator@?$_Tree@V?$_Tmap_traits@HPAVFontResource@Pegas@@U?$less@H@std@@V?$allocator@U?$pair@$$CBHPAVFontResource@Pegas@@@std@@@4@$0A@@std@@@std@@QBEAAU?$pair@$$CBHPAVFontResource@Pegas@@@2@XZ 004068c0 f i game_app.obj
 0001:000058c0       ??Diterator@?$_Tree@V?$_Tset_traits@HU?$less@H@std@@V?$allocator@H@2@$0A@@std@@@std@@QBEAAHXZ 004068c0 f i tile_grid.obj
 0001:000058c0       ??Citerator@?$_Tree@V?$_Tmap_traits@HPAVTextureResource@Pegas@@U?$less@H@std@@V?$allocator@U?$pair@$$CBHPAVTextureResource@Pegas@@@std@@@4@$0A@@std@@@std@@QBEPAU?$pair@$$CBHPAVTextureResource@Pegas@@@2@XZ 004068c0 f i game_app.obj
 0001:000058c0       ??Diterator@?$_Tree@V?$_Tmap_traits@HPAVSoundResource@Pegas@@U?$less@H@std@@V?$allocator@U?$pair@$$CBHPAVSoundResource@Pegas@@@std@@@4@$0A@@std@@@std@@QBEAAU?$pair@$$CBHPAVSoundResource@Pegas@@@2@XZ 004068c0 f i game_app.obj
 0001:000058c0       ??Citerator@?$_Tree@V?$_Tmap_traits@HPAVFontResource@Pegas@@U?$less@H@std@@V?$allocator@U?$pair@$$CBHPAVFontResource@Pegas@@@std@@@4@$0A@@std@@@std@@QBEPAU?$pair@$$CBHPAVFontResource@Pegas@@@2@XZ 004068c0 f i game_app.obj
 0001:000058f0       ?_Erase@?$_Tree@V?$_Tmap_traits@HPAVStringResource@Pegas@@U?$less@H@std@@V?$allocator@U?$pair@$$CBHPAVStringResource@Pegas@@@std@@@4@$0A@@std@@@std@@IAEXPAU_Node@?$_Tree_nod@V?$_Tmap_traits@HPAVStringResource@Pegas@@U?$less@H@std@@V?$allocator@U?$pair@$$CBHPAVStringResource@Pegas@@@std@@@4@$0A@@std@@@2@@Z 004068f0 f i game_app.obj
 0001:000058f0       ?_Erase@?$_Tree@V?$_Tmap_traits@HPAVTextureResource@Pegas@@U?$less@H@std@@V?$allocator@U?$pair@$$CBHPAVTextureResource@Pegas@@@std@@@4@$0A@@std@@@std@@IAEXPAU_Node@?$_Tree_nod@V?$_Tmap_traits@HPAVTextureResource@Pegas@@U?$less@H@std@@V?$allocator@U?$pair@$$CBHPAVTextureResource@Pegas@@@std@@@4@$0A@@std@@@2@@Z 004068f0 f i game_app.obj
 0001:000058f0       ?_Erase@?$_Tree@V?$_Tmap_traits@HPAVFontResource@Pegas@@U?$less@H@std@@V?$allocator@U?$pair@$$CBHPAVFontResource@Pegas@@@std@@@4@$0A@@std@@@std@@IAEXPAU_Node@?$_Tree_nod@V?$_Tmap_traits@HPAVFontResource@Pegas@@U?$less@H@std@@V?$allocator@U?$pair@$$CBHPAVFontResource@Pegas@@@std@@@4@$0A@@std@@@2@@Z 004068f0 f i game_app.obj
 0001:000058f0       ?_Erase@?$_Tree@V?$_Tmap_traits@HPAVSoundResource@Pegas@@U?$less@H@std@@V?$allocator@U?$pair@$$CBHPAVSoundResource@Pegas@@@std@@@4@$0A@@std@@@std@@IAEXPAU_Node@?$_Tree_nod@V?$_Tmap_traits@HPAVSoundResource@Pegas@@U?$less@H@std@@V?$allocator@U?$pair@$$CBHPAVSoundResource@Pegas@@@std@@@4@$0A@@std@@@2@@Z 004068f0 f i game_app.obj
 0001:00005930       ??9const_iterator@?$_Tree@V?$_Tmap_traits@HPAVTextureResource@Pegas@@U?$less@H@std@@V?$allocator@U?$pair@$$CBHPAVTextureResource@Pegas@@@std@@@4@$0A@@std@@@std@@QBE_NABV012@@Z 00406930 f i game_app.obj
 0001:00005930       ??9const_iterator@?$_Tree@V?$_Tset_traits@HU?$less@H@std@@V?$allocator@H@2@$0A@@std@@@std@@QBE_NABV012@@Z 00406930 f i tile_grid.obj
 0001:00005930       ??9const_iterator@?$_Tree@V?$_Tmap_traits@HPAVFontResource@Pegas@@U?$less@H@std@@V?$allocator@U?$pair@$$CBHPAVFontResource@Pegas@@@std@@@4@$0A@@std@@@std@@QBE_NABV012@@Z 00406930 f i game_app.obj
 0001:00005930       ??9const_iterator@?$_Tree@V?$_Tmap_traits@HPAVStringResource@Pegas@@U?$less@H@std@@V?$allocator@U?$pair@$$CBHPAVStringResource@Pegas@@@std@@@4@$0A@@std@@@std@@QBE_NABV012@@Z 00406930 f i game_app.obj
 0001:00005930       ??9const_iterator@?$_Tree@V?$_Tmap_traits@HPAVSoundResource@Pegas@@U?$less@H@std@@V?$allocator@U?$pair@$$CBHPAVSoundResource@Pegas@@@std@@@4@$0A@@std@@@std@@QBE_NABV012@@Z 00406930 f i game_app.obj
 0001:00005960       ?_Mynode@const_iterator@?$_Tree@V?$_Tmap_traits@HPAVFontResource@Pegas@@U?$less@H@std@@V?$allocator@U?$pair@$$CBHPAVFontResource@Pegas@@@std@@@4@$0A@@std@@@std@@QBEPAU_Node@?$_Tree_nod@V?$_Tmap_traits@HPAVFontResource@Pegas@@U?$less@H@std@@V?$allocator@U?$pair@$$CBHPAVFontResource@Pegas@@@std@@@4@$0A@@std@@@3@XZ 00406960 f i game_app.obj
 0001:00005960       ?_Mynode@const_iterator@?$_Tree@V?$_Tmap_traits@HPAVStringResource@Pegas@@U?$less@H@std@@V?$allocator@U?$pair@$$CBHPAVStringResource@Pegas@@@std@@@4@$0A@@std@@@std@@QBEPAU_Node@?$_Tree_nod@V?$_Tmap_traits@HPAVStringResource@Pegas@@U?$less@H@std@@V?$allocator@U?$pair@$$CBHPAVStringResource@Pegas@@@std@@@4@$0A@@std@@@3@XZ 00406960 f i pacman.obj
 0001:00005960       ?_Mynode@const_iterator@?$_Tree@V?$_Tmap_traits@HPAVSoundResource@Pegas@@U?$less@H@std@@V?$allocator@U?$pair@$$CBHPAVSoundResource@Pegas@@@std@@@4@$0A@@std@@@std@@QBEPAU_Node@?$_Tree_nod@V?$_Tmap_traits@HPAVSoundResource@Pegas@@U?$less@H@std@@V?$allocator@U?$pair@$$CBHPAVSoundResource@Pegas@@@std@@@4@$0A@@std@@@3@XZ 00406960 f i pacman.obj
 0001:00005970       ?_Rmost@?$_Tree@V?$_Tmap_traits@HPAVFontResource@Pegas@@U?$less@H@std@@V?$allocator@U?$pair@$$CBHPAVFontResource@Pegas@@@std@@@4@$0A@@std@@@std@@IBEAAPAU_Node@?$_Tree_nod@V?$_Tmap_traits@HPAVFontResource@Pegas@@U?$less@H@std@@V?$allocator@U?$pair@$$CBHPAVFontResource@Pegas@@@std@@@4@$0A@@std@@@2@XZ 00406970 f i game_app.obj
 0001:00005970       ?_Rmost@?$_Tree@V?$_Tmap_traits@HPAVSoundResource@Pegas@@U?$less@H@std@@V?$allocator@U?$pair@$$CBHPAVSoundResource@Pegas@@@std@@@4@$0A@@std@@@std@@IBEAAPAU_Node@?$_Tree_nod@V?$_Tmap_traits@HPAVSoundResource@Pegas@@U?$less@H@std@@V?$allocator@U?$pair@$$CBHPAVSoundResource@Pegas@@@std@@@4@$0A@@std@@@2@XZ 00406970 f i game_app.obj
 0001:00005970       ?_Rmost@?$_Tree@V?$_Tmap_traits@HPAVStringResource@Pegas@@U?$less@H@std@@V?$allocator@U?$pair@$$CBHPAVStringResource@Pegas@@@std@@@4@$0A@@std@@@std@@IBEAAPAU_Node@?$_Tree_nod@V?$_Tmap_traits@HPAVStringResource@Pegas@@U?$less@H@std@@V?$allocator@U?$pair@$$CBHPAVStringResource@Pegas@@@std@@@4@$0A@@std@@@2@XZ 00406970 f i game_app.obj
 0001:00005980       ?_Max@?$_Tree@V?$_Tmap_traits@HPAVSoundResource@Pegas@@U?$less@H@std@@V?$allocator@U?$pair@$$CBHPAVSoundResource@Pegas@@@std@@@4@$0A@@std@@@std@@KAPAU_Node@?$_Tree_nod@V?$_Tmap_traits@HPAVSoundResource@Pegas@@U?$less@H@std@@V?$allocator@U?$pair@$$CBHPAVSoundResource@Pegas@@@std@@@4@$0A@@std@@@2@PAU342@@Z 00406980 f i pacman.obj
 0001:00005980       ?_Max@?$_Tree@V?$_Tmap_traits@HPAVFontResource@Pegas@@U?$less@H@std@@V?$allocator@U?$pair@$$CBHPAVFontResource@Pegas@@@std@@@4@$0A@@std@@@std@@KAPAU_Node@?$_Tree_nod@V?$_Tmap_traits@HPAVFontResource@Pegas@@U?$less@H@std@@V?$allocator@U?$pair@$$CBHPAVFontResource@Pegas@@@std@@@4@$0A@@std@@@2@PAU342@@Z 00406980 f i game_app.obj
 0001:00005980       ?_Max@?$_Tree@V?$_Tmap_traits@HPAVTextureResource@Pegas@@U?$less@H@std@@V?$allocator@U?$pair@$$CBHPAVTextureResource@Pegas@@@std@@@4@$0A@@std@@@std@@KAPAU_Node@?$_Tree_nod@V?$_Tmap_traits@HPAVTextureResource@Pegas@@U?$less@H@std@@V?$allocator@U?$pair@$$CBHPAVTextureResource@Pegas@@@std@@@4@$0A@@std@@@2@PAU342@@Z 00406980 f i game_app.obj
 0001:00005980       ?_Max@?$_Tree@V?$_Tmap_traits@HPAVStringResource@Pegas@@U?$less@H@std@@V?$allocator@U?$pair@$$CBHPAVStringResource@Pegas@@@std@@@4@$0A@@std@@@std@@KAPAU_Node@?$_Tree_nod@V?$_Tmap_traits@HPAVStringResource@Pegas@@U?$less@H@std@@V?$allocator@U?$pair@$$CBHPAVStringResource@Pegas@@@std@@@4@$0A@@std@@@2@PAU342@@Z 00406980 f i pacman.obj
 0001:000059a0       ?_Lrotate@?$_Tree@V?$_Tmap_traits@HPAVStringResource@Pegas@@U?$less@H@std@@V?$allocator@U?$pair@$$CBHPAVStringResource@Pegas@@@std@@@4@$0A@@std@@@std@@IAEXPAU_Node@?$_Tree_nod@V?$_Tmap_traits@HPAVStringResource@Pegas@@U?$less@H@std@@V?$allocator@U?$pair@$$CBHPAVStringResource@Pegas@@@std@@@4@$0A@@std@@@2@@Z 004069a0 f i pacman.obj
 0001:000059a0       ?_Lrotate@?$_Tree@V?$_Tmap_traits@HPAVSoundResource@Pegas@@U?$less@H@std@@V?$allocator@U?$pair@$$CBHPAVSoundResource@Pegas@@@std@@@4@$0A@@std@@@std@@IAEXPAU_Node@?$_Tree_nod@V?$_Tmap_traits@HPAVSoundResource@Pegas@@U?$less@H@std@@V?$allocator@U?$pair@$$CBHPAVSoundResource@Pegas@@@std@@@4@$0A@@std@@@2@@Z 004069a0 f i pacman.obj
 0001:000059a0       ?_Lrotate@?$_Tree@V?$_Tmap_traits@HPAVFontResource@Pegas@@U?$less@H@std@@V?$allocator@U?$pair@$$CBHPAVFontResource@Pegas@@@std@@@4@$0A@@std@@@std@@IAEXPAU_Node@?$_Tree_nod@V?$_Tmap_traits@HPAVFontResource@Pegas@@U?$less@H@std@@V?$allocator@U?$pair@$$CBHPAVFontResource@Pegas@@@std@@@4@$0A@@std@@@2@@Z 004069a0 f i game_app.obj
 0001:000059a0       ?_Lrotate@?$_Tree@V?$_Tmap_traits@HPAVTextureResource@Pegas@@U?$less@H@std@@V?$allocator@U?$pair@$$CBHPAVTextureResource@Pegas@@@std@@@4@$0A@@std@@@std@@IAEXPAU_Node@?$_Tree_nod@V?$_Tmap_traits@HPAVTextureResource@Pegas@@U?$less@H@std@@V?$allocator@U?$pair@$$CBHPAVTextureResource@Pegas@@@std@@@4@$0A@@std@@@2@@Z 004069a0 f i game_app.obj
 0001:000059f0       ?_Root@?$_Tree@V?$_Tmap_traits@HPAVFontResource@Pegas@@U?$less@H@std@@V?$allocator@U?$pair@$$CBHPAVFontResource@Pegas@@@std@@@4@$0A@@std@@@std@@IBEAAPAU_Node@?$_Tree_nod@V?$_Tmap_traits@HPAVFontResource@Pegas@@U?$less@H@std@@V?$allocator@U?$pair@$$CBHPAVFontResource@Pegas@@@std@@@4@$0A@@std@@@2@XZ 004069f0 f i game_app.obj
 0001:000059f0       ?_Root@?$_Tree@V?$_Tmap_traits@HPAVSoundResource@Pegas@@U?$less@H@std@@V?$allocator@U?$pair@$$CBHPAVSoundResource@Pegas@@@std@@@4@$0A@@std@@@std@@IBEAAPAU_Node@?$_Tree_nod@V?$_Tmap_traits@HPAVSoundResource@Pegas@@U?$less@H@std@@V?$allocator@U?$pair@$$CBHPAVSoundResource@Pegas@@@std@@@4@$0A@@std@@@2@XZ 004069f0 f i game_app.obj
 0001:000059f0       ?_Root@?$_Tree@V?$_Tmap_traits@HPAVStringResource@Pegas@@U?$less@H@std@@V?$allocator@U?$pair@$$CBHPAVStringResource@Pegas@@@std@@@4@$0A@@std@@@std@@IBEAAPAU_Node@?$_Tree_nod@V?$_Tmap_traits@HPAVStringResource@Pegas@@U?$less@H@std@@V?$allocator@U?$pair@$$CBHPAVStringResource@Pegas@@@std@@@4@$0A@@std@@@2@XZ 004069f0 f i game_app.obj
 0001:000059f0       ?_Root@?$_Tree@V?$_Tset_traits@HU?$less@H@std@@V?$allocator@H@2@$0A@@std@@@std@@IBEAAPAU_Node@?$_Tree_nod@V?$_Tset_traits@HU?$less@H@std@@V?$allocator@H@2@$0A@@std@@@2@XZ 004069f0 f i tile_grid.obj
 0001:00005a00       ?_Rrotate@?$_Tree@V?$_Tmap_traits@HPAVSoundResource@Pegas@@U?$less@H@std@@V?$allocator@U?$pair@$$CBHPAVSoundResource@Pegas@@@std@@@4@$0A@@std@@@std@@IAEXPAU_Node@?$_Tree_nod@V?$_Tmap_traits@HPAVSoundResource@Pegas@@U?$less@H@std@@V?$allocator@U?$pair@$$CBHPAVSoundResource@Pegas@@@std@@@4@$0A@@std@@@2@@Z 00406a00 f i pacman.obj
 0001:00005a00       ?_Rrotate@?$_Tree@V?$_Tmap_traits@HPAVTextureResource@Pegas@@U?$less@H@std@@V?$allocator@U?$pair@$$CBHPAVTextureResource@Pegas@@@std@@@4@$0A@@std@@@std@@IAEXPAU_Node@?$_Tree_nod@V?$_Tmap_traits@HPAVTextureResource@Pegas@@U?$less@H@std@@V?$allocator@U?$pair@$$CBHPAVTextureResource@Pegas@@@std@@@4@$0A@@std@@@2@@Z 00406a00 f i game_app.obj
 0001:00005a00       ?_Rrotate@?$_Tree@V?$_Tmap_traits@HPAVFontResource@Pegas@@U?$less@H@std@@V?$allocator@U?$pair@$$CBHPAVFontResource@Pegas@@@std@@@4@$0A@@std@@@std@@IAEXPAU_Node@?$_Tree_nod@V?$_Tmap_traits@HPAVFontResource@Pegas@@U?$less@H@std@@V?$allocator@U?$pair@$$CBHPAVFontResource@Pegas@@@std@@@4@$0A@@std@@@2@@Z 00406a00 f i game_app.obj
 0001:00005a00       ?_Rrotate@?$_Tree@V?$_Tmap_traits@HPAVStringResource@Pegas@@U?$less@H@std@@V?$allocator@U?$pair@$$CBHPAVStringResource@Pegas@@@std@@@4@$0A@@std@@@std@@IAEXPAU_Node@?$_Tree_nod@V?$_Tmap_traits@HPAVStringResource@Pegas@@U?$less@H@std@@V?$allocator@U?$pair@$$CBHPAVStringResource@Pegas@@@std@@@4@$0A@@std@@@2@@Z 00406a00 f i pacman.obj
 0001:00005a60       ?_Isnil@?$_Tree@V?$_Tmap_traits@HPAVStringResource@Pegas@@U?$less@H@std@@V?$allocator@U?$pair@$$CBHPAVStringResource@Pegas@@@std@@@4@$0A@@std@@@std@@KAAADPAU_Node@?$_Tree_nod@V?$_Tmap_traits@HPAVStringResource@Pegas@@U?$less@H@std@@V?$allocator@U?$pair@$$CBHPAVStringResource@Pegas@@@std@@@4@$0A@@std@@@2@@Z 00406a60 f i game_app.obj
 0001:00005a60       ?_Isnil@?$_Tree@V?$_Tmap_traits@HPAVSoundResource@Pegas@@U?$less@H@std@@V?$allocator@U?$pair@$$CBHPAVSoundResource@Pegas@@@std@@@4@$0A@@std@@@std@@KAAADPAU_Node@?$_Tree_nod@V?$_Tmap_traits@HPAVSoundResource@Pegas@@U?$less@H@std@@V?$allocator@U?$pair@$$CBHPAVSoundResource@Pegas@@@std@@@4@$0A@@std@@@2@@Z 00406a60 f i game_app.obj
 0001:00005a60       ?_Isnil@?$_Tree@V?$_Tmap_traits@HPAVFontResource@Pegas@@U?$less@H@std@@V?$allocator@U?$pair@$$CBHPAVFontResource@Pegas@@@std@@@4@$0A@@std@@@std@@KAAADPAU_Node@?$_Tree_nod@V?$_Tmap_traits@HPAVFontResource@Pegas@@U?$less@H@std@@V?$allocator@U?$pair@$$CBHPAVFontResource@Pegas@@@std@@@4@$0A@@std@@@2@@Z 00406a60 f i game_app.obj
 0001:00005a70       ?_Min@?$_Tree@V?$_Tmap_traits@HPAVStringResource@Pegas@@U?$less@H@std@@V?$allocator@U?$pair@$$CBHPAVStringResource@Pegas@@@std@@@4@$0A@@std@@@std@@KAPAU_Node@?$_Tree_nod@V?$_Tmap_traits@HPAVStringResource@Pegas@@U?$less@H@std@@V?$allocator@U?$pair@$$CBHPAVStringResource@Pegas@@@std@@@4@$0A@@std@@@2@PAU342@@Z 00406a70 f i game_app.obj
 0001:00005a70       ?_Min@?$_Tree@V?$_Tmap_traits@HPAVFontResource@Pegas@@U?$less@H@std@@V?$allocator@U?$pair@$$CBHPAVFontResource@Pegas@@@std@@@4@$0A@@std@@@std@@KAPAU_Node@?$_Tree_nod@V?$_Tmap_traits@HPAVFontResource@Pegas@@U?$less@H@std@@V?$allocator@U?$pair@$$CBHPAVFontResource@Pegas@@@std@@@4@$0A@@std@@@2@PAU342@@Z 00406a70 f i game_app.obj
 0001:00005a70       ?_Min@?$_Tree@V?$_Tmap_traits@HPAVSoundResource@Pegas@@U?$less@H@std@@V?$allocator@U?$pair@$$CBHPAVSoundResource@Pegas@@@std@@@4@$0A@@std@@@std@@KAPAU_Node@?$_Tree_nod@V?$_Tmap_traits@HPAVSoundResource@Pegas@@U?$less@H@std@@V?$allocator@U?$pair@$$CBHPAVSoundResource@Pegas@@@std@@@4@$0A@@std@@@2@PAU342@@Z 00406a70 f i game_app.obj
 0001:00005a70       ?_Min@?$_Tree@V?$_Tmap_traits@HPAVTextureResource@Pegas@@U?$less@H@std@@V?$allocator@U?$pair@$$CBHPAVTextureResource@Pegas@@@std@@@4@$0A@@std@@@std@@KAPAU_Node@?$_Tree_nod@V?$_Tmap_traits@HPAVTextureResource@Pegas@@U?$less@H@std@@V?$allocator@U?$pair@$$CBHPAVTextureResource@Pegas@@@std@@@4@$0A@@std@@@2@PAU342@@Z 00406a70 f i game_app.obj
 0001:00005a90       ?_Getmycont@_Iterator_base_aux@std@@QBEPBV_Container_base_aux@2@XZ 00406a90 f i game_app.obj
 0001:00005aa0       ?destroyAll@?$ResourceManager@VSoundResource@Pegas@@UIntResourceCode@2@@Pegas@@QAEXXZ 00406aa0 f i game_app.obj
 0001:00005aa0       ?destroyAll@?$ResourceManager@VTextureResource@Pegas@@UIntResourceCode@2@@Pegas@@QAEXXZ 00406aa0 f i game_app.obj
 0001:00005aa0       ?destroyAll@?$ResourceManager@VStringResource@Pegas@@UIntResourceCode@2@@Pegas@@QAEXXZ 00406aa0 f i game_app.obj
 0001:00005aa0       ?destroyAll@?$ResourceManager@VFontResource@Pegas@@UFontResourceCode@2@@Pegas@@QAEXXZ 00406aa0 f i game_app.obj
 0001:00005b60       ??8const_iterator@?$_Tree@V?$_Tmap_traits@HPAVFontResource@Pegas@@U?$less@H@std@@V?$allocator@U?$pair@$$CBHPAVFontResource@Pegas@@@std@@@4@$0A@@std@@@std@@QBE_NABV012@@Z 00406b60 f i game_app.obj
 0001:00005b60       ??8const_iterator@?$_Tree@V?$_Tmap_traits@HPAVStringResource@Pegas@@U?$less@H@std@@V?$allocator@U?$pair@$$CBHPAVStringResource@Pegas@@@std@@@4@$0A@@std@@@std@@QBE_NABV012@@Z 00406b60 f i game_app.obj
 0001:00005b60       ??8const_iterator@?$_Tree@V?$_Tmap_traits@HPAVTextureResource@Pegas@@U?$less@H@std@@V?$allocator@U?$pair@$$CBHPAVTextureResource@Pegas@@@std@@@4@$0A@@std@@@std@@QBE_NABV012@@Z 00406b60 f i game_app.obj
 0001:00005b60       ??8const_iterator@?$_Tree@V?$_Tmap_traits@HPAVSoundResource@Pegas@@U?$less@H@std@@V?$allocator@U?$pair@$$CBHPAVSoundResource@Pegas@@@std@@@4@$0A@@std@@@std@@QBE_NABV012@@Z 00406b60 f i game_app.obj
 0001:00005b90       ??0?$_Bidit@U?$pair@$$CBHPAVFontResource@Pegas@@@std@@HPBU12@ABU12@@std@@QAE@XZ 00406b90 f i game_app.obj
 0001:00005b90       ??0_Iterator_base_aux@std@@QAE@XZ 00406b90 f i game_app.obj
 0001:00005b90       ??0?$_Bidit@U?$pair@$$CBHPAVSoundResource@Pegas@@@std@@HPBU12@ABU12@@std@@QAE@XZ 00406b90 f i game_app.obj
 0001:00005b90       ??0?$_Bidit@U?$pair@$$CBHPAVStringResource@Pegas@@@std@@HPBU12@ABU12@@std@@QAE@XZ 00406b90 f i game_app.obj
 0001:00005b90       ??0?$_Bidit@HHPBHABH@std@@QAE@XZ 00406b90 f i tile_grid.obj
 0001:00005ba0       ??0iterator@?$_Tree@V?$_Tmap_traits@HPAVSoundResource@Pegas@@U?$less@H@std@@V?$allocator@U?$pair@$$CBHPAVSoundResource@Pegas@@@std@@@4@$0A@@std@@@std@@QAE@PAU_Node@?$_Tree_nod@V?$_Tmap_traits@HPAVSoundResource@Pegas@@U?$less@H@std@@V?$allocator@U?$pair@$$CBHPAVSoundResource@Pegas@@@std@@@4@$0A@@std@@@2@PBV12@@Z 00406ba0 f i game_app.obj
 0001:00005ba0       ??0const_iterator@?$_Tree@V?$_Tmap_traits@HPAVStringResource@Pegas@@U?$less@H@std@@V?$allocator@U?$pair@$$CBHPAVStringResource@Pegas@@@std@@@4@$0A@@std@@@std@@QAE@PAU_Node@?$_Tree_nod@V?$_Tmap_traits@HPAVStringResource@Pegas@@U?$less@H@std@@V?$allocator@U?$pair@$$CBHPAVStringResource@Pegas@@@std@@@4@$0A@@std@@@2@PBV12@@Z 00406ba0 f i game_app.obj
 0001:00005ba0       ??0iterator@?$_Tree@V?$_Tmap_traits@HPAVFontResource@Pegas@@U?$less@H@std@@V?$allocator@U?$pair@$$CBHPAVFontResource@Pegas@@@std@@@4@$0A@@std@@@std@@QAE@PAU_Node@?$_Tree_nod@V?$_Tmap_traits@HPAVFontResource@Pegas@@U?$less@H@std@@V?$allocator@U?$pair@$$CBHPAVFontResource@Pegas@@@std@@@4@$0A@@std@@@2@PBV12@@Z 00406ba0 f i game_app.obj
 0001:00005ba0       ??0iterator@?$_Tree@V?$_Tmap_traits@HPAVStringResource@Pegas@@U?$less@H@std@@V?$allocator@U?$pair@$$CBHPAVStringResource@Pegas@@@std@@@4@$0A@@std@@@std@@QAE@PAU_Node@?$_Tree_nod@V?$_Tmap_traits@HPAVStringResource@Pegas@@U?$less@H@std@@V?$allocator@U?$pair@$$CBHPAVStringResource@Pegas@@@std@@@4@$0A@@std@@@2@PBV12@@Z 00406ba0 f i game_app.obj
 0001:00005ba0       ??0const_iterator@?$_Tree@V?$_Tmap_traits@HPAVSoundResource@Pegas@@U?$less@H@std@@V?$allocator@U?$pair@$$CBHPAVSoundResource@Pegas@@@std@@@4@$0A@@std@@@std@@QAE@PAU_Node@?$_Tree_nod@V?$_Tmap_traits@HPAVSoundResource@Pegas@@U?$less@H@std@@V?$allocator@U?$pair@$$CBHPAVSoundResource@Pegas@@@std@@@4@$0A@@std@@@2@PBV12@@Z 00406ba0 f i game_app.obj
 0001:00005ba0       ??0const_iterator@?$_Tree@V?$_Tset_traits@HU?$less@H@std@@V?$allocator@H@2@$0A@@std@@@std@@QAE@PAU_Node@?$_Tree_nod@V?$_Tset_traits@HU?$less@H@std@@V?$allocator@H@2@$0A@@std@@@2@PBV12@@Z 00406ba0 f i tile_grid.obj
 0001:00005bd0       ?_Lmost@?$_Tree@V?$_Tmap_traits@HPAVStringResource@Pegas@@U?$less@H@std@@V?$allocator@U?$pair@$$CBHPAVStringResource@Pegas@@@std@@@4@$0A@@std@@@std@@IBEAAPAU_Node@?$_Tree_nod@V?$_Tmap_traits@HPAVStringResource@Pegas@@U?$less@H@std@@V?$allocator@U?$pair@$$CBHPAVStringResource@Pegas@@@std@@@4@$0A@@std@@@2@XZ 00406bd0 f i game_app.obj
 0001:00005bd0       ?_Lmost@?$_Tree@V?$_Tmap_traits@HPAVSoundResource@Pegas@@U?$less@H@std@@V?$allocator@U?$pair@$$CBHPAVSoundResource@Pegas@@@std@@@4@$0A@@std@@@std@@IBEAAPAU_Node@?$_Tree_nod@V?$_Tmap_traits@HPAVSoundResource@Pegas@@U?$less@H@std@@V?$allocator@U?$pair@$$CBHPAVSoundResource@Pegas@@@std@@@4@$0A@@std@@@2@XZ 00406bd0 f i game_app.obj
 0001:00005be0       ?begin@?$_Tree@V?$_Tmap_traits@HPAVStringResource@Pegas@@U?$less@H@std@@V?$allocator@U?$pair@$$CBHPAVStringResource@Pegas@@@std@@@4@$0A@@std@@@std@@QAE?AViterator@12@XZ 00406be0 f i game_app.obj
 0001:00005be0       ?begin@?$_Tree@V?$_Tset_traits@HU?$less@H@std@@V?$allocator@H@2@$0A@@std@@@std@@QAE?AViterator@12@XZ 00406be0 f i tile_grid.obj
 0001:00005be0       ?begin@?$_Tree@V?$_Tmap_traits@HPAVFontResource@Pegas@@U?$less@H@std@@V?$allocator@U?$pair@$$CBHPAVFontResource@Pegas@@@std@@@4@$0A@@std@@@std@@QAE?AViterator@12@XZ 00406be0 f i game_app.obj
 0001:00005be0       ?begin@?$_Tree@V?$_Tmap_traits@HPAVSoundResource@Pegas@@U?$less@H@std@@V?$allocator@U?$pair@$$CBHPAVSoundResource@Pegas@@@std@@@4@$0A@@std@@@std@@QAE?AViterator@12@XZ 00406be0 f i game_app.obj
 0001:00005be0       ?begin@?$_Tree@V?$_Tmap_traits@HPAVTextureResource@Pegas@@U?$less@H@std@@V?$allocator@U?$pair@$$CBHPAVTextureResource@Pegas@@@std@@@4@$0A@@std@@@std@@QAE?AViterator@12@XZ 00406be0 f i game_app.obj
 0001:00005c00       ?deallocate@?$allocator@U_Node@?$_Tree_nod@V?$_Tmap_traits@HPAVStringResource@Pegas@@U?$less@H@std@@V?$allocator@U?$pair@$$CBHPAVStringResource@Pegas@@@std@@@4@$0A@@std@@@std@@@std@@QAEXPAU_Node@?$_Tree_nod@V?$_Tmap_traits@HPAVStringResource@Pegas@@U?$less@H@std@@V?$allocator@U?$pair@$$CBHPAVStringResource@Pegas@@@std@@@4@$0A@@std@@@2@I@Z 00406c00 f i game_app.obj
 0001:00005c00       ?deallocate@?$allocator@U_Node@?$_Tree_nod@V?$_Tmap_traits@HPAVSoundResource@Pegas@@U?$less@H@std@@V?$allocator@U?$pair@$$CBHPAVSoundResource@Pegas@@@std@@@4@$0A@@std@@@std@@@std@@QAEXPAU_Node@?$_Tree_nod@V?$_Tmap_traits@HPAVSoundResource@Pegas@@U?$less@H@std@@V?$allocator@U?$pair@$$CBHPAVSoundResource@Pegas@@@std@@@4@$0A@@std@@@2@I@Z 00406c00 f i game_app.obj
 0001:00005c00       ?deallocate@?$allocator@V_Aux_cont@std@@@std@@QAEXPAV_Aux_cont@2@I@Z 00406c00 f i game_app.obj
 0001:00005c10       ??_GFile@Pegas@@UAEPAXI@Z  00406c10 f i game_app.obj
 0001:00005c10       ??_EFile@Pegas@@UAEPAXI@Z  00406c10 f i  CIL library: CIL module
 0001:00005c30       ??5File@Pegas@@UAEAAVISerializer@1@AAV?$basic_string@_WU?$char_traits@_W@std@@V?$allocator@_W@2@@std@@@Z 00406c30 f i game_app.obj
 0001:00005c50       ??5File@Pegas@@UAEAAVISerializer@1@AAM@Z 00406c50 f i game_app.obj
 0001:00005c50       ??5File@Pegas@@UAEAAVISerializer@1@AAI@Z 00406c50 f i game_app.obj
 0001:00005c50       ??5File@Pegas@@UAEAAVISerializer@1@AAH@Z 00406c50 f i game_app.obj
 0001:00005c70       ??5File@Pegas@@UAEAAVISerializer@1@AAG@Z 00406c70 f i game_app.obj
 0001:00005c70       ??5File@Pegas@@UAEAAVISerializer@1@AAF@Z 00406c70 f i game_app.obj
 0001:00005c90       ??5File@Pegas@@UAEAAVISerializer@1@AAC@Z 00406c90 f i game_app.obj
 0001:00005c90       ??5File@Pegas@@UAEAAVISerializer@1@AAE@Z 00406c90 f i game_app.obj
 0001:00005c90       ??5File@Pegas@@UAEAAVISerializer@1@AA_N@Z 00406c90 f i game_app.obj
 0001:00005cb0       ??6File@Pegas@@UAEAAVISerializer@1@AAV?$basic_string@_WU?$char_traits@_W@std@@V?$allocator@_W@2@@std@@@Z 00406cb0 f i game_app.obj
 0001:00005cd0       ??6File@Pegas@@UAEAAVISerializer@1@M@Z 00406cd0 f i game_app.obj
 0001:00005cd0       ??6File@Pegas@@UAEAAVISerializer@1@H@Z 00406cd0 f i game_app.obj
 0001:00005cd0       ??6File@Pegas@@UAEAAVISerializer@1@I@Z 00406cd0 f i game_app.obj
 0001:00005cf0       ??6File@Pegas@@UAEAAVISerializer@1@F@Z 00406cf0 f i game_app.obj
 0001:00005cf0       ??6File@Pegas@@UAEAAVISerializer@1@G@Z 00406cf0 f i game_app.obj
 0001:00005d10       ??6File@Pegas@@UAEAAVISerializer@1@C@Z 00406d10 f i game_app.obj
 0001:00005d10       ??6File@Pegas@@UAEAAVISerializer@1@E@Z 00406d10 f i game_app.obj
 0001:00005d10       ??6File@Pegas@@UAEAAVISerializer@1@_N@Z 00406d10 f i game_app.obj
 0001:00005d30       ??_GISerializer@Pegas@@UAEPAXI@Z 00406d30 f i game_app.obj
 0001:00005d30       ??_EISerializer@Pegas@@UAEPAXI@Z 00406d30 f i  CIL library: CIL module
 0001:00005d50       ??1ISerializer@Pegas@@UAE@XZ 00406d50 f i game_app.obj
 0001:00005d60       ??1?$basic_string@_WU?$char_traits@_W@std@@V?$allocator@_W@2@@std@@QAE@XZ 00406d60 f i game_app.obj
 0001:00005d60       ??1FontResourceCode@Pegas@@QAE@XZ 00406d60 f i game_app.obj
 0001:00005d90       ??1File@Pegas@@UAE@XZ      00406d90 f i game_app.obj
 0001:00005e10       ?clear@?$list@V?$ptr@VFile@Pegas@@@Pegas@@V?$allocator@V?$ptr@VFile@Pegas@@@Pegas@@@std@@@std@@QAEXXZ 00406e10 f i game_app.obj
 0001:00005e10       ?clear@?$list@V?$ptr@VBaseScreenLayer@Pegas@@@Pegas@@V?$allocator@V?$ptr@VBaseScreenLayer@Pegas@@@Pegas@@@std@@@std@@QAEXXZ 00406e10 f i editor.obj
 0001:00005e10       ?clear@?$list@V?$ptr@VProcess@Pegas@@@Pegas@@V?$allocator@V?$ptr@VProcess@Pegas@@@Pegas@@@std@@@std@@QAEXXZ 00406e10 f i game_screen.obj
 0001:00005e80       ??1?$stack@V?$ptr@VIGameState@Pegas@@@Pegas@@V?$deque@V?$ptr@VIGameState@Pegas@@@Pegas@@V?$allocator@V?$ptr@VIGameState@Pegas@@@Pegas@@@std@@@std@@@std@@QAE@XZ 00406e80 f i game_app.obj
 0001:00005ed0       ?pop_back@?$deque@V?$ptr@VIGameState@Pegas@@@Pegas@@V?$allocator@V?$ptr@VIGameState@Pegas@@@Pegas@@@std@@@std@@QAEXXZ 00406ed0 f i game_app.obj
 0001:00005f40       ??$_Allocate@U_Node@?$_Tree_nod@V?$_Tmap_traits@HV?$ptr@VIGameState@Pegas@@@Pegas@@U?$less@H@std@@V?$allocator@U?$pair@$$CBHV?$ptr@VIGameState@Pegas@@@Pegas@@@std@@@4@$0A@@std@@@std@@@std@@YAPAU_Node@?$_Tree_nod@V?$_Tmap_traits@HV?$ptr@VIGameState@Pegas@@@Pegas@@U?$less@H@std@@V?$allocator@U?$pair@$$CBHV?$ptr@VIGameState@Pegas@@@Pegas@@@std@@@4@$0A@@std@@@0@IPAU120@@Z 00406f40 f i game_app.obj
 0001:00005fa0       ?_Erase@?$_Tree@V?$_Tmap_traits@HV?$ptr@VIGameState@Pegas@@@Pegas@@U?$less@H@std@@V?$allocator@U?$pair@$$CBHV?$ptr@VIGameState@Pegas@@@Pegas@@@std@@@4@$0A@@std@@@std@@IAEXPAU_Node@?$_Tree_nod@V?$_Tmap_traits@HV?$ptr@VIGameState@Pegas@@@Pegas@@U?$less@H@std@@V?$allocator@U?$pair@$$CBHV?$ptr@VIGameState@Pegas@@@Pegas@@@std@@@4@$0A@@std@@@2@@Z 00406fa0 f i game_app.obj
 0001:00005fa0       ?_Erase@?$_Tree@V?$_Tmap_traits@HV?$ptr@VProcess@Pegas@@@Pegas@@U?$less@H@std@@V?$allocator@U?$pair@$$CBHV?$ptr@VProcess@Pegas@@@Pegas@@@std@@@4@$0A@@std@@@std@@IAEXPAU_Node@?$_Tree_nod@V?$_Tmap_traits@HV?$ptr@VProcess@Pegas@@@Pegas@@U?$less@H@std@@V?$allocator@U?$pair@$$CBHV?$ptr@VProcess@Pegas@@@Pegas@@@std@@@4@$0A@@std@@@2@@Z 00406fa0 f i pacman.obj
 0001:00006010       ?_Lrotate@?$_Tree@V?$_Tmap_traits@HV?$ptr@VIGameState@Pegas@@@Pegas@@U?$less@H@std@@V?$allocator@U?$pair@$$CBHV?$ptr@VIGameState@Pegas@@@Pegas@@@std@@@4@$0A@@std@@@std@@IAEXPAU_Node@?$_Tree_nod@V?$_Tmap_traits@HV?$ptr@VIGameState@Pegas@@@Pegas@@U?$less@H@std@@V?$allocator@U?$pair@$$CBHV?$ptr@VIGameState@Pegas@@@Pegas@@@std@@@4@$0A@@std@@@2@@Z 00407010 f i game_app.obj
 0001:00006010       ?_Lrotate@?$_Tree@V?$_Tmap_traits@HV?$ptr@VProcess@Pegas@@@Pegas@@U?$less@H@std@@V?$allocator@U?$pair@$$CBHV?$ptr@VProcess@Pegas@@@Pegas@@@std@@@4@$0A@@std@@@std@@IAEXPAU_Node@?$_Tree_nod@V?$_Tmap_traits@HV?$ptr@VProcess@Pegas@@@Pegas@@U?$less@H@std@@V?$allocator@U?$pair@$$CBHV?$ptr@VProcess@Pegas@@@Pegas@@@std@@@4@$0A@@std@@@2@@Z 00407010 f i pacman.obj
 0001:00006060       ?erase@?$_Tree@V?$_Tmap_traits@HV?$ptr@VIGameState@Pegas@@@Pegas@@U?$less@H@std@@V?$allocator@U?$pair@$$CBHV?$ptr@VIGameState@Pegas@@@Pegas@@@std@@@4@$0A@@std@@@std@@QAE?AViterator@12@Vconst_iterator@12@0@Z 00407060 f i game_app.obj
 0001:00006140       ?_Lrotate@?$_Tree@V?$_Tset_traits@PAVIEventListener@Pegas@@U?$less@PAVIEventListener@Pegas@@@std@@V?$allocator@PAVIEventListener@Pegas@@@4@$0A@@std@@@std@@IAEXPAU_Node@?$_Tree_nod@V?$_Tset_traits@PAVIEventListener@Pegas@@U?$less@PAVIEventListener@Pegas@@@std@@V?$allocator@PAVIEventListener@Pegas@@@4@$0A@@std@@@2@@Z 00407140 f i pacman.obj
 0001:00006140       ?_Lrotate@?$_Tree@V?$_Tset_traits@PAVIMouseController@Pegas@@U?$less@PAVIMouseController@Pegas@@@std@@V?$allocator@PAVIMouseController@Pegas@@@4@$0A@@std@@@std@@IAEXPAU_Node@?$_Tree_nod@V?$_Tset_traits@PAVIMouseController@Pegas@@U?$less@PAVIMouseController@Pegas@@@std@@V?$allocator@PAVIMouseController@Pegas@@@4@$0A@@std@@@2@@Z 00407140 f i game_app.obj
 0001:00006140       ?_Lrotate@?$_Tree@V?$_Tset_traits@PAVIKeyboardController@Pegas@@U?$less@PAVIKeyboardController@Pegas@@@std@@V?$allocator@PAVIKeyboardController@Pegas@@@4@$0A@@std@@@std@@IAEXPAU_Node@?$_Tree_nod@V?$_Tset_traits@PAVIKeyboardController@Pegas@@U?$less@PAVIKeyboardController@Pegas@@@std@@V?$allocator@PAVIKeyboardController@Pegas@@@4@$0A@@std@@@2@@Z 00407140 f i game_app.obj
 0001:00006190       ?_Rrotate@?$_Tree@V?$_Tset_traits@PAVIKeyboardController@Pegas@@U?$less@PAVIKeyboardController@Pegas@@@std@@V?$allocator@PAVIKeyboardController@Pegas@@@4@$0A@@std@@@std@@IAEXPAU_Node@?$_Tree_nod@V?$_Tset_traits@PAVIKeyboardController@Pegas@@U?$less@PAVIKeyboardController@Pegas@@@std@@V?$allocator@PAVIKeyboardController@Pegas@@@4@$0A@@std@@@2@@Z 00407190 f i game_app.obj
 0001:00006190       ?_Rrotate@?$_Tree@V?$_Tset_traits@PAVIEventListener@Pegas@@U?$less@PAVIEventListener@Pegas@@@std@@V?$allocator@PAVIEventListener@Pegas@@@4@$0A@@std@@@std@@IAEXPAU_Node@?$_Tree_nod@V?$_Tset_traits@PAVIEventListener@Pegas@@U?$less@PAVIEventListener@Pegas@@@std@@V?$allocator@PAVIEventListener@Pegas@@@4@$0A@@std@@@2@@Z 00407190 f i pacman.obj
 0001:00006190       ?_Rrotate@?$_Tree@V?$_Tset_traits@PAVIMouseController@Pegas@@U?$less@PAVIMouseController@Pegas@@@std@@V?$allocator@PAVIMouseController@Pegas@@@4@$0A@@std@@@std@@IAEXPAU_Node@?$_Tree_nod@V?$_Tset_traits@PAVIMouseController@Pegas@@U?$less@PAVIMouseController@Pegas@@@std@@V?$allocator@PAVIMouseController@Pegas@@@4@$0A@@std@@@2@@Z 00407190 f i game_app.obj
 0001:000061e0       ??0?$allocator@H@std@@QAE@XZ 004071e0 f i pacman.obj
 0001:000061e0       ??0_Container_base_aux@std@@QAE@XZ 004071e0 f i game_app.obj
 0001:000061f0       ??$_Allocate@V_Aux_cont@std@@@std@@YAPAV_Aux_cont@0@IPAV10@@Z 004071f0 f i game_app.obj
 0001:00006250       ?allocate@?$allocator@V_Aux_cont@std@@@std@@QAEPAV_Aux_cont@2@I@Z 00407250 f i game_app.obj
 0001:00006270       ??0_Aux_cont@std@@QAE@QBV_Container_base_aux@1@@Z 00407270 f i game_app.obj
 0001:00006280       ??2@YAPAXIPAX@Z            00407280 f i game_app.obj
 0001:00006290       ?_Erase@?$_Tree@V?$_Tset_traits@HU?$less@H@std@@V?$allocator@H@2@$0A@@std@@@std@@IAEXPAU_Node@?$_Tree_nod@V?$_Tset_traits@HU?$less@H@std@@V?$allocator@H@2@$0A@@std@@@2@@Z 00407290 f i tile_grid.obj
 0001:00006290       ?_Erase@?$_Tree@V?$_Tset_traits@PAVIKeyboardController@Pegas@@U?$less@PAVIKeyboardController@Pegas@@@std@@V?$allocator@PAVIKeyboardController@Pegas@@@4@$0A@@std@@@std@@IAEXPAU_Node@?$_Tree_nod@V?$_Tset_traits@PAVIKeyboardController@Pegas@@U?$less@PAVIKeyboardController@Pegas@@@std@@V?$allocator@PAVIKeyboardController@Pegas@@@4@$0A@@std@@@2@@Z 00407290 f i game_app.obj
 0001:00006290       ?_Erase@?$_Tree@V?$_Tset_traits@PAVIEventListener@Pegas@@U?$less@PAVIEventListener@Pegas@@@std@@V?$allocator@PAVIEventListener@Pegas@@@4@$0A@@std@@@std@@IAEXPAU_Node@?$_Tree_nod@V?$_Tset_traits@PAVIEventListener@Pegas@@U?$less@PAVIEventListener@Pegas@@@std@@V?$allocator@PAVIEventListener@Pegas@@@4@$0A@@std@@@2@@Z 00407290 f i pacman.obj
 0001:00006290       ?_Erase@?$_Tree@V?$_Tset_traits@PAVIMouseController@Pegas@@U?$less@PAVIMouseController@Pegas@@@std@@V?$allocator@PAVIMouseController@Pegas@@@4@$0A@@std@@@std@@IAEXPAU_Node@?$_Tree_nod@V?$_Tset_traits@PAVIMouseController@Pegas@@U?$less@PAVIMouseController@Pegas@@@std@@V?$allocator@PAVIMouseController@Pegas@@@4@$0A@@std@@@2@@Z 00407290 f i game_app.obj
 0001:000062d0       ?_Same_container@_Iterator_base_aux@std@@QBE_NABV12@@Z 004072d0 f i game_app.obj
 0001:000062f0       ??0logic_error@std@@QAE@ABV?$basic_string@DU?$char_traits@D@std@@V?$allocator@D@2@@1@@Z 004072f0 f i game_app.obj
 0001:00006360       ??0out_of_range@std@@QAE@ABV?$basic_string@DU?$char_traits@D@std@@V?$allocator@D@2@@1@@Z 00407360 f i game_app.obj
 0001:00006380       ?assign@?$basic_string@DU?$char_traits@D@std@@V?$allocator@D@2@@std@@QAEAAV12@PBDI@Z 00407380 f i game_app.obj
 0001:00006460       ??0?$basic_string@DU?$char_traits@D@std@@V?$allocator@D@2@@std@@QAE@PBD@Z 00407460 f i game_app.obj
 0001:000064a0       ??0out_of_range@std@@QAE@ABV01@@Z 004074a0 f i game_app.obj
 0001:000064c0       ?c_str@?$basic_string@DU?$char_traits@D@std@@V?$allocator@D@2@@std@@QBEPBDXZ 004074c0 f i game_app.obj
 0001:000064d0       ?what@logic_error@std@@UBEPBDXZ 004074d0 f i game_app.obj
 0001:000064e0       ?erase@?$basic_string@DU?$char_traits@D@std@@V?$allocator@D@2@@std@@QAEAAV12@II@Z 004074e0 f i game_app.obj
 0001:00006570       ??0bad_alloc@std@@QAE@PBD@Z 00407570 f i game_app.obj
 0001:00006590       ??1bad_alloc@std@@UAE@XZ   00407590 f i game_app.obj
 0001:000065a0       ??_Gbad_alloc@std@@UAEPAXI@Z 004075a0 f i game_app.obj
 0001:000065a0       ??_Ebad_alloc@std@@UAEPAXI@Z 004075a0 f i  CIL library: CIL module
 0001:000065d0       ??0bad_alloc@std@@QAE@ABV01@@Z 004075d0 f i game_app.obj
 0001:000065f0       ?allocate@?$allocator@D@std@@QAEPADI@Z 004075f0 f i game_app.obj
 0001:00006650       ?_Copy@?$basic_string@DU?$char_traits@D@std@@V?$allocator@D@2@@std@@IAEXII@Z 00407650 f i game_app.obj
 0001:00006790       ?assign@?$basic_string@DU?$char_traits@D@std@@V?$allocator@D@2@@std@@QAEAAV12@ABV12@II@Z 00407790 f i game_app.obj
 0001:00006870       ??0?$basic_string@DU?$char_traits@D@std@@V?$allocator@D@2@@std@@QAE@ABV01@@Z 00407870 f i game_app.obj
 0001:000068a0       ??1?$basic_string@DU?$char_traits@D@std@@V?$allocator@D@2@@std@@QAE@XZ 004078a0 f i game_app.obj
 0001:000068d0       ??0logic_error@std@@QAE@ABV01@@Z 004078d0 f i game_app.obj
 0001:00006950       ?_Has_container@_Iterator_base_aux@std@@QBE_NXZ 00407950 f i game_app.obj
 0001:00006960       ?erase@?$_Tree@V?$_Tset_traits@PAVIKeyboardController@Pegas@@U?$less@PAVIKeyboardController@Pegas@@@std@@V?$allocator@PAVIKeyboardController@Pegas@@@4@$0A@@std@@@std@@QAE?AViterator@12@Vconst_iterator@12@0@Z 00407960 f i game_app.obj
 0001:00006960       ?erase@?$_Tree@V?$_Tset_traits@PAVIMouseController@Pegas@@U?$less@PAVIMouseController@Pegas@@@std@@V?$allocator@PAVIMouseController@Pegas@@@4@$0A@@std@@@std@@QAE?AViterator@12@Vconst_iterator@12@0@Z 00407960 f i game_app.obj
 0001:00006a40       ?_Set_container@_Iterator_base_aux@std@@QAEXQBV_Container_base_aux@2@@Z 00407a40 f i game_app.obj
 0001:00006a50       ??0GameApplication@Pegas@@QAE@PAUHINSTANCE__@@@Z 00407a50 f i pacman.obj
 0001:00006c00       ??1GameApplication@Pegas@@UAE@XZ 00407c00 f i pacman.obj
 0001:00006dc0       ?getListenerName@GameApplication@Pegas@@UAE?AV?$basic_string@DU?$char_traits@D@std@@V?$allocator@D@2@@std@@XZ 00407dc0 f i pacman.obj
 0001:00006df0       ??_GGameApplication@Pegas@@UAEPAXI@Z 00407df0 f i pacman.obj
 0001:00006df0       ??_EGameApplication@Pegas@@UAEPAXI@Z 00407df0 f i  CIL library: CIL module
 0001:00006e10       _wWinMain@16               00407e10 f   pacman.obj
 0001:00006f20       ?MyRegisterClass@@YAGPAUHINSTANCE__@@@Z 00407f20 f   pacman.obj
 0001:00006fb0       ?InitInstance@@YAHPAUHINSTANCE__@@H@Z 00407fb0 f   pacman.obj
 0001:00007090       ?WndProc@@YGJPAUHWND__@@IIJ@Z 00408090 f   pacman.obj
 0001:00007240       ?About@@YGHPAUHWND__@@IIJ@Z 00408240 f   pacman.obj
 0001:00007280       ??1?$Singleton@VGameApplication@Pegas@@@Pegas@@QAE@XZ 00408280 f i pacman.obj
 0001:000072a0       ??_EGameApplication@Pegas@@W3AEPAXI@Z 004082a0 f i pacman.obj
 0001:000072b0       ??1ProcessManager@Pegas@@UAE@XZ 004082b0 f i pacman.obj
 0001:00007350       ??_GProcessManager@Pegas@@UAEPAXI@Z 00408350 f i pacman.obj
 0001:00007350       ??_EProcessManager@Pegas@@UAEPAXI@Z 00408350 f i  CIL library: CIL module
 0001:00007370       ??$_Allocate@U_Node@?$_Tree_nod@V?$_Tmap_traits@HV?$ptr@VProcess@Pegas@@@Pegas@@U?$less@H@std@@V?$allocator@U?$pair@$$CBHV?$ptr@VProcess@Pegas@@@Pegas@@@std@@@4@$0A@@std@@@std@@@std@@YAPAU_Node@?$_Tree_nod@V?$_Tmap_traits@HV?$ptr@VProcess@Pegas@@@Pegas@@U?$less@H@std@@V?$allocator@U?$pair@$$CBHV?$ptr@VProcess@Pegas@@@Pegas@@@std@@@4@$0A@@std@@@0@IPAU120@@Z 00408370 f i pacman.obj
 0001:000073d0       ?allocate@?$allocator@U_Node@?$_Tree_nod@V?$_Tmap_traits@HV?$ptr@VProcess@Pegas@@@Pegas@@U?$less@H@std@@V?$allocator@U?$pair@$$CBHV?$ptr@VProcess@Pegas@@@Pegas@@@std@@@4@$0A@@std@@@std@@@std@@QAEPAU_Node@?$_Tree_nod@V?$_Tmap_traits@HV?$ptr@VProcess@Pegas@@@Pegas@@U?$less@H@std@@V?$allocator@U?$pair@$$CBHV?$ptr@VProcess@Pegas@@@Pegas@@@std@@@4@$0A@@std@@@2@I@Z 004083d0 f i pacman.obj
 0001:000073e0       ?_Buynode@?$_Tree@V?$_Tmap_traits@HV?$ptr@VProcess@Pegas@@@Pegas@@U?$less@H@std@@V?$allocator@U?$pair@$$CBHV?$ptr@VProcess@Pegas@@@Pegas@@@std@@@4@$0A@@std@@@std@@IAEPAU_Node@?$_Tree_nod@V?$_Tmap_traits@HV?$ptr@VProcess@Pegas@@@Pegas@@U?$less@H@std@@V?$allocator@U?$pair@$$CBHV?$ptr@VProcess@Pegas@@@Pegas@@@std@@@4@$0A@@std@@@2@XZ 004083e0 f i pacman.obj
 0001:00007420       ??0?$_Tree@V?$_Tmap_traits@HV?$ptr@VProcess@Pegas@@@Pegas@@U?$less@H@std@@V?$allocator@U?$pair@$$CBHV?$ptr@VProcess@Pegas@@@Pegas@@@std@@@4@$0A@@std@@@std@@QAE@ABU?$less@H@1@ABV?$allocator@U?$pair@$$CBHV?$ptr@VProcess@Pegas@@@Pegas@@@std@@@1@@Z 00408420 f i pacman.obj
 0001:000074a0       ??1?$_Tree_val@V?$_Tmap_traits@HPAVStringResource@Pegas@@U?$less@H@std@@V?$allocator@U?$pair@$$CBHPAVStringResource@Pegas@@@std@@@4@$0A@@std@@@std@@QAE@XZ 004084a0 f i pacman.obj
 0001:000074a0       ??1?$_Tree_val@V?$_Tmap_traits@HV?$ptr@VProcess@Pegas@@@Pegas@@U?$less@H@std@@V?$allocator@U?$pair@$$CBHV?$ptr@VProcess@Pegas@@@Pegas@@@std@@@4@$0A@@std@@@std@@QAE@XZ 004084a0 f i pacman.obj
 0001:000074a0       ??1?$_Vector_val@HV?$allocator@H@std@@@std@@QAE@XZ 004084a0 f i game_ai.obj
 0001:000074a0       ??1?$_List_val@PAVIDrawable@Pegas@@V?$allocator@PAVIDrawable@Pegas@@@std@@@std@@QAE@XZ 004084a0 f i pacman.obj
 0001:000074a0       ??1?$_Tree_val@V?$_Tmap_traits@HPAVSoundResource@Pegas@@U?$less@H@std@@V?$allocator@U?$pair@$$CBHPAVSoundResource@Pegas@@@std@@@4@$0A@@std@@@std@@QAE@XZ 004084a0 f i pacman.obj
 0001:000074a0       ??1?$_Tree_val@V?$_Tmap_traits@HV?$ptr@VIGameState@Pegas@@@Pegas@@U?$less@H@std@@V?$allocator@U?$pair@$$CBHV?$ptr@VIGameState@Pegas@@@Pegas@@@std@@@4@$0A@@std@@@std@@QAE@XZ 004084a0 f i pacman.obj
 0001:000074a0       ??1?$_Vector_val@UTunnel@GameWorld@Pegas@@V?$allocator@UTunnel@GameWorld@Pegas@@@std@@@std@@QAE@XZ 004084a0 f i game_world.obj
 0001:000074a0       ??1?$_Vector_val@V?$set@HU?$less@H@std@@V?$allocator@H@2@@std@@V?$allocator@V?$set@HU?$less@H@std@@V?$allocator@H@2@@std@@@2@@std@@QAE@XZ 004084a0 f i tile_grid.obj
 0001:000074a0       ??1?$_Vector_val@UTileDesc@Pegas@@V?$allocator@UTileDesc@Pegas@@@std@@@std@@QAE@XZ 004084a0 f i tile_grid.obj
 0001:000074a0       ??1?$_Tree_val@V?$_Tmap_traits@HUSpriteParameters@Pegas@@U?$less@H@std@@V?$allocator@U?$pair@$$CBHUSpriteParameters@Pegas@@@std@@@4@$0A@@std@@@std@@QAE@XZ 004084a0 f i game_world.obj
 0001:000074a0       ??1?$_Tree_val@V?$_Tmap_traits@HPAVFontResource@Pegas@@U?$less@H@std@@V?$allocator@U?$pair@$$CBHPAVFontResource@Pegas@@@std@@@4@$0A@@std@@@std@@QAE@XZ 004084a0 f i pacman.obj
 0001:000074a0       ??1?$_Deque_val@V?$ptr@VIGameState@Pegas@@@Pegas@@V?$allocator@V?$ptr@VIGameState@Pegas@@@Pegas@@@std@@@std@@QAE@XZ 004084a0 f i game_app.obj
 0001:000074a0       ??1?$_Tree_val@V?$_Tset_traits@PAVIMouseController@Pegas@@U?$less@PAVIMouseController@Pegas@@@std@@V?$allocator@PAVIMouseController@Pegas@@@4@$0A@@std@@@std@@QAE@XZ 004084a0 f i pacman.obj
 0001:000074a0       ??1?$_List_val@V?$ptr@VProcess@Pegas@@@Pegas@@V?$allocator@V?$ptr@VProcess@Pegas@@@Pegas@@@std@@@std@@QAE@XZ 004084a0 f i game_screen.obj
 0001:000074a0       ??1?$_Vector_val@V?$ptr@VCharacter@Pegas@@@Pegas@@V?$allocator@V?$ptr@VCharacter@Pegas@@@Pegas@@@std@@@std@@QAE@XZ 004084a0 f i game_world.obj
 0001:000074a0       ??1?$_Tree_val@V?$_Tmap_traits@V?$basic_string@DU?$char_traits@D@std@@V?$allocator@D@2@@std@@V?$ptr@V?$set@PAVIEventListener@Pegas@@U?$less@PAVIEventListener@Pegas@@@std@@V?$allocator@PAVIEventListener@Pegas@@@4@@std@@@Pegas@@U?$less@V?$basic_string@DU?$char_traits@D@std@@V?$allocator@D@2@@std@@@2@V?$allocator@U?$pair@$$CBV?$basic_string@DU?$char_traits@D@std@@V?$allocator@D@2@@std@@V?$ptr@V?$set@PAVIEventListener@Pegas@@U?$less@PAVIEventListener@Pegas@@@std@@V?$allocator@PAVIEventListener@Pegas@@@4@@std@@@Pegas@@@std@@@2@$0A@@std@@@std@@QAE@XZ 004084a0 f i pacman.obj
 0001:000074a0       ??1?$_Vector_val@V?$ptr@VWidget@Pegas@@@Pegas@@V?$allocator@V?$ptr@VWidget@Pegas@@@Pegas@@@std@@@std@@QAE@XZ 004084a0 f i editor.obj
 0001:000074a0       ??1?$_Tree_val@V?$_Tmap_traits@HPAVTextureResource@Pegas@@U?$less@H@std@@V?$allocator@U?$pair@$$CBHPAVTextureResource@Pegas@@@std@@@4@$0A@@std@@@std@@QAE@XZ 004084a0 f i pacman.obj
 0001:000074a0       ??1?$_List_val@VVector3@Pegas@@V?$allocator@VVector3@Pegas@@@std@@@std@@QAE@XZ 004084a0 f i game_ai.obj
 0001:000074a0       ??1?$_List_val@V?$ptr@VBaseScreenLayer@Pegas@@@Pegas@@V?$allocator@V?$ptr@VBaseScreenLayer@Pegas@@@Pegas@@@std@@@std@@QAE@XZ 004084a0 f i editor.obj
 0001:000074a0       ??1?$_Deque_val@V?$ptr@UEvent@Pegas@@@Pegas@@V?$allocator@V?$ptr@UEvent@Pegas@@@Pegas@@@std@@@std@@QAE@XZ 004084a0 f i pacman.obj
 0001:000074a0       ??1?$_Container_base_aux_alloc_real@V?$allocator@V?$ptr@UEvent@Pegas@@@Pegas@@@std@@@std@@IAE@XZ 004084a0 f i pacman.obj
 0001:000074a0       ??1?$_List_val@V?$ptr@VFile@Pegas@@@Pegas@@V?$allocator@V?$ptr@VFile@Pegas@@@Pegas@@@std@@@std@@QAE@XZ 004084a0 f i pacman.obj
 0001:000074a0       ??1?$_Tree_val@V?$_Tset_traits@PAVIEventListener@Pegas@@U?$less@PAVIEventListener@Pegas@@@std@@V?$allocator@PAVIEventListener@Pegas@@@4@$0A@@std@@@std@@QAE@XZ 004084a0 f i pacman.obj
 0001:000074a0       ??1?$_Tree_val@V?$_Tset_traits@PAVIKeyboardController@Pegas@@U?$less@PAVIKeyboardController@Pegas@@@std@@V?$allocator@PAVIKeyboardController@Pegas@@@4@$0A@@std@@@std@@QAE@XZ 004084a0 f i pacman.obj
 0001:000074b0       ?clear@?$_Tree@V?$_Tmap_traits@HV?$ptr@VProcess@Pegas@@@Pegas@@U?$less@H@std@@V?$allocator@U?$pair@$$CBHV?$ptr@VProcess@Pegas@@@Pegas@@@std@@@4@$0A@@std@@@std@@QAEXXZ 004084b0 f i pacman.obj
 0001:000074e0       ??8const_iterator@?$_Tree@V?$_Tmap_traits@HUSpriteParameters@Pegas@@U?$less@H@std@@V?$allocator@U?$pair@$$CBHUSpriteParameters@Pegas@@@std@@@4@$0A@@std@@@std@@QBE_NABV012@@Z 004084e0 f i game_world.obj
 0001:000074e0       ??8const_iterator@?$_Tree@V?$_Tmap_traits@HV?$ptr@VIGameState@Pegas@@@Pegas@@U?$less@H@std@@V?$allocator@U?$pair@$$CBHV?$ptr@VIGameState@Pegas@@@Pegas@@@std@@@4@$0A@@std@@@std@@QBE_NABV012@@Z 004084e0 f i game_app.obj
 0001:000074e0       ??8const_iterator@?$_Tree@V?$_Tset_traits@PAVIEventListener@Pegas@@U?$less@PAVIEventListener@Pegas@@@std@@V?$allocator@PAVIEventListener@Pegas@@@4@$0A@@std@@@std@@QBE_NABV012@@Z 004084e0 f i pacman.obj
 0001:000074e0       ??8const_iterator@?$_Tree@V?$_Tmap_traits@V?$basic_string@DU?$char_traits@D@std@@V?$allocator@D@2@@std@@V?$ptr@V?$set@PAVIEventListener@Pegas@@U?$less@PAVIEventListener@Pegas@@@std@@V?$allocator@PAVIEventListener@Pegas@@@4@@std@@@Pegas@@U?$less@V?$basic_string@DU?$char_traits@D@std@@V?$allocator@D@2@@std@@@2@V?$allocator@U?$pair@$$CBV?$basic_string@DU?$char_traits@D@std@@V?$allocator@D@2@@std@@V?$ptr@V?$set@PAVIEventListener@Pegas@@U?$less@PAVIEventListener@Pegas@@@std@@V?$allocator@PAVIEventListener@Pegas@@@4@@std@@@Pegas@@@std@@@2@$0A@@std@@@std@@QBE_NABV012@@Z 004084e0 f i pacman.obj
 0001:000074e0       ??8const_iterator@?$_Tree@V?$_Tmap_traits@HV?$ptr@VProcess@Pegas@@@Pegas@@U?$less@H@std@@V?$allocator@U?$pair@$$CBHV?$ptr@VProcess@Pegas@@@Pegas@@@std@@@4@$0A@@std@@@std@@QBE_NABV012@@Z 004084e0 f i pacman.obj
 0001:00007500       ?_Mynode@const_iterator@?$_Tree@V?$_Tset_traits@PAVIEventListener@Pegas@@U?$less@PAVIEventListener@Pegas@@@std@@V?$allocator@PAVIEventListener@Pegas@@@4@$0A@@std@@@std@@QBEPAU_Node@?$_Tree_nod@V?$_Tset_traits@PAVIEventListener@Pegas@@U?$less@PAVIEventListener@Pegas@@@std@@V?$allocator@PAVIEventListener@Pegas@@@4@$0A@@std@@@3@XZ 00408500 f i pacman.obj
 0001:00007500       ?_Mynode@const_iterator@?$_Tree@V?$_Tmap_traits@HV?$ptr@VProcess@Pegas@@@Pegas@@U?$less@H@std@@V?$allocator@U?$pair@$$CBHV?$ptr@VProcess@Pegas@@@Pegas@@@std@@@4@$0A@@std@@@std@@QBEPAU_Node@?$_Tree_nod@V?$_Tmap_traits@HV?$ptr@VProcess@Pegas@@@Pegas@@U?$less@H@std@@V?$allocator@U?$pair@$$CBHV?$ptr@VProcess@Pegas@@@Pegas@@@std@@@4@$0A@@std@@@3@XZ 00408500 f i pacman.obj
 0001:00007500       ?_Mynode@const_iterator@?$_Tree@V?$_Tmap_traits@V?$basic_string@DU?$char_traits@D@std@@V?$allocator@D@2@@std@@V?$ptr@V?$set@PAVIEventListener@Pegas@@U?$less@PAVIEventListener@Pegas@@@std@@V?$allocator@PAVIEventListener@Pegas@@@4@@std@@@Pegas@@U?$less@V?$basic_string@DU?$char_traits@D@std@@V?$allocator@D@2@@std@@@2@V?$allocator@U?$pair@$$CBV?$basic_string@DU?$char_traits@D@std@@V?$allocator@D@2@@std@@V?$ptr@V?$set@PAVIEventListener@Pegas@@U?$less@PAVIEventListener@Pegas@@@std@@V?$allocator@PAVIEventListener@Pegas@@@4@@std@@@Pegas@@@std@@@2@$0A@@std@@@std@@QBEPAU_Node@?$_Tree_nod@V?$_Tmap_traits@V?$basic_string@DU?$char_traits@D@std@@V?$allocator@D@2@@std@@V?$ptr@V?$set@PAVIEventListener@Pegas@@U?$less@PAVIEventListener@Pegas@@@std@@V?$allocator@PAVIEventListener@Pegas@@@4@@std@@@Pegas@@U?$less@V?$basic_string@DU?$char_traits@D@std@@V?$allocator@D@2@@std@@@2@V?$allocator@U?$pair@$$CBV?$basic_string@DU?$char_traits@D@std@@V?$allocator@D@2@@std@@V?$ptr@V?$set@PAVIEventListener@Pegas@@U?$less@PAVIEventListener@Pegas@@@std@@V?$allocator@PAVIEventListener@Pegas@@@4@@std@@@Pegas@@@std@@@2@$0A@@std@@@3@XZ 00408500 f i pacman.obj
 0001:00007510       ?_Max@?$_Tree@V?$_Tmap_traits@HV?$ptr@VProcess@Pegas@@@Pegas@@U?$less@H@std@@V?$allocator@U?$pair@$$CBHV?$ptr@VProcess@Pegas@@@Pegas@@@std@@@4@$0A@@std@@@std@@KAPAU_Node@?$_Tree_nod@V?$_Tmap_traits@HV?$ptr@VProcess@Pegas@@@Pegas@@U?$less@H@std@@V?$allocator@U?$pair@$$CBHV?$ptr@VProcess@Pegas@@@Pegas@@@std@@@4@$0A@@std@@@2@PAU342@@Z 00408510 f i pacman.obj
 0001:00007510       ?_Max@?$_Tree@V?$_Tmap_traits@HV?$ptr@VIGameState@Pegas@@@Pegas@@U?$less@H@std@@V?$allocator@U?$pair@$$CBHV?$ptr@VIGameState@Pegas@@@Pegas@@@std@@@4@$0A@@std@@@std@@KAPAU_Node@?$_Tree_nod@V?$_Tmap_traits@HV?$ptr@VIGameState@Pegas@@@Pegas@@U?$less@H@std@@V?$allocator@U?$pair@$$CBHV?$ptr@VIGameState@Pegas@@@Pegas@@@std@@@4@$0A@@std@@@2@PAU342@@Z 00408510 f i game_app.obj
 0001:00007530       ?_Root@?$_Tree@V?$_Tmap_traits@V?$basic_string@DU?$char_traits@D@std@@V?$allocator@D@2@@std@@V?$ptr@V?$set@PAVIEventListener@Pegas@@U?$less@PAVIEventListener@Pegas@@@std@@V?$allocator@PAVIEventListener@Pegas@@@4@@std@@@Pegas@@U?$less@V?$basic_string@DU?$char_traits@D@std@@V?$allocator@D@2@@std@@@2@V?$allocator@U?$pair@$$CBV?$basic_string@DU?$char_traits@D@std@@V?$allocator@D@2@@std@@V?$ptr@V?$set@PAVIEventListener@Pegas@@U?$less@PAVIEventListener@Pegas@@@std@@V?$allocator@PAVIEventListener@Pegas@@@4@@std@@@Pegas@@@std@@@2@$0A@@std@@@std@@IBEAAPAU_Node@?$_Tree_nod@V?$_Tmap_traits@V?$basic_string@DU?$char_traits@D@std@@V?$allocator@D@2@@std@@V?$ptr@V?$set@PAVIEventListener@Pegas@@U?$less@PAVIEventListener@Pegas@@@std@@V?$allocator@PAVIEventListener@Pegas@@@4@@std@@@Pegas@@U?$less@V?$basic_string@DU?$char_traits@D@std@@V?$allocator@D@2@@std@@@2@V?$allocator@U?$pair@$$CBV?$basic_string@DU?$char_traits@D@std@@V?$allocator@D@2@@std@@V?$ptr@V?$set@PAVIEventListener@Pegas@@U?$less@PAVIEventListener@Pegas@@@std@@V?$allocator@PAVIEventListener@Pegas@@@4@@std@@@Pegas@@@std@@@2@$0A@@std@@@2@XZ 00408530 f i pacman.obj
 0001:00007530       ?_Root@?$_Tree@V?$_Tmap_traits@HV?$ptr@VProcess@Pegas@@@Pegas@@U?$less@H@std@@V?$allocator@U?$pair@$$CBHV?$ptr@VProcess@Pegas@@@Pegas@@@std@@@4@$0A@@std@@@std@@IBEAAPAU_Node@?$_Tree_nod@V?$_Tmap_traits@HV?$ptr@VProcess@Pegas@@@Pegas@@U?$less@H@std@@V?$allocator@U?$pair@$$CBHV?$ptr@VProcess@Pegas@@@Pegas@@@std@@@4@$0A@@std@@@2@XZ 00408530 f i pacman.obj
 0001:00007530       ?_Root@?$_Tree@V?$_Tset_traits@PAVIEventListener@Pegas@@U?$less@PAVIEventListener@Pegas@@@std@@V?$allocator@PAVIEventListener@Pegas@@@4@$0A@@std@@@std@@IBEAAPAU_Node@?$_Tree_nod@V?$_Tset_traits@PAVIEventListener@Pegas@@U?$less@PAVIEventListener@Pegas@@@std@@V?$allocator@PAVIEventListener@Pegas@@@4@$0A@@std@@@2@XZ 00408530 f i pacman.obj
 0001:00007540       ?_Rrotate@?$_Tree@V?$_Tmap_traits@HV?$ptr@VProcess@Pegas@@@Pegas@@U?$less@H@std@@V?$allocator@U?$pair@$$CBHV?$ptr@VProcess@Pegas@@@Pegas@@@std@@@4@$0A@@std@@@std@@IAEXPAU_Node@?$_Tree_nod@V?$_Tmap_traits@HV?$ptr@VProcess@Pegas@@@Pegas@@U?$less@H@std@@V?$allocator@U?$pair@$$CBHV?$ptr@VProcess@Pegas@@@Pegas@@@std@@@4@$0A@@std@@@2@@Z 00408540 f i pacman.obj
 0001:00007540       ?_Rrotate@?$_Tree@V?$_Tmap_traits@HV?$ptr@VIGameState@Pegas@@@Pegas@@U?$less@H@std@@V?$allocator@U?$pair@$$CBHV?$ptr@VIGameState@Pegas@@@Pegas@@@std@@@4@$0A@@std@@@std@@IAEXPAU_Node@?$_Tree_nod@V?$_Tmap_traits@HV?$ptr@VIGameState@Pegas@@@Pegas@@U?$less@H@std@@V?$allocator@U?$pair@$$CBHV?$ptr@VIGameState@Pegas@@@Pegas@@@std@@@4@$0A@@std@@@2@@Z 00408540 f i game_app.obj
 0001:00007590       ?_Color@?$_Tree@V?$_Tmap_traits@HV?$ptr@VProcess@Pegas@@@Pegas@@U?$less@H@std@@V?$allocator@U?$pair@$$CBHV?$ptr@VProcess@Pegas@@@Pegas@@@std@@@4@$0A@@std@@@std@@KAAADPAU_Node@?$_Tree_nod@V?$_Tmap_traits@HV?$ptr@VProcess@Pegas@@@Pegas@@U?$less@H@std@@V?$allocator@U?$pair@$$CBHV?$ptr@VProcess@Pegas@@@Pegas@@@std@@@4@$0A@@std@@@2@@Z 00408590 f i pacman.obj
 0001:000075a0       ??1?$pair@$$CBHV?$ptr@VProcess@Pegas@@@Pegas@@@std@@QAE@XZ 004085a0 f i pacman.obj
 0001:000075a0       ??1?$pair@$$CBHV?$ptr@VIGameState@Pegas@@@Pegas@@@std@@QAE@XZ 004085a0 f i game_app.obj
 0001:000075e0       ?erase@?$_Tree@V?$_Tmap_traits@HV?$ptr@VProcess@Pegas@@@Pegas@@U?$less@H@std@@V?$allocator@U?$pair@$$CBHV?$ptr@VProcess@Pegas@@@Pegas@@@std@@@4@$0A@@std@@@std@@QAE?AViterator@12@Vconst_iterator@12@@Z 004085e0 f i pacman.obj
 0001:000075e0       ?erase@?$_Tree@V?$_Tmap_traits@HV?$ptr@VIGameState@Pegas@@@Pegas@@U?$less@H@std@@V?$allocator@U?$pair@$$CBHV?$ptr@VIGameState@Pegas@@@Pegas@@@std@@@4@$0A@@std@@@std@@QAE?AViterator@12@Vconst_iterator@12@@Z 004085e0 f i game_app.obj
 0001:00007900       ?_Isnil@?$_Tree@V?$_Tmap_traits@HV?$ptr@VProcess@Pegas@@@Pegas@@U?$less@H@std@@V?$allocator@U?$pair@$$CBHV?$ptr@VProcess@Pegas@@@Pegas@@@std@@@4@$0A@@std@@@std@@KAAADPAU_Node@?$_Tree_nod@V?$_Tmap_traits@HV?$ptr@VProcess@Pegas@@@Pegas@@U?$less@H@std@@V?$allocator@U?$pair@$$CBHV?$ptr@VProcess@Pegas@@@Pegas@@@std@@@4@$0A@@std@@@2@@Z 00408900 f i pacman.obj
 0001:00007910       ?_Inc@const_iterator@?$_Tree@V?$_Tmap_traits@HV?$ptr@VProcess@Pegas@@@Pegas@@U?$less@H@std@@V?$allocator@U?$pair@$$CBHV?$ptr@VProcess@Pegas@@@Pegas@@@std@@@4@$0A@@std@@@std@@QAEXXZ 00408910 f i pacman.obj
 0001:00007910       ?_Inc@const_iterator@?$_Tree@V?$_Tmap_traits@HV?$ptr@VIGameState@Pegas@@@Pegas@@U?$less@H@std@@V?$allocator@U?$pair@$$CBHV?$ptr@VIGameState@Pegas@@@Pegas@@@std@@@4@$0A@@std@@@std@@QAEXXZ 00408910 f i game_app.obj
 0001:00007980       ??Econst_iterator@?$_Tree@V?$_Tmap_traits@HV?$ptr@VProcess@Pegas@@@Pegas@@U?$less@H@std@@V?$allocator@U?$pair@$$CBHV?$ptr@VProcess@Pegas@@@Pegas@@@std@@@4@$0A@@std@@@std@@QAEAAV012@XZ 00408980 f i pacman.obj
 0001:00007990       ?erase@?$_Tree@V?$_Tmap_traits@HV?$ptr@VProcess@Pegas@@@Pegas@@U?$less@H@std@@V?$allocator@U?$pair@$$CBHV?$ptr@VProcess@Pegas@@@Pegas@@@std@@@4@$0A@@std@@@std@@QAE?AViterator@12@Vconst_iterator@12@0@Z 00408990 f i pacman.obj
 0001:00007a70       ??0?$_Ranit@HHPBHABH@std@@QAE@XZ 00408a70 f i game_ai.obj
 0001:00007a70       ??0?$_Bidit@U?$pair@$$CBHV?$ptr@VProcess@Pegas@@@Pegas@@@std@@HPBU12@ABU12@@std@@QAE@XZ 00408a70 f i pacman.obj
 0001:00007a80       ?_Lmost@?$_Tree@V?$_Tset_traits@PAVIEventListener@Pegas@@U?$less@PAVIEventListener@Pegas@@@std@@V?$allocator@PAVIEventListener@Pegas@@@4@$0A@@std@@@std@@IBEAAPAU_Node@?$_Tree_nod@V?$_Tset_traits@PAVIEventListener@Pegas@@U?$less@PAVIEventListener@Pegas@@@std@@V?$allocator@PAVIEventListener@Pegas@@@4@$0A@@std@@@2@XZ 00408a80 f i pacman.obj
 0001:00007a80       ?_Lmost@?$_Tree@V?$_Tmap_traits@HV?$ptr@VProcess@Pegas@@@Pegas@@U?$less@H@std@@V?$allocator@U?$pair@$$CBHV?$ptr@VProcess@Pegas@@@Pegas@@@std@@@4@$0A@@std@@@std@@IBEAAPAU_Node@?$_Tree_nod@V?$_Tmap_traits@HV?$ptr@VProcess@Pegas@@@Pegas@@U?$less@H@std@@V?$allocator@U?$pair@$$CBHV?$ptr@VProcess@Pegas@@@Pegas@@@std@@@4@$0A@@std@@@2@XZ 00408a80 f i pacman.obj
 0001:00007a80       ?_Lmost@?$_Tree@V?$_Tmap_traits@V?$basic_string@DU?$char_traits@D@std@@V?$allocator@D@2@@std@@V?$ptr@V?$set@PAVIEventListener@Pegas@@U?$less@PAVIEventListener@Pegas@@@std@@V?$allocator@PAVIEventListener@Pegas@@@4@@std@@@Pegas@@U?$less@V?$basic_string@DU?$char_traits@D@std@@V?$allocator@D@2@@std@@@2@V?$allocator@U?$pair@$$CBV?$basic_string@DU?$char_traits@D@std@@V?$allocator@D@2@@std@@V?$ptr@V?$set@PAVIEventListener@Pegas@@U?$less@PAVIEventListener@Pegas@@@std@@V?$allocator@PAVIEventListener@Pegas@@@4@@std@@@Pegas@@@std@@@2@$0A@@std@@@std@@IBEAAPAU_Node@?$_Tree_nod@V?$_Tmap_traits@V?$basic_string@DU?$char_traits@D@std@@V?$allocator@D@2@@std@@V?$ptr@V?$set@PAVIEventListener@Pegas@@U?$less@PAVIEventListener@Pegas@@@std@@V?$allocator@PAVIEventListener@Pegas@@@4@@std@@@Pegas@@U?$less@V?$basic_string@DU?$char_traits@D@std@@V?$allocator@D@2@@std@@@2@V?$allocator@U?$pair@$$CBV?$basic_string@DU?$char_traits@D@std@@V?$allocator@D@2@@std@@V?$ptr@V?$set@PAVIEventListener@Pegas@@U?$less@PAVIEventListener@Pegas@@@std@@V?$allocator@PAVIEventListener@Pegas@@@4@@std@@@Pegas@@@std@@@2@$0A@@std@@@2@XZ 00408a80 f i pacman.obj
 0001:00007a90       ?_Tidy@?$_Tree@V?$_Tmap_traits@HV?$ptr@VProcess@Pegas@@@Pegas@@U?$less@H@std@@V?$allocator@U?$pair@$$CBHV?$ptr@VProcess@Pegas@@@Pegas@@@std@@@4@$0A@@std@@@std@@IAEXXZ 00408a90 f i pacman.obj
 0001:00007ad0       ??1?$map@HV?$ptr@VProcess@Pegas@@@Pegas@@U?$less@H@std@@V?$allocator@U?$pair@$$CBHV?$ptr@VProcess@Pegas@@@Pegas@@@std@@@4@@std@@QAE@XZ 00408ad0 f i pacman.obj
 0001:00007b30       ??0?$_Container_base_aux_alloc_real@V?$allocator@H@std@@@std@@IAE@V?$allocator@H@1@@Z 00408b30 f i pacman.obj
 0001:00007b60       ??0?$allocator@H@std@@QAE@ABV01@@Z 00408b60 f i pacman.obj
 0001:00007b70       ??1?$_Container_base_aux_alloc_real@V?$allocator@H@std@@@std@@IAE@XZ 00408b70 f i pacman.obj
 0001:00007b70       ??1?$_Tree_val@V?$_Tset_traits@HU?$less@H@std@@V?$allocator@H@2@$0A@@std@@@std@@QAE@XZ 00408b70 f i tile_grid.obj
 0001:00007b80       ?empty@?$deque@HV?$allocator@H@std@@@std@@QBE_NXZ 00408b80 f i pacman.obj
 0001:00007b80       ?empty@?$deque@V?$ptr@UEvent@Pegas@@@Pegas@@V?$allocator@V?$ptr@UEvent@Pegas@@@Pegas@@@std@@@std@@QBE_NXZ 00408b80 f i pacman.obj
 0001:00007b90       ?_Tidy@?$deque@HV?$allocator@H@std@@@std@@IAEXXZ 00408b90 f i pacman.obj
 0001:00007bf0       ??1?$queue@HV?$deque@HV?$allocator@H@std@@@std@@@std@@QAE@XZ 00408bf0 f i pacman.obj
 0001:00007c10       ??0ProcessManager@Pegas@@QAE@XZ 00408c10 f i pacman.obj
 0001:00007ca0       ??1EventManager@Pegas@@UAE@XZ 00408ca0 f i pacman.obj
 0001:00007d50       ??1?$Singleton@VEventManager@Pegas@@@Pegas@@QAE@XZ 00408d50 f i pacman.obj
 0001:00007d70       ??_EEventManager@Pegas@@UAEPAXI@Z 00408d70 f i  CIL library: CIL module
 0001:00007d70       ??_GEventManager@Pegas@@UAEPAXI@Z 00408d70 f i pacman.obj
 0001:00007d90       ??0?$_Container_base_aux_alloc_real@V?$allocator@V?$ptr@UEvent@Pegas@@@Pegas@@@std@@@std@@IAE@V?$allocator@V?$ptr@UEvent@Pegas@@@Pegas@@@1@@Z 00408d90 f i pacman.obj
 0001:00007db0       ??0?$queue@HV?$deque@HV?$allocator@H@std@@@std@@@std@@QAE@XZ 00408db0 f i pacman.obj
 0001:00007db0       ??0?$queue@V?$ptr@UEvent@Pegas@@@Pegas@@V?$deque@V?$ptr@UEvent@Pegas@@@Pegas@@V?$allocator@V?$ptr@UEvent@Pegas@@@Pegas@@@std@@@std@@@std@@QAE@XZ 00408db0 f i pacman.obj
 0001:00007df0       ??1?$ptr@VIGameState@Pegas@@@Pegas@@QAE@XZ 00408df0 f i game_app.obj
 0001:00007df0       ??1?$ptr@VCharacter@Pegas@@@Pegas@@QAE@XZ 00408df0 f i game_world.obj
 0001:00007df0       ??1?$ptr@UEvent@Pegas@@@Pegas@@QAE@XZ 00408df0 f i game_app.obj
 0001:00007df0       ??1?$ptr@VBaseScreenLayer@Pegas@@@Pegas@@QAE@XZ 00408df0 f i editor.obj
 0001:00007df0       ??1?$ptr@VWidget@Pegas@@@Pegas@@QAE@XZ 00408df0 f i editor.obj
 0001:00007df0       ?destroy@?$allocator@V?$ptr@UEvent@Pegas@@@Pegas@@@std@@QAEXPAV?$ptr@UEvent@Pegas@@@Pegas@@@Z 00408df0 f i pacman.obj
 0001:00007df0       ?release@?$ptr@VWidget@Pegas@@@Pegas@@AAEXXZ 00408df0 f i editor.obj
 0001:00007df0       ?destroy@?$allocator@V?$ptr@VWidget@Pegas@@@Pegas@@@std@@QAEXPAV?$ptr@VWidget@Pegas@@@Pegas@@@Z 00408df0 f i editor.obj
 0001:00007df0       ??1?$ptr@VFile@Pegas@@@Pegas@@QAE@XZ 00408df0 f i game_app.obj
 0001:00007e30       ?_Tidy@?$deque@V?$ptr@UEvent@Pegas@@@Pegas@@V?$allocator@V?$ptr@UEvent@Pegas@@@Pegas@@@std@@@std@@IAEXXZ 00408e30 f i pacman.obj
 0001:00007e30       ?_Tidy@?$deque@V?$ptr@VIGameState@Pegas@@@Pegas@@V?$allocator@V?$ptr@VIGameState@Pegas@@@Pegas@@@std@@@std@@IAEXXZ 00408e30 f i game_app.obj
 0001:00007ee0       ??1?$queue@V?$ptr@UEvent@Pegas@@@Pegas@@V?$deque@V?$ptr@UEvent@Pegas@@@Pegas@@V?$allocator@V?$ptr@UEvent@Pegas@@@Pegas@@@std@@@std@@@std@@QAE@XZ 00408ee0 f i pacman.obj
 0001:00007f40       ??$_Allocate@U_Node@?$_Tree_nod@V?$_Tmap_traits@V?$basic_string@DU?$char_traits@D@std@@V?$allocator@D@2@@std@@V?$ptr@V?$set@PAVIEventListener@Pegas@@U?$less@PAVIEventListener@Pegas@@@std@@V?$allocator@PAVIEventListener@Pegas@@@4@@std@@@Pegas@@U?$less@V?$basic_string@DU?$char_traits@D@std@@V?$allocator@D@2@@std@@@2@V?$allocator@U?$pair@$$CBV?$basic_string@DU?$char_traits@D@std@@V?$allocator@D@2@@std@@V?$ptr@V?$set@PAVIEventListener@Pegas@@U?$less@PAVIEventListener@Pegas@@@std@@V?$allocator@PAVIEventListener@Pegas@@@4@@std@@@Pegas@@@std@@@2@$0A@@std@@@std@@@std@@YAPAU_Node@?$_Tree_nod@V?$_Tmap_traits@V?$basic_string@DU?$char_traits@D@std@@V?$allocator@D@2@@std@@V?$ptr@V?$set@PAVIEventListener@Pegas@@U?$less@PAVIEventListener@Pegas@@@std@@V?$allocator@PAVIEventListener@Pegas@@@4@@std@@@Pegas@@U?$less@V?$basic_string@DU?$char_traits@D@std@@V?$allocator@D@2@@std@@@2@V?$allocator@U?$pair@$$CBV?$basic_string@DU?$char_traits@D@std@@V?$allocator@D@2@@std@@V?$ptr@V?$set@PAVIEventListener@Pegas@@U?$less@PAVIEventListener@Pegas@@@std@@V?$allocator@PAVIEventListener@Pegas@@@4@@std@@@Pegas@@@std@@@2@$0A@@std@@@0@IPAU120@@Z 00408f40 f i pacman.obj
 0001:00007fa0       ?allocate@?$allocator@U_Node@?$_Tree_nod@V?$_Tmap_traits@V?$basic_string@DU?$char_traits@D@std@@V?$allocator@D@2@@std@@V?$ptr@V?$set@PAVIEventListener@Pegas@@U?$less@PAVIEventListener@Pegas@@@std@@V?$allocator@PAVIEventListener@Pegas@@@4@@std@@@Pegas@@U?$less@V?$basic_string@DU?$char_traits@D@std@@V?$allocator@D@2@@std@@@2@V?$allocator@U?$pair@$$CBV?$basic_string@DU?$char_traits@D@std@@V?$allocator@D@2@@std@@V?$ptr@V?$set@PAVIEventListener@Pegas@@U?$less@PAVIEventListener@Pegas@@@std@@V?$allocator@PAVIEventListener@Pegas@@@4@@std@@@Pegas@@@std@@@2@$0A@@std@@@std@@@std@@QAEPAU_Node@?$_Tree_nod@V?$_Tmap_traits@V?$basic_string@DU?$char_traits@D@std@@V?$allocator@D@2@@std@@V?$ptr@V?$set@PAVIEventListener@Pegas@@U?$less@PAVIEventListener@Pegas@@@std@@V?$allocator@PAVIEventListener@Pegas@@@4@@std@@@Pegas@@U?$less@V?$basic_string@DU?$char_traits@D@std@@V?$allocator@D@2@@std@@@2@V?$allocator@U?$pair@$$CBV?$basic_string@DU?$char_traits@D@std@@V?$allocator@D@2@@std@@V?$ptr@V?$set@PAVIEventListener@Pegas@@U?$less@PAVIEventListener@Pegas@@@std@@V?$allocator@PAVIEventListener@Pegas@@@4@@std@@@Pegas@@@std@@@2@$0A@@std@@@2@I@Z 00408fa0 f i pacman.obj
 0001:00007fb0       ?_Buynode@?$_Tree@V?$_Tmap_traits@V?$basic_string@DU?$char_traits@D@std@@V?$allocator@D@2@@std@@V?$ptr@V?$set@PAVIEventListener@Pegas@@U?$less@PAVIEventListener@Pegas@@@std@@V?$allocator@PAVIEventListener@Pegas@@@4@@std@@@Pegas@@U?$less@V?$basic_string@DU?$char_traits@D@std@@V?$allocator@D@2@@std@@@2@V?$allocator@U?$pair@$$CBV?$basic_string@DU?$char_traits@D@std@@V?$allocator@D@2@@std@@V?$ptr@V?$set@PAVIEventListener@Pegas@@U?$less@PAVIEventListener@Pegas@@@std@@V?$allocator@PAVIEventListener@Pegas@@@4@@std@@@Pegas@@@std@@@2@$0A@@std@@@std@@IAEPAU_Node@?$_Tree_nod@V?$_Tmap_traits@V?$basic_string@DU?$char_traits@D@std@@V?$allocator@D@2@@std@@V?$ptr@V?$set@PAVIEventListener@Pegas@@U?$less@PAVIEventListener@Pegas@@@std@@V?$allocator@PAVIEventListener@Pegas@@@4@@std@@@Pegas@@U?$less@V?$basic_string@DU?$char_traits@D@std@@V?$allocator@D@2@@std@@@2@V?$allocator@U?$pair@$$CBV?$basic_string@DU?$char_traits@D@std@@V?$allocator@D@2@@std@@V?$ptr@V?$set@PAVIEventListener@Pegas@@U?$less@PAVIEventListener@Pegas@@@std@@V?$allocator@PAVIEventListener@Pegas@@@4@@std@@@Pegas@@@std@@@2@$0A@@std@@@2@XZ 00408fb0 f i pacman.obj
 0001:00007ff0       ??0?$_Tree@V?$_Tmap_traits@V?$basic_string@DU?$char_traits@D@std@@V?$allocator@D@2@@std@@V?$ptr@V?$set@PAVIEventListener@Pegas@@U?$less@PAVIEventListener@Pegas@@@std@@V?$allocator@PAVIEventListener@Pegas@@@4@@std@@@Pegas@@U?$less@V?$basic_string@DU?$char_traits@D@std@@V?$allocator@D@2@@std@@@2@V?$allocator@U?$pair@$$CBV?$basic_string@DU?$char_traits@D@std@@V?$allocator@D@2@@std@@V?$ptr@V?$set@PAVIEventListener@Pegas@@U?$less@PAVIEventListener@Pegas@@@std@@V?$allocator@PAVIEventListener@Pegas@@@4@@std@@@Pegas@@@std@@@2@$0A@@std@@@std@@QAE@ABU?$less@V?$basic_string@DU?$char_traits@D@std@@V?$allocator@D@2@@std@@@1@ABV?$allocator@U?$pair@$$CBV?$basic_string@DU?$char_traits@D@std@@V?$allocator@D@2@@std@@V?$ptr@V?$set@PAVIEventListener@Pegas@@U?$less@PAVIEventListener@Pegas@@@std@@V?$allocator@PAVIEventListener@Pegas@@@4@@std@@@Pegas@@@std@@@1@@Z 00408ff0 f i pacman.obj
 0001:00008070       ?_Erase@?$_Tree@V?$_Tmap_traits@V?$basic_string@DU?$char_traits@D@std@@V?$allocator@D@2@@std@@V?$ptr@V?$set@PAVIEventListener@Pegas@@U?$less@PAVIEventListener@Pegas@@@std@@V?$allocator@PAVIEventListener@Pegas@@@4@@std@@@Pegas@@U?$less@V?$basic_string@DU?$char_traits@D@std@@V?$allocator@D@2@@std@@@2@V?$allocator@U?$pair@$$CBV?$basic_string@DU?$char_traits@D@std@@V?$allocator@D@2@@std@@V?$ptr@V?$set@PAVIEventListener@Pegas@@U?$less@PAVIEventListener@Pegas@@@std@@V?$allocator@PAVIEventListener@Pegas@@@4@@std@@@Pegas@@@std@@@2@$0A@@std@@@std@@IAEXPAU_Node@?$_Tree_nod@V?$_Tmap_traits@V?$basic_string@DU?$char_traits@D@std@@V?$allocator@D@2@@std@@V?$ptr@V?$set@PAVIEventListener@Pegas@@U?$less@PAVIEventListener@Pegas@@@std@@V?$allocator@PAVIEventListener@Pegas@@@4@@std@@@Pegas@@U?$less@V?$basic_string@DU?$char_traits@D@std@@V?$allocator@D@2@@std@@@2@V?$allocator@U?$pair@$$CBV?$basic_string@DU?$char_traits@D@std@@V?$allocator@D@2@@std@@V?$ptr@V?$set@PAVIEventListener@Pegas@@U?$less@PAVIEventListener@Pegas@@@std@@V?$allocator@PAVIEventListener@Pegas@@@4@@std@@@Pegas@@@std@@@2@$0A@@std@@@2@@Z 00409070 f i pacman.obj
 0001:000080b0       ??9const_iterator@?$_Tree@V?$_Tmap_traits@HV?$ptr@VProcess@Pegas@@@Pegas@@U?$less@H@std@@V?$allocator@U?$pair@$$CBHV?$ptr@VProcess@Pegas@@@Pegas@@@std@@@4@$0A@@std@@@std@@QBE_NABV012@@Z 004090b0 f i pacman.obj
 0001:000080b0       ??9const_iterator@?$_Tree@V?$_Tset_traits@PAVIEventListener@Pegas@@U?$less@PAVIEventListener@Pegas@@@std@@V?$allocator@PAVIEventListener@Pegas@@@4@$0A@@std@@@std@@QBE_NABV012@@Z 004090b0 f i pacman.obj
 0001:000080b0       ??9?$_Const_iterator@$00@?$list@V?$ptr@VProcess@Pegas@@@Pegas@@V?$allocator@V?$ptr@VProcess@Pegas@@@Pegas@@@std@@@std@@QBE_NABV012@@Z 004090b0 f i game_screen.obj
 0001:000080b0       ??9const_iterator@?$_Tree@V?$_Tmap_traits@V?$basic_string@DU?$char_traits@D@std@@V?$allocator@D@2@@std@@V?$ptr@V?$set@PAVIEventListener@Pegas@@U?$less@PAVIEventListener@Pegas@@@std@@V?$allocator@PAVIEventListener@Pegas@@@4@@std@@@Pegas@@U?$less@V?$basic_string@DU?$char_traits@D@std@@V?$allocator@D@2@@std@@@2@V?$allocator@U?$pair@$$CBV?$basic_string@DU?$char_traits@D@std@@V?$allocator@D@2@@std@@V?$ptr@V?$set@PAVIEventListener@Pegas@@U?$less@PAVIEventListener@Pegas@@@std@@V?$allocator@PAVIEventListener@Pegas@@@4@@std@@@Pegas@@@std@@@2@$0A@@std@@@std@@QBE_NABV012@@Z 004090b0 f i pacman.obj
 0001:000080d0       ?_Max@?$_Tree@V?$_Tmap_traits@V?$basic_string@DU?$char_traits@D@std@@V?$allocator@D@2@@std@@V?$ptr@V?$set@PAVIEventListener@Pegas@@U?$less@PAVIEventListener@Pegas@@@std@@V?$allocator@PAVIEventListener@Pegas@@@4@@std@@@Pegas@@U?$less@V?$basic_string@DU?$char_traits@D@std@@V?$allocator@D@2@@std@@@2@V?$allocator@U?$pair@$$CBV?$basic_string@DU?$char_traits@D@std@@V?$allocator@D@2@@std@@V?$ptr@V?$set@PAVIEventListener@Pegas@@U?$less@PAVIEventListener@Pegas@@@std@@V?$allocator@PAVIEventListener@Pegas@@@4@@std@@@Pegas@@@std@@@2@$0A@@std@@@std@@KAPAU_Node@?$_Tree_nod@V?$_Tmap_traits@V?$basic_string@DU?$char_traits@D@std@@V?$allocator@D@2@@std@@V?$ptr@V?$set@PAVIEventListener@Pegas@@U?$less@PAVIEventListener@Pegas@@@std@@V?$allocator@PAVIEventListener@Pegas@@@4@@std@@@Pegas@@U?$less@V?$basic_string@DU?$char_traits@D@std@@V?$allocator@D@2@@std@@@2@V?$allocator@U?$pair@$$CBV?$basic_string@DU?$char_traits@D@std@@V?$allocator@D@2@@std@@V?$ptr@V?$set@PAVIEventListener@Pegas@@U?$less@PAVIEventListener@Pegas@@@std@@V?$allocator@PAVIEventListener@Pegas@@@4@@std@@@Pegas@@@std@@@2@$0A@@std@@@2@PAU342@@Z 004090d0 f i pacman.obj
 0001:000080f0       ?_Lrotate@?$_Tree@V?$_Tmap_traits@V?$basic_string@DU?$char_traits@D@std@@V?$allocator@D@2@@std@@V?$ptr@V?$set@PAVIEventListener@Pegas@@U?$less@PAVIEventListener@Pegas@@@std@@V?$allocator@PAVIEventListener@Pegas@@@4@@std@@@Pegas@@U?$less@V?$basic_string@DU?$char_traits@D@std@@V?$allocator@D@2@@std@@@2@V?$allocator@U?$pair@$$CBV?$basic_string@DU?$char_traits@D@std@@V?$allocator@D@2@@std@@V?$ptr@V?$set@PAVIEventListener@Pegas@@U?$less@PAVIEventListener@Pegas@@@std@@V?$allocator@PAVIEventListener@Pegas@@@4@@std@@@Pegas@@@std@@@2@$0A@@std@@@std@@IAEXPAU_Node@?$_Tree_nod@V?$_Tmap_traits@V?$basic_string@DU?$char_traits@D@std@@V?$allocator@D@2@@std@@V?$ptr@V?$set@PAVIEventListener@Pegas@@U?$less@PAVIEventListener@Pegas@@@std@@V?$allocator@PAVIEventListener@Pegas@@@4@@std@@@Pegas@@U?$less@V?$basic_string@DU?$char_traits@D@std@@V?$allocator@D@2@@std@@@2@V?$allocator@U?$pair@$$CBV?$basic_string@DU?$char_traits@D@std@@V?$allocator@D@2@@std@@V?$ptr@V?$set@PAVIEventListener@Pegas@@U?$less@PAVIEventListener@Pegas@@@std@@V?$allocator@PAVIEventListener@Pegas@@@4@@std@@@Pegas@@@std@@@2@$0A@@std@@@2@@Z 004090f0 f i pacman.obj
 0001:00008140       ?_Rrotate@?$_Tree@V?$_Tmap_traits@V?$basic_string@DU?$char_traits@D@std@@V?$allocator@D@2@@std@@V?$ptr@V?$set@PAVIEventListener@Pegas@@U?$less@PAVIEventListener@Pegas@@@std@@V?$allocator@PAVIEventListener@Pegas@@@4@@std@@@Pegas@@U?$less@V?$basic_string@DU?$char_traits@D@std@@V?$allocator@D@2@@std@@@2@V?$allocator@U?$pair@$$CBV?$basic_string@DU?$char_traits@D@std@@V?$allocator@D@2@@std@@V?$ptr@V?$set@PAVIEventListener@Pegas@@U?$less@PAVIEventListener@Pegas@@@std@@V?$allocator@PAVIEventListener@Pegas@@@4@@std@@@Pegas@@@std@@@2@$0A@@std@@@std@@IAEXPAU_Node@?$_Tree_nod@V?$_Tmap_traits@V?$basic_string@DU?$char_traits@D@std@@V?$allocator@D@2@@std@@V?$ptr@V?$set@PAVIEventListener@Pegas@@U?$less@PAVIEventListener@Pegas@@@std@@V?$allocator@PAVIEventListener@Pegas@@@4@@std@@@Pegas@@U?$less@V?$basic_string@DU?$char_traits@D@std@@V?$allocator@D@2@@std@@@2@V?$allocator@U?$pair@$$CBV?$basic_string@DU?$char_traits@D@std@@V?$allocator@D@2@@std@@V?$ptr@V?$set@PAVIEventListener@Pegas@@U?$less@PAVIEventListener@Pegas@@@std@@V?$allocator@PAVIEventListener@Pegas@@@4@@std@@@Pegas@@@std@@@2@$0A@@std@@@2@@Z 00409140 f i pacman.obj
 0001:00008190       ?_Color@?$_Tree@V?$_Tmap_traits@V?$basic_string@DU?$char_traits@D@std@@V?$allocator@D@2@@std@@V?$ptr@V?$set@PAVIEventListener@Pegas@@U?$less@PAVIEventListener@Pegas@@@std@@V?$allocator@PAVIEventListener@Pegas@@@4@@std@@@Pegas@@U?$less@V?$basic_string@DU?$char_traits@D@std@@V?$allocator@D@2@@std@@@2@V?$allocator@U?$pair@$$CBV?$basic_string@DU?$char_traits@D@std@@V?$allocator@D@2@@std@@V?$ptr@V?$set@PAVIEventListener@Pegas@@U?$less@PAVIEventListener@Pegas@@@std@@V?$allocator@PAVIEventListener@Pegas@@@4@@std@@@Pegas@@@std@@@2@$0A@@std@@@std@@KAAADPAU_Node@?$_Tree_nod@V?$_Tmap_traits@V?$basic_string@DU?$char_traits@D@std@@V?$allocator@D@2@@std@@V?$ptr@V?$set@PAVIEventListener@Pegas@@U?$less@PAVIEventListener@Pegas@@@std@@V?$allocator@PAVIEventListener@Pegas@@@4@@std@@@Pegas@@U?$less@V?$basic_string@DU?$char_traits@D@std@@V?$allocator@D@2@@std@@@2@V?$allocator@U?$pair@$$CBV?$basic_string@DU?$char_traits@D@std@@V?$allocator@D@2@@std@@V?$ptr@V?$set@PAVIEventListener@Pegas@@U?$less@PAVIEventListener@Pegas@@@std@@V?$allocator@PAVIEventListener@Pegas@@@4@@std@@@Pegas@@@std@@@2@$0A@@std@@@2@@Z 00409190 f i pacman.obj
 0001:000081a0       ?_Rmost@?$_Tree@V?$_Tset_traits@PAVIEventListener@Pegas@@U?$less@PAVIEventListener@Pegas@@@std@@V?$allocator@PAVIEventListener@Pegas@@@4@$0A@@std@@@std@@IBEAAPAU_Node@?$_Tree_nod@V?$_Tset_traits@PAVIEventListener@Pegas@@U?$less@PAVIEventListener@Pegas@@@std@@V?$allocator@PAVIEventListener@Pegas@@@4@$0A@@std@@@2@XZ 004091a0 f i pacman.obj
 0001:000081a0       ?_Rmost@?$_Tree@V?$_Tmap_traits@V?$basic_string@DU?$char_traits@D@std@@V?$allocator@D@2@@std@@V?$ptr@V?$set@PAVIEventListener@Pegas@@U?$less@PAVIEventListener@Pegas@@@std@@V?$allocator@PAVIEventListener@Pegas@@@4@@std@@@Pegas@@U?$less@V?$basic_string@DU?$char_traits@D@std@@V?$allocator@D@2@@std@@@2@V?$allocator@U?$pair@$$CBV?$basic_string@DU?$char_traits@D@std@@V?$allocator@D@2@@std@@V?$ptr@V?$set@PAVIEventListener@Pegas@@U?$less@PAVIEventListener@Pegas@@@std@@V?$allocator@PAVIEventListener@Pegas@@@4@@std@@@Pegas@@@std@@@2@$0A@@std@@@std@@IBEAAPAU_Node@?$_Tree_nod@V?$_Tmap_traits@V?$basic_string@DU?$char_traits@D@std@@V?$allocator@D@2@@std@@V?$ptr@V?$set@PAVIEventListener@Pegas@@U?$less@PAVIEventListener@Pegas@@@std@@V?$allocator@PAVIEventListener@Pegas@@@4@@std@@@Pegas@@U?$less@V?$basic_string@DU?$char_traits@D@std@@V?$allocator@D@2@@std@@@2@V?$allocator@U?$pair@$$CBV?$basic_string@DU?$char_traits@D@std@@V?$allocator@D@2@@std@@V?$ptr@V?$set@PAVIEventListener@Pegas@@U?$less@PAVIEventListener@Pegas@@@std@@V?$allocator@PAVIEventListener@Pegas@@@4@@std@@@Pegas@@@std@@@2@$0A@@std@@@2@XZ 004091a0 f i pacman.obj
 0001:000081a0       ?_Rmost@?$_Tree@V?$_Tmap_traits@HV?$ptr@VProcess@Pegas@@@Pegas@@U?$less@H@std@@V?$allocator@U?$pair@$$CBHV?$ptr@VProcess@Pegas@@@Pegas@@@std@@@4@$0A@@std@@@std@@IBEAAPAU_Node@?$_Tree_nod@V?$_Tmap_traits@HV?$ptr@VProcess@Pegas@@@Pegas@@U?$less@H@std@@V?$allocator@U?$pair@$$CBHV?$ptr@VProcess@Pegas@@@Pegas@@@std@@@4@$0A@@std@@@2@XZ 004091a0 f i pacman.obj
 0001:000081b0       ?_Max@?$_Tree@V?$_Tset_traits@PAVIEventListener@Pegas@@U?$less@PAVIEventListener@Pegas@@@std@@V?$allocator@PAVIEventListener@Pegas@@@4@$0A@@std@@@std@@KAPAU_Node@?$_Tree_nod@V?$_Tset_traits@PAVIEventListener@Pegas@@U?$less@PAVIEventListener@Pegas@@@std@@V?$allocator@PAVIEventListener@Pegas@@@4@$0A@@std@@@2@PAU342@@Z 004091b0 f i pacman.obj
 0001:000081b0       ?_Max@?$_Tree@V?$_Tset_traits@PAVIKeyboardController@Pegas@@U?$less@PAVIKeyboardController@Pegas@@@std@@V?$allocator@PAVIKeyboardController@Pegas@@@4@$0A@@std@@@std@@KAPAU_Node@?$_Tree_nod@V?$_Tset_traits@PAVIKeyboardController@Pegas@@U?$less@PAVIKeyboardController@Pegas@@@std@@V?$allocator@PAVIKeyboardController@Pegas@@@4@$0A@@std@@@2@PAU342@@Z 004091b0 f i game_app.obj
 0001:000081b0       ?_Max@?$_Tree@V?$_Tset_traits@PAVIMouseController@Pegas@@U?$less@PAVIMouseController@Pegas@@@std@@V?$allocator@PAVIMouseController@Pegas@@@4@$0A@@std@@@std@@KAPAU_Node@?$_Tree_nod@V?$_Tset_traits@PAVIMouseController@Pegas@@U?$less@PAVIMouseController@Pegas@@@std@@V?$allocator@PAVIMouseController@Pegas@@@4@$0A@@std@@@2@PAU342@@Z 004091b0 f i game_app.obj
 0001:000081d0       ?_Color@?$_Tree@V?$_Tset_traits@PAVIEventListener@Pegas@@U?$less@PAVIEventListener@Pegas@@@std@@V?$allocator@PAVIEventListener@Pegas@@@4@$0A@@std@@@std@@KAAADPAU_Node@?$_Tree_nod@V?$_Tset_traits@PAVIEventListener@Pegas@@U?$less@PAVIEventListener@Pegas@@@std@@V?$allocator@PAVIEventListener@Pegas@@@4@$0A@@std@@@2@@Z 004091d0 f i pacman.obj
 0001:000081e0       ?erase@?$_Tree@V?$_Tset_traits@PAVIMouseController@Pegas@@U?$less@PAVIMouseController@Pegas@@@std@@V?$allocator@PAVIMouseController@Pegas@@@4@$0A@@std@@@std@@QAE?AViterator@12@Vconst_iterator@12@@Z 004091e0 f i game_app.obj
 0001:000081e0       ?erase@?$_Tree@V?$_Tset_traits@PAVIKeyboardController@Pegas@@U?$less@PAVIKeyboardController@Pegas@@@std@@V?$allocator@PAVIKeyboardController@Pegas@@@4@$0A@@std@@@std@@QAE?AViterator@12@Vconst_iterator@12@@Z 004091e0 f i game_app.obj
 0001:000081e0       ?erase@?$_Tree@V?$_Tset_traits@PAVIEventListener@Pegas@@U?$less@PAVIEventListener@Pegas@@@std@@V?$allocator@PAVIEventListener@Pegas@@@4@$0A@@std@@@std@@QAE?AViterator@12@Vconst_iterator@12@@Z 004091e0 f i pacman.obj
 0001:000084b0       ?_Isnil@?$_Tree@V?$_Tset_traits@PAVIEventListener@Pegas@@U?$less@PAVIEventListener@Pegas@@@std@@V?$allocator@PAVIEventListener@Pegas@@@4@$0A@@std@@@std@@KAAADPAU_Node@?$_Tree_nod@V?$_Tset_traits@PAVIEventListener@Pegas@@U?$less@PAVIEventListener@Pegas@@@std@@V?$allocator@PAVIEventListener@Pegas@@@4@$0A@@std@@@2@@Z 004094b0 f i pacman.obj
 0001:000084c0       ?_Inc@const_iterator@?$_Tree@V?$_Tset_traits@PAVIEventListener@Pegas@@U?$less@PAVIEventListener@Pegas@@@std@@V?$allocator@PAVIEventListener@Pegas@@@4@$0A@@std@@@std@@QAEXXZ 004094c0 f i pacman.obj
 0001:000084c0       ?_Inc@const_iterator@?$_Tree@V?$_Tset_traits@PAVIMouseController@Pegas@@U?$less@PAVIMouseController@Pegas@@@std@@V?$allocator@PAVIMouseController@Pegas@@@4@$0A@@std@@@std@@QAEXXZ 004094c0 f i game_app.obj
 0001:000084c0       ?_Inc@const_iterator@?$_Tree@V?$_Tset_traits@PAVIKeyboardController@Pegas@@U?$less@PAVIKeyboardController@Pegas@@@std@@V?$allocator@PAVIKeyboardController@Pegas@@@4@$0A@@std@@@std@@QAEXXZ 004094c0 f i game_app.obj
 0001:00008530       ??Econst_iterator@?$_Tree@V?$_Tset_traits@PAVIEventListener@Pegas@@U?$less@PAVIEventListener@Pegas@@@std@@V?$allocator@PAVIEventListener@Pegas@@@4@$0A@@std@@@std@@QAEAAV012@XZ 00409530 f i pacman.obj
 0001:00008540       ?erase@?$_Tree@V?$_Tset_traits@PAVIEventListener@Pegas@@U?$less@PAVIEventListener@Pegas@@@std@@V?$allocator@PAVIEventListener@Pegas@@@4@$0A@@std@@@std@@QAE?AViterator@12@Vconst_iterator@12@0@Z 00409540 f i pacman.obj
 0001:00008620       ?end@?$_Tree@V?$_Tmap_traits@V?$basic_string@DU?$char_traits@D@std@@V?$allocator@D@2@@std@@V?$ptr@V?$set@PAVIEventListener@Pegas@@U?$less@PAVIEventListener@Pegas@@@std@@V?$allocator@PAVIEventListener@Pegas@@@4@@std@@@Pegas@@U?$less@V?$basic_string@DU?$char_traits@D@std@@V?$allocator@D@2@@std@@@2@V?$allocator@U?$pair@$$CBV?$basic_string@DU?$char_traits@D@std@@V?$allocator@D@2@@std@@V?$ptr@V?$set@PAVIEventListener@Pegas@@U?$less@PAVIEventListener@Pegas@@@std@@V?$allocator@PAVIEventListener@Pegas@@@4@@std@@@Pegas@@@std@@@2@$0A@@std@@@std@@QAE?AViterator@12@XZ 00409620 f i pacman.obj
 0001:00008620       ?end@?$_Tree@V?$_Tmap_traits@HV?$ptr@VProcess@Pegas@@@Pegas@@U?$less@H@std@@V?$allocator@U?$pair@$$CBHV?$ptr@VProcess@Pegas@@@Pegas@@@std@@@4@$0A@@std@@@std@@QAE?AViterator@12@XZ 00409620 f i pacman.obj
 0001:00008620       ?end@?$_Tree@V?$_Tset_traits@PAVIEventListener@Pegas@@U?$less@PAVIEventListener@Pegas@@@std@@V?$allocator@PAVIEventListener@Pegas@@@4@$0A@@std@@@std@@QAE?AViterator@12@XZ 00409620 f i pacman.obj
 0001:00008630       ?_Tidy@?$_Tree@V?$_Tset_traits@PAVIEventListener@Pegas@@U?$less@PAVIEventListener@Pegas@@@std@@V?$allocator@PAVIEventListener@Pegas@@@4@$0A@@std@@@std@@IAEXXZ 00409630 f i pacman.obj
 0001:00008670       ??_G?$set@PAVIEventListener@Pegas@@U?$less@PAVIEventListener@Pegas@@@std@@V?$allocator@PAVIEventListener@Pegas@@@4@@std@@QAEPAXI@Z 00409670 f i pacman.obj
 0001:000086d0       ??1?$ptr@V?$set@PAVIEventListener@Pegas@@U?$less@PAVIEventListener@Pegas@@@std@@V?$allocator@PAVIEventListener@Pegas@@@4@@std@@@Pegas@@QAE@XZ 004096d0 f i pacman.obj
 0001:00008700       ??1?$pair@$$CBV?$basic_string@DU?$char_traits@D@std@@V?$allocator@D@2@@std@@V?$ptr@V?$set@PAVIEventListener@Pegas@@U?$less@PAVIEventListener@Pegas@@@std@@V?$allocator@PAVIEventListener@Pegas@@@4@@std@@@Pegas@@@std@@QAE@XZ 00409700 f i pacman.obj
 0001:00008790       ?erase@?$_Tree@V?$_Tmap_traits@V?$basic_string@DU?$char_traits@D@std@@V?$allocator@D@2@@std@@V?$ptr@V?$set@PAVIEventListener@Pegas@@U?$less@PAVIEventListener@Pegas@@@std@@V?$allocator@PAVIEventListener@Pegas@@@4@@std@@@Pegas@@U?$less@V?$basic_string@DU?$char_traits@D@std@@V?$allocator@D@2@@std@@@2@V?$allocator@U?$pair@$$CBV?$basic_string@DU?$char_traits@D@std@@V?$allocator@D@2@@std@@V?$ptr@V?$set@PAVIEventListener@Pegas@@U?$less@PAVIEventListener@Pegas@@@std@@V?$allocator@PAVIEventListener@Pegas@@@4@@std@@@Pegas@@@std@@@2@$0A@@std@@@std@@QAE?AViterator@12@Vconst_iterator@12@@Z 00409790 f i pacman.obj
 0001:00008a90       ?_Isnil@?$_Tree@V?$_Tmap_traits@V?$basic_string@DU?$char_traits@D@std@@V?$allocator@D@2@@std@@V?$ptr@V?$set@PAVIEventListener@Pegas@@U?$less@PAVIEventListener@Pegas@@@std@@V?$allocator@PAVIEventListener@Pegas@@@4@@std@@@Pegas@@U?$less@V?$basic_string@DU?$char_traits@D@std@@V?$allocator@D@2@@std@@@2@V?$allocator@U?$pair@$$CBV?$basic_string@DU?$char_traits@D@std@@V?$allocator@D@2@@std@@V?$ptr@V?$set@PAVIEventListener@Pegas@@U?$less@PAVIEventListener@Pegas@@@std@@V?$allocator@PAVIEventListener@Pegas@@@4@@std@@@Pegas@@@std@@@2@$0A@@std@@@std@@KAAADPAU_Node@?$_Tree_nod@V?$_Tmap_traits@V?$basic_string@DU?$char_traits@D@std@@V?$allocator@D@2@@std@@V?$ptr@V?$set@PAVIEventListener@Pegas@@U?$less@PAVIEventListener@Pegas@@@std@@V?$allocator@PAVIEventListener@Pegas@@@4@@std@@@Pegas@@U?$less@V?$basic_string@DU?$char_traits@D@std@@V?$allocator@D@2@@std@@@2@V?$allocator@U?$pair@$$CBV?$basic_string@DU?$char_traits@D@std@@V?$allocator@D@2@@std@@V?$ptr@V?$set@PAVIEventListener@Pegas@@U?$less@PAVIEventListener@Pegas@@@std@@V?$allocator@PAVIEventListener@Pegas@@@4@@std@@@Pegas@@@std@@@2@$0A@@std@@@2@@Z 00409a90 f i pacman.obj
 0001:00008aa0       ?_Inc@const_iterator@?$_Tree@V?$_Tmap_traits@V?$basic_string@DU?$char_traits@D@std@@V?$allocator@D@2@@std@@V?$ptr@V?$set@PAVIEventListener@Pegas@@U?$less@PAVIEventListener@Pegas@@@std@@V?$allocator@PAVIEventListener@Pegas@@@4@@std@@@Pegas@@U?$less@V?$basic_string@DU?$char_traits@D@std@@V?$allocator@D@2@@std@@@2@V?$allocator@U?$pair@$$CBV?$basic_string@DU?$char_traits@D@std@@V?$allocator@D@2@@std@@V?$ptr@V?$set@PAVIEventListener@Pegas@@U?$less@PAVIEventListener@Pegas@@@std@@V?$allocator@PAVIEventListener@Pegas@@@4@@std@@@Pegas@@@std@@@2@$0A@@std@@@std@@QAEXXZ 00409aa0 f i pacman.obj
 0001:00008b10       ??Econst_iterator@?$_Tree@V?$_Tmap_traits@V?$basic_string@DU?$char_traits@D@std@@V?$allocator@D@2@@std@@V?$ptr@V?$set@PAVIEventListener@Pegas@@U?$less@PAVIEventListener@Pegas@@@std@@V?$allocator@PAVIEventListener@Pegas@@@4@@std@@@Pegas@@U?$less@V?$basic_string@DU?$char_traits@D@std@@V?$allocator@D@2@@std@@@2@V?$allocator@U?$pair@$$CBV?$basic_string@DU?$char_traits@D@std@@V?$allocator@D@2@@std@@V?$ptr@V?$set@PAVIEventListener@Pegas@@U?$less@PAVIEventListener@Pegas@@@std@@V?$allocator@PAVIEventListener@Pegas@@@4@@std@@@Pegas@@@std@@@2@$0A@@std@@@std@@QAEAAV012@XZ 00409b10 f i pacman.obj
 0001:00008b20       ?erase@?$_Tree@V?$_Tmap_traits@V?$basic_string@DU?$char_traits@D@std@@V?$allocator@D@2@@std@@V?$ptr@V?$set@PAVIEventListener@Pegas@@U?$less@PAVIEventListener@Pegas@@@std@@V?$allocator@PAVIEventListener@Pegas@@@4@@std@@@Pegas@@U?$less@V?$basic_string@DU?$char_traits@D@std@@V?$allocator@D@2@@std@@@2@V?$allocator@U?$pair@$$CBV?$basic_string@DU?$char_traits@D@std@@V?$allocator@D@2@@std@@V?$ptr@V?$set@PAVIEventListener@Pegas@@U?$less@PAVIEventListener@Pegas@@@std@@V?$allocator@PAVIEventListener@Pegas@@@4@@std@@@Pegas@@@std@@@2@$0A@@std@@@std@@QAE?AViterator@12@Vconst_iterator@12@0@Z 00409b20 f i pacman.obj
 0001:00008c00       ??0const_iterator@?$_Tree@V?$_Tset_traits@PAVIEventListener@Pegas@@U?$less@PAVIEventListener@Pegas@@@std@@V?$allocator@PAVIEventListener@Pegas@@@4@$0A@@std@@@std@@QAE@PAU_Node@?$_Tree_nod@V?$_Tset_traits@PAVIEventListener@Pegas@@U?$less@PAVIEventListener@Pegas@@@std@@V?$allocator@PAVIEventListener@Pegas@@@4@$0A@@std@@@2@PBV12@@Z 00409c00 f i pacman.obj
 0001:00008c00       ??0iterator@?$_Tree@V?$_Tmap_traits@HV?$ptr@VProcess@Pegas@@@Pegas@@U?$less@H@std@@V?$allocator@U?$pair@$$CBHV?$ptr@VProcess@Pegas@@@Pegas@@@std@@@4@$0A@@std@@@std@@QAE@PAU_Node@?$_Tree_nod@V?$_Tmap_traits@HV?$ptr@VProcess@Pegas@@@Pegas@@U?$less@H@std@@V?$allocator@U?$pair@$$CBHV?$ptr@VProcess@Pegas@@@Pegas@@@std@@@4@$0A@@std@@@2@PBV12@@Z 00409c00 f i pacman.obj
 0001:00008c00       ??0iterator@?$_Tree@V?$_Tset_traits@PAVIEventListener@Pegas@@U?$less@PAVIEventListener@Pegas@@@std@@V?$allocator@PAVIEventListener@Pegas@@@4@$0A@@std@@@std@@QAE@PAU_Node@?$_Tree_nod@V?$_Tset_traits@PAVIEventListener@Pegas@@U?$less@PAVIEventListener@Pegas@@@std@@V?$allocator@PAVIEventListener@Pegas@@@4@$0A@@std@@@2@PBV12@@Z 00409c00 f i pacman.obj
 0001:00008c00       ??0iterator@?$_Tree@V?$_Tmap_traits@V?$basic_string@DU?$char_traits@D@std@@V?$allocator@D@2@@std@@V?$ptr@V?$set@PAVIEventListener@Pegas@@U?$less@PAVIEventListener@Pegas@@@std@@V?$allocator@PAVIEventListener@Pegas@@@4@@std@@@Pegas@@U?$less@V?$basic_string@DU?$char_traits@D@std@@V?$allocator@D@2@@std@@@2@V?$allocator@U?$pair@$$CBV?$basic_string@DU?$char_traits@D@std@@V?$allocator@D@2@@std@@V?$ptr@V?$set@PAVIEventListener@Pegas@@U?$less@PAVIEventListener@Pegas@@@std@@V?$allocator@PAVIEventListener@Pegas@@@4@@std@@@Pegas@@@std@@@2@$0A@@std@@@std@@QAE@PAU_Node@?$_Tree_nod@V?$_Tmap_traits@V?$basic_string@DU?$char_traits@D@std@@V?$allocator@D@2@@std@@V?$ptr@V?$set@PAVIEventListener@Pegas@@U?$less@PAVIEventListener@Pegas@@@std@@V?$allocator@PAVIEventListener@Pegas@@@4@@std@@@Pegas@@U?$less@V?$basic_string@DU?$char_traits@D@std@@V?$allocator@D@2@@std@@@2@V?$allocator@U?$pair@$$CBV?$basic_string@DU?$char_traits@D@std@@V?$allocator@D@2@@std@@V?$ptr@V?$set@PAVIEventListener@Pegas@@U?$less@PAVIEventListener@Pegas@@@std@@V?$allocator@PAVIEventListener@Pegas@@@4@@std@@@Pegas@@@std@@@2@$0A@@std@@@2@PBV12@@Z 00409c00 f i pacman.obj
 0001:00008c20       ?begin@?$_Tree@V?$_Tset_traits@PAVIEventListener@Pegas@@U?$less@PAVIEventListener@Pegas@@@std@@V?$allocator@PAVIEventListener@Pegas@@@4@$0A@@std@@@std@@QAE?AViterator@12@XZ 00409c20 f i pacman.obj
 0001:00008c20       ?begin@?$_Tree@V?$_Tmap_traits@HV?$ptr@VProcess@Pegas@@@Pegas@@U?$less@H@std@@V?$allocator@U?$pair@$$CBHV?$ptr@VProcess@Pegas@@@Pegas@@@std@@@4@$0A@@std@@@std@@QAE?AViterator@12@XZ 00409c20 f i pacman.obj
 0001:00008c20       ?begin@?$_Tree@V?$_Tmap_traits@V?$basic_string@DU?$char_traits@D@std@@V?$allocator@D@2@@std@@V?$ptr@V?$set@PAVIEventListener@Pegas@@U?$less@PAVIEventListener@Pegas@@@std@@V?$allocator@PAVIEventListener@Pegas@@@4@@std@@@Pegas@@U?$less@V?$basic_string@DU?$char_traits@D@std@@V?$allocator@D@2@@std@@@2@V?$allocator@U?$pair@$$CBV?$basic_string@DU?$char_traits@D@std@@V?$allocator@D@2@@std@@V?$ptr@V?$set@PAVIEventListener@Pegas@@U?$less@PAVIEventListener@Pegas@@@std@@V?$allocator@PAVIEventListener@Pegas@@@4@@std@@@Pegas@@@std@@@2@$0A@@std@@@std@@QAE?AViterator@12@XZ 00409c20 f i pacman.obj
 0001:00008c30       ?_Parent@?$_Tree@V?$_Tmap_traits@HV?$ptr@VProcess@Pegas@@@Pegas@@U?$less@H@std@@V?$allocator@U?$pair@$$CBHV?$ptr@VProcess@Pegas@@@Pegas@@@std@@@4@$0A@@std@@@std@@KAAAPAU_Node@?$_Tree_nod@V?$_Tmap_traits@HV?$ptr@VProcess@Pegas@@@Pegas@@U?$less@H@std@@V?$allocator@U?$pair@$$CBHV?$ptr@VProcess@Pegas@@@Pegas@@@std@@@4@$0A@@std@@@2@PAU342@@Z 00409c30 f i pacman.obj
 0001:00008c30       ?_Parent@?$_Tree@V?$_Tmap_traits@V?$basic_string@DU?$char_traits@D@std@@V?$allocator@D@2@@std@@V?$ptr@V?$set@PAVIEventListener@Pegas@@U?$less@PAVIEventListener@Pegas@@@std@@V?$allocator@PAVIEventListener@Pegas@@@4@@std@@@Pegas@@U?$less@V?$basic_string@DU?$char_traits@D@std@@V?$allocator@D@2@@std@@@2@V?$allocator@U?$pair@$$CBV?$basic_string@DU?$char_traits@D@std@@V?$allocator@D@2@@std@@V?$ptr@V?$set@PAVIEventListener@Pegas@@U?$less@PAVIEventListener@Pegas@@@std@@V?$allocator@PAVIEventListener@Pegas@@@4@@std@@@Pegas@@@std@@@2@$0A@@std@@@std@@KAAAPAU_Node@?$_Tree_nod@V?$_Tmap_traits@V?$basic_string@DU?$char_traits@D@std@@V?$allocator@D@2@@std@@V?$ptr@V?$set@PAVIEventListener@Pegas@@U?$less@PAVIEventListener@Pegas@@@std@@V?$allocator@PAVIEventListener@Pegas@@@4@@std@@@Pegas@@U?$less@V?$basic_string@DU?$char_traits@D@std@@V?$allocator@D@2@@std@@@2@V?$allocator@U?$pair@$$CBV?$basic_string@DU?$char_traits@D@std@@V?$allocator@D@2@@std@@V?$ptr@V?$set@PAVIEventListener@Pegas@@U?$less@PAVIEventListener@Pegas@@@std@@V?$allocator@PAVIEventListener@Pegas@@@4@@std@@@Pegas@@@std@@@2@$0A@@std@@@2@PAU342@@Z 00409c30 f i pacman.obj
 0001:00008c30       ?_Prevnode@?$list@V?$ptr@VBaseScreenLayer@Pegas@@@Pegas@@V?$allocator@V?$ptr@VBaseScreenLayer@Pegas@@@Pegas@@@std@@@std@@KAAAPAU_Node@?$_List_nod@V?$ptr@VBaseScreenLayer@Pegas@@@Pegas@@V?$allocator@V?$ptr@VBaseScreenLayer@Pegas@@@Pegas@@@std@@@2@PAU342@@Z 00409c30 f i editor.obj
 0001:00008c30       ?_Parent@?$_Tree@V?$_Tset_traits@PAVIEventListener@Pegas@@U?$less@PAVIEventListener@Pegas@@@std@@V?$allocator@PAVIEventListener@Pegas@@@4@$0A@@std@@@std@@KAAAPAU_Node@?$_Tree_nod@V?$_Tset_traits@PAVIEventListener@Pegas@@U?$less@PAVIEventListener@Pegas@@@std@@V?$allocator@PAVIEventListener@Pegas@@@4@$0A@@std@@@2@PAU342@@Z 00409c30 f i pacman.obj
 0001:00008c40       ?_Right@?$_Tree@V?$_Tmap_traits@HV?$ptr@VProcess@Pegas@@@Pegas@@U?$less@H@std@@V?$allocator@U?$pair@$$CBHV?$ptr@VProcess@Pegas@@@Pegas@@@std@@@4@$0A@@std@@@std@@KAAAPAU_Node@?$_Tree_nod@V?$_Tmap_traits@HV?$ptr@VProcess@Pegas@@@Pegas@@U?$less@H@std@@V?$allocator@U?$pair@$$CBHV?$ptr@VProcess@Pegas@@@Pegas@@@std@@@4@$0A@@std@@@2@PAU342@@Z 00409c40 f i pacman.obj
 0001:00008c40       ?_Right@?$_Tree@V?$_Tmap_traits@V?$basic_string@DU?$char_traits@D@std@@V?$allocator@D@2@@std@@V?$ptr@V?$set@PAVIEventListener@Pegas@@U?$less@PAVIEventListener@Pegas@@@std@@V?$allocator@PAVIEventListener@Pegas@@@4@@std@@@Pegas@@U?$less@V?$basic_string@DU?$char_traits@D@std@@V?$allocator@D@2@@std@@@2@V?$allocator@U?$pair@$$CBV?$basic_string@DU?$char_traits@D@std@@V?$allocator@D@2@@std@@V?$ptr@V?$set@PAVIEventListener@Pegas@@U?$less@PAVIEventListener@Pegas@@@std@@V?$allocator@PAVIEventListener@Pegas@@@4@@std@@@Pegas@@@std@@@2@$0A@@std@@@std@@KAAAPAU_Node@?$_Tree_nod@V?$_Tmap_traits@V?$basic_string@DU?$char_traits@D@std@@V?$allocator@D@2@@std@@V?$ptr@V?$set@PAVIEventListener@Pegas@@U?$less@PAVIEventListener@Pegas@@@std@@V?$allocator@PAVIEventListener@Pegas@@@4@@std@@@Pegas@@U?$less@V?$basic_string@DU?$char_traits@D@std@@V?$allocator@D@2@@std@@@2@V?$allocator@U?$pair@$$CBV?$basic_string@DU?$char_traits@D@std@@V?$allocator@D@2@@std@@V?$ptr@V?$set@PAVIEventListener@Pegas@@U?$less@PAVIEventListener@Pegas@@@std@@V?$allocator@PAVIEventListener@Pegas@@@4@@std@@@Pegas@@@std@@@2@$0A@@std@@@2@PAU342@@Z 00409c40 f i pacman.obj
 0001:00008c40       ?_Right@?$_Tree@V?$_Tset_traits@PAVIEventListener@Pegas@@U?$less@PAVIEventListener@Pegas@@@std@@V?$allocator@PAVIEventListener@Pegas@@@4@$0A@@std@@@std@@KAAAPAU_Node@?$_Tree_nod@V?$_Tset_traits@PAVIEventListener@Pegas@@U?$less@PAVIEventListener@Pegas@@@std@@V?$allocator@PAVIEventListener@Pegas@@@4@$0A@@std@@@2@PAU342@@Z 00409c40 f i pacman.obj
 0001:00008c50       ?_Tidy@?$_Tree@V?$_Tmap_traits@V?$basic_string@DU?$char_traits@D@std@@V?$allocator@D@2@@std@@V?$ptr@V?$set@PAVIEventListener@Pegas@@U?$less@PAVIEventListener@Pegas@@@std@@V?$allocator@PAVIEventListener@Pegas@@@4@@std@@@Pegas@@U?$less@V?$basic_string@DU?$char_traits@D@std@@V?$allocator@D@2@@std@@@2@V?$allocator@U?$pair@$$CBV?$basic_string@DU?$char_traits@D@std@@V?$allocator@D@2@@std@@V?$ptr@V?$set@PAVIEventListener@Pegas@@U?$less@PAVIEventListener@Pegas@@@std@@V?$allocator@PAVIEventListener@Pegas@@@4@@std@@@Pegas@@@std@@@2@$0A@@std@@@std@@IAEXXZ 00409c50 f i pacman.obj
 0001:00008c90       ??0EventManager@Pegas@@QAE@XZ 00409c90 f i pacman.obj
 0001:00008d30       ??1?$ResourceManager@VSoundResource@Pegas@@UIntResourceCode@2@@Pegas@@UAE@XZ 00409d30 f i pacman.obj
 0001:00008dc0       ??1?$Singleton@V?$ResourceManager@VSoundResource@Pegas@@UIntResourceCode@2@@Pegas@@@Pegas@@QAE@XZ 00409dc0 f i pacman.obj
 0001:00008de0       ??_E?$ResourceManager@VSoundResource@Pegas@@UIntResourceCode@2@@Pegas@@UAEPAXI@Z 00409de0 f i  CIL library: CIL module
 0001:00008de0       ??_G?$ResourceManager@VSoundResource@Pegas@@UIntResourceCode@2@@Pegas@@UAEPAXI@Z 00409de0 f i pacman.obj
 0001:00008e00       ??0?$ResourceManager@VSoundResource@Pegas@@UIntResourceCode@2@@Pegas@@QAE@XZ 00409e00 f i pacman.obj
 0001:00008e70       ??1?$ResourceManager@VFontResource@Pegas@@UFontResourceCode@2@@Pegas@@UAE@XZ 00409e70 f i pacman.obj
 0001:00008f00       ??1?$Singleton@V?$ResourceManager@VFontResource@Pegas@@UFontResourceCode@2@@Pegas@@@Pegas@@QAE@XZ 00409f00 f i pacman.obj
 0001:00008f20       ??_G?$ResourceManager@VFontResource@Pegas@@UFontResourceCode@2@@Pegas@@UAEPAXI@Z 00409f20 f i pacman.obj
 0001:00008f20       ??_E?$ResourceManager@VFontResource@Pegas@@UFontResourceCode@2@@Pegas@@UAEPAXI@Z 00409f20 f i  CIL library: CIL module
 0001:00008f40       ?_Buynode@?$_Tree@V?$_Tmap_traits@HPAVSoundResource@Pegas@@U?$less@H@std@@V?$allocator@U?$pair@$$CBHPAVSoundResource@Pegas@@@std@@@4@$0A@@std@@@std@@IAEPAU_Node@?$_Tree_nod@V?$_Tmap_traits@HPAVSoundResource@Pegas@@U?$less@H@std@@V?$allocator@U?$pair@$$CBHPAVSoundResource@Pegas@@@std@@@4@$0A@@std@@@2@XZ 00409f40 f i pacman.obj
 0001:00008f40       ?_Buynode@?$_Tree@V?$_Tmap_traits@HPAVTextureResource@Pegas@@U?$less@H@std@@V?$allocator@U?$pair@$$CBHPAVTextureResource@Pegas@@@std@@@4@$0A@@std@@@std@@IAEPAU_Node@?$_Tree_nod@V?$_Tmap_traits@HPAVTextureResource@Pegas@@U?$less@H@std@@V?$allocator@U?$pair@$$CBHPAVTextureResource@Pegas@@@std@@@4@$0A@@std@@@2@XZ 00409f40 f i pacman.obj
 0001:00008f40       ?_Buynode@?$_Tree@V?$_Tmap_traits@HPAVStringResource@Pegas@@U?$less@H@std@@V?$allocator@U?$pair@$$CBHPAVStringResource@Pegas@@@std@@@4@$0A@@std@@@std@@IAEPAU_Node@?$_Tree_nod@V?$_Tmap_traits@HPAVStringResource@Pegas@@U?$less@H@std@@V?$allocator@U?$pair@$$CBHPAVStringResource@Pegas@@@std@@@4@$0A@@std@@@2@XZ 00409f40 f i pacman.obj
 0001:00008f40       ?_Buynode@?$_Tree@V?$_Tmap_traits@HPAVFontResource@Pegas@@U?$less@H@std@@V?$allocator@U?$pair@$$CBHPAVFontResource@Pegas@@@std@@@4@$0A@@std@@@std@@IAEPAU_Node@?$_Tree_nod@V?$_Tmap_traits@HPAVFontResource@Pegas@@U?$less@H@std@@V?$allocator@U?$pair@$$CBHPAVFontResource@Pegas@@@std@@@4@$0A@@std@@@2@XZ 00409f40 f i pacman.obj
 0001:00008f80       ?erase@?$_Tree@V?$_Tmap_traits@HPAVSoundResource@Pegas@@U?$less@H@std@@V?$allocator@U?$pair@$$CBHPAVSoundResource@Pegas@@@std@@@4@$0A@@std@@@std@@QAE?AViterator@12@Vconst_iterator@12@@Z 00409f80 f i pacman.obj
 0001:00008f80       ?erase@?$_Tree@V?$_Tmap_traits@HPAVFontResource@Pegas@@U?$less@H@std@@V?$allocator@U?$pair@$$CBHPAVFontResource@Pegas@@@std@@@4@$0A@@std@@@std@@QAE?AViterator@12@Vconst_iterator@12@@Z 00409f80 f i pacman.obj
 0001:00008f80       ?erase@?$_Tree@V?$_Tmap_traits@HPAVStringResource@Pegas@@U?$less@H@std@@V?$allocator@U?$pair@$$CBHPAVStringResource@Pegas@@@std@@@4@$0A@@std@@@std@@QAE?AViterator@12@Vconst_iterator@12@@Z 00409f80 f i pacman.obj
 0001:00008f80       ?erase@?$_Tree@V?$_Tmap_traits@HPAVTextureResource@Pegas@@U?$less@H@std@@V?$allocator@U?$pair@$$CBHPAVTextureResource@Pegas@@@std@@@4@$0A@@std@@@std@@QAE?AViterator@12@Vconst_iterator@12@@Z 00409f80 f i pacman.obj
 0001:00009250       ?erase@?$_Tree@V?$_Tmap_traits@HPAVTextureResource@Pegas@@U?$less@H@std@@V?$allocator@U?$pair@$$CBHPAVTextureResource@Pegas@@@std@@@4@$0A@@std@@@std@@QAE?AViterator@12@Vconst_iterator@12@0@Z 0040a250 f i pacman.obj
 0001:00009250       ?erase@?$_Tree@V?$_Tmap_traits@HPAVSoundResource@Pegas@@U?$less@H@std@@V?$allocator@U?$pair@$$CBHPAVSoundResource@Pegas@@@std@@@4@$0A@@std@@@std@@QAE?AViterator@12@Vconst_iterator@12@0@Z 0040a250 f i pacman.obj
 0001:00009250       ?erase@?$_Tree@V?$_Tmap_traits@HPAVStringResource@Pegas@@U?$less@H@std@@V?$allocator@U?$pair@$$CBHPAVStringResource@Pegas@@@std@@@4@$0A@@std@@@std@@QAE?AViterator@12@Vconst_iterator@12@0@Z 0040a250 f i pacman.obj
 0001:00009250       ?erase@?$_Tree@V?$_Tmap_traits@HPAVFontResource@Pegas@@U?$less@H@std@@V?$allocator@U?$pair@$$CBHPAVFontResource@Pegas@@@std@@@4@$0A@@std@@@std@@QAE?AViterator@12@Vconst_iterator@12@0@Z 0040a250 f i pacman.obj
 0001:00009330       ?_Tidy@?$_Tree@V?$_Tmap_traits@HPAVStringResource@Pegas@@U?$less@H@std@@V?$allocator@U?$pair@$$CBHPAVStringResource@Pegas@@@std@@@4@$0A@@std@@@std@@IAEXXZ 0040a330 f i pacman.obj
 0001:00009330       ?_Tidy@?$_Tree@V?$_Tmap_traits@HPAVFontResource@Pegas@@U?$less@H@std@@V?$allocator@U?$pair@$$CBHPAVFontResource@Pegas@@@std@@@4@$0A@@std@@@std@@IAEXXZ 0040a330 f i pacman.obj
 0001:00009330       ?_Tidy@?$_Tree@V?$_Tmap_traits@HPAVSoundResource@Pegas@@U?$less@H@std@@V?$allocator@U?$pair@$$CBHPAVSoundResource@Pegas@@@std@@@4@$0A@@std@@@std@@IAEXXZ 0040a330 f i pacman.obj
 0001:00009330       ?_Tidy@?$_Tree@V?$_Tmap_traits@HPAVTextureResource@Pegas@@U?$less@H@std@@V?$allocator@U?$pair@$$CBHPAVTextureResource@Pegas@@@std@@@4@$0A@@std@@@std@@IAEXXZ 0040a330 f i pacman.obj
 0001:00009370       ??0?$ResourceManager@VFontResource@Pegas@@UFontResourceCode@2@@Pegas@@QAE@XZ 0040a370 f i pacman.obj
 0001:000093e0       ??1?$ResourceManager@VTextureResource@Pegas@@UIntResourceCode@2@@Pegas@@UAE@XZ 0040a3e0 f i pacman.obj
 0001:00009470       ??1?$Singleton@V?$ResourceManager@VTextureResource@Pegas@@UIntResourceCode@2@@Pegas@@@Pegas@@QAE@XZ 0040a470 f i pacman.obj
 0001:00009490       ??_G?$ResourceManager@VTextureResource@Pegas@@UIntResourceCode@2@@Pegas@@UAEPAXI@Z 0040a490 f i pacman.obj
 0001:00009490       ??_E?$ResourceManager@VTextureResource@Pegas@@UIntResourceCode@2@@Pegas@@UAEPAXI@Z 0040a490 f i  CIL library: CIL module
 0001:000094b0       ??1?$map@HPAVFontResource@Pegas@@U?$less@H@std@@V?$allocator@U?$pair@$$CBHPAVFontResource@Pegas@@@std@@@4@@std@@QAE@XZ 0040a4b0 f i pacman.obj
 0001:000094b0       ??1?$map@HPAVSoundResource@Pegas@@U?$less@H@std@@V?$allocator@U?$pair@$$CBHPAVSoundResource@Pegas@@@std@@@4@@std@@QAE@XZ 0040a4b0 f i pacman.obj
 0001:000094b0       ??1?$map@HPAVStringResource@Pegas@@U?$less@H@std@@V?$allocator@U?$pair@$$CBHPAVStringResource@Pegas@@@std@@@4@@std@@QAE@XZ 0040a4b0 f i pacman.obj
 0001:000094b0       ??1?$map@HPAVTextureResource@Pegas@@U?$less@H@std@@V?$allocator@U?$pair@$$CBHPAVTextureResource@Pegas@@@std@@@4@@std@@QAE@XZ 0040a4b0 f i pacman.obj
 0001:00009510       ??0?$ResourceManager@VTextureResource@Pegas@@UIntResourceCode@2@@Pegas@@QAE@XZ 0040a510 f i pacman.obj
 0001:00009580       ??1?$ResourceManager@VStringResource@Pegas@@UIntResourceCode@2@@Pegas@@UAE@XZ 0040a580 f i pacman.obj
 0001:00009610       ??1?$Singleton@V?$ResourceManager@VStringResource@Pegas@@UIntResourceCode@2@@Pegas@@@Pegas@@QAE@XZ 0040a610 f i pacman.obj
 0001:00009630       ??_G?$ResourceManager@VStringResource@Pegas@@UIntResourceCode@2@@Pegas@@UAEPAXI@Z 0040a630 f i pacman.obj
 0001:00009630       ??_E?$ResourceManager@VStringResource@Pegas@@UIntResourceCode@2@@Pegas@@UAEPAXI@Z 0040a630 f i  CIL library: CIL module
 0001:00009650       ??$_Allocate@U_Node@?$_Tree_nod@V?$_Tmap_traits@HPAVSoundResource@Pegas@@U?$less@H@std@@V?$allocator@U?$pair@$$CBHPAVSoundResource@Pegas@@@std@@@4@$0A@@std@@@std@@@std@@YAPAU_Node@?$_Tree_nod@V?$_Tmap_traits@HPAVSoundResource@Pegas@@U?$less@H@std@@V?$allocator@U?$pair@$$CBHPAVSoundResource@Pegas@@@std@@@4@$0A@@std@@@0@IPAU120@@Z 0040a650 f i pacman.obj
 0001:00009650       ??$_Allocate@U_Node@?$_Tree_nod@V?$_Tmap_traits@HPAVStringResource@Pegas@@U?$less@H@std@@V?$allocator@U?$pair@$$CBHPAVStringResource@Pegas@@@std@@@4@$0A@@std@@@std@@@std@@YAPAU_Node@?$_Tree_nod@V?$_Tmap_traits@HPAVStringResource@Pegas@@U?$less@H@std@@V?$allocator@U?$pair@$$CBHPAVStringResource@Pegas@@@std@@@4@$0A@@std@@@0@IPAU120@@Z 0040a650 f i pacman.obj
 0001:000096b0       ?allocate@?$allocator@U_Node@?$_Tree_nod@V?$_Tmap_traits@HPAVStringResource@Pegas@@U?$less@H@std@@V?$allocator@U?$pair@$$CBHPAVStringResource@Pegas@@@std@@@4@$0A@@std@@@std@@@std@@QAEPAU_Node@?$_Tree_nod@V?$_Tmap_traits@HPAVStringResource@Pegas@@U?$less@H@std@@V?$allocator@U?$pair@$$CBHPAVStringResource@Pegas@@@std@@@4@$0A@@std@@@2@I@Z 0040a6b0 f i pacman.obj
 0001:000096b0       ?allocate@?$allocator@U_Node@?$_Tree_nod@V?$_Tmap_traits@HPAVSoundResource@Pegas@@U?$less@H@std@@V?$allocator@U?$pair@$$CBHPAVSoundResource@Pegas@@@std@@@4@$0A@@std@@@std@@@std@@QAEPAU_Node@?$_Tree_nod@V?$_Tmap_traits@HPAVSoundResource@Pegas@@U?$less@H@std@@V?$allocator@U?$pair@$$CBHPAVSoundResource@Pegas@@@std@@@4@$0A@@std@@@2@I@Z 0040a6b0 f i pacman.obj
 0001:000096d0       ??0?$_Tree@V?$_Tmap_traits@HPAVFontResource@Pegas@@U?$less@H@std@@V?$allocator@U?$pair@$$CBHPAVFontResource@Pegas@@@std@@@4@$0A@@std@@@std@@QAE@ABU?$less@H@1@ABV?$allocator@U?$pair@$$CBHPAVFontResource@Pegas@@@std@@@1@@Z 0040a6d0 f i pacman.obj
 0001:000096d0       ??0?$_Tree@V?$_Tmap_traits@HPAVSoundResource@Pegas@@U?$less@H@std@@V?$allocator@U?$pair@$$CBHPAVSoundResource@Pegas@@@std@@@4@$0A@@std@@@std@@QAE@ABU?$less@H@1@ABV?$allocator@U?$pair@$$CBHPAVSoundResource@Pegas@@@std@@@1@@Z 0040a6d0 f i pacman.obj
 0001:000096d0       ??0?$_Tree@V?$_Tmap_traits@HPAVStringResource@Pegas@@U?$less@H@std@@V?$allocator@U?$pair@$$CBHPAVStringResource@Pegas@@@std@@@4@$0A@@std@@@std@@QAE@ABU?$less@H@1@ABV?$allocator@U?$pair@$$CBHPAVStringResource@Pegas@@@std@@@1@@Z 0040a6d0 f i pacman.obj
 0001:000096d0       ??0?$_Tree@V?$_Tmap_traits@HPAVTextureResource@Pegas@@U?$less@H@std@@V?$allocator@U?$pair@$$CBHPAVTextureResource@Pegas@@@std@@@4@$0A@@std@@@std@@QAE@ABU?$less@H@1@ABV?$allocator@U?$pair@$$CBHPAVTextureResource@Pegas@@@std@@@1@@Z 0040a6d0 f i pacman.obj
 0001:00009750       ?_Color@?$_Tree@V?$_Tmap_traits@HPAVSoundResource@Pegas@@U?$less@H@std@@V?$allocator@U?$pair@$$CBHPAVSoundResource@Pegas@@@std@@@4@$0A@@std@@@std@@KAAADPAU_Node@?$_Tree_nod@V?$_Tmap_traits@HPAVSoundResource@Pegas@@U?$less@H@std@@V?$allocator@U?$pair@$$CBHPAVSoundResource@Pegas@@@std@@@4@$0A@@std@@@2@@Z 0040a750 f i pacman.obj
 0001:00009750       ?_Color@?$_Tree@V?$_Tmap_traits@HPAVStringResource@Pegas@@U?$less@H@std@@V?$allocator@U?$pair@$$CBHPAVStringResource@Pegas@@@std@@@4@$0A@@std@@@std@@KAAADPAU_Node@?$_Tree_nod@V?$_Tmap_traits@HPAVStringResource@Pegas@@U?$less@H@std@@V?$allocator@U?$pair@$$CBHPAVStringResource@Pegas@@@std@@@4@$0A@@std@@@2@@Z 0040a750 f i pacman.obj
 0001:00009760       ??0?$ResourceManager@VStringResource@Pegas@@UIntResourceCode@2@@Pegas@@QAE@XZ 0040a760 f i pacman.obj
 0001:000097d0       ??1WindowsOSUtils@Pegas@@UAE@XZ 0040a7d0 f i pacman.obj
 0001:00009800       ??_EOSUtils@Pegas@@UAEPAXI@Z 0040a800 f i  CIL library: CIL module
 0001:00009800       ??_GWindowsOSUtils@Pegas@@UAEPAXI@Z 0040a800 f i pacman.obj
 0001:00009800       ??_GOSUtils@Pegas@@UAEPAXI@Z 0040a800 f i pacman.obj
 0001:00009800       ??_EWindowsOSUtils@Pegas@@UAEPAXI@Z 0040a800 f i  CIL library: CIL module
 0001:00009840       ??1WinMMSoundManager@Pegas@@UAE@XZ 0040a840 f i pacman.obj
 0001:00009870       ??_GWinMMSoundManager@Pegas@@UAEPAXI@Z 0040a870 f i pacman.obj
 0001:00009870       ??_ESoundManager@Pegas@@UAEPAXI@Z 0040a870 f i  CIL library: CIL module
 0001:00009870       ??_GSoundManager@Pegas@@UAEPAXI@Z 0040a870 f i pacman.obj
 0001:00009870       ??_EWinMMSoundManager@Pegas@@UAEPAXI@Z 0040a870 f i  CIL library: CIL module
 0001:000098b0       ??1OGLGrafManager@Pegas@@UAE@XZ 0040a8b0 f i pacman.obj
 0001:00009940       ?_Buynode@?$list@PAVIDrawable@Pegas@@V?$allocator@PAVIDrawable@Pegas@@@std@@@std@@IAEPAU_Node@?$_List_nod@PAVIDrawable@Pegas@@V?$allocator@PAVIDrawable@Pegas@@@std@@@2@XZ 0040a940 f i pacman.obj
 0001:00009960       ??0?$list@PAVIDrawable@Pegas@@V?$allocator@PAVIDrawable@Pegas@@@std@@@std@@QAE@XZ 0040a960 f i pacman.obj
 0001:000099d0       ??0GrafManager@Pegas@@QAE@XZ 0040a9d0 f i pacman.obj
 0001:00009a40       ??_GGrafManager@Pegas@@UAEPAXI@Z 0040aa40 f i pacman.obj
 0001:00009a40       ??_EGrafManager@Pegas@@UAEPAXI@Z 0040aa40 f i  CIL library: CIL module
 0001:00009a90       ??1?$Singleton@VGrafManager@Pegas@@@Pegas@@QAE@XZ 0040aa90 f i pacman.obj
 0001:00009ab0       ??1GrafManager@Pegas@@UAE@XZ 0040aab0 f i pacman.obj
 0001:00009af0       ??_EOGLGrafManager@Pegas@@UAEPAXI@Z 0040aaf0 f i  CIL library: CIL module
 0001:00009af0       ??_GOGLGrafManager@Pegas@@UAEPAXI@Z 0040aaf0 f i pacman.obj
 0001:00009b10       ??_EEllipseTexture@Pegas@@UAEPAXI@Z 0040ab10 f i  CIL library: CIL module
 0001:00009b10       ??_GEllipseTexture@Pegas@@UAEPAXI@Z 0040ab10 f i pacman.obj
 0001:00009b40       ??0OGLGrafManager@Pegas@@QAE@XZ 0040ab40 f i pacman.obj
 0001:00009bb0       ??1?$list@V?$ptr@VProcess@Pegas@@@Pegas@@V?$allocator@V?$ptr@VProcess@Pegas@@@Pegas@@@std@@@std@@QAE@XZ 0040abb0 f i game_screen.obj
 0001:00009bb0       ??1?$list@V?$ptr@VBaseScreenLayer@Pegas@@@Pegas@@V?$allocator@V?$ptr@VBaseScreenLayer@Pegas@@@Pegas@@@std@@@std@@QAE@XZ 0040abb0 f i editor.obj
 0001:00009bb0       ??1?$list@V?$ptr@VFile@Pegas@@@Pegas@@V?$allocator@V?$ptr@VFile@Pegas@@@Pegas@@@std@@@std@@QAE@XZ 0040abb0 f i pacman.obj
 0001:00009c10       ??1?$map@HV?$ptr@VIGameState@Pegas@@@Pegas@@U?$less@H@std@@V?$allocator@U?$pair@$$CBHV?$ptr@VIGameState@Pegas@@@Pegas@@@std@@@4@@std@@QAE@XZ 0040ac10 f i pacman.obj
 0001:00009c70       ?_Buynode@?$_Tree@V?$_Tmap_traits@HV?$ptr@VIGameState@Pegas@@@Pegas@@U?$less@H@std@@V?$allocator@U?$pair@$$CBHV?$ptr@VIGameState@Pegas@@@Pegas@@@std@@@4@$0A@@std@@@std@@IAEPAU_Node@?$_Tree_nod@V?$_Tmap_traits@HV?$ptr@VIGameState@Pegas@@@Pegas@@U?$less@H@std@@V?$allocator@U?$pair@$$CBHV?$ptr@VIGameState@Pegas@@@Pegas@@@std@@@4@$0A@@std@@@2@XZ 0040ac70 f i pacman.obj
 0001:00009cb0       ??0?$_Tree@V?$_Tmap_traits@HV?$ptr@VIGameState@Pegas@@@Pegas@@U?$less@H@std@@V?$allocator@U?$pair@$$CBHV?$ptr@VIGameState@Pegas@@@Pegas@@@std@@@4@$0A@@std@@@std@@QAE@ABU?$less@H@1@ABV?$allocator@U?$pair@$$CBHV?$ptr@VIGameState@Pegas@@@Pegas@@@std@@@1@@Z 0040acb0 f i pacman.obj
 0001:00009d30       ?_Tidy@?$_Tree@V?$_Tmap_traits@HV?$ptr@VIGameState@Pegas@@@Pegas@@U?$less@H@std@@V?$allocator@U?$pair@$$CBHV?$ptr@VIGameState@Pegas@@@Pegas@@@std@@@4@$0A@@std@@@std@@IAEXXZ 0040ad30 f i pacman.obj
 0001:00009d70       ??0?$_Tree@V?$_Tset_traits@PAVIKeyboardController@Pegas@@U?$less@PAVIKeyboardController@Pegas@@@std@@V?$allocator@PAVIKeyboardController@Pegas@@@4@$0A@@std@@@std@@QAE@ABU?$less@PAVIKeyboardController@Pegas@@@1@ABV?$allocator@PAVIKeyboardController@Pegas@@@1@@Z 0040ad70 f i pacman.obj
 0001:00009d70       ??0?$_Tree@V?$_Tset_traits@PAVIMouseController@Pegas@@U?$less@PAVIMouseController@Pegas@@@std@@V?$allocator@PAVIMouseController@Pegas@@@4@$0A@@std@@@std@@QAE@ABU?$less@PAVIMouseController@Pegas@@@1@ABV?$allocator@PAVIMouseController@Pegas@@@1@@Z 0040ad70 f i pacman.obj
 0001:00009df0       ??1?$set@PAVIMouseController@Pegas@@U?$less@PAVIMouseController@Pegas@@@std@@V?$allocator@PAVIMouseController@Pegas@@@4@@std@@QAE@XZ 0040adf0 f i pacman.obj
 0001:00009df0       ??1?$set@PAVIKeyboardController@Pegas@@U?$less@PAVIKeyboardController@Pegas@@@std@@V?$allocator@PAVIKeyboardController@Pegas@@@4@@std@@QAE@XZ 0040adf0 f i pacman.obj
 0001:00009e50       ?_Buynode@?$_Tree@V?$_Tset_traits@HU?$less@H@std@@V?$allocator@H@2@$0A@@std@@@std@@IAEPAU_Node@?$_Tree_nod@V?$_Tset_traits@HU?$less@H@std@@V?$allocator@H@2@$0A@@std@@@2@XZ 0040ae50 f i tile_grid.obj
 0001:00009e50       ?_Buynode@?$_Tree@V?$_Tset_traits@PAVIKeyboardController@Pegas@@U?$less@PAVIKeyboardController@Pegas@@@std@@V?$allocator@PAVIKeyboardController@Pegas@@@4@$0A@@std@@@std@@IAEPAU_Node@?$_Tree_nod@V?$_Tset_traits@PAVIKeyboardController@Pegas@@U?$less@PAVIKeyboardController@Pegas@@@std@@V?$allocator@PAVIKeyboardController@Pegas@@@4@$0A@@std@@@2@XZ 0040ae50 f i pacman.obj
 0001:00009e50       ?_Buynode@?$_Tree@V?$_Tset_traits@PAVIMouseController@Pegas@@U?$less@PAVIMouseController@Pegas@@@std@@V?$allocator@PAVIMouseController@Pegas@@@4@$0A@@std@@@std@@IAEPAU_Node@?$_Tree_nod@V?$_Tset_traits@PAVIMouseController@Pegas@@U?$less@PAVIMouseController@Pegas@@@std@@V?$allocator@PAVIMouseController@Pegas@@@4@$0A@@std@@@2@XZ 0040ae50 f i pacman.obj
 0001:00009e90       ?_Tidy@?$_Tree@V?$_Tset_traits@PAVIMouseController@Pegas@@U?$less@PAVIMouseController@Pegas@@@std@@V?$allocator@PAVIMouseController@Pegas@@@4@$0A@@std@@@std@@IAEXXZ 0040ae90 f i pacman.obj
 0001:00009e90       ?_Tidy@?$_Tree@V?$_Tset_traits@PAVIKeyboardController@Pegas@@U?$less@PAVIKeyboardController@Pegas@@@std@@V?$allocator@PAVIKeyboardController@Pegas@@@4@$0A@@std@@@std@@IAEXXZ 0040ae90 f i pacman.obj
 0001:00009ed0       ??1IEventListener@Pegas@@UAE@XZ 0040aed0 f i pacman.obj
 0001:00009ee0       ??1Character@Pegas@@UAE@XZ 0040aee0 f i game_objects.obj
 0001:00009ee0       ??0IEventListener@Pegas@@QAE@XZ 0040aee0 f i pacman.obj
 0001:00009ef0       ?getListenerName@BaseAIState@Pegas@@UAE?AV?$basic_string@DU?$char_traits@D@std@@V?$allocator@D@2@@std@@XZ 0040aef0 f i game_ai.obj
 0001:00009f20       ?getType@Event_ChangeDirection@Pegas@@UBE?AV?$basic_string@DU?$char_traits@D@std@@V?$allocator@D@2@@std@@XZ 0040af20 f i game_ai.obj
 0001:00009f50       ?getType@Event_CharacterChangeState@Pegas@@UBE?AV?$basic_string@DU?$char_traits@D@std@@V?$allocator@D@2@@std@@XZ 0040af50 f i game_ai.obj
 0001:00009f80       ??0BaseAIState@Pegas@@QAE@PAVTileGrid@1@HH@Z 0040af80 f   game_ai.obj
 0001:0000a0a0       ??_GRunawayState@Pegas@@UAEPAXI@Z 0040b0a0 f i game_ai.obj
 0001:0000a0a0       ??_GPrayState@Pegas@@UAEPAXI@Z 0040b0a0 f i game_ai.obj
 0001:0000a0a0       ??_EBaseAIState@Pegas@@UAEPAXI@Z 0040b0a0 f i  CIL library: CIL module
 0001:0000a0a0       ??_GClydeChaseState@Pegas@@UAEPAXI@Z 0040b0a0 f i game_ai.obj
 0001:0000a0a0       ??_ERunawayState@Pegas@@UAEPAXI@Z 0040b0a0 f i  CIL library: CIL module
 0001:0000a0a0       ??_GInkyChaseState@Pegas@@UAEPAXI@Z 0040b0a0 f i game_ai.obj
 0001:0000a0a0       ??_GPinkyChaseState@Pegas@@UAEPAXI@Z 0040b0a0 f i game_ai.obj
 0001:0000a0a0       ??_EClydeChaseState@Pegas@@UAEPAXI@Z 0040b0a0 f i  CIL library: CIL module
 0001:0000a0a0       ??_EBlinkyChaseState@Pegas@@UAEPAXI@Z 0040b0a0 f i  CIL library: CIL module
 0001:0000a0a0       ??_EInkyChaseState@Pegas@@UAEPAXI@Z 0040b0a0 f i  CIL library: CIL module
 0001:0000a0a0       ??_GBlinkyChaseState@Pegas@@UAEPAXI@Z 0040b0a0 f i game_ai.obj
 0001:0000a0a0       ??_GBaseAIState@Pegas@@UAEPAXI@Z 0040b0a0 f i game_ai.obj
 0001:0000a0a0       ??_EPrayState@Pegas@@UAEPAXI@Z 0040b0a0 f i  CIL library: CIL module
 0001:0000a0a0       ??_EPinkyChaseState@Pegas@@UAEPAXI@Z 0040b0a0 f i  CIL library: CIL module
 0001:0000a0c0       ??1BaseAIState@Pegas@@UAE@XZ 0040b0c0 f   game_ai.obj
 0001:0000a180       ?getGoalHeuristic@BaseAIState@Pegas@@MAEMHH@Z 0040b180 f   game_ai.obj
 0001:0000a250       ?start@BaseAIState@Pegas@@MAEXHPAVProcessManager@2@@Z 0040b250 f   game_ai.obj
 0001:0000a380       ?update@BaseAIState@Pegas@@UAEXH@Z 0040b380 f   game_ai.obj
 0001:0000a460       ?chooseDirection@BaseAIState@Pegas@@MAEHXZ 0040b460 f   game_ai.obj
 0001:0000a540       ?isObstacle@BaseAIState@Pegas@@MAE_NHH@Z 0040b540 f   game_ai.obj
 0001:0000a5e0       ?handleEvent@BaseAIState@Pegas@@UAEXV?$ptr@UEvent@Pegas@@@2@@Z 0040b5e0 f   game_ai.obj
 0001:0000aab0       ?suspend@BaseAIState@Pegas@@UAEXXZ 0040bab0 f   game_ai.obj
 0001:0000aac0       ?resume@BaseAIState@Pegas@@UAEXXZ 0040bac0 f   game_ai.obj
 0001:0000aae0       ?handleEvent@PinkyChaseState@Pegas@@UAEXV?$ptr@UEvent@Pegas@@@2@@Z 0040bae0 f   game_ai.obj
 0001:0000ad20       ?calculateGoalPosition@PinkyChaseState@Pegas@@AAEXXZ 0040bd20 f   game_ai.obj
 0001:0000adc0       ?handleEvent@InkyChaseState@Pegas@@UAEXV?$ptr@UEvent@Pegas@@@2@@Z 0040bdc0 f   game_ai.obj
 0001:0000b020       ?getGoalHeuristic@PinkyChaseState@Pegas@@MAEMHH@Z 0040c020 f   game_ai.obj
 0001:0000b020       ?getGoalHeuristic@BlinkyChaseState@Pegas@@MAEMHH@Z 0040c020 f   game_ai.obj
 0001:0000b020       ?getGoalHeuristic@InkyChaseState@Pegas@@MAEMHH@Z 0040c020 f   game_ai.obj
 0001:0000b0d0       ?calculateGoalPosition@InkyChaseState@Pegas@@AAEXXZ 0040c0d0 f   game_ai.obj
 0001:0000b1f0       ??0ClydeChaseState@Pegas@@QAE@PAVTileGrid@1@@Z 0040c1f0 f   game_ai.obj
 0001:0000b310       ?handleEvent@ClydeChaseState@Pegas@@UAEXV?$ptr@UEvent@Pegas@@@2@@Z 0040c310 f   game_ai.obj
 0001:0000b490       ?getGoalHeuristic@ClydeChaseState@Pegas@@MAEMHH@Z 0040c490 f   game_ai.obj
 0001:0000b540       ?calculateGoalPosition@ClydeChaseState@Pegas@@AAEXXZ 0040c540 f   game_ai.obj
 0001:0000b5e0       ?handleEvent@BlinkyChaseState@Pegas@@UAEXV?$ptr@UEvent@Pegas@@@2@@Z 0040c5e0 f   game_ai.obj
 0001:0000b5e0       ?handleEvent@RunawayState@Pegas@@UAEXV?$ptr@UEvent@Pegas@@@2@@Z 0040c5e0 f   game_ai.obj
 0001:0000b760       ?chooseDirection@RunawayState@Pegas@@MAEHXZ 0040c760 f   game_ai.obj
 0001:0000b970       ??1GoalDrivenState@Pegas@@UAE@XZ 0040c970 f i game_ai.obj
 0001:0000b980       ?update@GoalDrivenState@Pegas@@UAEXH@Z 0040c980 f   game_ai.obj
 0001:0000b9b0       ?getGoalHeuristic@GoalDrivenState@Pegas@@MAEMHH@Z 0040c9b0 f   game_ai.obj
 0001:0000ba80       ??0PrayState@Pegas@@QAE@PAVTileGrid@1@H@Z 0040ca80 f   game_ai.obj
 0001:0000bb60       ?onGoalAchieved@PrayState@Pegas@@MAEXXZ 0040cb60 f   game_ai.obj
 0001:0000bc60       ?isObstacle@PrayState@Pegas@@MAE_NHH@Z 0040cc60 f   game_ai.obj
 0001:0000bc90       ??0?$list@VVector3@Pegas@@V?$allocator@VVector3@Pegas@@@std@@@std@@QAE@XZ 0040cc90 f i game_ai.obj
 0001:0000bd00       ??1?$list@VVector3@Pegas@@V?$allocator@VVector3@Pegas@@@std@@@std@@QAE@XZ 0040cd00 f i game_ai.obj
 0001:0000bd20       ?_Buynode@?$list@VVector3@Pegas@@V?$allocator@VVector3@Pegas@@@std@@@std@@IAEPAU_Node@?$_List_nod@VVector3@Pegas@@V?$allocator@VVector3@Pegas@@@std@@@2@XZ 0040cd20 f i game_ai.obj
 0001:0000bd40       ?_Tidy@?$list@VVector3@Pegas@@V?$allocator@VVector3@Pegas@@@std@@@std@@IAEXXZ 0040cd40 f i game_ai.obj
 0001:0000bd40       ?_Tidy@?$list@PAVIDrawable@Pegas@@V?$allocator@PAVIDrawable@Pegas@@@std@@@std@@IAEXXZ 0040cd40 f i pacman.obj
 0001:0000bd90       ?insert@?$vector@HV?$allocator@H@std@@@std@@QAE?AV?$_Vector_iterator@HV?$allocator@H@std@@@2@V?$_Vector_const_iterator@HV?$allocator@H@std@@@2@ABH@Z 0040cd90 f i game_ai.obj
 0001:0000be40       ?_Ufill@?$vector@HV?$allocator@H@std@@@std@@IAEPAHPAHIABH@Z 0040ce40 f i game_ai.obj
 0001:0000be70       ?allocate@?$allocator@H@std@@QAEPAHI@Z 0040ce70 f i game_ai.obj
 0001:0000be80       ?_Insert_n@?$vector@HV?$allocator@H@std@@@std@@IAEXV?$_Vector_const_iterator@HV?$allocator@H@std@@@2@IABH@Z 0040ce80 f i game_ai.obj
 0001:0000c030       ?max_size@?$allocator@H@std@@QBEIXZ 0040d030 f i game_ai.obj
 0001:0000c040       ??$_Umove@PAH@?$vector@HV?$allocator@H@std@@@std@@IAEPAHPAH00@Z 0040d040 f i game_ai.obj
 0001:0000c070       ??$_Random_shuffle@PAHH@std@@YAXPAH00@Z 0040d070 f i game_ai.obj
 0001:0000c0f0       ??_EPrayState@Pegas@@WBI@AEPAXI@Z 0040d0f0 f i game_ai.obj
 0001:0000c0f0       ??_EClydeChaseState@Pegas@@WBI@AEPAXI@Z 0040d0f0 f i game_ai.obj
 0001:0000c0f0       ??_ERunawayState@Pegas@@WBI@AEPAXI@Z 0040d0f0 f i game_ai.obj
 0001:0000c0f0       ??_EBlinkyChaseState@Pegas@@WBI@AEPAXI@Z 0040d0f0 f i game_ai.obj
 0001:0000c0f0       ??_EBaseAIState@Pegas@@WBI@AEPAXI@Z 0040d0f0 f i game_ai.obj
 0001:0000c0f0       ??_EInkyChaseState@Pegas@@WBI@AEPAXI@Z 0040d0f0 f i game_ai.obj
 0001:0000c0f0       ??_EPinkyChaseState@Pegas@@WBI@AEPAXI@Z 0040d0f0 f i game_ai.obj
 0001:0000c100       ?getStatus@Process@Pegas@@QBE?AW4ProcessStatus@2@XZ 0040d100 f i game_ai.obj
 0001:0000c110       _sqrtf                     0040d110 f i game_ai.obj
 0001:0000c130       ??_EChangeStateTask@Pegas@@UAEPAXI@Z 0040d130 f i  CIL library: CIL module
 0001:0000c130       ??_GChangeStateTask@Pegas@@UAEPAXI@Z 0040d130 f i game_world.obj
 0001:0000c130       ??_GProcess@Pegas@@UAEPAXI@Z 0040d130 f i game_ai.obj
 0001:0000c130       ??_EProcess@Pegas@@UAEPAXI@Z 0040d130 f i  CIL library: CIL module
 0001:0000c190       ??1Process@Pegas@@UAE@XZ   0040d190 f i game_ai.obj
 0001:0000c1d0       ?getListenerName@Character@Pegas@@UAE?AV?$basic_string@DU?$char_traits@D@std@@V?$allocator@D@2@@std@@XZ 0040d1d0 f i game_objects.obj
 0001:0000c200       ?draw@Character@Pegas@@UAEXXZ 0040d200 f i game_objects.obj
 0001:0000c200       ?_Left@?$_Tree@V?$_Tmap_traits@V?$basic_string@DU?$char_traits@D@std@@V?$allocator@D@2@@std@@V?$ptr@V?$set@PAVIEventListener@Pegas@@U?$less@PAVIEventListener@Pegas@@@std@@V?$allocator@PAVIEventListener@Pegas@@@4@@std@@@Pegas@@U?$less@V?$basic_string@DU?$char_traits@D@std@@V?$allocator@D@2@@std@@@2@V?$allocator@U?$pair@$$CBV?$basic_string@DU?$char_traits@D@std@@V?$allocator@D@2@@std@@V?$ptr@V?$set@PAVIEventListener@Pegas@@U?$less@PAVIEventListener@Pegas@@@std@@V?$allocator@PAVIEventListener@Pegas@@@4@@std@@@Pegas@@@std@@@2@$0A@@std@@@std@@KAAAPAU_Node@?$_Tree_nod@V?$_Tmap_traits@V?$basic_string@DU?$char_traits@D@std@@V?$allocator@D@2@@std@@V?$ptr@V?$set@PAVIEventListener@Pegas@@U?$less@PAVIEventListener@Pegas@@@std@@V?$allocator@PAVIEventListener@Pegas@@@4@@std@@@Pegas@@U?$less@V?$basic_string@DU?$char_traits@D@std@@V?$allocator@D@2@@std@@@2@V?$allocator@U?$pair@$$CBV?$basic_string@DU?$char_traits@D@std@@V?$allocator@D@2@@std@@V?$ptr@V?$set@PAVIEventListener@Pegas@@U?$less@PAVIEventListener@Pegas@@@std@@V?$allocator@PAVIEventListener@Pegas@@@4@@std@@@Pegas@@@std@@@2@$0A@@std@@@2@PAU342@@Z 0040d200 f i pacman.obj
 0001:0000c200       ?destroy@?$allocator@PAU_Node@?$_List_nod@V?$ptr@VBaseScreenLayer@Pegas@@@Pegas@@V?$allocator@V?$ptr@VBaseScreenLayer@Pegas@@@Pegas@@@std@@@std@@@std@@QAEXPAPAU_Node@?$_List_nod@V?$ptr@VBaseScreenLayer@Pegas@@@Pegas@@V?$allocator@V?$ptr@VBaseScreenLayer@Pegas@@@Pegas@@@std@@@2@@Z 0040d200 f i editor.obj
 0001:0000c200       ?destroy@?$allocator@PAU_Node@?$_Tree_nod@V?$_Tset_traits@PAVIEventListener@Pegas@@U?$less@PAVIEventListener@Pegas@@@std@@V?$allocator@PAVIEventListener@Pegas@@@4@$0A@@std@@@std@@@std@@QAEXPAPAU_Node@?$_Tree_nod@V?$_Tset_traits@PAVIEventListener@Pegas@@U?$less@PAVIEventListener@Pegas@@@std@@V?$allocator@PAVIEventListener@Pegas@@@4@$0A@@std@@@2@@Z 0040d200 f i pacman.obj
 0001:0000c200       ?_Left@?$_Tree@V?$_Tmap_traits@HV?$ptr@VProcess@Pegas@@@Pegas@@U?$less@H@std@@V?$allocator@U?$pair@$$CBHV?$ptr@VProcess@Pegas@@@Pegas@@@std@@@4@$0A@@std@@@std@@KAAAPAU_Node@?$_Tree_nod@V?$_Tmap_traits@HV?$ptr@VProcess@Pegas@@@Pegas@@U?$less@H@std@@V?$allocator@U?$pair@$$CBHV?$ptr@VProcess@Pegas@@@Pegas@@@std@@@4@$0A@@std@@@2@PAU342@@Z 0040d200 f i pacman.obj
 0001:0000c200       ?render@GrafManager@Pegas@@UAEXXZ 0040d200 f i pacman.obj
 0001:0000c200       ??1_Container_base_aux@std@@QAE@XZ 0040d200 f i game_app.obj
 0001:0000c200       ??0?$allocator@V?$ptr@UEvent@Pegas@@@Pegas@@@std@@QAE@ABV01@@Z 0040d200 f i pacman.obj
 0001:0000c200       ??3@YAXPAX0@Z              0040d200 f i game_app.obj
 0001:0000c200       ?destroy@?$allocator@H@std@@QAEXPAH@Z 0040d200 f i pacman.obj
 0001:0000c200       ?_Nextnode@?$list@V?$ptr@VBaseScreenLayer@Pegas@@@Pegas@@V?$allocator@V?$ptr@VBaseScreenLayer@Pegas@@@Pegas@@@std@@@std@@KAAAPAU_Node@?$_List_nod@V?$ptr@VBaseScreenLayer@Pegas@@@Pegas@@V?$allocator@V?$ptr@VBaseScreenLayer@Pegas@@@Pegas@@@std@@@2@PAU342@@Z 0040d200 f i editor.obj
 0001:0000c200       ??0?$allocator@V?$ptr@UEvent@Pegas@@@Pegas@@@std@@QAE@XZ 0040d200 f i pacman.obj
 0001:0000c200       ?_Left@?$_Tree@V?$_Tset_traits@PAVIEventListener@Pegas@@U?$less@PAVIEventListener@Pegas@@@std@@V?$allocator@PAVIEventListener@Pegas@@@4@$0A@@std@@@std@@KAAAPAU_Node@?$_Tree_nod@V?$_Tset_traits@PAVIEventListener@Pegas@@U?$less@PAVIEventListener@Pegas@@@std@@V?$allocator@PAVIEventListener@Pegas@@@4@$0A@@std@@@2@PAU342@@Z 0040d200 f i pacman.obj
 0001:0000c210       ?getType@Event_DirectionChanged@Pegas@@UBE?AV?$basic_string@DU?$char_traits@D@std@@V?$allocator@D@2@@std@@XZ 0040d210 f i game_objects.obj
 0001:0000c240       ?getType@Event_CharacterStopped@Pegas@@UBE?AV?$basic_string@DU?$char_traits@D@std@@V?$allocator@D@2@@std@@XZ 0040d240 f i game_objects.obj
 0001:0000c270       ?getType@Event_CharacterMoveOn@Pegas@@UBE?AV?$basic_string@DU?$char_traits@D@std@@V?$allocator@D@2@@std@@XZ 0040d270 f i game_objects.obj
 0001:0000c2a0       ??0Event_CharacterMoved@Pegas@@QAE@HABVVector3@1@HH@Z 0040d2a0 f i game_objects.obj
 0001:0000c2d0       ?getType@Event_CharacterMoved@Pegas@@UBE?AV?$basic_string@DU?$char_traits@D@std@@V?$allocator@D@2@@std@@XZ 0040d2d0 f i game_objects.obj
 0001:0000c300       ?getType@Event_CharacterStateChanged@Pegas@@UBE?AV?$basic_string@DU?$char_traits@D@std@@V?$allocator@D@2@@std@@XZ 0040d300 f i game_objects.obj
 0001:0000c330       ?getType@Event_HideCharacter@Pegas@@UBE?AV?$basic_string@DU?$char_traits@D@std@@V?$allocator@D@2@@std@@XZ 0040d330 f i game_objects.obj
 0001:0000c360       ?getType@Event_PacmanSwallowedPill@Pegas@@UBE?AV?$basic_string@DU?$char_traits@D@std@@V?$allocator@D@2@@std@@XZ 0040d360 f i game_objects.obj
 0001:0000c390       ?getType@Event_CharacterTonnelIn@Pegas@@UBE?AV?$basic_string@DU?$char_traits@D@std@@V?$allocator@D@2@@std@@XZ 0040d390 f i game_objects.obj
 0001:0000c3c0       ?getType@Event_CharacterKilled@Pegas@@UBE?AV?$basic_string@DU?$char_traits@D@std@@V?$allocator@D@2@@std@@XZ 0040d3c0 f i game_objects.obj
 0001:0000c3f0       ?getType@Event_PacmanDeathComplete@Pegas@@UBE?AV?$basic_string@DU?$char_traits@D@std@@V?$allocator@D@2@@std@@XZ 0040d3f0 f i game_objects.obj
 0001:0000c420       ??0Character@Pegas@@QAE@H@Z 0040d420 f   game_objects.obj
 0001:0000c520       ??_GCharacter@Pegas@@UAEPAXI@Z 0040d520 f i game_objects.obj
 0001:0000c520       ??_GIEventListener@Pegas@@UAEPAXI@Z 0040d520 f i pacman.obj
 0001:0000c520       ??_ECharacter@Pegas@@UAEPAXI@Z 0040d520 f i  CIL library: CIL module
 0001:0000c520       ??_EIEventListener@Pegas@@UAEPAXI@Z 0040d520 f i  CIL library: CIL module
 0001:0000c540       ??_H@YGXPAXIHP6EPAX0@Z@Z   0040d540 f i game_objects.obj
 0001:0000c570       ?create@Character@Pegas@@UAEXPAVTileGrid@2@ABVVector3@2@@Z 0040d570 f   game_objects.obj
 0001:0000c690       ?destroy@Character@Pegas@@UAEXXZ 0040d690 f   game_objects.obj
 0001:0000c6b0       ?handleEvent@Character@Pegas@@UAEXV?$ptr@UEvent@Pegas@@@2@@Z 0040d6b0 f   game_objects.obj
 0001:0000cdb0       ?update@Character@Pegas@@UAEXM@Z 0040ddb0 f   game_objects.obj
 0001:0000d470       ?isObstacle@Character@Pegas@@MAE_NHH@Z 0040e470 f   game_objects.obj
 0001:0000d4e0       ??0Pacman@Pegas@@QAE@HPAVIPlatformContext@1@@Z 0040e4e0 f   game_objects.obj
 0001:0000d560       ??_GPacman@Pegas@@UAEPAXI@Z 0040e560 f i game_objects.obj
 0001:0000d560       ??_EPacman@Pegas@@UAEPAXI@Z 0040e560 f i  CIL library: CIL module
 0001:0000d580       ??1Pacman@Pegas@@UAE@XZ    0040e580 f i game_objects.obj
 0001:0000d5e0       ?create@Pacman@Pegas@@UAEXPAVTileGrid@2@ABVVector3@2@@Z 0040e5e0 f   game_objects.obj
 0001:0000d650       ?setAnimation@Pacman@Pegas@@QAEXHV?$ptr@VProcess@Pegas@@@2@@Z 0040e650 f   game_objects.obj
 0001:0000d790       ?handleEvent@Pacman@Pegas@@UAEXV?$ptr@UEvent@Pegas@@@2@@Z 0040e790 f   game_objects.obj
 0001:0000db40       ?update@Pacman@Pegas@@UAEXM@Z 0040eb40 f   game_objects.obj
 0001:0000dcd0       ?draw@Pacman@Pegas@@UAEXXZ 0040ecd0 f   game_objects.obj
 0001:0000dd90       ??0Ghost@Pegas@@QAE@HPAVIPlatformContext@1@@Z 0040ed90 f   game_objects.obj
 0001:0000de20       ??_EGhost@Pegas@@UAEPAXI@Z 0040ee20 f i  CIL library: CIL module
 0001:0000de20       ??_GGhost@Pegas@@UAEPAXI@Z 0040ee20 f i game_objects.obj
 0001:0000de40       ??1Ghost@Pegas@@UAE@XZ     0040ee40 f i game_objects.obj
 0001:0000dea0       ?create@Ghost@Pegas@@UAEXPAVTileGrid@2@ABVVector3@2@@Z 0040eea0 f   game_objects.obj
 0001:0000e0d0       ?handleEvent@Ghost@Pegas@@UAEXV?$ptr@UEvent@Pegas@@@2@@Z 0040f0d0 f   game_objects.obj
 0001:0000e7d0       ?update@Ghost@Pegas@@UAEXM@Z 0040f7d0 f   game_objects.obj
 0001:0000e9b0       ?draw@Ghost@Pegas@@UAEXXZ  0040f9b0 f   game_objects.obj
 0001:0000ea30       ?setAnimation@Ghost@Pegas@@QAEXHV?$ptr@VProcess@Pegas@@@2@@Z 0040fa30 f   game_objects.obj
 0001:0000eb70       ?changeAnimation@Ghost@Pegas@@AAEXH@Z 0040fb70 f   game_objects.obj
 0001:0000ec60       ?isObstacle@Ghost@Pegas@@MAE_NHH@Z 0040fc60 f   game_objects.obj
 0001:0000ec90       ?getInstance@?$Singleton@VGrafManager@Pegas@@@Pegas@@SAAAVGrafManager@2@XZ 0040fc90 f i game_objects.obj
 0001:0000ecb0       ??0?$ptr@VProcess@Pegas@@@Pegas@@QAE@XZ 0040fcb0 f i game_objects.obj
 0001:0000ecc0       ??4?$ptr@VProcess@Pegas@@@Pegas@@QAEAAV01@ABV01@@Z 0040fcc0 f i game_objects.obj
 0001:0000ed10       ?get@?$ptr@VProcess@Pegas@@@Pegas@@QBEPAVProcess@2@XZ 0040fd10 f i game_objects.obj
 0001:0000ed10       ??C?$ptr@VBaseScreenLayer@Pegas@@@Pegas@@QBEPAVBaseScreenLayer@1@XZ 0040fd10 f i game_screen.obj
 0001:0000ed10       ?GetRawPointer@?$ptr@VProcess@Pegas@@@Pegas@@QBEPAVProcess@2@XZ 0040fd10 f i game_objects.obj
 0001:0000ed10       ?GetRawPointer@?$ptr@UEvent@Pegas@@@Pegas@@QBEPAUEvent@2@XZ 0040fd10 f i game_app.obj
 0001:0000ed10       ??C?$ptr@UEvent@Pegas@@@Pegas@@QBEPAUEvent@1@XZ 0040fd10 f i game_app.obj
 0001:0000ed10       ??C?$ptr@VIGameState@Pegas@@@Pegas@@QBEPAVIGameState@1@XZ 0040fd10 f i game_app.obj
 0001:0000ed10       ??C?$ptr@VProcess@Pegas@@@Pegas@@QBEPAVProcess@1@XZ 0040fd10 f i game_objects.obj
 0001:0000ed10       ?GetRawPointer@?$ptr@VBaseScreenLayer@Pegas@@@Pegas@@QBEPAVBaseScreenLayer@2@XZ 0040fd10 f i game_screen.obj
 0001:0000ed60       ?getListenerName@GameWorld@Pegas@@UAE?AV?$basic_string@DU?$char_traits@D@std@@V?$allocator@D@2@@std@@XZ 0040fd60 f i game_world.obj
 0001:0000ed90       ?getType@Event_EnableCharacterControl@Pegas@@UBE?AV?$basic_string@DU?$char_traits@D@std@@V?$allocator@D@2@@std@@XZ 0040fd90 f i game_world.obj
 0001:0000edc0       ?getType@Event_DisableCharacterControl@Pegas@@UBE?AV?$basic_string@DU?$char_traits@D@std@@V?$allocator@D@2@@std@@XZ 0040fdc0 f i game_world.obj
 0001:0000edf0       ?getType@Event_CharacterTonnelOut@Pegas@@UBE?AV?$basic_string@DU?$char_traits@D@std@@V?$allocator@D@2@@std@@XZ 0040fdf0 f i game_world.obj
 0001:0000ee20       ?getType@Event_PacmanDeath@Pegas@@UBE?AV?$basic_string@DU?$char_traits@D@std@@V?$allocator@D@2@@std@@XZ 0040fe20 f i game_world.obj
 0001:0000ee50       ?getType@Event_SuperForceOn@Pegas@@UBE?AV?$basic_string@DU?$char_traits@D@std@@V?$allocator@D@2@@std@@XZ 0040fe50 f i game_world.obj
 0001:0000ee80       ?getType@Event_SuperForceOff@Pegas@@UBE?AV?$basic_string@DU?$char_traits@D@std@@V?$allocator@D@2@@std@@XZ 0040fe80 f i game_world.obj
 0001:0000eeb0       ?getType@Event_SuperForcePreOff@Pegas@@UBE?AV?$basic_string@DU?$char_traits@D@std@@V?$allocator@D@2@@std@@XZ 0040feb0 f i game_world.obj
 0001:0000eee0       ?getType@Event_ResetActors@Pegas@@UBE?AV?$basic_string@DU?$char_traits@D@std@@V?$allocator@D@2@@std@@XZ 0040fee0 f i game_world.obj
 0001:0000ef10       ?getType@Event_RestartGame@Pegas@@UBE?AV?$basic_string@DU?$char_traits@D@std@@V?$allocator@D@2@@std@@XZ 0040ff10 f i game_world.obj
 0001:0000ef40       ??0Event_HUD_LevelChanged@Pegas@@QAE@H@Z 0040ff40 f i game_world.obj
 0001:0000efb0       ?getType@Event_HUD_LevelChanged@Pegas@@UBE?AV?$basic_string@DU?$char_traits@D@std@@V?$allocator@D@2@@std@@XZ 0040ffb0 f i game_world.obj
 0001:0000efe0       ??0Event_HUD_NewLevel@Pegas@@QAE@HM@Z 0040ffe0 f i game_world.obj
 0001:0000f060       ?getType@Event_HUD_NewLevel@Pegas@@UBE?AV?$basic_string@DU?$char_traits@D@std@@V?$allocator@D@2@@std@@XZ 00410060 f i game_world.obj
 0001:0000f090       ??0Event_HUD_ScoresChanged@Pegas@@QAE@H@Z 00410090 f i game_world.obj
 0001:0000f100       ?getType@Event_HUD_ScoresChanged@Pegas@@UBE?AV?$basic_string@DU?$char_traits@D@std@@V?$allocator@D@2@@std@@XZ 00410100 f i game_world.obj
 0001:0000f130       ??0Event_HUD_LivesChanged@Pegas@@QAE@H@Z 00410130 f i game_world.obj
 0001:0000f1a0       ?getType@Event_HUD_LivesChanged@Pegas@@UBE?AV?$basic_string@DU?$char_traits@D@std@@V?$allocator@D@2@@std@@XZ 004101a0 f i game_world.obj
 0001:0000f1d0       ??0Event_HUD_Frag@Pegas@@QAE@HABVVector3@1@@Z 004101d0 f i game_world.obj
 0001:0000f270       ?getType@Event_HUD_Frag@Pegas@@UBE?AV?$basic_string@DU?$char_traits@D@std@@V?$allocator@D@2@@std@@XZ 00410270 f i game_world.obj
 0001:0000f2a0       ??0Event_HUD_GetReady@Pegas@@QAE@_N@Z 004102a0 f i game_world.obj
 0001:0000f320       ?getType@Event_HUD_GetReady@Pegas@@UBE?AV?$basic_string@DU?$char_traits@D@std@@V?$allocator@D@2@@std@@XZ 00410320 f i game_world.obj
 0001:0000f350       ??0Event_HUD_GameOver@Pegas@@QAE@_N@Z 00410350 f i game_world.obj
 0001:0000f3c0       ?getType@Event_HUD_GameOver@Pegas@@UBE?AV?$basic_string@DU?$char_traits@D@std@@V?$allocator@D@2@@std@@XZ 004103c0 f i game_world.obj
 0001:0000f3f0       ??0GameWorld@Pegas@@QAE@XZ 004103f0 f   game_world.obj
 0001:0000f490       ??_GGameWorld@Pegas@@UAEPAXI@Z 00410490 f i game_world.obj
 0001:0000f490       ??_EGameWorld@Pegas@@UAEPAXI@Z 00410490 f i  CIL library: CIL module
 0001:0000f4b0       ??1?$map@HUSpriteParameters@Pegas@@U?$less@H@std@@V?$allocator@U?$pair@$$CBHUSpriteParameters@Pegas@@@std@@@4@@std@@QAE@XZ 004104b0 f i game_world.obj
 0001:0000f510       ??1GameWorld@Pegas@@UAE@XZ 00410510 f i game_world.obj
 0001:0000f5c0       ?create@GameWorld@Pegas@@QAEXPAVIPlatformContext@2@@Z 004105c0 f   game_world.obj
 0001:0000f6e0       ?destroy@GameWorld@Pegas@@QAEXPAVIPlatformContext@2@@Z 004106e0 f   game_world.obj
 0001:0000f7f0       ?loadMap@GameWorld@Pegas@@AAEXXZ 004107f0 f   game_world.obj
 0001:0000fcd0       ?createGameObjects@GameWorld@Pegas@@AAEXXZ 00410cd0 f   game_world.obj
 0001:00011510       ?initializeGame@GameWorld@Pegas@@AAEXXZ 00412510 f   game_world.obj
 0001:00011a20       ?checkNewLife@GameWorld@Pegas@@AAEXXZ 00412a20 f   game_world.obj
 0001:00011b50       ?restartGame@GameWorld@Pegas@@AAEXXZ 00412b50 f   game_world.obj
 0001:00012060       ?update@GameWorld@Pegas@@QAEXPAVIPlatformContext@2@HH@Z 00413060 f   game_world.obj
 0001:00012150       ?render@GameWorld@Pegas@@QAEXPAVIPlatformContext@2@@Z 00413150 f   game_world.obj
 0001:00012350       ?handleEvent@GameWorld@Pegas@@UAEXV?$ptr@UEvent@Pegas@@@2@@Z 00413350 f   game_world.obj
 0001:00013b20       ??1?$vector@V?$ptr@VCharacter@Pegas@@@Pegas@@V?$allocator@V?$ptr@VCharacter@Pegas@@@Pegas@@@std@@@std@@QAE@XZ 00414b20 f i game_world.obj
 0001:00013b20       ??1?$vector@V?$ptr@VWidget@Pegas@@@Pegas@@V?$allocator@V?$ptr@VWidget@Pegas@@@Pegas@@@std@@@std@@QAE@XZ 00414b20 f i editor.obj
 0001:00013ba0       ?push_back@?$vector@V?$ptr@VCharacter@Pegas@@@Pegas@@V?$allocator@V?$ptr@VCharacter@Pegas@@@Pegas@@@std@@@std@@QAEXABV?$ptr@VCharacter@Pegas@@@Pegas@@@Z 00414ba0 f i game_world.obj
 0001:00013c20       ??1?$vector@UTunnel@GameWorld@Pegas@@V?$allocator@UTunnel@GameWorld@Pegas@@@std@@@std@@QAE@XZ 00414c20 f i game_world.obj
 0001:00013c20       ??1?$vector@UTileDesc@Pegas@@V?$allocator@UTileDesc@Pegas@@@std@@@std@@QAE@XZ 00414c20 f i tile_grid.obj
 0001:00013c20       ??1?$vector@HV?$allocator@H@std@@@std@@QAE@XZ 00414c20 f i game_ai.obj
 0001:00013c50       ?push_back@?$vector@UTunnel@GameWorld@Pegas@@V?$allocator@UTunnel@GameWorld@Pegas@@@std@@@std@@QAEXABUTunnel@GameWorld@Pegas@@@Z 00414c50 f i game_world.obj
 0001:00013cf0       ??A?$map@HUSpriteParameters@Pegas@@U?$less@H@std@@V?$allocator@U?$pair@$$CBHUSpriteParameters@Pegas@@@std@@@4@@std@@QAEAAUSpriteParameters@Pegas@@ABH@Z 00414cf0 f i game_world.obj
 0001:00013dc0       ?count@?$_Tree@V?$_Tmap_traits@HUSpriteParameters@Pegas@@U?$less@H@std@@V?$allocator@U?$pair@$$CBHUSpriteParameters@Pegas@@@std@@@4@$0A@@std@@@std@@QBEIABH@Z 00414dc0 f i game_world.obj
 0001:00013e10       ??0?$FaderProcess@UEvent_GUI_StartFadein@Pegas@@UEvent_GUI_FadeinComplete@2@@Pegas@@QAE@M@Z 00414e10 f i game_world.obj
 0001:00013ea0       ??1?$FaderProcess@UEvent_GUI_StartFadein@Pegas@@UEvent_GUI_FadeinComplete@2@@Pegas@@UAE@XZ 00414ea0 f i game_world.obj
 0001:00013f60       ?handleEvent@?$FaderProcess@UEvent_GUI_StartFadein@Pegas@@UEvent_GUI_FadeinComplete@2@@Pegas@@UAEXV?$ptr@UEvent@Pegas@@@2@@Z 00414f60 f i game_world.obj
 0001:00014080       ?getListenerName@?$FaderProcess@UEvent_GUI_StartFadein@Pegas@@UEvent_GUI_FadeinComplete@2@@Pegas@@UAE?AV?$basic_string@DU?$char_traits@D@std@@V?$allocator@D@2@@std@@XZ 00415080 f i game_world.obj
 0001:000140b0       ?start@?$FaderProcess@UEvent_GUI_StartFadein@Pegas@@UEvent_GUI_FadeinComplete@2@@Pegas@@UAEXHPAVProcessManager@2@@Z 004150b0 f i game_world.obj
 0001:00014190       ??_G?$FaderProcess@UEvent_GUI_StartFadein@Pegas@@UEvent_GUI_FadeinComplete@2@@Pegas@@UAEPAXI@Z 00415190 f i game_world.obj
 0001:00014190       ??_E?$FaderProcess@UEvent_GUI_StartFadein@Pegas@@UEvent_GUI_FadeinComplete@2@@Pegas@@UAEPAXI@Z 00415190 f i  CIL library: CIL module
 0001:000141b0       ?insert@?$vector@V?$ptr@VCharacter@Pegas@@@Pegas@@V?$allocator@V?$ptr@VCharacter@Pegas@@@Pegas@@@std@@@std@@QAE?AV?$_Vector_iterator@V?$ptr@VCharacter@Pegas@@@Pegas@@V?$allocator@V?$ptr@VCharacter@Pegas@@@Pegas@@@std@@@2@V?$_Vector_const_iterator@V?$ptr@VCharacter@Pegas@@@Pegas@@V?$allocator@V?$ptr@VCharacter@Pegas@@@Pegas@@@std@@@2@ABV?$ptr@VCharacter@Pegas@@@Pegas@@@Z 004151b0 f i game_world.obj
 0001:00014260       ?insert@?$vector@UTunnel@GameWorld@Pegas@@V?$allocator@UTunnel@GameWorld@Pegas@@@std@@@std@@QAE?AV?$_Vector_iterator@UTunnel@GameWorld@Pegas@@V?$allocator@UTunnel@GameWorld@Pegas@@@std@@@2@V?$_Vector_const_iterator@UTunnel@GameWorld@Pegas@@V?$allocator@UTunnel@GameWorld@Pegas@@@std@@@2@ABUTunnel@GameWorld@Pegas@@@Z 00415260 f i game_world.obj
 0001:00014330       ??0?$_Tree@V?$_Tmap_traits@HUSpriteParameters@Pegas@@U?$less@H@std@@V?$allocator@U?$pair@$$CBHUSpriteParameters@Pegas@@@std@@@4@$0A@@std@@@std@@QAE@ABU?$less@H@1@ABV?$allocator@U?$pair@$$CBHUSpriteParameters@Pegas@@@std@@@1@@Z 00415330 f i game_world.obj
 0001:000143b0       ?insert@?$_Tree@V?$_Tmap_traits@HUSpriteParameters@Pegas@@U?$less@H@std@@V?$allocator@U?$pair@$$CBHUSpriteParameters@Pegas@@@std@@@4@$0A@@std@@@std@@QAE?AViterator@12@Vconst_iterator@12@ABU?$pair@$$CBHUSpriteParameters@Pegas@@@2@@Z 004153b0 f i game_world.obj
 0001:00014590       ?_Tidy@?$_Tree@V?$_Tmap_traits@HUSpriteParameters@Pegas@@U?$less@H@std@@V?$allocator@U?$pair@$$CBHUSpriteParameters@Pegas@@@std@@@4@$0A@@std@@@std@@IAEXXZ 00415590 f i game_world.obj
 0001:000145d0       ?_Insert_n@?$vector@V?$ptr@VCharacter@Pegas@@@Pegas@@V?$allocator@V?$ptr@VCharacter@Pegas@@@Pegas@@@std@@@std@@IAEXV?$_Vector_const_iterator@V?$ptr@VCharacter@Pegas@@@Pegas@@V?$allocator@V?$ptr@VCharacter@Pegas@@@Pegas@@@std@@@2@IABV?$ptr@VCharacter@Pegas@@@Pegas@@@Z 004155d0 f i game_world.obj
 0001:00014880       ?allocate@?$allocator@V?$ptr@VCharacter@Pegas@@@Pegas@@@std@@QAEPAV?$ptr@VCharacter@Pegas@@@Pegas@@I@Z 00415880 f i game_world.obj
 0001:00014880       ??$_Allocate@V?$ptr@VWidget@Pegas@@@Pegas@@@std@@YAPAV?$ptr@VWidget@Pegas@@@Pegas@@IPAV12@@Z 00415880 f i editor.obj
 0001:000148e0       ?_Insert_n@?$vector@UTunnel@GameWorld@Pegas@@V?$allocator@UTunnel@GameWorld@Pegas@@@std@@@std@@IAEXV?$_Vector_const_iterator@UTunnel@GameWorld@Pegas@@V?$allocator@UTunnel@GameWorld@Pegas@@@std@@@2@IABUTunnel@GameWorld@Pegas@@@Z 004158e0 f i game_world.obj
 0001:00014b40       ?allocate@?$allocator@UTunnel@GameWorld@Pegas@@@std@@QAEPAUTunnel@GameWorld@Pegas@@I@Z 00415b40 f i game_world.obj
 0001:00014ba0       ?insert@?$_Tree@V?$_Tmap_traits@HUSpriteParameters@Pegas@@U?$less@H@std@@V?$allocator@U?$pair@$$CBHUSpriteParameters@Pegas@@@std@@@4@$0A@@std@@@std@@QAE?AU?$pair@Viterator@?$_Tree@V?$_Tmap_traits@HUSpriteParameters@Pegas@@U?$less@H@std@@V?$allocator@U?$pair@$$CBHUSpriteParameters@Pegas@@@std@@@4@$0A@@std@@@std@@_N@2@ABU?$pair@$$CBHUSpriteParameters@Pegas@@@2@@Z 00415ba0 f i game_world.obj
 0001:00014ca0       ?erase@?$_Tree@V?$_Tmap_traits@HUSpriteParameters@Pegas@@U?$less@H@std@@V?$allocator@U?$pair@$$CBHUSpriteParameters@Pegas@@@std@@@4@$0A@@std@@@std@@QAE?AViterator@12@Vconst_iterator@12@0@Z 00415ca0 f i game_world.obj
 0001:00014d80       ?_Eqrange@?$_Tree@V?$_Tmap_traits@HUSpriteParameters@Pegas@@U?$less@H@std@@V?$allocator@U?$pair@$$CBHUSpriteParameters@Pegas@@@std@@@4@$0A@@std@@@std@@IBE?AU?$pair@Vconst_iterator@?$_Tree@V?$_Tmap_traits@HUSpriteParameters@Pegas@@U?$less@H@std@@V?$allocator@U?$pair@$$CBHUSpriteParameters@Pegas@@@std@@@4@$0A@@std@@@std@@V123@@2@ABH@Z 00415d80 f i game_world.obj
 0001:00014e10       ?_Insert@?$_Tree@V?$_Tmap_traits@HUSpriteParameters@Pegas@@U?$less@H@std@@V?$allocator@U?$pair@$$CBHUSpriteParameters@Pegas@@@std@@@4@$0A@@std@@@std@@IAE?AViterator@12@_NPAU_Node@?$_Tree_nod@V?$_Tmap_traits@HUSpriteParameters@Pegas@@U?$less@H@std@@V?$allocator@U?$pair@$$CBHUSpriteParameters@Pegas@@@std@@@4@$0A@@std@@@2@ABU?$pair@$$CBHUSpriteParameters@Pegas@@@2@@Z 00415e10 f i game_world.obj
 0001:00015050       ?erase@?$_Tree@V?$_Tmap_traits@HUSpriteParameters@Pegas@@U?$less@H@std@@V?$allocator@U?$pair@$$CBHUSpriteParameters@Pegas@@@std@@@4@$0A@@std@@@std@@QAE?AViterator@12@Vconst_iterator@12@@Z 00416050 f i game_world.obj
 0001:00015320       ?_Lrotate@?$_Tree@V?$_Tmap_traits@HUSpriteParameters@Pegas@@U?$less@H@std@@V?$allocator@U?$pair@$$CBHUSpriteParameters@Pegas@@@std@@@4@$0A@@std@@@std@@IAEXPAU_Node@?$_Tree_nod@V?$_Tmap_traits@HUSpriteParameters@Pegas@@U?$less@H@std@@V?$allocator@U?$pair@$$CBHUSpriteParameters@Pegas@@@std@@@4@$0A@@std@@@2@@Z 00416320 f i game_world.obj
 0001:00015370       ?_Rrotate@?$_Tree@V?$_Tmap_traits@HUSpriteParameters@Pegas@@U?$less@H@std@@V?$allocator@U?$pair@$$CBHUSpriteParameters@Pegas@@@std@@@4@$0A@@std@@@std@@IAEXPAU_Node@?$_Tree_nod@V?$_Tmap_traits@HUSpriteParameters@Pegas@@U?$less@H@std@@V?$allocator@U?$pair@$$CBHUSpriteParameters@Pegas@@@std@@@4@$0A@@std@@@2@@Z 00416370 f i game_world.obj
 0001:000153c0       ?_Buynode@?$_Tree@V?$_Tmap_traits@HUSpriteParameters@Pegas@@U?$less@H@std@@V?$allocator@U?$pair@$$CBHUSpriteParameters@Pegas@@@std@@@4@$0A@@std@@@std@@IAEPAU_Node@?$_Tree_nod@V?$_Tmap_traits@HUSpriteParameters@Pegas@@U?$less@H@std@@V?$allocator@U?$pair@$$CBHUSpriteParameters@Pegas@@@std@@@4@$0A@@std@@@2@XZ 004163c0 f i game_world.obj
 0001:00015400       ?_Buynode@?$_Tree@V?$_Tmap_traits@HUSpriteParameters@Pegas@@U?$less@H@std@@V?$allocator@U?$pair@$$CBHUSpriteParameters@Pegas@@@std@@@4@$0A@@std@@@std@@IAEPAU_Node@?$_Tree_nod@V?$_Tmap_traits@HUSpriteParameters@Pegas@@U?$less@H@std@@V?$allocator@U?$pair@$$CBHUSpriteParameters@Pegas@@@std@@@4@$0A@@std@@@2@PAU342@00ABU?$pair@$$CBHUSpriteParameters@Pegas@@@2@D@Z 00416400 f i game_world.obj
 0001:00015440       ?_Dec@const_iterator@?$_Tree@V?$_Tmap_traits@HUSpriteParameters@Pegas@@U?$less@H@std@@V?$allocator@U?$pair@$$CBHUSpriteParameters@Pegas@@@std@@@4@$0A@@std@@@std@@QAEXXZ 00416440 f i game_world.obj
 0001:000154c0       ?_Inc@const_iterator@?$_Tree@V?$_Tmap_traits@HUSpriteParameters@Pegas@@U?$less@H@std@@V?$allocator@U?$pair@$$CBHUSpriteParameters@Pegas@@@std@@@4@$0A@@std@@@std@@QAEXXZ 004164c0 f i game_world.obj
 0001:00015530       ?_Erase@?$_Tree@V?$_Tmap_traits@HUSpriteParameters@Pegas@@U?$less@H@std@@V?$allocator@U?$pair@$$CBHUSpriteParameters@Pegas@@@std@@@4@$0A@@std@@@std@@IAEXPAU_Node@?$_Tree_nod@V?$_Tmap_traits@HUSpriteParameters@Pegas@@U?$less@H@std@@V?$allocator@U?$pair@$$CBHUSpriteParameters@Pegas@@@std@@@4@$0A@@std@@@2@@Z 00416530 f i game_world.obj
 0001:00015570       ?_Max@?$_Tree@V?$_Tmap_traits@HUSpriteParameters@Pegas@@U?$less@H@std@@V?$allocator@U?$pair@$$CBHUSpriteParameters@Pegas@@@std@@@4@$0A@@std@@@std@@KAPAU_Node@?$_Tree_nod@V?$_Tmap_traits@HUSpriteParameters@Pegas@@U?$less@H@std@@V?$allocator@U?$pair@$$CBHUSpriteParameters@Pegas@@@std@@@4@$0A@@std@@@2@PAU342@@Z 00416570 f i game_world.obj
 0001:00015590       ??$?0UEvent_CharacterMoveOn@Pegas@@@?$ptr@UEvent@Pegas@@@Pegas@@QAE@PAUEvent_CharacterMoveOn@1@PAUCounter@1@@Z 00416590 f i game_objects.obj
 0001:00015590       ??$?0UEvent_CharacterStateChanged@Pegas@@@?$ptr@UEvent@Pegas@@@Pegas@@QAE@PAUEvent_CharacterStateChanged@1@PAUCounter@1@@Z 00416590 f i game_objects.obj
 0001:00015590       ??$?0UEvent_HUD_ScoresChanged@Pegas@@@?$ptr@UEvent@Pegas@@@Pegas@@QAE@PAUEvent_HUD_ScoresChanged@1@PAUCounter@1@@Z 00416590 f i game_world.obj
 0001:00015590       ??$?0UEvent_HUD_Frag@Pegas@@@?$ptr@UEvent@Pegas@@@Pegas@@QAE@PAUEvent_HUD_Frag@1@PAUCounter@1@@Z 00416590 f i game_world.obj
 0001:00015590       ??$?0UEvent_ChangeDirection@Pegas@@@?$ptr@UEvent@Pegas@@@Pegas@@QAE@PAUEvent_ChangeDirection@1@PAUCounter@1@@Z 00416590 f i game_ai.obj
 0001:00015590       ??$?0UEvent_HUD_LivesChanged@Pegas@@@?$ptr@UEvent@Pegas@@@Pegas@@QAE@PAUEvent_HUD_LivesChanged@1@PAUCounter@1@@Z 00416590 f i game_world.obj
 0001:00015590       ??$?0UEvent_CharacterStopped@Pegas@@@?$ptr@UEvent@Pegas@@@Pegas@@QAE@PAUEvent_CharacterStopped@1@PAUCounter@1@@Z 00416590 f i game_objects.obj
 0001:00015590       ??$?0VChangeStateTask@Pegas@@@?$ptr@VProcess@Pegas@@@Pegas@@QAE@PAVChangeStateTask@1@PAUCounter@1@@Z 00416590 f i game_world.obj
 0001:00015590       ??$?0VWaiting@Pegas@@@?$ptr@VProcess@Pegas@@@Pegas@@QAE@PAVWaiting@1@PAUCounter@1@@Z 00416590 f i game_objects.obj
 0001:00015590       ??$?0UEvent_DisableCharacterControl@Pegas@@@?$ptr@UEvent@Pegas@@@Pegas@@QAE@PAUEvent_DisableCharacterControl@1@PAUCounter@1@@Z 00416590 f i game_world.obj
 0001:00015590       ??$?0UEvent_HUD_LevelChanged@Pegas@@@?$ptr@UEvent@Pegas@@@Pegas@@QAE@PAUEvent_HUD_LevelChanged@1@PAUCounter@1@@Z 00416590 f i game_world.obj
 0001:00015590       ??$?0UEvent_PacmanDeath@Pegas@@@?$ptr@UEvent@Pegas@@@Pegas@@QAE@PAUEvent_PacmanDeath@1@PAUCounter@1@@Z 00416590 f i game_world.obj
 0001:00015590       ??$?0UEvent_GUI_FadeOff@Pegas@@@?$ptr@UEvent@Pegas@@@Pegas@@QAE@PAUEvent_GUI_FadeOff@1@PAUCounter@1@@Z 00416590 f i game_world.obj
 0001:00015590       ??$?0V?$FaderProcess@UEvent_GUI_StartFadein@Pegas@@UEvent_GUI_FadeinComplete@2@@Pegas@@@?$ptr@VProcess@Pegas@@@Pegas@@QAE@PAV?$FaderProcess@UEvent_GUI_StartFadein@Pegas@@UEvent_GUI_FadeinComplete@2@@1@PAUCounter@1@@Z 00416590 f i game_world.obj
 0001:00015590       ??$?0UEvent_CharacterKilled@Pegas@@@?$ptr@UEvent@Pegas@@@Pegas@@QAE@PAUEvent_CharacterKilled@1@PAUCounter@1@@Z 00416590 f i game_objects.obj
 0001:00015590       ??$?0UEvent_HUD_GameOver@Pegas@@@?$ptr@UEvent@Pegas@@@Pegas@@QAE@PAUEvent_HUD_GameOver@1@PAUCounter@1@@Z 00416590 f i game_world.obj
 0001:00015590       ??$?0UEvent_RestartGame@Pegas@@@?$ptr@UEvent@Pegas@@@Pegas@@QAE@PAUEvent_RestartGame@1@PAUCounter@1@@Z 00416590 f i game_world.obj
 0001:00015590       ??$?0UEvent_EnableCharacterControl@Pegas@@@?$ptr@UEvent@Pegas@@@Pegas@@QAE@PAUEvent_EnableCharacterControl@1@PAUCounter@1@@Z 00416590 f i game_world.obj
 0001:00015590       ??$?0UEvent_HUD_GetReady@Pegas@@@?$ptr@UEvent@Pegas@@@Pegas@@QAE@PAUEvent_HUD_GetReady@1@PAUCounter@1@@Z 00416590 f i game_world.obj
 0001:00015590       ??$?0UEvent_ResetActors@Pegas@@@?$ptr@UEvent@Pegas@@@Pegas@@QAE@PAUEvent_ResetActors@1@PAUCounter@1@@Z 00416590 f i game_world.obj
 0001:00015590       ??$?0UEvent_PacmanDeathComplete@Pegas@@@?$ptr@UEvent@Pegas@@@Pegas@@QAE@PAUEvent_PacmanDeathComplete@1@PAUCounter@1@@Z 00416590 f i game_objects.obj
 0001:00015590       ??$?0UEvent_HideCharacter@Pegas@@@?$ptr@UEvent@Pegas@@@Pegas@@QAE@PAUEvent_HideCharacter@1@PAUCounter@1@@Z 00416590 f i game_objects.obj
 0001:00015590       ??$?0UEvent_GUI_FadeOn@Pegas@@@?$ptr@UEvent@Pegas@@@Pegas@@QAE@PAUEvent_GUI_FadeOn@1@PAUCounter@1@@Z 00416590 f i game_world.obj
 0001:00015590       ??$?0UEvent_HUD_NewLevel@Pegas@@@?$ptr@UEvent@Pegas@@@Pegas@@QAE@PAUEvent_HUD_NewLevel@1@PAUCounter@1@@Z 00416590 f i game_world.obj
 0001:00015590       ??$?0UEvent_CharacterMoved@Pegas@@@?$ptr@UEvent@Pegas@@@Pegas@@QAE@PAUEvent_CharacterMoved@1@PAUCounter@1@@Z 00416590 f i game_objects.obj
 0001:00015590       ??$?0UEvent_DirectionChanged@Pegas@@@?$ptr@UEvent@Pegas@@@Pegas@@QAE@PAUEvent_DirectionChanged@1@PAUCounter@1@@Z 00416590 f i game_objects.obj
 0001:000155d0       ??$_Distance@Vconst_iterator@?$_Tree@V?$_Tmap_traits@HUSpriteParameters@Pegas@@U?$less@H@std@@V?$allocator@U?$pair@$$CBHUSpriteParameters@Pegas@@@std@@@4@$0A@@std@@@std@@I@std@@YAXVconst_iterator@?$_Tree@V?$_Tmap_traits@HUSpriteParameters@Pegas@@U?$less@H@std@@V?$allocator@U?$pair@$$CBHUSpriteParameters@Pegas@@@std@@@4@$0A@@std@@@0@0AAI@Z 004165d0 f i game_world.obj
 0001:00015620       ??$_Unchecked_move_backward@PAV?$ptr@VCharacter@Pegas@@@Pegas@@PAV12@@stdext@@YAPAV?$ptr@VCharacter@Pegas@@@Pegas@@PAV12@00@Z 00416620 f i game_world.obj
 0001:00015660       ??$_Umove@PAUTunnel@GameWorld@Pegas@@@?$vector@UTunnel@GameWorld@Pegas@@V?$allocator@UTunnel@GameWorld@Pegas@@@std@@@std@@IAEPAUTunnel@GameWorld@Pegas@@PAU234@00@Z 00416660 f i game_world.obj
 0001:00015690       ??$fill@PAUTunnel@GameWorld@Pegas@@U123@@std@@YAXPAUTunnel@GameWorld@Pegas@@0ABU123@@Z 00416690 f i game_world.obj
 0001:000156c0       ??$_Uninit_fill_n@PAV?$ptr@VCharacter@Pegas@@@Pegas@@IV12@V?$allocator@V?$ptr@VCharacter@Pegas@@@Pegas@@@std@@@std@@YAXPAV?$ptr@VCharacter@Pegas@@@Pegas@@IABV12@AAV?$allocator@V?$ptr@VCharacter@Pegas@@@Pegas@@@0@U_Nonscalar_ptr_iterator_tag@0@U_Range_checked_iterator_tag@0@@Z 004166c0 f i game_world.obj
 0001:000156f0       ??$_Uninit_fill_n@PAUTunnel@GameWorld@Pegas@@IU123@V?$allocator@UTunnel@GameWorld@Pegas@@@std@@@std@@YAXPAUTunnel@GameWorld@Pegas@@IABU123@AAV?$allocator@UTunnel@GameWorld@Pegas@@@0@U_Nonscalar_ptr_iterator_tag@0@U_Range_checked_iterator_tag@0@@Z 004166f0 f i game_world.obj
 0001:00015730       ??$_Destroy_range@V?$allocator@V?$ptr@VCharacter@Pegas@@@Pegas@@@std@@@std@@YAXPAV?$ptr@VCharacter@Pegas@@@Pegas@@0AAV?$allocator@V?$ptr@VCharacter@Pegas@@@Pegas@@@0@U_Nonscalar_ptr_iterator_tag@0@@Z 00416730 f i game_world.obj
 0001:00015730       ??$_Destroy_range@V?$allocator@V?$ptr@VWidget@Pegas@@@Pegas@@@std@@@std@@YAXPAV?$ptr@VWidget@Pegas@@@Pegas@@0AAV?$allocator@V?$ptr@VWidget@Pegas@@@Pegas@@@0@U_Nonscalar_ptr_iterator_tag@0@@Z 00416730 f i editor.obj
 0001:00015780       ??$_Fill@PAV?$ptr@VCharacter@Pegas@@@Pegas@@V12@@std@@YAXPAV?$ptr@VCharacter@Pegas@@@Pegas@@0ABV12@@Z 00416780 f i game_world.obj
 0001:000157f0       ??$_Copy_backward_opt@PAUTunnel@GameWorld@Pegas@@PAU123@@std@@YAPAUTunnel@GameWorld@Pegas@@PAU123@00Urandom_access_iterator_tag@0@U_Nonscalar_ptr_iterator_tag@0@U_Range_checked_iterator_tag@0@@Z 004167f0 f i game_world.obj
 0001:00015860       ??$_Copy_backward_opt@PAV?$ptr@VCharacter@Pegas@@@Pegas@@PAV12@Uforward_iterator_tag@std@@@std@@YAPAV?$ptr@VCharacter@Pegas@@@Pegas@@PAV12@00Uforward_iterator_tag@0@U_Nonscalar_ptr_iterator_tag@0@U_Range_checked_iterator_tag@0@@Z 00416860 f i game_world.obj
 0001:000158d0       ??$_Uninit_copy@PAV?$ptr@VCharacter@Pegas@@@Pegas@@PAV12@V?$allocator@V?$ptr@VCharacter@Pegas@@@Pegas@@@std@@@std@@YAPAV?$ptr@VCharacter@Pegas@@@Pegas@@PAV12@00AAV?$allocator@V?$ptr@VCharacter@Pegas@@@Pegas@@@0@U_Nonscalar_ptr_iterator_tag@0@U_Range_checked_iterator_tag@0@@Z 004168d0 f i game_world.obj
 0001:00015900       ??$_Uninit_copy@PAUTunnel@GameWorld@Pegas@@PAU123@V?$allocator@UTunnel@GameWorld@Pegas@@@std@@@std@@YAPAUTunnel@GameWorld@Pegas@@PAU123@00AAV?$allocator@UTunnel@GameWorld@Pegas@@@0@U_Nonscalar_ptr_iterator_tag@0@U_Range_checked_iterator_tag@0@@Z 00416900 f i game_world.obj
 0001:00015940       ??_E?$FaderProcess@UEvent_GUI_StartFadein@Pegas@@UEvent_GUI_FadeinComplete@2@@Pegas@@WBI@AEPAXI@Z 00416940 f i game_world.obj
 0001:00015950       ?getType@Event_GUI_StartFadein@Pegas@@UBE?AV?$basic_string@DU?$char_traits@D@std@@V?$allocator@D@2@@std@@XZ 00416950 f i game_world.obj
 0001:00015980       ??0Event_GUI_StartFadein@Pegas@@QAE@M@Z 00416980 f i game_world.obj
 0001:00015a00       ??0SpriteParameters@Pegas@@QAE@XZ 00416a00 f i game_world.obj
 0001:00015a10       ?start@ChangeStateTask@Pegas@@UAEXHPAVProcessManager@2@@Z 00416a10 f i game_world.obj
 0001:00015a40       ??0ChangeStateTask@Pegas@@QAE@PAVIPlatformContext@1@H@Z 00416a40 f i game_world.obj
 0001:00015a60       ?getType@Event_GUI_FadeOff@Pegas@@UBE?AV?$basic_string@DU?$char_traits@D@std@@V?$allocator@D@2@@std@@XZ 00416a60 f i game_world.obj
 0001:00015a90       ??0Event_GUI_FadeOff@Pegas@@QAE@XZ 00416a90 f i game_world.obj
 0001:00015b00       ?getType@Event_GUI_FadeOn@Pegas@@UBE?AV?$basic_string@DU?$char_traits@D@std@@V?$allocator@D@2@@std@@XZ 00416b00 f i game_world.obj
 0001:00015b30       ??0Event_GUI_FadeOn@Pegas@@QAE@H@Z 00416b30 f i game_world.obj
 0001:00015bb0       ??0TileGrid@Pegas@@QAE@XZ  00416bb0 f   tile_grid.obj
 0001:00015c20       ??1TileGrid@Pegas@@QAE@XZ  00416c20 f   tile_grid.obj
 0001:00015ca0       ?create@TileGrid@Pegas@@QAEXHH@Z 00416ca0 f   tile_grid.obj
 0001:00015d70       ?destroy@TileGrid@Pegas@@QAEXXZ 00416d70 f   tile_grid.obj
 0001:00015e60       ?load@TileGrid@Pegas@@QAEXAAVISerializer@2@@Z 00416e60 f   tile_grid.obj
 0001:00016030       ?save@TileGrid@Pegas@@QAEXAAVISerializer@2@@Z 00417030 f   tile_grid.obj
 0001:00016210       ?draw@TileGrid@Pegas@@QAEXXZ 00417210 f   tile_grid.obj
 0001:000163a0       ?debugDraw@TileGrid@Pegas@@QAEXH@Z 004173a0 f   tile_grid.obj
 0001:000166f0       ?setArea@TileGrid@Pegas@@QAEXMMMM@Z 004176f0 f   tile_grid.obj
 0001:00016750       ?addTileDesc@TileGrid@Pegas@@QAEHABUTileDesc@2@@Z 00417750 f   tile_grid.obj
 0001:00016820       ?setTile@TileGrid@Pegas@@QAEHHHH@Z 00417820 f   tile_grid.obj
 0001:000168b0       ?isObstacle@TileGrid@Pegas@@QAE_NHHPAH@Z 004178b0 f   tile_grid.obj
 0001:00016940       ?pointToCell@TileGrid@Pegas@@QAEXMMAAH0@Z 00417940 f   tile_grid.obj
 0001:000169c0       ?getTiles@TileGrid@Pegas@@QAEHHAAV?$list@VVector3@Pegas@@V?$allocator@VVector3@Pegas@@@std@@@std@@_N@Z 004179c0 f   tile_grid.obj
 0001:00016c00       ?getNumTiles@TileGrid@Pegas@@QAEHH@Z 00417c00 f   tile_grid.obj
 0001:00016cc0       ?insert@?$_Tree@V?$_Tset_traits@HU?$less@H@std@@V?$allocator@H@2@$0A@@std@@@std@@QAE?AU?$pair@Viterator@?$_Tree@V?$_Tset_traits@HU?$less@H@std@@V?$allocator@H@2@$0A@@std@@@std@@_N@2@ABH@Z 00417cc0 f i tile_grid.obj
 0001:00016dc0       ?erase@?$_Tree@V?$_Tset_traits@HU?$less@H@std@@V?$allocator@H@2@$0A@@std@@@std@@QAEIABH@Z 00417dc0 f i tile_grid.obj
 0001:00016e20       ?push_back@?$vector@UTileDesc@Pegas@@V?$allocator@UTileDesc@Pegas@@@std@@@std@@QAEXABUTileDesc@Pegas@@@Z 00417e20 f i tile_grid.obj
 0001:00016ec0       ??1?$vector@V?$set@HU?$less@H@std@@V?$allocator@H@2@@std@@V?$allocator@V?$set@HU?$less@H@std@@V?$allocator@H@2@@std@@@2@@std@@QAE@XZ 00417ec0 f i tile_grid.obj
 0001:00016f40       ?push_back@?$vector@V?$set@HU?$less@H@std@@V?$allocator@H@2@@std@@V?$allocator@V?$set@HU?$less@H@std@@V?$allocator@H@2@@std@@@2@@std@@QAEXABV?$set@HU?$less@H@std@@V?$allocator@H@2@@2@@Z 00417f40 f i tile_grid.obj
 0001:00016fb0       ?_Insert@?$_Tree@V?$_Tset_traits@HU?$less@H@std@@V?$allocator@H@2@$0A@@std@@@std@@IAE?AViterator@12@_NPAU_Node@?$_Tree_nod@V?$_Tset_traits@HU?$less@H@std@@V?$allocator@H@2@$0A@@std@@@2@ABH@Z 00417fb0 f i tile_grid.obj
 0001:00017200       ?insert@?$vector@UTileDesc@Pegas@@V?$allocator@UTileDesc@Pegas@@@std@@@std@@QAE?AV?$_Vector_iterator@UTileDesc@Pegas@@V?$allocator@UTileDesc@Pegas@@@std@@@2@V?$_Vector_const_iterator@UTileDesc@Pegas@@V?$allocator@UTileDesc@Pegas@@@std@@@2@ABUTileDesc@Pegas@@@Z 00418200 f i tile_grid.obj
 0001:000172d0       ?insert@?$vector@V?$set@HU?$less@H@std@@V?$allocator@H@2@@std@@V?$allocator@V?$set@HU?$less@H@std@@V?$allocator@H@2@@std@@@2@@std@@QAE?AV?$_Vector_iterator@V?$set@HU?$less@H@std@@V?$allocator@H@2@@std@@V?$allocator@V?$set@HU?$less@H@std@@V?$allocator@H@2@@std@@@2@@2@V?$_Vector_const_iterator@V?$set@HU?$less@H@std@@V?$allocator@H@2@@std@@V?$allocator@V?$set@HU?$less@H@std@@V?$allocator@H@2@@std@@@2@@2@ABV?$set@HU?$less@H@std@@V?$allocator@H@2@@2@@Z 004182d0 f i tile_grid.obj
 0001:00017380       ?_Eqrange@?$_Tree@V?$_Tset_traits@HU?$less@H@std@@V?$allocator@H@2@$0A@@std@@@std@@IAE?AU?$pair@Viterator@?$_Tree@V?$_Tset_traits@HU?$less@H@std@@V?$allocator@H@2@$0A@@std@@@std@@V123@@2@ABH@Z 00418380 f i tile_grid.obj
 0001:00017410       ?_Buynode@?$_Tree@V?$_Tset_traits@HU?$less@H@std@@V?$allocator@H@2@$0A@@std@@@std@@IAEPAU_Node@?$_Tree_nod@V?$_Tset_traits@HU?$less@H@std@@V?$allocator@H@2@$0A@@std@@@2@PAU342@00ABHD@Z 00418410 f i tile_grid.obj
 0001:00017450       ?_Insert_n@?$vector@UTileDesc@Pegas@@V?$allocator@UTileDesc@Pegas@@@std@@@std@@IAEXV?$_Vector_const_iterator@UTileDesc@Pegas@@V?$allocator@UTileDesc@Pegas@@@std@@@2@IABUTileDesc@Pegas@@@Z 00418450 f i tile_grid.obj
 0001:000176b0       ?allocate@?$allocator@UTileDesc@Pegas@@@std@@QAEPAUTileDesc@Pegas@@I@Z 004186b0 f i tile_grid.obj
 0001:00017710       ?_Insert_n@?$vector@V?$set@HU?$less@H@std@@V?$allocator@H@2@@std@@V?$allocator@V?$set@HU?$less@H@std@@V?$allocator@H@2@@std@@@2@@std@@IAEXV?$_Vector_const_iterator@V?$set@HU?$less@H@std@@V?$allocator@H@2@@std@@V?$allocator@V?$set@HU?$less@H@std@@V?$allocator@H@2@@std@@@2@@2@IABV?$set@HU?$less@H@std@@V?$allocator@H@2@@2@@Z 00418710 f i tile_grid.obj
 0001:000179a0       ?_Xlen@?$vector@UTunnel@GameWorld@Pegas@@V?$allocator@UTunnel@GameWorld@Pegas@@@std@@@std@@KAXXZ 004189a0 f i game_world.obj
 0001:000179a0       ?_Xlen@?$vector@V?$ptr@VCharacter@Pegas@@@Pegas@@V?$allocator@V?$ptr@VCharacter@Pegas@@@Pegas@@@std@@@std@@KAXXZ 004189a0 f i game_world.obj
 0001:000179a0       ?_Xlen@?$vector@UTileDesc@Pegas@@V?$allocator@UTileDesc@Pegas@@@std@@@std@@KAXXZ 004189a0 f i tile_grid.obj
 0001:000179a0       ?_Xlen@?$vector@HV?$allocator@H@std@@@std@@KAXXZ 004189a0 f i game_ai.obj
 0001:000179a0       ?_Xlen@?$vector@V?$set@HU?$less@H@std@@V?$allocator@H@2@@std@@V?$allocator@V?$set@HU?$less@H@std@@V?$allocator@H@2@@std@@@2@@std@@KAXXZ 004189a0 f i tile_grid.obj
 0001:00017a20       ?allocate@?$allocator@V?$set@HU?$less@H@std@@V?$allocator@H@2@@std@@@std@@QAEPAV?$set@HU?$less@H@std@@V?$allocator@H@2@@2@I@Z 00418a20 f i tile_grid.obj
 0001:00017a80       ?_Buynode@?$list@VVector3@Pegas@@V?$allocator@VVector3@Pegas@@@std@@@std@@IAEPAU_Node@?$_List_nod@VVector3@Pegas@@V?$allocator@VVector3@Pegas@@@std@@@2@PAU342@0ABVVector3@Pegas@@@Z 00418a80 f i tile_grid.obj
 0001:00017ac0       ?_Incsize@?$list@VVector3@Pegas@@V?$allocator@VVector3@Pegas@@@std@@@std@@IAEXI@Z 00418ac0 f i tile_grid.obj
 0001:00017b60       ??0?$_Tree@V?$_Tset_traits@HU?$less@H@std@@V?$allocator@H@2@$0A@@std@@@std@@QAE@ABV01@@Z 00418b60 f i tile_grid.obj
 0001:00017c10       ?_Dec@const_iterator@?$_Tree@V?$_Tset_traits@HU?$less@H@std@@V?$allocator@H@2@$0A@@std@@@std@@QAEXXZ 00418c10 f i tile_grid.obj
 0001:00017ca0       ?_Copy@?$_Tree@V?$_Tset_traits@HU?$less@H@std@@V?$allocator@H@2@$0A@@std@@@std@@IAEXABV12@@Z 00418ca0 f i tile_grid.obj
 0001:00017d10       ?_Copy@?$_Tree@V?$_Tset_traits@HU?$less@H@std@@V?$allocator@H@2@$0A@@std@@@std@@IAEPAU_Node@?$_Tree_nod@V?$_Tset_traits@HU?$less@H@std@@V?$allocator@H@2@$0A@@std@@@2@PAU342@0@Z 00418d10 f i tile_grid.obj
 0001:00017dd0       ??$_Distance@Viterator@?$_Tree@V?$_Tset_traits@HU?$less@H@std@@V?$allocator@H@2@$0A@@std@@@std@@I@std@@YAXViterator@?$_Tree@V?$_Tset_traits@HU?$less@H@std@@V?$allocator@H@2@$0A@@std@@@0@0AAI@Z 00418dd0 f i tile_grid.obj
 0001:00017e20       ??$_Umove@PAUTileDesc@Pegas@@@?$vector@UTileDesc@Pegas@@V?$allocator@UTileDesc@Pegas@@@std@@@std@@IAEPAUTileDesc@Pegas@@PAU23@00@Z 00418e20 f i tile_grid.obj
 0001:00017e50       ??$fill@PAUTileDesc@Pegas@@U12@@std@@YAXPAUTileDesc@Pegas@@0ABU12@@Z 00418e50 f i tile_grid.obj
 0001:00017e80       ??$_Umove@PAV?$set@HU?$less@H@std@@V?$allocator@H@2@@std@@@?$vector@V?$set@HU?$less@H@std@@V?$allocator@H@2@@std@@V?$allocator@V?$set@HU?$less@H@std@@V?$allocator@H@2@@std@@@2@@std@@IAEPAV?$set@HU?$less@H@std@@V?$allocator@H@2@@1@PAV21@00@Z 00418e80 f i tile_grid.obj
 0001:00017eb0       ??$_Unchecked_move_backward@PAV?$set@HU?$less@H@std@@V?$allocator@H@2@@std@@PAV12@@stdext@@YAPAV?$set@HU?$less@H@std@@V?$allocator@H@2@@std@@PAV12@00@Z 00418eb0 f i tile_grid.obj
 0001:00017ef0       ??$_Uninit_fill_n@PAUTileDesc@Pegas@@IU12@V?$allocator@UTileDesc@Pegas@@@std@@@std@@YAXPAUTileDesc@Pegas@@IABU12@AAV?$allocator@UTileDesc@Pegas@@@0@U_Nonscalar_ptr_iterator_tag@0@U_Range_checked_iterator_tag@0@@Z 00418ef0 f i tile_grid.obj
 0001:00017f20       ??$_Uninit_fill_n@PAV?$set@HU?$less@H@std@@V?$allocator@H@2@@std@@IV12@V?$allocator@V?$set@HU?$less@H@std@@V?$allocator@H@2@@std@@@2@@std@@YAXPAV?$set@HU?$less@H@std@@V?$allocator@H@2@@0@IABV10@AAV?$allocator@V?$set@HU?$less@H@std@@V?$allocator@H@2@@std@@@0@U_Nonscalar_ptr_iterator_tag@0@U_Range_checked_iterator_tag@0@@Z 00418f20 f i tile_grid.obj
 0001:00017fc0       ??$_Destroy_range@V?$allocator@V?$set@HU?$less@H@std@@V?$allocator@H@2@@std@@@std@@@std@@YAXPAV?$set@HU?$less@H@std@@V?$allocator@H@2@@0@0AAV?$allocator@V?$set@HU?$less@H@std@@V?$allocator@H@2@@std@@@0@U_Nonscalar_ptr_iterator_tag@0@@Z 00418fc0 f i tile_grid.obj
 0001:00018030       ??$_Fill@PAV?$set@HU?$less@H@std@@V?$allocator@H@2@@std@@V12@@std@@YAXPAV?$set@HU?$less@H@std@@V?$allocator@H@2@@0@0ABV10@@Z 00419030 f i tile_grid.obj
 0001:00018070       ??$_Copy_backward_opt@PAUTileDesc@Pegas@@PAU12@@std@@YAPAUTileDesc@Pegas@@PAU12@00Urandom_access_iterator_tag@0@U_Nonscalar_ptr_iterator_tag@0@U_Range_checked_iterator_tag@0@@Z 00419070 f i tile_grid.obj
 0001:000180d0       ??$_Uninit_move@PAV?$set@HU?$less@H@std@@V?$allocator@H@2@@std@@PAV12@V?$allocator@V?$set@HU?$less@H@std@@V?$allocator@H@2@@std@@@2@@std@@YAPAV?$set@HU?$less@H@std@@V?$allocator@H@2@@0@PAV10@00AAV?$allocator@V?$set@HU?$less@H@std@@V?$allocator@H@2@@std@@@0@U_Swap_move_tag@0@U_Range_checked_iterator_tag@0@@Z 004190d0 f i tile_grid.obj
 0001:000181e0       ??$_Move_backward_opt@PAV?$set@HU?$less@H@std@@V?$allocator@H@2@@std@@PAV12@Uforward_iterator_tag@2@@std@@YAPAV?$set@HU?$less@H@std@@V?$allocator@H@2@@0@PAV10@00Uforward_iterator_tag@0@U_Swap_move_tag@0@U_Range_checked_iterator_tag@0@@Z 004191e0 f i tile_grid.obj
 0001:00018280       ??_G?$set@HU?$less@H@std@@V?$allocator@H@2@@std@@QAEPAXI@Z 00419280 f i tile_grid.obj
 0001:000182a0       ??$_Uninit_copy@PAUTileDesc@Pegas@@PAU12@V?$allocator@UTileDesc@Pegas@@@std@@@std@@YAPAUTileDesc@Pegas@@PAU12@00AAV?$allocator@UTileDesc@Pegas@@@0@U_Nonscalar_ptr_iterator_tag@0@U_Range_checked_iterator_tag@0@@Z 004192a0 f i tile_grid.obj
 0001:000182e0       ??1?$set@HU?$less@H@std@@V?$allocator@H@2@@std@@QAE@XZ 004192e0 f i tile_grid.obj
 0001:00018340       ??0?$_Tree@V?$_Tset_traits@HU?$less@H@std@@V?$allocator@H@2@$0A@@std@@@std@@QAE@ABU?$less@H@1@ABV?$allocator@H@1@@Z 00419340 f i tile_grid.obj
 0001:000183d0       ?_Max@?$_Tree@V?$_Tset_traits@HU?$less@H@std@@V?$allocator@H@2@$0A@@std@@@std@@KAPAU_Node@?$_Tree_nod@V?$_Tset_traits@HU?$less@H@std@@V?$allocator@H@2@$0A@@std@@@2@PAU342@@Z 004193d0 f i tile_grid.obj
 0001:000183f0       ?_Lrotate@?$_Tree@V?$_Tset_traits@HU?$less@H@std@@V?$allocator@H@2@$0A@@std@@@std@@IAEXPAU_Node@?$_Tree_nod@V?$_Tset_traits@HU?$less@H@std@@V?$allocator@H@2@$0A@@std@@@2@@Z 004193f0 f i tile_grid.obj
 0001:00018440       ?_Rrotate@?$_Tree@V?$_Tset_traits@HU?$less@H@std@@V?$allocator@H@2@$0A@@std@@@std@@IAEXPAU_Node@?$_Tree_nod@V?$_Tset_traits@HU?$less@H@std@@V?$allocator@H@2@$0A@@std@@@2@@Z 00419440 f i tile_grid.obj
 0001:000184a0       ?erase@?$_Tree@V?$_Tset_traits@HU?$less@H@std@@V?$allocator@H@2@$0A@@std@@@std@@QAE?AViterator@12@Vconst_iterator@12@@Z 004194a0 f i tile_grid.obj
 0001:00018780       ?_Min@?$_Tree@V?$_Tset_traits@HU?$less@H@std@@V?$allocator@H@2@$0A@@std@@@std@@KAPAU_Node@?$_Tree_nod@V?$_Tset_traits@HU?$less@H@std@@V?$allocator@H@2@$0A@@std@@@2@PAU342@@Z 00419780 f i tile_grid.obj
 0001:000187a0       ?_Inc@const_iterator@?$_Tree@V?$_Tset_traits@HU?$less@H@std@@V?$allocator@H@2@$0A@@std@@@std@@QAEXXZ 004197a0 f i tile_grid.obj
 0001:00018810       ??Econst_iterator@?$_Tree@V?$_Tset_traits@HU?$less@H@std@@V?$allocator@H@2@$0A@@std@@@std@@QAEAAV012@XZ 00419810 f i tile_grid.obj
 0001:00018810       ??Eiterator@?$_Tree@V?$_Tset_traits@HU?$less@H@std@@V?$allocator@H@2@$0A@@std@@@std@@QAEAAV012@XZ 00419810 f i tile_grid.obj
 0001:00018820       ?erase@?$_Tree@V?$_Tset_traits@HU?$less@H@std@@V?$allocator@H@2@$0A@@std@@@std@@QAE?AViterator@12@Vconst_iterator@12@0@Z 00419820 f i tile_grid.obj
 0001:000188f0       ?_Tidy@?$_Tree@V?$_Tset_traits@HU?$less@H@std@@V?$allocator@H@2@$0A@@std@@@std@@IAEXXZ 004198f0 f i tile_grid.obj
 0001:00018930       ??0?$set@HU?$less@H@std@@V?$allocator@H@2@@std@@QAE@XZ 00419930 f i tile_grid.obj
 0001:00018950       ?end@?$_Tree@V?$_Tmap_traits@HPAVStringResource@Pegas@@U?$less@H@std@@V?$allocator@U?$pair@$$CBHPAVStringResource@Pegas@@@std@@@4@$0A@@std@@@std@@QAE?AViterator@12@XZ 00419950 f i game_app.obj
 0001:00018950       ?end@?$_Tree@V?$_Tset_traits@HU?$less@H@std@@V?$allocator@H@2@$0A@@std@@@std@@QAE?AViterator@12@XZ 00419950 f i tile_grid.obj
 0001:00018950       ?end@?$_Tree@V?$_Tmap_traits@HPAVTextureResource@Pegas@@U?$less@H@std@@V?$allocator@U?$pair@$$CBHPAVTextureResource@Pegas@@@std@@@4@$0A@@std@@@std@@QAE?AViterator@12@XZ 00419950 f i game_app.obj
 0001:00018950       ?end@?$_Tree@V?$_Tmap_traits@HPAVSoundResource@Pegas@@U?$less@H@std@@V?$allocator@U?$pair@$$CBHPAVSoundResource@Pegas@@@std@@@4@$0A@@std@@@std@@QAE?AViterator@12@XZ 00419950 f i game_app.obj
 0001:00018950       ?end@?$_Tree@V?$_Tmap_traits@HPAVFontResource@Pegas@@U?$less@H@std@@V?$allocator@U?$pair@$$CBHPAVFontResource@Pegas@@@std@@@4@$0A@@std@@@std@@QAE?AViterator@12@XZ 00419950 f i game_app.obj
 0001:00018970       ?_Isnil@?$_Tree@V?$_Tset_traits@HU?$less@H@std@@V?$allocator@H@2@$0A@@std@@@std@@KAAADPAU_Node@?$_Tree_nod@V?$_Tset_traits@HU?$less@H@std@@V?$allocator@H@2@$0A@@std@@@2@@Z 00419970 f i tile_grid.obj
 0001:00018980       ?getListenerName@EditorLayer@Pegas@@UAE?AV?$basic_string@DU?$char_traits@D@std@@V?$allocator@D@2@@std@@XZ 00419980 f i editor.obj
 0001:000189b0       ??0EditorLayer@Pegas@@QAE@PAVIPlatformContext@1@@Z 004199b0 f   editor.obj
 0001:00018a90       ??_GEditorLayer@Pegas@@UAEPAXI@Z 00419a90 f i editor.obj
 0001:00018a90       ??_EEditorLayer@Pegas@@UAEPAXI@Z 00419a90 f i  CIL library: CIL module
 0001:00018ab0       ??1EditorLayer@Pegas@@UAE@XZ 00419ab0 f i editor.obj
 0001:00018b70       ?create@EditorLayer@Pegas@@UAEXPAVIPlatformContext@2@@Z 00419b70 f   editor.obj
 0001:00019370       ?destroy@GlobalPause@Pegas@@UAEXPAVIPlatformContext@2@@Z 0041a370 f   pacman_game_screens.obj
 0001:00019370       ?destroy@EditorLayer@Pegas@@UAEXPAVIPlatformContext@2@@Z 0041a370 f   editor.obj
 0001:00019370       ?destroy@MainMenuLayer@Pegas@@UAEXPAVIPlatformContext@2@@Z 0041a370 f   pacman_game_screens.obj
 0001:000193b0       ?handleEvent@EditorLayer@Pegas@@UAEXV?$ptr@UEvent@Pegas@@@2@@Z 0041a3b0 f   editor.obj
 0001:00019a10       ?onKeyDown@EditorLayer@Pegas@@UAEXHH@Z 0041aa10 f   editor.obj
 0001:0001a380       ?onKeyUp@EditorLayer@Pegas@@UAEXHH@Z 0041b380 f   editor.obj
 0001:0001a3d0       ?onMouseButtonDown@EditorLayer@Pegas@@UAEXHMMH@Z 0041b3d0 f   editor.obj
 0001:0001aa20       ?render@EditorLayer@Pegas@@UAEXPAVIPlatformContext@2@@Z 0041ba20 f   editor.obj
 0001:0001acb0       ?enter@Editor@Pegas@@UAEXPAVIPlatformContext@2@@Z 0041bcb0 f   editor.obj
 0001:0001aeb0       ??4?$basic_string@_WU?$char_traits@_W@std@@V?$allocator@_W@2@@std@@QAEAAV01@PB_W@Z 0041beb0 f i editor.obj
 0001:0001aee0       ?append@?$basic_string@_WU?$char_traits@_W@std@@V?$allocator@_W@2@@std@@QAEAAV12@PB_WI@Z 0041bee0 f i editor.obj
 0001:0001b000       ??_EEditorLayer@Pegas@@WCM@AEPAXI@Z 0041c000 f i editor.obj
 0001:0001b010       ??_EEditorLayer@Pegas@@WDA@AEPAXI@Z 0041c010 f i editor.obj
 0001:0001b020       ??_EEditorLayer@Pegas@@WFE@AEPAXI@Z 0041c020 f i editor.obj
 0001:0001b030       ??_EEditor@Pegas@@W7AEPAXI@Z 0041c030 f i editor.obj
 0001:0001b030       ??_EDefaultGameState@Pegas@@W7AEPAXI@Z 0041c030 f i editor.obj
 0001:0001b030       ??_EMainMenu@Pegas@@W7AEPAXI@Z 0041c030 f i pacman_game_screens.obj
 0001:0001b040       ??_GEvent_HUD_NewLevel@Pegas@@UAEPAXI@Z 0041c040 f i game_world.obj
 0001:0001b040       ??_GEvent_EnableCharacterControl@Pegas@@UAEPAXI@Z 0041c040 f i game_world.obj
 0001:0001b040       ??_GEvent_CharacterChangeState@Pegas@@UAEPAXI@Z 0041c040 f i game_ai.obj
 0001:0001b040       ??_EEvent_CharacterChangeState@Pegas@@UAEPAXI@Z 0041c040 f i  CIL library: CIL module
 0001:0001b040       ??_GEvent_Game_ForwardToState@Pegas@@UAEPAXI@Z 0041c040 f i game_app.obj
 0001:0001b040       ??_EEvent_HUD_ScoresChanged@Pegas@@UAEPAXI@Z 0041c040 f i  CIL library: CIL module
 0001:0001b040       ??_GEvent_CharacterKilled@Pegas@@UAEPAXI@Z 0041c040 f i game_objects.obj
 0001:0001b040       ??_EEvent_GUI_FadeOff@Pegas@@UAEPAXI@Z 0041c040 f i  CIL library: CIL module
 0001:0001b040       ??_GEvent_CharacterMoved@Pegas@@UAEPAXI@Z 0041c040 f i game_objects.obj
 0001:0001b040       ??_GEvent_CharacterMoveOn@Pegas@@UAEPAXI@Z 0041c040 f i game_objects.obj
 0001:0001b040       ??_GEvent_SuperForceOff@Pegas@@UAEPAXI@Z 0041c040 f i game_world.obj
 0001:0001b040       ??_EEvent_HUD_LivesChanged@Pegas@@UAEPAXI@Z 0041c040 f i  CIL library: CIL module
 0001:0001b040       ??_EEvent_CharacterMoveOn@Pegas@@UAEPAXI@Z 0041c040 f i  CIL library: CIL module
 0001:0001b040       ??_EEvent_CharacterKilled@Pegas@@UAEPAXI@Z 0041c040 f i  CIL library: CIL module
 0001:0001b040       ??_EEvent_Game_Pause@Pegas@@UAEPAXI@Z 0041c040 f i  CIL library: CIL module
 0001:0001b040       ??_GEvent_HUD_LevelChanged@Pegas@@UAEPAXI@Z 0041c040 f i game_world.obj
 0001:0001b040       ??_GEvent_GUI_StartFadein@Pegas@@UAEPAXI@Z 0041c040 f i game_world.obj
 0001:0001b040       ??_GEvent_CharacterStopped@Pegas@@UAEPAXI@Z 0041c040 f i game_objects.obj
 0001:0001b040       ??_EEvent_SuperForceOff@Pegas@@UAEPAXI@Z 0041c040 f i  CIL library: CIL module
 0001:0001b040       ??_GEvent_GUI_FadeOn@Pegas@@UAEPAXI@Z 0041c040 f i game_world.obj
 0001:0001b040       ??_GEvent_HUD_LivesChanged@Pegas@@UAEPAXI@Z 0041c040 f i game_world.obj
 0001:0001b040       ??_EEvent_HUD_GameOver@Pegas@@UAEPAXI@Z 0041c040 f i  CIL library: CIL module
 0001:0001b040       ??_EEvent_HUD_NewLevel@Pegas@@UAEPAXI@Z 0041c040 f i  CIL library: CIL module
 0001:0001b040       ??_GEvent_PacmanDeathComplete@Pegas@@UAEPAXI@Z 0041c040 f i game_objects.obj
 0001:0001b040       ??_EEvent@Pegas@@UAEPAXI@Z 0041c040 f i  CIL library: CIL module
 0001:0001b040       ??_GEvent@Pegas@@UAEPAXI@Z 0041c040 f i game_app.obj
 0001:0001b040       ??_GEvent_HUD_Frag@Pegas@@UAEPAXI@Z 0041c040 f i game_world.obj
 0001:0001b040       ??_GEvent_SuperForceOn@Pegas@@UAEPAXI@Z 0041c040 f i game_world.obj
 0001:0001b040       ??_EEvent_Game_ChangeState@Pegas@@UAEPAXI@Z 0041c040 f i  CIL library: CIL module
 0001:0001b040       ??_GEvent_PacmanDeath@Pegas@@UAEPAXI@Z 0041c040 f i game_world.obj
 0001:0001b040       ??_EEvent_GUI_FadeOn@Pegas@@UAEPAXI@Z 0041c040 f i  CIL library: CIL module
 0001:0001b040       ??_EEvent_CharacterStopped@Pegas@@UAEPAXI@Z 0041c040 f i  CIL library: CIL module
 0001:0001b040       ??_GEvent_HideCharacter@Pegas@@UAEPAXI@Z 0041c040 f i game_objects.obj
 0001:0001b040       ??_EEvent_PacmanSwallowedPill@Pegas@@UAEPAXI@Z 0041c040 f i  CIL library: CIL module
 0001:0001b040       ??_GEvent_PacmanSwallowedPill@Pegas@@UAEPAXI@Z 0041c040 f i game_objects.obj
 0001:0001b040       ??_EEvent_EnableCharacterControl@Pegas@@UAEPAXI@Z 0041c040 f i  CIL library: CIL module
 0001:0001b040       ??_EEvent_CharacterTonnelIn@Pegas@@UAEPAXI@Z 0041c040 f i  CIL library: CIL module
 0001:0001b040       ??_EEvent_SuperForcePreOff@Pegas@@UAEPAXI@Z 0041c040 f i  CIL library: CIL module
 0001:0001b040       ??_GEvent_CharacterStateChanged@Pegas@@UAEPAXI@Z 0041c040 f i game_objects.obj
 0001:0001b040       ??_EEvent_HUD_Frag@Pegas@@UAEPAXI@Z 0041c040 f i  CIL library: CIL module
 0001:0001b040       ??_GEvent_GUI_FadeOff@Pegas@@UAEPAXI@Z 0041c040 f i game_world.obj
 0001:0001b040       ??_EEvent_HideCharacter@Pegas@@UAEPAXI@Z 0041c040 f i  CIL library: CIL module
 0001:0001b040       ??_GEvent_HUD_GameOver@Pegas@@UAEPAXI@Z 0041c040 f i game_world.obj
 0001:0001b040       ??_GEvent_DirectionChanged@Pegas@@UAEPAXI@Z 0041c040 f i game_objects.obj
 0001:0001b040       ??_EEvent_ResetActors@Pegas@@UAEPAXI@Z 0041c040 f i  CIL library: CIL module
 0001:0001b040       ??_GEvent_Game_Pause@Pegas@@UAEPAXI@Z 0041c040 f i game_screen.obj
 0001:0001b040       ??_EEvent_CancelChangingDirection@Pegas@@UAEPAXI@Z 0041c040 f i  CIL library: CIL module
 0001:0001b040       ??_GEvent_CharacterTonnelIn@Pegas@@UAEPAXI@Z 0041c040 f i game_objects.obj
 0001:0001b040       ??_GEvent_SuperForcePreOff@Pegas@@UAEPAXI@Z 0041c040 f i game_world.obj
 0001:0001b040       ??_GEvent_Game_BackwardToPreviousState@Pegas@@UAEPAXI@Z 0041c040 f i game_app.obj
 0001:0001b040       ??_EEvent_CharacterMoved@Pegas@@UAEPAXI@Z 0041c040 f i  CIL library: CIL module
 0001:0001b040       ??_GEvent_CharacterTonnelOut@Pegas@@UAEPAXI@Z 0041c040 f i game_world.obj
 0001:0001b040       ??_GEvent_ChangeDirection@Pegas@@UAEPAXI@Z 0041c040 f i game_ai.obj
 0001:0001b040       ??_EEvent_Game_ForwardToState@Pegas@@UAEPAXI@Z 0041c040 f i  CIL library: CIL module
 0001:0001b040       ??_EEvent_PacmanDeath@Pegas@@UAEPAXI@Z 0041c040 f i  CIL library: CIL module
 0001:0001b040       ??_GEvent_HUD_GetReady@Pegas@@UAEPAXI@Z 0041c040 f i game_world.obj
 0001:0001b040       ??_EEvent_DisableCharacterControl@Pegas@@UAEPAXI@Z 0041c040 f i  CIL library: CIL module
 0001:0001b040       ??_EEvent_GUI_StartFadein@Pegas@@UAEPAXI@Z 0041c040 f i  CIL library: CIL module
 0001:0001b040       ??_GEvent_Game_Resume@Pegas@@UAEPAXI@Z 0041c040 f i pacman_game_screens.obj
 0001:0001b040       ??_GEvent_ResetActors@Pegas@@UAEPAXI@Z 0041c040 f i game_world.obj
 0001:0001b040       ??_EEvent_Game_BackwardToPreviousState@Pegas@@UAEPAXI@Z 0041c040 f i  CIL library: CIL module
 0001:0001b040       ??_EEvent_ChangeDirection@Pegas@@UAEPAXI@Z 0041c040 f i  CIL library: CIL module
 0001:0001b040       ??_EEvent_RestartGame@Pegas@@UAEPAXI@Z 0041c040 f i  CIL library: CIL module
 0001:0001b040       ??_GEvent_HUD_ScoresChanged@Pegas@@UAEPAXI@Z 0041c040 f i game_world.obj
 0001:0001b040       ??_EEvent_GUI_StartFadeout@Pegas@@UAEPAXI@Z 0041c040 f i  CIL library: CIL module
 0001:0001b040       ??_GEvent_Game_ChangeState@Pegas@@UAEPAXI@Z 0041c040 f i game_app.obj
 0001:0001b040       ??_GEvent_CancelChangingDirection@Pegas@@UAEPAXI@Z 0041c040 f i game_screen.obj
 0001:0001b040       ??_EEvent_CharacterStateChanged@Pegas@@UAEPAXI@Z 0041c040 f i  CIL library: CIL module
 0001:0001b040       ??_EEvent_DirectionChanged@Pegas@@UAEPAXI@Z 0041c040 f i  CIL library: CIL module
 0001:0001b040       ??_GEvent_GUI_StartFadeout@Pegas@@UAEPAXI@Z 0041c040 f i editor.obj
 0001:0001b040       ??_EEvent_HUD_GetReady@Pegas@@UAEPAXI@Z 0041c040 f i  CIL library: CIL module
 0001:0001b040       ??_GEvent_RestartGame@Pegas@@UAEPAXI@Z 0041c040 f i game_world.obj
 0001:0001b040       ??_EEvent_CharacterTonnelOut@Pegas@@UAEPAXI@Z 0041c040 f i  CIL library: CIL module
 0001:0001b040       ??_GEvent_DisableCharacterControl@Pegas@@UAEPAXI@Z 0041c040 f i game_world.obj
 0001:0001b040       ??_EEvent_SuperForceOn@Pegas@@UAEPAXI@Z 0041c040 f i  CIL library: CIL module
 0001:0001b040       ??_EEvent_PacmanDeathComplete@Pegas@@UAEPAXI@Z 0041c040 f i  CIL library: CIL module
 0001:0001b040       ??_EEvent_HUD_LevelChanged@Pegas@@UAEPAXI@Z 0041c040 f i  CIL library: CIL module
 0001:0001b040       ??_EEvent_Game_Resume@Pegas@@UAEPAXI@Z 0041c040 f i  CIL library: CIL module
 0001:0001b060       ?getType@Event_GUI_StartFadeout@Pegas@@UBE?AV?$basic_string@DU?$char_traits@D@std@@V?$allocator@D@2@@std@@XZ 0041c060 f i editor.obj
 0001:0001b090       ??0Event_GUI_StartFadeout@Pegas@@QAE@M@Z 0041c090 f i editor.obj
 0001:0001b110       ??1DefaultGameState@Pegas@@UAE@XZ 0041c110 f i editor.obj
 0001:0001b190       ??_GIGameState@Pegas@@UAEPAXI@Z 0041c190 f i editor.obj
 0001:0001b190       ??_EIGameState@Pegas@@UAEPAXI@Z 0041c190 f i  CIL library: CIL module
 0001:0001b1b0       ??1IGameState@Pegas@@UAE@XZ 0041c1b0 f i editor.obj
 0001:0001b1c0       ??_GDefaultGameState@Pegas@@UAEPAXI@Z 0041c1c0 f i editor.obj
 0001:0001b1c0       ??_GEditor@Pegas@@UAEPAXI@Z 0041c1c0 f i editor.obj
 0001:0001b1c0       ??_EMainMenu@Pegas@@UAEPAXI@Z 0041c1c0 f i  CIL library: CIL module
 0001:0001b1c0       ??_EEditor@Pegas@@UAEPAXI@Z 0041c1c0 f i  CIL library: CIL module
 0001:0001b1c0       ??_EDefaultGameState@Pegas@@UAEPAXI@Z 0041c1c0 f i  CIL library: CIL module
 0001:0001b1c0       ??_GMainMenu@Pegas@@UAEPAXI@Z 0041c1c0 f i pacman_game_screens.obj
 0001:0001b1e0       ??_EEditor@Pegas@@WM@AEPAXI@Z 0041c1e0 f i editor.obj
 0001:0001b1e0       ??_EMainMenu@Pegas@@WM@AEPAXI@Z 0041c1e0 f i pacman_game_screens.obj
 0001:0001b1e0       ??_EDefaultGameState@Pegas@@WM@AEPAXI@Z 0041c1e0 f i editor.obj
 0001:0001b1f0       ??$_Allocate@U_Node@?$_List_nod@V?$ptr@VBaseScreenLayer@Pegas@@@Pegas@@V?$allocator@V?$ptr@VBaseScreenLayer@Pegas@@@Pegas@@@std@@@std@@@std@@YAPAU_Node@?$_List_nod@V?$ptr@VBaseScreenLayer@Pegas@@@Pegas@@V?$allocator@V?$ptr@VBaseScreenLayer@Pegas@@@Pegas@@@std@@@0@IPAU120@@Z 0041c1f0 f i editor.obj
 0001:0001b250       ?allocate@?$allocator@U_Node@?$_List_nod@V?$ptr@VBaseScreenLayer@Pegas@@@Pegas@@V?$allocator@V?$ptr@VBaseScreenLayer@Pegas@@@Pegas@@@std@@@std@@@std@@QAEPAU_Node@?$_List_nod@V?$ptr@VBaseScreenLayer@Pegas@@@Pegas@@V?$allocator@V?$ptr@VBaseScreenLayer@Pegas@@@Pegas@@@std@@@2@I@Z 0041c250 f i editor.obj
 0001:0001b260       ?construct@?$allocator@PAU_Node@?$_List_nod@V?$ptr@VBaseScreenLayer@Pegas@@@Pegas@@V?$allocator@V?$ptr@VBaseScreenLayer@Pegas@@@Pegas@@@std@@@std@@@std@@QAEXPAPAU_Node@?$_List_nod@V?$ptr@VBaseScreenLayer@Pegas@@@Pegas@@V?$allocator@V?$ptr@VBaseScreenLayer@Pegas@@@Pegas@@@std@@@2@ABQAU342@@Z 0041c260 f i editor.obj
 0001:0001b270       ?_Buynode@?$list@V?$ptr@VFile@Pegas@@@Pegas@@V?$allocator@V?$ptr@VFile@Pegas@@@Pegas@@@std@@@std@@IAEPAU_Node@?$_List_nod@V?$ptr@VFile@Pegas@@@Pegas@@V?$allocator@V?$ptr@VFile@Pegas@@@Pegas@@@std@@@2@XZ 0041c270 f i pacman.obj
 0001:0001b270       ?_Buynode@?$list@V?$ptr@VProcess@Pegas@@@Pegas@@V?$allocator@V?$ptr@VProcess@Pegas@@@Pegas@@@std@@@std@@IAEPAU_Node@?$_List_nod@V?$ptr@VProcess@Pegas@@@Pegas@@V?$allocator@V?$ptr@VProcess@Pegas@@@Pegas@@@std@@@2@XZ 0041c270 f i game_screen.obj
 0001:0001b270       ?_Buynode@?$list@V?$ptr@VBaseScreenLayer@Pegas@@@Pegas@@V?$allocator@V?$ptr@VBaseScreenLayer@Pegas@@@Pegas@@@std@@@std@@IAEPAU_Node@?$_List_nod@V?$ptr@VBaseScreenLayer@Pegas@@@Pegas@@V?$allocator@V?$ptr@VBaseScreenLayer@Pegas@@@Pegas@@@std@@@2@XZ 0041c270 f i editor.obj
 0001:0001b290       ??_EBaseScreenLayer@Pegas@@UAEPAXI@Z 0041c290 f i  CIL library: CIL module
 0001:0001b290       ??_GBaseScreenLayer@Pegas@@UAEPAXI@Z 0041c290 f i editor.obj
 0001:0001b2f0       ?deallocate@?$allocator@PAH@std@@QAEXPAPAHI@Z 0041c2f0 f i pacman.obj
 0001:0001b2f0       ?deallocate@?$allocator@V?$ptr@VWidget@Pegas@@@Pegas@@@std@@QAEXPAV?$ptr@VWidget@Pegas@@@Pegas@@I@Z 0041c2f0 f i editor.obj
 0001:0001b2f0       ?deallocate@?$allocator@PAV?$ptr@UEvent@Pegas@@@Pegas@@@std@@QAEXPAPAV?$ptr@UEvent@Pegas@@@Pegas@@I@Z 0041c2f0 f i pacman.obj
 0001:0001b2f0       ?deallocate@?$allocator@U_Node@?$_Tree_nod@V?$_Tmap_traits@HV?$ptr@VProcess@Pegas@@@Pegas@@U?$less@H@std@@V?$allocator@U?$pair@$$CBHV?$ptr@VProcess@Pegas@@@Pegas@@@std@@@4@$0A@@std@@@std@@@std@@QAEXPAU_Node@?$_Tree_nod@V?$_Tmap_traits@HV?$ptr@VProcess@Pegas@@@Pegas@@U?$less@H@std@@V?$allocator@U?$pair@$$CBHV?$ptr@VProcess@Pegas@@@Pegas@@@std@@@4@$0A@@std@@@2@I@Z 0041c2f0 f i pacman.obj
 0001:0001b2f0       ?deallocate@?$allocator@U_Node@?$_Tree_nod@V?$_Tset_traits@PAVIEventListener@Pegas@@U?$less@PAVIEventListener@Pegas@@@std@@V?$allocator@PAVIEventListener@Pegas@@@4@$0A@@std@@@std@@@std@@QAEXPAU_Node@?$_Tree_nod@V?$_Tset_traits@PAVIEventListener@Pegas@@U?$less@PAVIEventListener@Pegas@@@std@@V?$allocator@PAVIEventListener@Pegas@@@4@$0A@@std@@@2@I@Z 0041c2f0 f i pacman.obj
 0001:0001b2f0       ?deallocate@?$allocator@U_Node@?$_Tree_nod@V?$_Tmap_traits@V?$basic_string@DU?$char_traits@D@std@@V?$allocator@D@2@@std@@V?$ptr@V?$set@PAVIEventListener@Pegas@@U?$less@PAVIEventListener@Pegas@@@std@@V?$allocator@PAVIEventListener@Pegas@@@4@@std@@@Pegas@@U?$less@V?$basic_string@DU?$char_traits@D@std@@V?$allocator@D@2@@std@@@2@V?$allocator@U?$pair@$$CBV?$basic_string@DU?$char_traits@D@std@@V?$allocator@D@2@@std@@V?$ptr@V?$set@PAVIEventListener@Pegas@@U?$less@PAVIEventListener@Pegas@@@std@@V?$allocator@PAVIEventListener@Pegas@@@4@@std@@@Pegas@@@std@@@2@$0A@@std@@@std@@@std@@QAEXPAU_Node@?$_Tree_nod@V?$_Tmap_traits@V?$basic_string@DU?$char_traits@D@std@@V?$allocator@D@2@@std@@V?$ptr@V?$set@PAVIEventListener@Pegas@@U?$less@PAVIEventListener@Pegas@@@std@@V?$allocator@PAVIEventListener@Pegas@@@4@@std@@@Pegas@@U?$less@V?$basic_string@DU?$char_traits@D@std@@V?$allocator@D@2@@std@@@2@V?$allocator@U?$pair@$$CBV?$basic_string@DU?$char_traits@D@std@@V?$allocator@D@2@@std@@V?$ptr@V?$set@PAVIEventListener@Pegas@@U?$less@PAVIEventListener@Pegas@@@std@@V?$allocator@PAVIEventListener@Pegas@@@4@@std@@@Pegas@@@std@@@2@$0A@@std@@@2@I@Z 0041c2f0 f i pacman.obj
 0001:0001b2f0       ?deallocate@?$allocator@U_Node@?$_List_nod@V?$ptr@VBaseScreenLayer@Pegas@@@Pegas@@V?$allocator@V?$ptr@VBaseScreenLayer@Pegas@@@Pegas@@@std@@@std@@@std@@QAEXPAU_Node@?$_List_nod@V?$ptr@VBaseScreenLayer@Pegas@@@Pegas@@V?$allocator@V?$ptr@VBaseScreenLayer@Pegas@@@Pegas@@@std@@@2@I@Z 0041c2f0 f i editor.obj
 0001:0001b300       ??0DefaultGameState@Pegas@@QAE@ABH@Z 0041c300 f i editor.obj
 0001:0001b390       ??1GUILayer@Pegas@@UAE@XZ  0041c390 f i editor.obj
 0001:0001b420       ?setActivity@IScreenLayer@Pegas@@QAEX_N@Z 0041c420 f i editor.obj
 0001:0001b430       ??0BaseScreenLayer@Pegas@@QAE@ABV?$basic_string@_WU?$char_traits@_W@std@@V?$allocator@_W@2@@std@@ABH_N@Z 0041c430 f i editor.obj
 0001:0001b4f0       ?update@?$FaderProcess@UEvent_GUI_StartFadein@Pegas@@UEvent_GUI_FadeinComplete@2@@Pegas@@UAEXH@Z 0041c4f0 f i game_world.obj
 0001:0001b4f0       ?create@BaseScreenLayer@Pegas@@UAEXPAVIPlatformContext@2@@Z 0041c4f0 f i editor.obj
 0001:0001b4f0       ?create@EllipseTexture@Pegas@@UAEXABUIntResourceCode@2@@Z 0041c4f0 f i pacman.obj
 0001:0001b4f0       ?update@ChangeStateTask@Pegas@@UAEXH@Z 0041c4f0 f i game_world.obj
 0001:0001b4f0       ?onActivate@IScreenLayer@Pegas@@UAEX_N@Z 0041c4f0 f i editor.obj
 0001:0001b4f0       ?destroy@BaseScreenLayer@Pegas@@UAEXPAVIPlatformContext@2@@Z 0041c4f0 f i editor.obj
 0001:0001b4f0       ?render@BaseScreenLayer@Pegas@@UAEXPAVIPlatformContext@2@@Z 0041c4f0 f i editor.obj
 0001:0001b500       ??_EBaseScreenLayer@Pegas@@WCM@AEPAXI@Z 0041c500 f i editor.obj
 0001:0001b510       ??_EBaseScreenLayer@Pegas@@WDA@AEPAXI@Z 0041c510 f i editor.obj
 0001:0001b520       ??_GIScreenLayer@Pegas@@UAEPAXI@Z 0041c520 f i editor.obj
 0001:0001b520       ??_EIScreenLayer@Pegas@@UAEPAXI@Z 0041c520 f i  CIL library: CIL module
 0001:0001b570       ??1IScreenLayer@Pegas@@UAE@XZ 0041c570 f i editor.obj
 0001:0001b5b0       ??_GIKeyboardController@Pegas@@UAEPAXI@Z 0041c5b0 f i editor.obj
 0001:0001b5b0       ??_EIKeyboardController@Pegas@@UAEPAXI@Z 0041c5b0 f i  CIL library: CIL module
 0001:0001b5d0       ??1IKeyboardController@Pegas@@UAE@XZ 0041c5d0 f i editor.obj
 0001:0001b5e0       ??_EIMouseController@Pegas@@UAEPAXI@Z 0041c5e0 f i  CIL library: CIL module
 0001:0001b5e0       ??_GIMouseController@Pegas@@UAEPAXI@Z 0041c5e0 f i editor.obj
 0001:0001b600       ??1IMouseController@Pegas@@UAE@XZ 0041c600 f i editor.obj
 0001:0001b610       ??1BaseScreenLayer@Pegas@@UAE@XZ 0041c610 f i editor.obj
 0001:0001b650       ?update@BaseScreenLayer@Pegas@@UAEXPAVIPlatformContext@2@HH@Z 0041c650 f i editor.obj
 0001:0001b660       ??_EGUILayer@Pegas@@WCM@AEPAXI@Z 0041c660 f i editor.obj
 0001:0001b670       ??_GGUILayer@Pegas@@UAEPAXI@Z 0041c670 f i editor.obj
 0001:0001b670       ??_EGUILayer@Pegas@@UAEPAXI@Z 0041c670 f i  CIL library: CIL module
 0001:0001b690       ??_EGUILayer@Pegas@@WDA@AEPAXI@Z 0041c690 f i editor.obj
 0001:0001b6a0       ?max_size@?$vector@V?$ptr@VWidget@Pegas@@@Pegas@@V?$allocator@V?$ptr@VWidget@Pegas@@@Pegas@@@std@@@std@@QBEIXZ 0041c6a0 f i editor.obj
 0001:0001b6b0       ?_Xlen@?$vector@V?$ptr@VWidget@Pegas@@@Pegas@@V?$allocator@V?$ptr@VWidget@Pegas@@@Pegas@@@std@@@std@@KAXXZ 0041c6b0 f i editor.obj
 0001:0001b730       ?allocate@?$allocator@V?$ptr@VWidget@Pegas@@@Pegas@@@std@@QAEPAV?$ptr@VWidget@Pegas@@@Pegas@@I@Z 0041c730 f i editor.obj
 0001:0001b740       ??0?$vector@UTileDesc@Pegas@@V?$allocator@UTileDesc@Pegas@@@std@@@std@@QAE@XZ 0041c740 f i tile_grid.obj
 0001:0001b740       ??0?$vector@V?$ptr@VWidget@Pegas@@@Pegas@@V?$allocator@V?$ptr@VWidget@Pegas@@@Pegas@@@std@@@std@@QAE@XZ 0041c740 f i editor.obj
 0001:0001b740       ??0?$vector@V?$ptr@VCharacter@Pegas@@@Pegas@@V?$allocator@V?$ptr@VCharacter@Pegas@@@Pegas@@@std@@@std@@QAE@XZ 0041c740 f i game_world.obj
 0001:0001b740       ??0?$vector@V?$set@HU?$less@H@std@@V?$allocator@H@2@@std@@V?$allocator@V?$set@HU?$less@H@std@@V?$allocator@H@2@@std@@@2@@std@@QAE@XZ 0041c740 f i tile_grid.obj
 0001:0001b740       ??0?$vector@UTunnel@GameWorld@Pegas@@V?$allocator@UTunnel@GameWorld@Pegas@@@std@@@std@@QAE@XZ 0041c740 f i game_world.obj
 0001:0001b740       ??0?$vector@HV?$allocator@H@std@@@std@@QAE@XZ 0041c740 f i game_ai.obj
 0001:0001b7a0       ??$_Ptr_cat@PAV?$ptr@VWidget@Pegas@@@Pegas@@PAV12@@std@@YA?AU_Nonscalar_ptr_iterator_tag@0@AAPAV?$ptr@VWidget@Pegas@@@Pegas@@0@Z 0041c7a0 f i editor.obj
 0001:0001b7b0       ?_Destroy@?$vector@V?$ptr@VWidget@Pegas@@@Pegas@@V?$allocator@V?$ptr@VWidget@Pegas@@@Pegas@@@std@@@std@@IAEXPAV?$ptr@VWidget@Pegas@@@Pegas@@0@Z 0041c7b0 f i editor.obj
 0001:0001b7d0       ??0GUILayer@Pegas@@QAE@ABH_N@Z 0041c7d0 f i editor.obj
 0001:0001b8b0       ?getListenerName@GameVerticalLayer@Pegas@@UAE?AV?$basic_string@DU?$char_traits@D@std@@V?$allocator@D@2@@std@@XZ 0041c8b0 f i game_screen.obj
 0001:0001b8e0       ?getListenerName@GameScreen@Pegas@@UAE?AV?$basic_string@DU?$char_traits@D@std@@V?$allocator@D@2@@std@@XZ 0041c8e0 f i game_screen.obj
 0001:0001b910       ?getType@Event_CancelChangingDirection@Pegas@@UBE?AV?$basic_string@DU?$char_traits@D@std@@V?$allocator@D@2@@std@@XZ 0041c910 f i game_screen.obj
 0001:0001b940       ??0GameVerticalLayer@Pegas@@QAE@XZ 0041c940 f   game_screen.obj
 0001:0001ba90       ??_EGameVerticalLayer@Pegas@@UAEPAXI@Z 0041ca90 f i  CIL library: CIL module
 0001:0001ba90       ??_GGameVerticalLayer@Pegas@@UAEPAXI@Z 0041ca90 f i game_screen.obj
 0001:0001bab0       ??1GameVerticalLayer@Pegas@@UAE@XZ 0041cab0 f i game_screen.obj
 0001:0001bbc0       ?create@GameVerticalLayer@Pegas@@UAEXPAVIPlatformContext@2@@Z 0041cbc0 f   game_screen.obj
 0001:0001bfb0       ?destroy@GameVerticalLayer@Pegas@@UAEXPAVIPlatformContext@2@@Z 0041cfb0 f   game_screen.obj
 0001:0001bff0       ?update@GameVerticalLayer@Pegas@@UAEXPAVIPlatformContext@2@HH@Z 0041cff0 f   game_screen.obj
 0001:0001c1e0       ?render@GameVerticalLayer@Pegas@@UAEXPAVIPlatformContext@2@@Z 0041d1e0 f   game_screen.obj
 0001:0001c380       ?onKeyDown@GameVerticalLayer@Pegas@@UAEXHH@Z 0041d380 f   game_screen.obj
 0001:0001c750       ?onKeyUp@GameVerticalLayer@Pegas@@UAEXHH@Z 0041d750 f   game_screen.obj
 0001:0001c870       ?handleEvent@GameVerticalLayer@Pegas@@UAEXV?$ptr@UEvent@Pegas@@@2@@Z 0041d870 f   game_screen.obj
 0001:0001cc80       ??_EGameScreen@Pegas@@UAEPAXI@Z 0041dc80 f i  CIL library: CIL module
 0001:0001cc80       ??_GGameScreen@Pegas@@UAEPAXI@Z 0041dc80 f i game_screen.obj
 0001:0001ccb0       ?enter@GameScreen@Pegas@@UAEXPAVIPlatformContext@2@@Z 0041dcb0 f   game_screen.obj
 0001:0001d030       ?leave@GameScreen@Pegas@@UAEXPAVIPlatformContext@2@@Z 0041e030 f   game_screen.obj
 0001:0001d070       ?handleEvent@GameScreen@Pegas@@UAEXV?$ptr@UEvent@Pegas@@@2@@Z 0041e070 f   game_screen.obj
 0001:0001d320       ??0Frag@Pegas@@QAE@HABVVector3@1@M@Z 0041e320 f   game_screen.obj
 0001:0001d440       ??_GFrag@Pegas@@UAEPAXI@Z  0041e440 f i game_screen.obj
 0001:0001d440       ??_EFrag@Pegas@@UAEPAXI@Z  0041e440 f i  CIL library: CIL module
 0001:0001d460       ??1Frag@Pegas@@UAE@XZ      0041e460 f i game_screen.obj
 0001:0001d4c0       ?update@Frag@Pegas@@UAEXH@Z 0041e4c0 f   game_screen.obj
 0001:0001d540       ?getInstance@?$Singleton@V?$ResourceManager@VTextureResource@Pegas@@UIntResourceCode@2@@Pegas@@@Pegas@@SAAAV?$ResourceManager@VTextureResource@Pegas@@UIntResourceCode@2@@2@XZ 0041e540 f i game_screen.obj
 0001:0001d560       ??0?$list@V?$ptr@VBaseScreenLayer@Pegas@@@Pegas@@V?$allocator@V?$ptr@VBaseScreenLayer@Pegas@@@Pegas@@@std@@@std@@QAE@XZ 0041e560 f i editor.obj
 0001:0001d560       ??0?$list@V?$ptr@VProcess@Pegas@@@Pegas@@V?$allocator@V?$ptr@VProcess@Pegas@@@Pegas@@@std@@@std@@QAE@XZ 0041e560 f i game_screen.obj
 0001:0001d560       ??0?$list@V?$ptr@VFile@Pegas@@@Pegas@@V?$allocator@V?$ptr@VFile@Pegas@@@Pegas@@@std@@@std@@QAE@XZ 0041e560 f i pacman.obj
 0001:0001d5d0       ?push_back@?$list@V?$ptr@VProcess@Pegas@@@Pegas@@V?$allocator@V?$ptr@VProcess@Pegas@@@Pegas@@@std@@@std@@QAEXABV?$ptr@VProcess@Pegas@@@Pegas@@@Z 0041e5d0 f i game_screen.obj
 0001:0001d600       ??E?$_Const_iterator@$00@?$list@V?$ptr@VProcess@Pegas@@@Pegas@@V?$allocator@V?$ptr@VProcess@Pegas@@@Pegas@@@std@@@std@@QAEAAV012@XZ 0041e600 f i game_screen.obj
 0001:0001d630       ?_Buynode@?$list@V?$ptr@VFile@Pegas@@@Pegas@@V?$allocator@V?$ptr@VFile@Pegas@@@Pegas@@@std@@@std@@IAEPAU_Node@?$_List_nod@V?$ptr@VFile@Pegas@@@Pegas@@V?$allocator@V?$ptr@VFile@Pegas@@@Pegas@@@std@@@2@PAU342@0ABV?$ptr@VFile@Pegas@@@Pegas@@@Z 0041e630 f i game_app.obj
 0001:0001d630       ?_Buynode@?$list@V?$ptr@VProcess@Pegas@@@Pegas@@V?$allocator@V?$ptr@VProcess@Pegas@@@Pegas@@@std@@@std@@IAEPAU_Node@?$_List_nod@V?$ptr@VProcess@Pegas@@@Pegas@@V?$allocator@V?$ptr@VProcess@Pegas@@@Pegas@@@std@@@2@PAU342@0ABV?$ptr@VProcess@Pegas@@@Pegas@@@Z 0041e630 f i game_screen.obj
 0001:0001d670       ?getResource@?$ResourceManager@VTextureResource@Pegas@@UIntResourceCode@2@@Pegas@@QAEPAVTextureResource@2@H@Z 0041e670 f i game_screen.obj
 0001:0001d750       ??A?$map@HPAVTextureResource@Pegas@@U?$less@H@std@@V?$allocator@U?$pair@$$CBHPAVTextureResource@Pegas@@@std@@@4@@std@@QAEAAPAVTextureResource@Pegas@@ABH@Z 0041e750 f i game_screen.obj
 0001:0001d810       ?insert@?$_Tree@V?$_Tmap_traits@HPAVTextureResource@Pegas@@U?$less@H@std@@V?$allocator@U?$pair@$$CBHPAVTextureResource@Pegas@@@std@@@4@$0A@@std@@@std@@QAE?AViterator@12@Vconst_iterator@12@ABU?$pair@$$CBHPAVTextureResource@Pegas@@@2@@Z 0041e810 f i game_screen.obj
 0001:0001d9e0       ??$_Insert@V?$_Const_iterator@$00@?$list@V?$ptr@VProcess@Pegas@@@Pegas@@V?$allocator@V?$ptr@VProcess@Pegas@@@Pegas@@@std@@@std@@@?$list@V?$ptr@VProcess@Pegas@@@Pegas@@V?$allocator@V?$ptr@VProcess@Pegas@@@Pegas@@@std@@@std@@QAEXV?$_Const_iterator@$00@01@00Uforward_iterator_tag@1@@Z 0041e9e0 f i game_screen.obj
 0001:0001db40       ??_EGameScreen@Pegas@@WM@AEPAXI@Z 0041eb40 f i game_screen.obj
 0001:0001db50       ??_EGameVerticalLayer@Pegas@@WCM@AEPAXI@Z 0041eb50 f i game_screen.obj
 0001:0001db60       ??_EGameScreen@Pegas@@WDA@AEPAXI@Z 0041eb60 f i game_screen.obj
 0001:0001db70       ??_EGameVerticalLayer@Pegas@@WDA@AEPAXI@Z 0041eb70 f i game_screen.obj
 0001:0001db80       ??_EGameVerticalLayer@Pegas@@WDI@AEPAXI@Z 0041eb80 f i game_screen.obj
 0001:0001db90       ??_EGameScreen@Pegas@@W7AEPAXI@Z 0041eb90 f i game_screen.obj
 0001:0001dba0       ?getType@Event_Game_Pause@Pegas@@UBE?AV?$basic_string@DU?$char_traits@D@std@@V?$allocator@D@2@@std@@XZ 0041eba0 f i game_screen.obj
 0001:0001dbd0       ??0Event_Game_Pause@Pegas@@QAE@XZ 0041ebd0 f i game_screen.obj
 0001:0001dc40       ?getListenerName@MainMenuLayer@Pegas@@UAE?AV?$basic_string@DU?$char_traits@D@std@@V?$allocator@D@2@@std@@XZ 0041ec40 f i pacman_game_screens.obj
 0001:0001dc70       ?getListenerName@GlobalPause@Pegas@@UAE?AV?$basic_string@DU?$char_traits@D@std@@V?$allocator@D@2@@std@@XZ 0041ec70 f i pacman_game_screens.obj
 0001:0001dca0       ??0MainMenuLayer@Pegas@@QAE@XZ 0041eca0 f   pacman_game_screens.obj
 0001:0001dcf0       ?create@MainMenuLayer@Pegas@@UAEXPAVIPlatformContext@2@@Z 0041ecf0 f   pacman_game_screens.obj
 0001:0001e390       ?onKeyDown@MainMenuLayer@Pegas@@UAEXHH@Z 0041f390 f   pacman_game_screens.obj
 0001:0001e3d0       ?handleEvent@MainMenuLayer@Pegas@@UAEXV?$ptr@UEvent@Pegas@@@2@@Z 0041f3d0 f   pacman_game_screens.obj
 0001:0001e8b0       ?render@MainMenuLayer@Pegas@@UAEXPAVIPlatformContext@2@@Z 0041f8b0 f   pacman_game_screens.obj
 0001:0001e8e0       ?enter@MainMenu@Pegas@@UAEXPAVIPlatformContext@2@@Z 0041f8e0 f   pacman_game_screens.obj
 0001:0001eae0       ??_GMainMenuLayer@Pegas@@UAEPAXI@Z 0041fae0 f i pacman_game_screens.obj
 0001:0001eae0       ??_EGlobalPause@Pegas@@UAEPAXI@Z 0041fae0 f i  CIL library: CIL module
 0001:0001eae0       ??_GGlobalPause@Pegas@@UAEPAXI@Z 0041fae0 f i pacman_game_screens.obj
 0001:0001eae0       ??_EMainMenuLayer@Pegas@@UAEPAXI@Z 0041fae0 f i  CIL library: CIL module
 0001:0001eb10       ?create@GlobalPause@Pegas@@UAEXPAVIPlatformContext@2@@Z 0041fb10 f   pacman_game_screens.obj
 0001:0001efe0       ?render@GlobalPause@Pegas@@UAEXPAVIPlatformContext@2@@Z 0041ffe0 f   pacman_game_screens.obj
 0001:0001f030       ?handleEvent@GlobalPause@Pegas@@UAEXV?$ptr@UEvent@Pegas@@@2@@Z 00420030 f   pacman_game_screens.obj
 0001:0001f370       ?onKeyDown@GlobalPause@Pegas@@UAEXHH@Z 00420370 f   pacman_game_screens.obj
 0001:0001f490       ?onKeyUp@GlobalPause@Pegas@@UAEXHH@Z 00420490 f   pacman_game_screens.obj
 0001:0001f4a0       ?onActivate@GlobalPause@Pegas@@UAEX_N@Z 004204a0 f   pacman_game_screens.obj
 0001:0001f4b0       ??_EMainMenuLayer@Pegas@@WFE@AEPAXI@Z 004204b0 f i pacman_game_screens.obj
 0001:0001f4b0       ??_EGlobalPause@Pegas@@WFE@AEPAXI@Z 004204b0 f i pacman_game_screens.obj
 0001:0001f4c0       ??_EMainMenuLayer@Pegas@@WCM@AEPAXI@Z 004204c0 f i pacman_game_screens.obj
 0001:0001f4c0       ??_EGlobalPause@Pegas@@WCM@AEPAXI@Z 004204c0 f i pacman_game_screens.obj
 0001:0001f4d0       ??_EMainMenuLayer@Pegas@@WDA@AEPAXI@Z 004204d0 f i pacman_game_screens.obj
 0001:0001f4d0       ??_EGlobalPause@Pegas@@WDA@AEPAXI@Z 004204d0 f i pacman_game_screens.obj
 0001:0001f4e0       ?getType@Event_Game_Resume@Pegas@@UBE?AV?$basic_string@DU?$char_traits@D@std@@V?$allocator@D@2@@std@@XZ 004204e0 f i pacman_game_screens.obj
 0001:0001f510       ??0Event_Game_Resume@Pegas@@QAE@XZ 00420510 f i pacman_game_screens.obj
 0001:0001f580       ??1?$pair@V?$basic_string@DU?$char_traits@D@std@@V?$allocator@D@2@@std@@V?$ptr@V?$set@PAVIEventListener@Pegas@@U?$less@PAVIEventListener@Pegas@@@std@@V?$allocator@PAVIEventListener@Pegas@@@4@@std@@@Pegas@@@std@@QAE@XZ 00420580 f i engine:event_system.obj
 0001:0001f5e0       ?data@?$basic_string@DU?$char_traits@D@std@@V?$allocator@D@2@@std@@QBEPBDXZ 004205e0 f i engine:event_system.obj
 0001:0001f600       ?empty@?$queue@V?$ptr@UEvent@Pegas@@@Pegas@@V?$deque@V?$ptr@UEvent@Pegas@@@Pegas@@V?$allocator@V?$ptr@UEvent@Pegas@@@Pegas@@@std@@@std@@@std@@QBE_NXZ 00420600 f i engine:event_system.obj
 0001:0001f600       ?empty@?$queue@HV?$deque@HV?$allocator@H@std@@@std@@@std@@QBE_NXZ 00420600 f i engine:processes.obj
 0001:0001f620       ?front@?$queue@V?$ptr@UEvent@Pegas@@@Pegas@@V?$deque@V?$ptr@UEvent@Pegas@@@Pegas@@V?$allocator@V?$ptr@UEvent@Pegas@@@Pegas@@@std@@@std@@@std@@QAEAAV?$ptr@UEvent@Pegas@@@Pegas@@XZ 00420620 f i engine:event_system.obj
 0001:0001f640       ?push@?$queue@V?$ptr@UEvent@Pegas@@@Pegas@@V?$deque@V?$ptr@UEvent@Pegas@@@Pegas@@V?$allocator@V?$ptr@UEvent@Pegas@@@Pegas@@@std@@@std@@@std@@QAEXABV?$ptr@UEvent@Pegas@@@Pegas@@@Z 00420640 f i engine:event_system.obj
 0001:0001f660       ?pop@?$queue@V?$ptr@UEvent@Pegas@@@Pegas@@V?$deque@V?$ptr@UEvent@Pegas@@@Pegas@@V?$allocator@V?$ptr@UEvent@Pegas@@@Pegas@@@std@@@std@@@std@@QAEXXZ 00420660 f i engine:event_system.obj
 0001:0001f680       ?insert@?$_Tree@V?$_Tmap_traits@V?$basic_string@DU?$char_traits@D@std@@V?$allocator@D@2@@std@@V?$ptr@V?$set@PAVIEventListener@Pegas@@U?$less@PAVIEventListener@Pegas@@@std@@V?$allocator@PAVIEventListener@Pegas@@@4@@std@@@Pegas@@U?$less@V?$basic_string@DU?$char_traits@D@std@@V?$allocator@D@2@@std@@@2@V?$allocator@U?$pair@$$CBV?$basic_string@DU?$char_traits@D@std@@V?$allocator@D@2@@std@@V?$ptr@V?$set@PAVIEventListener@Pegas@@U?$less@PAVIEventListener@Pegas@@@std@@V?$allocator@PAVIEventListener@Pegas@@@4@@std@@@Pegas@@@std@@@2@$0A@@std@@@std@@QAE?AU?$pair@Viterator@?$_Tree@V?$_Tmap_traits@V?$basic_string@DU?$char_traits@D@std@@V?$allocator@D@2@@std@@V?$ptr@V?$set@PAVIEventListener@Pegas@@U?$less@PAVIEventListener@Pegas@@@std@@V?$allocator@PAVIEventListener@Pegas@@@4@@std@@@Pegas@@U?$less@V?$basic_string@DU?$char_traits@D@std@@V?$allocator@D@2@@std@@@2@V?$allocator@U?$pair@$$CBV?$basic_string@DU?$char_traits@D@std@@V?$allocator@D@2@@std@@V?$ptr@V?$set@PAVIEventListener@Pegas@@U?$less@PAVIEventListener@Pegas@@@std@@V?$allocator@PAVIEventListener@Pegas@@@4@@std@@@Pegas@@@std@@@2@$0A@@std@@@std@@_N@2@ABU?$pair@$$CBV?$basic_string@DU?$char_traits@D@std@@V?$allocator@D@2@@std@@V?$ptr@V?$set@PAVIEventListener@Pegas@@U?$less@PAVIEventListener@Pegas@@@std@@V?$allocator@PAVIEventListener@Pegas@@@4@@std@@@Pegas@@@2@@Z 00420680 f i engine:event_system.obj
 0001:0001f840       ?find@?$_Tree@V?$_Tmap_traits@V?$basic_string@DU?$char_traits@D@std@@V?$allocator@D@2@@std@@V?$ptr@V?$set@PAVIEventListener@Pegas@@U?$less@PAVIEventListener@Pegas@@@std@@V?$allocator@PAVIEventListener@Pegas@@@4@@std@@@Pegas@@U?$less@V?$basic_string@DU?$char_traits@D@std@@V?$allocator@D@2@@std@@@2@V?$allocator@U?$pair@$$CBV?$basic_string@DU?$char_traits@D@std@@V?$allocator@D@2@@std@@V?$ptr@V?$set@PAVIEventListener@Pegas@@U?$less@PAVIEventListener@Pegas@@@std@@V?$allocator@PAVIEventListener@Pegas@@@4@@std@@@Pegas@@@std@@@2@$0A@@std@@@std@@QAE?AViterator@12@ABV?$basic_string@DU?$char_traits@D@std@@V?$allocator@D@2@@2@@Z 00420840 f i engine:event_system.obj
 0001:0001f8e0       ??Eiterator@?$_Tree@V?$_Tmap_traits@V?$basic_string@DU?$char_traits@D@std@@V?$allocator@D@2@@std@@V?$ptr@V?$set@PAVIEventListener@Pegas@@U?$less@PAVIEventListener@Pegas@@@std@@V?$allocator@PAVIEventListener@Pegas@@@4@@std@@@Pegas@@U?$less@V?$basic_string@DU?$char_traits@D@std@@V?$allocator@D@2@@std@@@2@V?$allocator@U?$pair@$$CBV?$basic_string@DU?$char_traits@D@std@@V?$allocator@D@2@@std@@V?$ptr@V?$set@PAVIEventListener@Pegas@@U?$less@PAVIEventListener@Pegas@@@std@@V?$allocator@PAVIEventListener@Pegas@@@4@@std@@@Pegas@@@std@@@2@$0A@@std@@@std@@QAEAAV012@XZ 004208e0 f i engine:event_system.obj
 0001:0001f900       ??0?$set@PAVIEventListener@Pegas@@U?$less@PAVIEventListener@Pegas@@@std@@V?$allocator@PAVIEventListener@Pegas@@@4@@std@@QAE@XZ 00420900 f i engine:event_system.obj
 0001:0001f930       ?insert@?$_Tree@V?$_Tset_traits@PAVIEventListener@Pegas@@U?$less@PAVIEventListener@Pegas@@@std@@V?$allocator@PAVIEventListener@Pegas@@@4@$0A@@std@@@std@@QAE?AU?$pair@Viterator@?$_Tree@V?$_Tset_traits@PAVIEventListener@Pegas@@U?$less@PAVIEventListener@Pegas@@@std@@V?$allocator@PAVIEventListener@Pegas@@@4@$0A@@std@@@std@@_N@2@ABQAVIEventListener@Pegas@@@Z 00420930 f i engine:event_system.obj
 0001:0001faf0       ?erase@?$_Tree@V?$_Tset_traits@PAVIEventListener@Pegas@@U?$less@PAVIEventListener@Pegas@@@std@@V?$allocator@PAVIEventListener@Pegas@@@4@$0A@@std@@@std@@QAEIABQAVIEventListener@Pegas@@@Z 00420af0 f i engine:event_system.obj
 0001:0001fb70       ?count@?$_Tree@V?$_Tset_traits@PAVIEventListener@Pegas@@U?$less@PAVIEventListener@Pegas@@@std@@V?$allocator@PAVIEventListener@Pegas@@@4@$0A@@std@@@std@@QBEIABQAVIEventListener@Pegas@@@Z 00420b70 f i engine:event_system.obj
 0001:0001fbc0       ??0?$ptr@V?$set@PAVIEventListener@Pegas@@U?$less@PAVIEventListener@Pegas@@@std@@V?$allocator@PAVIEventListener@Pegas@@@4@@std@@@Pegas@@QAE@PAV?$set@PAVIEventListener@Pegas@@U?$less@PAVIEventListener@Pegas@@@std@@V?$allocator@PAVIEventListener@Pegas@@@4@@std@@PAUCounter@1@@Z 00420bc0 f i engine:event_system.obj
 0001:0001fc50       ??0?$ptr@V?$set@PAVIEventListener@Pegas@@U?$less@PAVIEventListener@Pegas@@@std@@V?$allocator@PAVIEventListener@Pegas@@@4@@std@@@Pegas@@QAE@ABV01@@Z 00420c50 f i engine:event_system.obj
 0001:0001fc80       ??Eiterator@?$_Tree@V?$_Tset_traits@PAVIEventListener@Pegas@@U?$less@PAVIEventListener@Pegas@@@std@@V?$allocator@PAVIEventListener@Pegas@@@4@$0A@@std@@@std@@QAEAAV012@XZ 00420c80 f i engine:event_system.obj
 0001:0001fca0       ?front@?$deque@V?$ptr@UEvent@Pegas@@@Pegas@@V?$allocator@V?$ptr@UEvent@Pegas@@@Pegas@@@std@@@std@@QAEAAV?$ptr@UEvent@Pegas@@@Pegas@@XZ 00420ca0 f i engine:event_system.obj
 0001:0001fcc0       ?pop_front@?$deque@V?$ptr@UEvent@Pegas@@@Pegas@@V?$allocator@V?$ptr@UEvent@Pegas@@@Pegas@@@std@@@std@@QAEXXZ 00420cc0 f i engine:event_system.obj
 0001:0001fd60       ?push_back@?$deque@V?$ptr@UEvent@Pegas@@@Pegas@@V?$allocator@V?$ptr@UEvent@Pegas@@@Pegas@@@std@@@std@@QAEXABV?$ptr@UEvent@Pegas@@@Pegas@@@Z 00420d60 f i engine:event_system.obj
 0001:0001fe40       ?lower_bound@?$_Tree@V?$_Tmap_traits@V?$basic_string@DU?$char_traits@D@std@@V?$allocator@D@2@@std@@V?$ptr@V?$set@PAVIEventListener@Pegas@@U?$less@PAVIEventListener@Pegas@@@std@@V?$allocator@PAVIEventListener@Pegas@@@4@@std@@@Pegas@@U?$less@V?$basic_string@DU?$char_traits@D@std@@V?$allocator@D@2@@std@@@2@V?$allocator@U?$pair@$$CBV?$basic_string@DU?$char_traits@D@std@@V?$allocator@D@2@@std@@V?$ptr@V?$set@PAVIEventListener@Pegas@@U?$less@PAVIEventListener@Pegas@@@std@@V?$allocator@PAVIEventListener@Pegas@@@4@@std@@@Pegas@@@std@@@2@$0A@@std@@@std@@QAE?AViterator@12@ABV?$basic_string@DU?$char_traits@D@std@@V?$allocator@D@2@@2@@Z 00420e40 f i engine:event_system.obj
 0001:0001fe70       ?_Insert@?$_Tree@V?$_Tmap_traits@V?$basic_string@DU?$char_traits@D@std@@V?$allocator@D@2@@std@@V?$ptr@V?$set@PAVIEventListener@Pegas@@U?$less@PAVIEventListener@Pegas@@@std@@V?$allocator@PAVIEventListener@Pegas@@@4@@std@@@Pegas@@U?$less@V?$basic_string@DU?$char_traits@D@std@@V?$allocator@D@2@@std@@@2@V?$allocator@U?$pair@$$CBV?$basic_string@DU?$char_traits@D@std@@V?$allocator@D@2@@std@@V?$ptr@V?$set@PAVIEventListener@Pegas@@U?$less@PAVIEventListener@Pegas@@@std@@V?$allocator@PAVIEventListener@Pegas@@@4@@std@@@Pegas@@@std@@@2@$0A@@std@@@std@@IAE?AViterator@12@_NPAU_Node@?$_Tree_nod@V?$_Tmap_traits@V?$basic_string@DU?$char_traits@D@std@@V?$allocator@D@2@@std@@V?$ptr@V?$set@PAVIEventListener@Pegas@@U?$less@PAVIEventListener@Pegas@@@std@@V?$allocator@PAVIEventListener@Pegas@@@4@@std@@@Pegas@@U?$less@V?$basic_string@DU?$char_traits@D@std@@V?$allocator@D@2@@std@@@2@V?$allocator@U?$pair@$$CBV?$basic_string@DU?$char_traits@D@std@@V?$allocator@D@2@@std@@V?$ptr@V?$set@PAVIEventListener@Pegas@@U?$less@PAVIEventListener@Pegas@@@std@@V?$allocator@PAVIEventListener@Pegas@@@4@@std@@@Pegas@@@std@@@2@$0A@@std@@@2@ABU?$pair@$$CBV?$basic_string@DU?$char_traits@D@std@@V?$allocator@D@2@@std@@V?$ptr@V?$set@PAVIEventListener@Pegas@@U?$less@PAVIEventListener@Pegas@@@std@@V?$allocator@PAVIEventListener@Pegas@@@4@@std@@@Pegas@@@2@@Z 00420e70 f i engine:event_system.obj
 0001:00020210       ??R?$less@V?$basic_string@DU?$char_traits@D@std@@V?$allocator@D@2@@std@@@std@@QBE_NABV?$basic_string@DU?$char_traits@D@std@@V?$allocator@D@2@@1@0@Z 00421210 f i engine:event_system.obj
 0001:00020230       ??Fiterator@?$_Tree@V?$_Tmap_traits@V?$basic_string@DU?$char_traits@D@std@@V?$allocator@D@2@@std@@V?$ptr@V?$set@PAVIEventListener@Pegas@@U?$less@PAVIEventListener@Pegas@@@std@@V?$allocator@PAVIEventListener@Pegas@@@4@@std@@@Pegas@@U?$less@V?$basic_string@DU?$char_traits@D@std@@V?$allocator@D@2@@std@@@2@V?$allocator@U?$pair@$$CBV?$basic_string@DU?$char_traits@D@std@@V?$allocator@D@2@@std@@V?$ptr@V?$set@PAVIEventListener@Pegas@@U?$less@PAVIEventListener@Pegas@@@std@@V?$allocator@PAVIEventListener@Pegas@@@4@@std@@@Pegas@@@std@@@2@$0A@@std@@@std@@QAEAAV012@XZ 00421230 f i engine:event_system.obj
 0001:00020250       ??0?$_Tree@V?$_Tset_traits@PAVIEventListener@Pegas@@U?$less@PAVIEventListener@Pegas@@@std@@V?$allocator@PAVIEventListener@Pegas@@@4@$0A@@std@@@std@@QAE@ABU?$less@PAVIEventListener@Pegas@@@1@ABV?$allocator@PAVIEventListener@Pegas@@@1@@Z 00421250 f i engine:event_system.obj
 0001:000202c0       ?equal_range@?$_Tree@V?$_Tset_traits@PAVIEventListener@Pegas@@U?$less@PAVIEventListener@Pegas@@@std@@V?$allocator@PAVIEventListener@Pegas@@@4@$0A@@std@@@std@@QBE?AU?$pair@Vconst_iterator@?$_Tree@V?$_Tset_traits@PAVIEventListener@Pegas@@U?$less@PAVIEventListener@Pegas@@@std@@V?$allocator@PAVIEventListener@Pegas@@@4@$0A@@std@@@std@@V123@@2@ABQAVIEventListener@Pegas@@@Z 004212c0 f i engine:event_system.obj
 0001:000202c0       ?equal_range@?$_Tree@V?$_Tset_traits@PAVIEventListener@Pegas@@U?$less@PAVIEventListener@Pegas@@@std@@V?$allocator@PAVIEventListener@Pegas@@@4@$0A@@std@@@std@@QAE?AU?$pair@Viterator@?$_Tree@V?$_Tset_traits@PAVIEventListener@Pegas@@U?$less@PAVIEventListener@Pegas@@@std@@V?$allocator@PAVIEventListener@Pegas@@@4@$0A@@std@@@std@@V123@@2@ABQAVIEventListener@Pegas@@@Z 004212c0 f i engine:event_system.obj
 0001:000202e0       ?_Insert@?$_Tree@V?$_Tset_traits@PAVIEventListener@Pegas@@U?$less@PAVIEventListener@Pegas@@@std@@V?$allocator@PAVIEventListener@Pegas@@@4@$0A@@std@@@std@@IAE?AViterator@12@_NPAU_Node@?$_Tree_nod@V?$_Tset_traits@PAVIEventListener@Pegas@@U?$less@PAVIEventListener@Pegas@@@std@@V?$allocator@PAVIEventListener@Pegas@@@4@$0A@@std@@@2@ABQAVIEventListener@Pegas@@@Z 004212e0 f i engine:event_system.obj
 0001:00020680       ?_Nextnode@?$list@HV?$allocator@H@std@@@std@@KAAAPAU_Node@?$_List_nod@HV?$allocator@H@std@@@2@PAU342@@Z 00421680 f i engine:processes.obj
 0001:00020680       ?_Kfn@?$_Tmap_traits@HV?$ptr@VProcess@Pegas@@@Pegas@@U?$less@H@std@@V?$allocator@U?$pair@$$CBHV?$ptr@VProcess@Pegas@@@Pegas@@@std@@@4@$0A@@std@@SAABHABU?$pair@$$CBHV?$ptr@VProcess@Pegas@@@Pegas@@@2@@Z 00421680 f i engine:processes.obj
 0001:00020680       ?_Kfn@?$_Tmap_traits@V?$basic_string@DU?$char_traits@D@std@@V?$allocator@D@2@@std@@V?$ptr@V?$set@PAVIEventListener@Pegas@@U?$less@PAVIEventListener@Pegas@@@std@@V?$allocator@PAVIEventListener@Pegas@@@4@@std@@@Pegas@@U?$less@V?$basic_string@DU?$char_traits@D@std@@V?$allocator@D@2@@std@@@2@V?$allocator@U?$pair@$$CBV?$basic_string@DU?$char_traits@D@std@@V?$allocator@D@2@@std@@V?$ptr@V?$set@PAVIEventListener@Pegas@@U?$less@PAVIEventListener@Pegas@@@std@@V?$allocator@PAVIEventListener@Pegas@@@4@@std@@@Pegas@@@std@@@2@$0A@@std@@SAABV?$basic_string@DU?$char_traits@D@std@@V?$allocator@D@2@@2@ABU?$pair@$$CBV?$basic_string@DU?$char_traits@D@std@@V?$allocator@D@2@@std@@V?$ptr@V?$set@PAVIEventListener@Pegas@@U?$less@PAVIEventListener@Pegas@@@std@@V?$allocator@PAVIEventListener@Pegas@@@4@@std@@@Pegas@@@2@@Z 00421680 f i engine:event_system.obj
 0001:00020680       ?_Nextnode@?$list@V?$ptr@UEvent@Pegas@@@Pegas@@V?$allocator@V?$ptr@UEvent@Pegas@@@Pegas@@@std@@@std@@KAAAPAU_Node@?$_List_nod@V?$ptr@UEvent@Pegas@@@Pegas@@V?$allocator@V?$ptr@UEvent@Pegas@@@Pegas@@@std@@@2@PAU342@@Z 00421680 f i engine:waiting.obj
 0001:00020680       ?_Kfn@?$_Tset_traits@PAVIEventListener@Pegas@@U?$less@PAVIEventListener@Pegas@@@std@@V?$allocator@PAVIEventListener@Pegas@@@4@$0A@@std@@SAABQAVIEventListener@Pegas@@ABQAV34@@Z 00421680 f i engine:event_system.obj
 0001:00020690       ??$cast@UEvent_GUI_FadeOn@Pegas@@@Event@Pegas@@QAEPAUEvent_GUI_FadeOn@1@XZ 00421690 f i engine:fader_layer.obj
 0001:00020690       ??0?$allocator@PAVIEventListener@Pegas@@@std@@QAE@XZ 00421690 f i engine:event_system.obj
 0001:00020690       ??$cast@UEvent_GUI_StartFadein@Pegas@@@Event@Pegas@@QAEPAUEvent_GUI_StartFadein@1@XZ 00421690 f i engine:fader_layer.obj
 0001:00020690       ??$cast@UEvent_GUI_StartFadeout@Pegas@@@Event@Pegas@@QAEPAUEvent_GUI_StartFadeout@1@XZ 00421690 f i engine:fader_layer.obj
 0001:000206a0       ??R?$less@PAVIEventListener@Pegas@@@std@@QBE_NABQAVIEventListener@Pegas@@0@Z 004216a0 f i engine:event_system.obj
 0001:000206c0       ?acquire@?$ptr@V?$set@PAVIEventListener@Pegas@@U?$less@PAVIEventListener@Pegas@@@std@@V?$allocator@PAVIEventListener@Pegas@@@4@@std@@@Pegas@@AAEXPAUCounter@2@@Z 004216c0 f i engine:event_system.obj
 0001:000206f0       ??Fiterator@?$_Tree@V?$_Tset_traits@PAVIEventListener@Pegas@@U?$less@PAVIEventListener@Pegas@@@std@@V?$allocator@PAVIEventListener@Pegas@@@4@$0A@@std@@@std@@QAEAAV012@XZ 004216f0 f i engine:event_system.obj
 0001:00020710       ?begin@?$deque@V?$ptr@UEvent@Pegas@@@Pegas@@V?$allocator@V?$ptr@UEvent@Pegas@@@Pegas@@@std@@@std@@QAE?AV?$_Deque_iterator@V?$ptr@UEvent@Pegas@@@Pegas@@V?$allocator@V?$ptr@UEvent@Pegas@@@Pegas@@@std@@$00@2@XZ 00421710 f i engine:event_system.obj
 0001:00020740       ?_Growmap@?$deque@V?$ptr@UEvent@Pegas@@@Pegas@@V?$allocator@V?$ptr@UEvent@Pegas@@@Pegas@@@std@@@std@@IAEXI@Z 00421740 f i engine:event_system.obj
 0001:00020960       ?allocate@?$allocator@V?$ptr@UEvent@Pegas@@@Pegas@@@std@@QAEPAV?$ptr@UEvent@Pegas@@@Pegas@@I@Z 00421960 f i engine:event_system.obj
 0001:00020980       ?construct@?$allocator@V?$ptr@UEvent@Pegas@@@Pegas@@@std@@QAEXPAV?$ptr@UEvent@Pegas@@@Pegas@@ABV34@@Z 00421980 f i engine:event_system.obj
 0001:000209a0       ?_Myval@?$_Tree@V?$_Tmap_traits@V?$basic_string@DU?$char_traits@D@std@@V?$allocator@D@2@@std@@V?$ptr@V?$set@PAVIEventListener@Pegas@@U?$less@PAVIEventListener@Pegas@@@std@@V?$allocator@PAVIEventListener@Pegas@@@4@@std@@@Pegas@@U?$less@V?$basic_string@DU?$char_traits@D@std@@V?$allocator@D@2@@std@@@2@V?$allocator@U?$pair@$$CBV?$basic_string@DU?$char_traits@D@std@@V?$allocator@D@2@@std@@V?$ptr@V?$set@PAVIEventListener@Pegas@@U?$less@PAVIEventListener@Pegas@@@std@@V?$allocator@PAVIEventListener@Pegas@@@4@@std@@@Pegas@@@std@@@2@$0A@@std@@@std@@KAAAU?$pair@$$CBV?$basic_string@DU?$char_traits@D@std@@V?$allocator@D@2@@std@@V?$ptr@V?$set@PAVIEventListener@Pegas@@U?$less@PAVIEventListener@Pegas@@@std@@V?$allocator@PAVIEventListener@Pegas@@@4@@std@@@Pegas@@@2@PAU_Node@?$_Tree_nod@V?$_Tmap_traits@V?$basic_string@DU?$char_traits@D@std@@V?$allocator@D@2@@std@@V?$ptr@V?$set@PAVIEventListener@Pegas@@U?$less@PAVIEventListener@Pegas@@@std@@V?$allocator@PAVIEventListener@Pegas@@@4@@std@@@Pegas@@U?$less@V?$basic_string@DU?$char_traits@D@std@@V?$allocator@D@2@@std@@@2@V?$allocator@U?$pair@$$CBV?$basic_string@DU?$char_traits@D@std@@V?$allocator@D@2@@std@@V?$ptr@V?$set@PAVIEventListener@Pegas@@U?$less@PAVIEventListener@Pegas@@@std@@V?$allocator@PAVIEventListener@Pegas@@@4@@std@@@Pegas@@@std@@@2@$0A@@std@@@2@@Z 004219a0 f i engine:event_system.obj
 0001:000209a0       ?_Myval@?$_Tree@V?$_Tset_traits@PAVIEventListener@Pegas@@U?$less@PAVIEventListener@Pegas@@@std@@V?$allocator@PAVIEventListener@Pegas@@@4@$0A@@std@@@std@@KAAAPAVIEventListener@Pegas@@PAU_Node@?$_Tree_nod@V?$_Tset_traits@PAVIEventListener@Pegas@@U?$less@PAVIEventListener@Pegas@@@std@@V?$allocator@PAVIEventListener@Pegas@@@4@$0A@@std@@@2@@Z 004219a0 f i engine:event_system.obj
 0001:000209a0       ?_Myval@?$_Tree@V?$_Tmap_traits@HV?$ptr@VProcess@Pegas@@@Pegas@@U?$less@H@std@@V?$allocator@U?$pair@$$CBHV?$ptr@VProcess@Pegas@@@Pegas@@@std@@@4@$0A@@std@@@std@@KAAAU?$pair@$$CBHV?$ptr@VProcess@Pegas@@@Pegas@@@2@PAU_Node@?$_Tree_nod@V?$_Tmap_traits@HV?$ptr@VProcess@Pegas@@@Pegas@@U?$less@H@std@@V?$allocator@U?$pair@$$CBHV?$ptr@VProcess@Pegas@@@Pegas@@@std@@@4@$0A@@std@@@2@@Z 004219a0 f i engine:processes.obj
 0001:000209b0       ?max_size@?$_Tree@V?$_Tmap_traits@V?$basic_string@DU?$char_traits@D@std@@V?$allocator@D@2@@std@@V?$ptr@V?$set@PAVIEventListener@Pegas@@U?$less@PAVIEventListener@Pegas@@@std@@V?$allocator@PAVIEventListener@Pegas@@@4@@std@@@Pegas@@U?$less@V?$basic_string@DU?$char_traits@D@std@@V?$allocator@D@2@@std@@@2@V?$allocator@U?$pair@$$CBV?$basic_string@DU?$char_traits@D@std@@V?$allocator@D@2@@std@@V?$ptr@V?$set@PAVIEventListener@Pegas@@U?$less@PAVIEventListener@Pegas@@@std@@V?$allocator@PAVIEventListener@Pegas@@@4@@std@@@Pegas@@@std@@@2@$0A@@std@@@std@@QBEIXZ 004219b0 f i engine:event_system.obj
 0001:000209d0       ?_Lbound@?$_Tree@V?$_Tmap_traits@V?$basic_string@DU?$char_traits@D@std@@V?$allocator@D@2@@std@@V?$ptr@V?$set@PAVIEventListener@Pegas@@U?$less@PAVIEventListener@Pegas@@@std@@V?$allocator@PAVIEventListener@Pegas@@@4@@std@@@Pegas@@U?$less@V?$basic_string@DU?$char_traits@D@std@@V?$allocator@D@2@@std@@@2@V?$allocator@U?$pair@$$CBV?$basic_string@DU?$char_traits@D@std@@V?$allocator@D@2@@std@@V?$ptr@V?$set@PAVIEventListener@Pegas@@U?$less@PAVIEventListener@Pegas@@@std@@V?$allocator@PAVIEventListener@Pegas@@@4@@std@@@Pegas@@@std@@@2@$0A@@std@@@std@@IBEPAU_Node@?$_Tree_nod@V?$_Tmap_traits@V?$basic_string@DU?$char_traits@D@std@@V?$allocator@D@2@@std@@V?$ptr@V?$set@PAVIEventListener@Pegas@@U?$less@PAVIEventListener@Pegas@@@std@@V?$allocator@PAVIEventListener@Pegas@@@4@@std@@@Pegas@@U?$less@V?$basic_string@DU?$char_traits@D@std@@V?$allocator@D@2@@std@@@2@V?$allocator@U?$pair@$$CBV?$basic_string@DU?$char_traits@D@std@@V?$allocator@D@2@@std@@V?$ptr@V?$set@PAVIEventListener@Pegas@@U?$less@PAVIEventListener@Pegas@@@std@@V?$allocator@PAVIEventListener@Pegas@@@4@@std@@@Pegas@@@std@@@2@$0A@@std@@@2@ABV?$basic_string@DU?$char_traits@D@std@@V?$allocator@D@2@@2@@Z 004219d0 f i engine:event_system.obj
 0001:00020a50       ?_Buynode@?$_Tree@V?$_Tmap_traits@V?$basic_string@DU?$char_traits@D@std@@V?$allocator@D@2@@std@@V?$ptr@V?$set@PAVIEventListener@Pegas@@U?$less@PAVIEventListener@Pegas@@@std@@V?$allocator@PAVIEventListener@Pegas@@@4@@std@@@Pegas@@U?$less@V?$basic_string@DU?$char_traits@D@std@@V?$allocator@D@2@@std@@@2@V?$allocator@U?$pair@$$CBV?$basic_string@DU?$char_traits@D@std@@V?$allocator@D@2@@std@@V?$ptr@V?$set@PAVIEventListener@Pegas@@U?$less@PAVIEventListener@Pegas@@@std@@V?$allocator@PAVIEventListener@Pegas@@@4@@std@@@Pegas@@@std@@@2@$0A@@std@@@std@@IAEPAU_Node@?$_Tree_nod@V?$_Tmap_traits@V?$basic_string@DU?$char_traits@D@std@@V?$allocator@D@2@@std@@V?$ptr@V?$set@PAVIEventListener@Pegas@@U?$less@PAVIEventListener@Pegas@@@std@@V?$allocator@PAVIEventListener@Pegas@@@4@@std@@@Pegas@@U?$less@V?$basic_string@DU?$char_traits@D@std@@V?$allocator@D@2@@std@@@2@V?$allocator@U?$pair@$$CBV?$basic_string@DU?$char_traits@D@std@@V?$allocator@D@2@@std@@V?$ptr@V?$set@PAVIEventListener@Pegas@@U?$less@PAVIEventListener@Pegas@@@std@@V?$allocator@PAVIEventListener@Pegas@@@4@@std@@@Pegas@@@std@@@2@$0A@@std@@@2@PAU342@00ABU?$pair@$$CBV?$basic_string@DU?$char_traits@D@std@@V?$allocator@D@2@@std@@V?$ptr@V?$set@PAVIEventListener@Pegas@@U?$less@PAVIEventListener@Pegas@@@std@@V?$allocator@PAVIEventListener@Pegas@@@4@@std@@@Pegas@@@2@D@Z 00421a50 f i engine:event_system.obj
 0001:00020b30       ??Fconst_iterator@?$_Tree@V?$_Tmap_traits@V?$basic_string@DU?$char_traits@D@std@@V?$allocator@D@2@@std@@V?$ptr@V?$set@PAVIEventListener@Pegas@@U?$less@PAVIEventListener@Pegas@@@std@@V?$allocator@PAVIEventListener@Pegas@@@4@@std@@@Pegas@@U?$less@V?$basic_string@DU?$char_traits@D@std@@V?$allocator@D@2@@std@@@2@V?$allocator@U?$pair@$$CBV?$basic_string@DU?$char_traits@D@std@@V?$allocator@D@2@@std@@V?$ptr@V?$set@PAVIEventListener@Pegas@@U?$less@PAVIEventListener@Pegas@@@std@@V?$allocator@PAVIEventListener@Pegas@@@4@@std@@@Pegas@@@std@@@2@$0A@@std@@@std@@QAEAAV012@XZ 00421b30 f i engine:event_system.obj
 0001:00020b50       ?max_size@?$_Tree@V?$_Tset_traits@PAVIEventListener@Pegas@@U?$less@PAVIEventListener@Pegas@@@std@@V?$allocator@PAVIEventListener@Pegas@@@4@$0A@@std@@@std@@QBEIXZ 00421b50 f i engine:event_system.obj
 0001:00020b70       ?_Eqrange@?$_Tree@V?$_Tset_traits@PAVIEventListener@Pegas@@U?$less@PAVIEventListener@Pegas@@@std@@V?$allocator@PAVIEventListener@Pegas@@@4@$0A@@std@@@std@@IBE?AU?$pair@Vconst_iterator@?$_Tree@V?$_Tset_traits@PAVIEventListener@Pegas@@U?$less@PAVIEventListener@Pegas@@@std@@V?$allocator@PAVIEventListener@Pegas@@@4@$0A@@std@@@std@@V123@@2@ABQAVIEventListener@Pegas@@@Z 00421b70 f i engine:event_system.obj
 0001:00020b70       ?_Eqrange@?$_Tree@V?$_Tset_traits@PAVIEventListener@Pegas@@U?$less@PAVIEventListener@Pegas@@@std@@V?$allocator@PAVIEventListener@Pegas@@@4@$0A@@std@@@std@@IAE?AU?$pair@Viterator@?$_Tree@V?$_Tset_traits@PAVIEventListener@Pegas@@U?$less@PAVIEventListener@Pegas@@@std@@V?$allocator@PAVIEventListener@Pegas@@@4@$0A@@std@@@std@@V123@@2@ABQAVIEventListener@Pegas@@@Z 00421b70 f i engine:event_system.obj
 0001:00020cf0       ?_Init@?$_Tree@V?$_Tset_traits@PAVIEventListener@Pegas@@U?$less@PAVIEventListener@Pegas@@@std@@V?$allocator@PAVIEventListener@Pegas@@@4@$0A@@std@@@std@@IAEXXZ 00421cf0 f i engine:event_system.obj
 0001:00020d60       ?_Buynode@?$_Tree@V?$_Tset_traits@PAVIEventListener@Pegas@@U?$less@PAVIEventListener@Pegas@@@std@@V?$allocator@PAVIEventListener@Pegas@@@4@$0A@@std@@@std@@IAEPAU_Node@?$_Tree_nod@V?$_Tset_traits@PAVIEventListener@Pegas@@U?$less@PAVIEventListener@Pegas@@@std@@V?$allocator@PAVIEventListener@Pegas@@@4@$0A@@std@@@2@PAU342@00ABQAVIEventListener@Pegas@@D@Z 00421d60 f i engine:event_system.obj
 0001:00020e30       ??0?$_Tree_val@V?$_Tset_traits@PAVIEventListener@Pegas@@U?$less@PAVIEventListener@Pegas@@@std@@V?$allocator@PAVIEventListener@Pegas@@@4@$0A@@std@@@std@@IAE@ABU?$less@PAVIEventListener@Pegas@@@1@V?$allocator@PAVIEventListener@Pegas@@@1@@Z 00421e30 f i engine:event_system.obj
 0001:00020e70       ??Fconst_iterator@?$_Tree@V?$_Tset_traits@PAVIEventListener@Pegas@@U?$less@PAVIEventListener@Pegas@@@std@@V?$allocator@PAVIEventListener@Pegas@@@4@$0A@@std@@@std@@QAEAAV012@XZ 00421e70 f i engine:event_system.obj
 0001:00020e90       ??D?$_Deque_iterator@V?$ptr@UEvent@Pegas@@@Pegas@@V?$allocator@V?$ptr@UEvent@Pegas@@@Pegas@@@std@@$00@std@@QBEAAV?$ptr@UEvent@Pegas@@@Pegas@@XZ 00421e90 f i engine:event_system.obj
 0001:00020eb0       ?max_size@?$deque@V?$ptr@UEvent@Pegas@@@Pegas@@V?$allocator@V?$ptr@UEvent@Pegas@@@Pegas@@@std@@@std@@QBEIXZ 00421eb0 f i engine:event_system.obj
 0001:00020ed0       ?allocate@?$allocator@PAH@std@@QAEPAPAHI@Z 00421ed0 f i engine:processes.obj
 0001:00020ed0       ?allocate@?$allocator@PAV?$ptr@UEvent@Pegas@@@Pegas@@@std@@QAEPAPAV?$ptr@UEvent@Pegas@@@Pegas@@I@Z 00421ed0 f i engine:event_system.obj
 0001:00020ef0       ?max_size@?$allocator@U?$pair@$$CBV?$basic_string@DU?$char_traits@D@std@@V?$allocator@D@2@@std@@V?$ptr@V?$set@PAVIEventListener@Pegas@@U?$less@PAVIEventListener@Pegas@@@std@@V?$allocator@PAVIEventListener@Pegas@@@4@@std@@@Pegas@@@std@@@std@@QBEIXZ 00421ef0 f i engine:event_system.obj
 0001:00020f20       ?_Dec@const_iterator@?$_Tree@V?$_Tmap_traits@V?$basic_string@DU?$char_traits@D@std@@V?$allocator@D@2@@std@@V?$ptr@V?$set@PAVIEventListener@Pegas@@U?$less@PAVIEventListener@Pegas@@@std@@V?$allocator@PAVIEventListener@Pegas@@@4@@std@@@Pegas@@U?$less@V?$basic_string@DU?$char_traits@D@std@@V?$allocator@D@2@@std@@@2@V?$allocator@U?$pair@$$CBV?$basic_string@DU?$char_traits@D@std@@V?$allocator@D@2@@std@@V?$ptr@V?$set@PAVIEventListener@Pegas@@U?$less@PAVIEventListener@Pegas@@@std@@V?$allocator@PAVIEventListener@Pegas@@@4@@std@@@Pegas@@@std@@@2@$0A@@std@@@std@@QAEXXZ 00421f20 f i engine:event_system.obj
 0001:00021020       ?_Buynode@?$_Tree@V?$_Tset_traits@PAVIEventListener@Pegas@@U?$less@PAVIEventListener@Pegas@@@std@@V?$allocator@PAVIEventListener@Pegas@@@4@$0A@@std@@@std@@IAEPAU_Node@?$_Tree_nod@V?$_Tset_traits@PAVIEventListener@Pegas@@U?$less@PAVIEventListener@Pegas@@@std@@V?$allocator@PAVIEventListener@Pegas@@@4@$0A@@std@@@2@XZ 00422020 f i engine:event_system.obj
 0001:00021160       ??0?$_Tree_ptr@V?$_Tset_traits@PAVIEventListener@Pegas@@U?$less@PAVIEventListener@Pegas@@@std@@V?$allocator@PAVIEventListener@Pegas@@@4@$0A@@std@@@std@@IAE@ABU?$less@PAVIEventListener@Pegas@@@1@V?$allocator@PAVIEventListener@Pegas@@@1@@Z 00422160 f i engine:event_system.obj
 0001:000211a0       ?max_size@?$allocator@PAVIEventListener@Pegas@@@std@@QBEIXZ 004221a0 f i engine:event_system.obj
 0001:000211d0       ?allocate@?$allocator@U_Node@?$_Tree_nod@V?$_Tset_traits@PAVIEventListener@Pegas@@U?$less@PAVIEventListener@Pegas@@@std@@V?$allocator@PAVIEventListener@Pegas@@@4@$0A@@std@@@std@@@std@@QAEPAU_Node@?$_Tree_nod@V?$_Tset_traits@PAVIEventListener@Pegas@@U?$less@PAVIEventListener@Pegas@@@std@@V?$allocator@PAVIEventListener@Pegas@@@4@$0A@@std@@@2@I@Z 004221d0 f i engine:event_system.obj
 0001:000211f0       ?_Dec@const_iterator@?$_Tree@V?$_Tset_traits@PAVIEventListener@Pegas@@U?$less@PAVIEventListener@Pegas@@@std@@V?$allocator@PAVIEventListener@Pegas@@@4@$0A@@std@@@std@@QAEXXZ 004221f0 f i engine:event_system.obj
 0001:000212f0       ??0?$_Deque_iterator@V?$ptr@UEvent@Pegas@@@Pegas@@V?$allocator@V?$ptr@UEvent@Pegas@@@Pegas@@@std@@$00@std@@QAE@IPBV_Container_base_aux@1@@Z 004222f0 f i engine:event_system.obj
 0001:00021310       ??D?$_Deque_const_iterator@V?$ptr@UEvent@Pegas@@@Pegas@@V?$allocator@V?$ptr@UEvent@Pegas@@@Pegas@@@std@@$00@std@@QBEABV?$ptr@UEvent@Pegas@@@Pegas@@XZ 00422310 f i engine:event_system.obj
 0001:000213b0       ??0_Node@?$_Tree_nod@V?$_Tmap_traits@V?$basic_string@DU?$char_traits@D@std@@V?$allocator@D@2@@std@@V?$ptr@V?$set@PAVIEventListener@Pegas@@U?$less@PAVIEventListener@Pegas@@@std@@V?$allocator@PAVIEventListener@Pegas@@@4@@std@@@Pegas@@U?$less@V?$basic_string@DU?$char_traits@D@std@@V?$allocator@D@2@@std@@@2@V?$allocator@U?$pair@$$CBV?$basic_string@DU?$char_traits@D@std@@V?$allocator@D@2@@std@@V?$ptr@V?$set@PAVIEventListener@Pegas@@U?$less@PAVIEventListener@Pegas@@@std@@V?$allocator@PAVIEventListener@Pegas@@@4@@std@@@Pegas@@@std@@@2@$0A@@std@@@std@@QAE@PAU012@00ABU?$pair@$$CBV?$basic_string@DU?$char_traits@D@std@@V?$allocator@D@2@@std@@V?$ptr@V?$set@PAVIEventListener@Pegas@@U?$less@PAVIEventListener@Pegas@@@std@@V?$allocator@PAVIEventListener@Pegas@@@4@@std@@@Pegas@@@2@D@Z 004223b0 f i engine:event_system.obj
 0001:00021400       ??0_Node@?$_Tree_nod@V?$_Tset_traits@PAVIEventListener@Pegas@@U?$less@PAVIEventListener@Pegas@@@std@@V?$allocator@PAVIEventListener@Pegas@@@4@$0A@@std@@@std@@QAE@PAU012@00ABQAVIEventListener@Pegas@@D@Z 00422400 f i engine:event_system.obj
 0001:00021450       ??0?$_Tree_nod@V?$_Tset_traits@PAVIEventListener@Pegas@@U?$less@PAVIEventListener@Pegas@@@std@@V?$allocator@PAVIEventListener@Pegas@@@4@$0A@@std@@@std@@IAE@ABU?$less@PAVIEventListener@Pegas@@@1@V?$allocator@PAVIEventListener@Pegas@@@1@@Z 00422450 f i engine:event_system.obj
 0001:00021490       ?construct@?$allocator@PAU_Node@?$_Tree_nod@V?$_Tset_traits@PAVIEventListener@Pegas@@U?$less@PAVIEventListener@Pegas@@@std@@V?$allocator@PAVIEventListener@Pegas@@@4@$0A@@std@@@std@@@std@@QAEXPAPAU_Node@?$_Tree_nod@V?$_Tset_traits@PAVIEventListener@Pegas@@U?$less@PAVIEventListener@Pegas@@@std@@V?$allocator@PAVIEventListener@Pegas@@@4@$0A@@std@@@2@ABQAU342@@Z 00422490 f i engine:event_system.obj
 0001:00021490       ?construct@?$allocator@PAU_Node@?$_List_nod@HV?$allocator@H@std@@@std@@@std@@QAEXPAPAU_Node@?$_List_nod@HV?$allocator@H@std@@@2@ABQAU342@@Z 00422490 f i engine:processes.obj
 0001:00021490       ?construct@?$allocator@H@std@@QAEXPAHABH@Z 00422490 f i engine:processes.obj
 0001:00021490       ?construct@?$allocator@PAU_Node@?$_List_nod@V?$ptr@UEvent@Pegas@@@Pegas@@V?$allocator@V?$ptr@UEvent@Pegas@@@Pegas@@@std@@@std@@@std@@QAEXPAPAU_Node@?$_List_nod@V?$ptr@UEvent@Pegas@@@Pegas@@V?$allocator@V?$ptr@UEvent@Pegas@@@Pegas@@@std@@@2@ABQAU342@@Z 00422490 f i engine:waiting.obj
 0001:000214b0       ??0?$_Deque_const_iterator@V?$ptr@UEvent@Pegas@@@Pegas@@V?$allocator@V?$ptr@UEvent@Pegas@@@Pegas@@@std@@$00@std@@QAE@IPBV_Container_base_aux@1@@Z 004224b0 f i engine:event_system.obj
 0001:00021510       ??0?$_Iterator_with_base@Ubidirectional_iterator_tag@std@@V?$ptr@VBaseScreenLayer@Pegas@@@Pegas@@HPBV34@ABV34@V_Iterator_base_aux@2@@std@@QAE@XZ 00422510 f i engine:default_game_state.obj
 0001:00021510       ??0?$_Iterator_with_base@Urandom_access_iterator_tag@std@@V?$ptr@VWidget@Pegas@@@Pegas@@HPBV34@ABV34@V_Iterator_base_aux@2@@std@@QAE@XZ 00422510 f i engine:gui_layer.obj
 0001:00021510       ??0?$_Iterator_with_base@Urandom_access_iterator_tag@std@@V?$ptr@UEvent@Pegas@@@Pegas@@HPBV34@ABV34@V_Iterator_base_aux@2@@std@@QAE@XZ 00422510 f i engine:event_system.obj
 0001:00021510       ??0?$_Iterator_with_base@Ubidirectional_iterator_tag@std@@V?$ptr@UEvent@Pegas@@@Pegas@@HPBV34@ABV34@V_Iterator_base_aux@2@@std@@QAE@XZ 00422510 f i engine:waiting.obj
 0001:00021530       ??0?$_Tset_traits@PAVIEventListener@Pegas@@U?$less@PAVIEventListener@Pegas@@@std@@V?$allocator@PAVIEventListener@Pegas@@@4@$0A@@std@@QAE@U?$less@PAVIEventListener@Pegas@@@1@V?$allocator@PAVIEventListener@Pegas@@@1@@Z 00422530 f i engine:event_system.obj
 0001:00021560       ??0?$_Container_base_aux_alloc_real@V?$allocator@PAVIEventListener@Pegas@@@std@@@std@@IAE@V?$allocator@PAVIEventListener@Pegas@@@1@@Z 00422560 f i engine:event_system.obj
 0001:00021610       ??$make_pair@V?$basic_string@DU?$char_traits@D@std@@V?$allocator@D@2@@std@@V?$ptr@V?$set@PAVIEventListener@Pegas@@U?$less@PAVIEventListener@Pegas@@@std@@V?$allocator@PAVIEventListener@Pegas@@@4@@std@@@Pegas@@@std@@YA?AU?$pair@V?$basic_string@DU?$char_traits@D@std@@V?$allocator@D@2@@std@@V?$ptr@V?$set@PAVIEventListener@Pegas@@U?$less@PAVIEventListener@Pegas@@@std@@V?$allocator@PAVIEventListener@Pegas@@@4@@std@@@Pegas@@@0@V?$basic_string@DU?$char_traits@D@std@@V?$allocator@D@2@@0@V?$ptr@V?$set@PAVIEventListener@Pegas@@U?$less@PAVIEventListener@Pegas@@@std@@V?$allocator@PAVIEventListener@Pegas@@@4@@std@@@Pegas@@@Z 00422610 f i engine:event_system.obj
 0001:00021690       ??0?$pair@$$CBV?$basic_string@DU?$char_traits@D@std@@V?$allocator@D@2@@std@@V?$ptr@V?$set@PAVIEventListener@Pegas@@U?$less@PAVIEventListener@Pegas@@@std@@V?$allocator@PAVIEventListener@Pegas@@@4@@std@@@Pegas@@@std@@QAE@ABU01@@Z 00422690 f i engine:event_system.obj
 0001:00021690       ??$?0V?$basic_string@DU?$char_traits@D@std@@V?$allocator@D@2@@std@@V?$ptr@V?$set@PAVIEventListener@Pegas@@U?$less@PAVIEventListener@Pegas@@@std@@V?$allocator@PAVIEventListener@Pegas@@@4@@std@@@Pegas@@@?$pair@$$CBV?$basic_string@DU?$char_traits@D@std@@V?$allocator@D@2@@std@@V?$ptr@V?$set@PAVIEventListener@Pegas@@U?$less@PAVIEventListener@Pegas@@@std@@V?$allocator@PAVIEventListener@Pegas@@@4@@std@@@Pegas@@@std@@QAE@ABU?$pair@V?$basic_string@DU?$char_traits@D@std@@V?$allocator@D@2@@std@@V?$ptr@V?$set@PAVIEventListener@Pegas@@U?$less@PAVIEventListener@Pegas@@@std@@V?$allocator@PAVIEventListener@Pegas@@@4@@std@@@Pegas@@@1@@Z 00422690 f i engine:event_system.obj
 0001:000216c0       ??$_Distance@Viterator@?$_Tree@V?$_Tset_traits@PAVIEventListener@Pegas@@U?$less@PAVIEventListener@Pegas@@@std@@V?$allocator@PAVIEventListener@Pegas@@@4@$0A@@std@@@std@@I@std@@YAXViterator@?$_Tree@V?$_Tset_traits@PAVIEventListener@Pegas@@U?$less@PAVIEventListener@Pegas@@@std@@V?$allocator@PAVIEventListener@Pegas@@@4@$0A@@std@@@0@0AAI@Z 004226c0 f i engine:event_system.obj
 0001:00021700       ??$_Distance@Vconst_iterator@?$_Tree@V?$_Tset_traits@PAVIEventListener@Pegas@@U?$less@PAVIEventListener@Pegas@@@std@@V?$allocator@PAVIEventListener@Pegas@@@4@$0A@@std@@@std@@I@std@@YAXVconst_iterator@?$_Tree@V?$_Tset_traits@PAVIEventListener@Pegas@@U?$less@PAVIEventListener@Pegas@@@std@@V?$allocator@PAVIEventListener@Pegas@@@4@$0A@@std@@@0@0AAI@Z 00422700 f i engine:event_system.obj
 0001:00021740       ??$?MDU?$char_traits@D@std@@V?$allocator@D@1@@std@@YA_NABV?$basic_string@DU?$char_traits@D@std@@V?$allocator@D@2@@0@0@Z 00422740 f i engine:event_system.obj
 0001:00021760       ??$unchecked_uninitialized_fill_n@PAPAV?$ptr@UEvent@Pegas@@@Pegas@@IPAV12@V?$allocator@PAV?$ptr@UEvent@Pegas@@@Pegas@@@std@@@stdext@@YAXPAPAV?$ptr@UEvent@Pegas@@@Pegas@@IABQAV12@AAV?$allocator@PAV?$ptr@UEvent@Pegas@@@Pegas@@@std@@@Z 00422760 f i engine:event_system.obj
 0001:00021760       ??$unchecked_uninitialized_fill_n@PAPAHIPAHV?$allocator@PAH@std@@@stdext@@YAXPAPAHIABQAHAAV?$allocator@PAH@std@@@Z 00422760 f i engine:processes.obj
 0001:000217b0       ??$_Allocate@V?$ptr@UEvent@Pegas@@@Pegas@@@std@@YAPAV?$ptr@UEvent@Pegas@@@Pegas@@IPAV12@@Z 004227b0 f i engine:event_system.obj
 0001:00021800       ??$_Construct@V?$ptr@UEvent@Pegas@@@Pegas@@V12@@std@@YAXPAV?$ptr@UEvent@Pegas@@@Pegas@@ABV12@@Z 00422800 f i engine:event_system.obj
 0001:00021850       ??$_Allocate@PAH@std@@YAPAPAHIPAPAH@Z 00422850 f i engine:processes.obj
 0001:00021850       ??$_Allocate@PAV?$ptr@UEvent@Pegas@@@Pegas@@@std@@YAPAPAV?$ptr@UEvent@Pegas@@@Pegas@@IPAPAV12@@Z 00422850 f i engine:event_system.obj
 0001:000218a0       ??$?0H@?$allocator@PAU_Node@?$_List_nod@HV?$allocator@H@std@@@std@@@std@@QAE@ABV?$allocator@H@1@@Z 004228a0 f i engine:processes.obj
 0001:000218a0       ??$?0PAVIEventListener@Pegas@@@?$allocator@V_Aux_cont@std@@@std@@QAE@ABV?$allocator@PAVIEventListener@Pegas@@@1@@Z 004228a0 f i engine:event_system.obj
 0001:000218a0       ??$?0V?$ptr@UEvent@Pegas@@@Pegas@@@?$allocator@PAU_Node@?$_List_nod@V?$ptr@UEvent@Pegas@@@Pegas@@V?$allocator@V?$ptr@UEvent@Pegas@@@Pegas@@@std@@@std@@@std@@QAE@ABV?$allocator@V?$ptr@UEvent@Pegas@@@Pegas@@@1@@Z 004228a0 f i engine:waiting.obj
 0001:000218a0       ??$?0H@?$allocator@U_Node@?$_List_nod@HV?$allocator@H@std@@@std@@@std@@QAE@ABV?$allocator@H@1@@Z 004228a0 f i engine:processes.obj
 0001:000218a0       ??$?0PAVIEventListener@Pegas@@@?$allocator@PAU_Node@?$_Tree_nod@V?$_Tset_traits@PAVIEventListener@Pegas@@U?$less@PAVIEventListener@Pegas@@@std@@V?$allocator@PAVIEventListener@Pegas@@@4@$0A@@std@@@std@@@std@@QAE@ABV?$allocator@PAVIEventListener@Pegas@@@1@@Z 004228a0 f i engine:event_system.obj
 0001:000218a0       ??0?$allocator@PAVIEventListener@Pegas@@@std@@QAE@ABV01@@Z 004228a0 f i engine:event_system.obj
 0001:000218a0       ??$?0PAVIEventListener@Pegas@@@?$allocator@U_Node@?$_Tree_nod@V?$_Tset_traits@PAVIEventListener@Pegas@@U?$less@PAVIEventListener@Pegas@@@std@@V?$allocator@PAVIEventListener@Pegas@@@4@$0A@@std@@@std@@@std@@QAE@ABV?$allocator@PAVIEventListener@Pegas@@@1@@Z 004228a0 f i engine:event_system.obj
 0001:000218a0       ??$?0V?$ptr@UEvent@Pegas@@@Pegas@@@?$allocator@U_Node@?$_List_nod@V?$ptr@UEvent@Pegas@@@Pegas@@V?$allocator@V?$ptr@UEvent@Pegas@@@Pegas@@@std@@@std@@@std@@QAE@ABV?$allocator@V?$ptr@UEvent@Pegas@@@Pegas@@@1@@Z 004228a0 f i engine:waiting.obj
 0001:000218b0       ??$_Allocate@U_Node@?$_Tree_nod@V?$_Tset_traits@PAVIEventListener@Pegas@@U?$less@PAVIEventListener@Pegas@@@std@@V?$allocator@PAVIEventListener@Pegas@@@4@$0A@@std@@@std@@@std@@YAPAU_Node@?$_Tree_nod@V?$_Tset_traits@PAVIEventListener@Pegas@@U?$less@PAVIEventListener@Pegas@@@std@@V?$allocator@PAVIEventListener@Pegas@@@4@$0A@@std@@@0@IPAU120@@Z 004228b0 f i engine:event_system.obj
 0001:00021900       ??$_Construct@PAU_Node@?$_List_nod@V?$ptr@UEvent@Pegas@@@Pegas@@V?$allocator@V?$ptr@UEvent@Pegas@@@Pegas@@@std@@@std@@PAU123@@std@@YAXPAPAU_Node@?$_List_nod@V?$ptr@UEvent@Pegas@@@Pegas@@V?$allocator@V?$ptr@UEvent@Pegas@@@Pegas@@@std@@@0@ABQAU120@@Z 00422900 f i engine:waiting.obj
 0001:00021900       ??$_Construct@HH@std@@YAXPAHABH@Z 00422900 f i engine:processes.obj
 0001:00021900       ??$_Construct@PAU_Node@?$_Tree_nod@V?$_Tset_traits@PAVIEventListener@Pegas@@U?$less@PAVIEventListener@Pegas@@@std@@V?$allocator@PAVIEventListener@Pegas@@@4@$0A@@std@@@std@@PAU123@@std@@YAXPAPAU_Node@?$_Tree_nod@V?$_Tset_traits@PAVIEventListener@Pegas@@U?$less@PAVIEventListener@Pegas@@@std@@V?$allocator@PAVIEventListener@Pegas@@@4@$0A@@std@@@0@ABQAU120@@Z 00422900 f i engine:event_system.obj
 0001:00021900       ??$_Construct@PAU_Node@?$_List_nod@HV?$allocator@H@std@@@std@@PAU123@@std@@YAXPAPAU_Node@?$_List_nod@HV?$allocator@H@std@@@0@ABQAU120@@Z 00422900 f i engine:processes.obj
 0001:00021940       ??0?$pair@V?$basic_string@DU?$char_traits@D@std@@V?$allocator@D@2@@std@@V?$ptr@V?$set@PAVIEventListener@Pegas@@U?$less@PAVIEventListener@Pegas@@@std@@V?$allocator@PAVIEventListener@Pegas@@@4@@std@@@Pegas@@@std@@QAE@ABV?$basic_string@DU?$char_traits@D@std@@V?$allocator@D@2@@1@ABV?$ptr@V?$set@PAVIEventListener@Pegas@@U?$less@PAVIEventListener@Pegas@@@std@@V?$allocator@PAVIEventListener@Pegas@@@4@@std@@@Pegas@@@Z 00422940 f i engine:event_system.obj
 0001:00021970       ??$_Iter_cat@PAPAH@std@@YA?AUrandom_access_iterator_tag@0@ABQAPAH@Z 00422970 f i engine:processes.obj
 0001:00021970       ??$_Iter_random@PAV?$ptr@VWidget@Pegas@@@Pegas@@PAV12@@std@@YA?AUrandom_access_iterator_tag@0@ABQAV?$ptr@VWidget@Pegas@@@Pegas@@0@Z 00422970 f i engine:gui_layer.obj
 0001:00021970       ??$_Iter_cat@PAPAV?$ptr@UEvent@Pegas@@@Pegas@@@std@@YA?AUrandom_access_iterator_tag@0@ABQAPAV?$ptr@UEvent@Pegas@@@Pegas@@@Z 00422970 f i engine:event_system.obj
 0001:00021970       ??$_Iter_cat@Viterator@?$_Tree@V?$_Tmap_traits@HV?$ptr@VProcess@Pegas@@@Pegas@@U?$less@H@std@@V?$allocator@U?$pair@$$CBHV?$ptr@VProcess@Pegas@@@Pegas@@@std@@@4@$0A@@std@@@std@@@std@@YA?AUbidirectional_iterator_tag@0@ABViterator@?$_Tree@V?$_Tmap_traits@HV?$ptr@VProcess@Pegas@@@Pegas@@U?$less@H@std@@V?$allocator@U?$pair@$$CBHV?$ptr@VProcess@Pegas@@@Pegas@@@std@@@4@$0A@@std@@@0@@Z 00422970 f i engine:processes.obj
 0001:00021970       ??$_Iter_cat@Viterator@?$_Tree@V?$_Tset_traits@PAVIEventListener@Pegas@@U?$less@PAVIEventListener@Pegas@@@std@@V?$allocator@PAVIEventListener@Pegas@@@4@$0A@@std@@@std@@@std@@YA?AUbidirectional_iterator_tag@0@ABViterator@?$_Tree@V?$_Tset_traits@PAVIEventListener@Pegas@@U?$less@PAVIEventListener@Pegas@@@std@@V?$allocator@PAVIEventListener@Pegas@@@4@$0A@@std@@@0@@Z 00422970 f i engine:event_system.obj
 0001:00021970       ??$_Iter_cat@Vconst_iterator@?$_Tree@V?$_Tset_traits@PAVIEventListener@Pegas@@U?$less@PAVIEventListener@Pegas@@@std@@V?$allocator@PAVIEventListener@Pegas@@@4@$0A@@std@@@std@@@std@@YA?AUbidirectional_iterator_tag@0@ABVconst_iterator@?$_Tree@V?$_Tset_traits@PAVIEventListener@Pegas@@U?$less@PAVIEventListener@Pegas@@@std@@V?$allocator@PAVIEventListener@Pegas@@@4@$0A@@std@@@0@@Z 00422970 f i engine:event_system.obj
 0001:00021980       ??$_Distance2@Viterator@?$_Tree@V?$_Tset_traits@PAVIEventListener@Pegas@@U?$less@PAVIEventListener@Pegas@@@std@@V?$allocator@PAVIEventListener@Pegas@@@4@$0A@@std@@@std@@I@std@@YAXViterator@?$_Tree@V?$_Tset_traits@PAVIEventListener@Pegas@@U?$less@PAVIEventListener@Pegas@@@std@@V?$allocator@PAVIEventListener@Pegas@@@4@$0A@@std@@@0@0AAIUbidirectional_iterator_tag@0@@Z 00422980 f i engine:event_system.obj
 0001:000219c0       ??$_Distance2@Vconst_iterator@?$_Tree@V?$_Tset_traits@PAVIEventListener@Pegas@@U?$less@PAVIEventListener@Pegas@@@std@@V?$allocator@PAVIEventListener@Pegas@@@4@$0A@@std@@@std@@I@std@@YAXVconst_iterator@?$_Tree@V?$_Tset_traits@PAVIEventListener@Pegas@@U?$less@PAVIEventListener@Pegas@@@std@@V?$allocator@PAVIEventListener@Pegas@@@4@$0A@@std@@@0@0AAIUbidirectional_iterator_tag@0@@Z 004229c0 f i engine:event_system.obj
 0001:00021a00       ??$_Uninit_copy@PAPAHPAPAHV?$allocator@PAH@std@@@std@@YAPAPAHPAPAH00AAV?$allocator@PAH@0@U_Scalar_ptr_iterator_tag@0@U_Range_checked_iterator_tag@0@@Z 00422a00 f i engine:processes.obj
 0001:00021a00       ??$_Uninit_copy@PAPAV?$ptr@UEvent@Pegas@@@Pegas@@PAPAV12@V?$allocator@PAV?$ptr@UEvent@Pegas@@@Pegas@@@std@@@std@@YAPAPAV?$ptr@UEvent@Pegas@@@Pegas@@PAPAV12@00AAV?$allocator@PAV?$ptr@UEvent@Pegas@@@Pegas@@@0@U_Scalar_ptr_iterator_tag@0@U_Range_checked_iterator_tag@0@@Z 00422a00 f i engine:event_system.obj
 0001:00021a50       ??$?8VProcess@Pegas@@V01@@Pegas@@YA_NABV?$ptr@VProcess@Pegas@@@0@PAVProcess@0@@Z 00422a50 f i engine:processes.obj
 0001:00021a50       ??$?8UEvent@Pegas@@U01@@Pegas@@YA_NABV?$ptr@UEvent@Pegas@@@0@PAUEvent@0@@Z 00422a50 f i engine:event_system.obj
 0001:00021a70       ??$_Checked_base@PAPAH@std@@YAPAPAHAAPAPAHU_Unchanged_checked_iterator_base_type_tag@0@@Z 00422a70 f i engine:processes.obj
 0001:00021a70       ??$_Checked_base@PAPAV?$ptr@UEvent@Pegas@@@Pegas@@@std@@YAPAPAV?$ptr@UEvent@Pegas@@@Pegas@@AAPAPAV12@U_Unchanged_checked_iterator_base_type_tag@0@@Z 00422a70 f i engine:event_system.obj
 0001:00021a70       ??$_Checked_base@PAV?$ptr@VWidget@Pegas@@@Pegas@@@std@@YAPAV?$ptr@VWidget@Pegas@@@Pegas@@AAPAV12@U_Unchanged_checked_iterator_base_type_tag@0@@Z 00422a70 f i engine:gui_layer.obj
 0001:00021a80       ??$_Fill_n@PAPAV?$ptr@UEvent@Pegas@@@Pegas@@IPAV12@@std@@YAXPAPAV?$ptr@UEvent@Pegas@@@Pegas@@IABQAV12@U_Range_checked_iterator_tag@0@@Z 00422a80 f i engine:event_system.obj
 0001:00021a80       ??$_Fill_n@PAPAHIPAH@std@@YAXPAPAHIABQAHU_Range_checked_iterator_tag@0@@Z 00422a80 f i engine:processes.obj
 0001:00021ab0       ??1?$pair@HV?$ptr@VProcess@Pegas@@@Pegas@@@std@@QAE@XZ 00422ab0 f i engine:processes.obj
 0001:00021ad0       ??A?$map@HV?$ptr@VProcess@Pegas@@@Pegas@@U?$less@H@std@@V?$allocator@U?$pair@$$CBHV?$ptr@VProcess@Pegas@@@Pegas@@@std@@@4@@std@@QAEAAV?$ptr@VProcess@Pegas@@@Pegas@@ABH@Z 00422ad0 f i engine:processes.obj
 0001:00021bf0       ?insert@?$_Tree@V?$_Tmap_traits@HV?$ptr@VProcess@Pegas@@@Pegas@@U?$less@H@std@@V?$allocator@U?$pair@$$CBHV?$ptr@VProcess@Pegas@@@Pegas@@@std@@@4@$0A@@std@@@std@@QAE?AU?$pair@Viterator@?$_Tree@V?$_Tmap_traits@HV?$ptr@VProcess@Pegas@@@Pegas@@U?$less@H@std@@V?$allocator@U?$pair@$$CBHV?$ptr@VProcess@Pegas@@@Pegas@@@std@@@4@$0A@@std@@@std@@_N@2@ABU?$pair@$$CBHV?$ptr@VProcess@Pegas@@@Pegas@@@2@@Z 00422bf0 f i engine:processes.obj
 0001:00021db0       ?erase@?$_Tree@V?$_Tmap_traits@HV?$ptr@VProcess@Pegas@@@Pegas@@U?$less@H@std@@V?$allocator@U?$pair@$$CBHV?$ptr@VProcess@Pegas@@@Pegas@@@std@@@4@$0A@@std@@@std@@QAEIABH@Z 00422db0 f i engine:processes.obj
 0001:00021e30       ?find@?$_Tree@V?$_Tmap_traits@HV?$ptr@VProcess@Pegas@@@Pegas@@U?$less@H@std@@V?$allocator@U?$pair@$$CBHV?$ptr@VProcess@Pegas@@@Pegas@@@std@@@4@$0A@@std@@@std@@QAE?AViterator@12@ABH@Z 00422e30 f i engine:processes.obj
 0001:00021ed0       ?size@?$queue@HV?$deque@HV?$allocator@H@std@@@std@@@std@@QBEIXZ 00422ed0 f i engine:processes.obj
 0001:00021ef0       ?front@?$queue@HV?$deque@HV?$allocator@H@std@@@std@@@std@@QAEAAHXZ 00422ef0 f i engine:processes.obj
 0001:00021f10       ?push@?$queue@HV?$deque@HV?$allocator@H@std@@@std@@@std@@QAEXABH@Z 00422f10 f i engine:processes.obj
 0001:00021f30       ?pop@?$queue@HV?$deque@HV?$allocator@H@std@@@std@@@std@@QAEXXZ 00422f30 f i engine:processes.obj
 0001:00021f50       ??0?$list@HV?$allocator@H@std@@@std@@QAE@XZ 00422f50 f i engine:processes.obj
 0001:00021fd0       ??1?$list@HV?$allocator@H@std@@@std@@QAE@XZ 00422fd0 f i engine:processes.obj
 0001:00021ff0       ?begin@?$list@HV?$allocator@H@std@@@std@@QAE?AV?$_Iterator@$00@12@XZ 00422ff0 f i engine:processes.obj
 0001:00022020       ?end@?$list@HV?$allocator@H@std@@@std@@QAE?AV?$_Iterator@$00@12@XZ 00423020 f i engine:processes.obj
 0001:00022050       ?push_back@?$list@HV?$allocator@H@std@@@std@@QAEXABH@Z 00423050 f i engine:processes.obj
 0001:00022090       ?clear@?$list@HV?$allocator@H@std@@@std@@QAEXXZ 00423090 f i engine:processes.obj
 0001:00022130       ??D?$_Iterator@$00@?$list@V?$ptr@UEvent@Pegas@@@Pegas@@V?$allocator@V?$ptr@UEvent@Pegas@@@Pegas@@@std@@@std@@QBEAAV?$ptr@UEvent@Pegas@@@Pegas@@XZ 00423130 f i engine:waiting.obj
 0001:00022130       ??D?$_Iterator@$00@?$list@V?$ptr@VBaseScreenLayer@Pegas@@@Pegas@@V?$allocator@V?$ptr@VBaseScreenLayer@Pegas@@@Pegas@@@std@@@std@@QBEAAV?$ptr@VBaseScreenLayer@Pegas@@@Pegas@@XZ 00423130 f i engine:default_game_state.obj
 0001:00022130       ??D?$_Iterator@$00@?$list@HV?$allocator@H@std@@@std@@QBEAAHXZ 00423130 f i engine:processes.obj
 0001:00022150       ??Citerator@?$_Tree@V?$_Tmap_traits@V?$basic_string@DU?$char_traits@D@std@@V?$allocator@D@2@@std@@V?$ptr@V?$set@PAVIEventListener@Pegas@@U?$less@PAVIEventListener@Pegas@@@std@@V?$allocator@PAVIEventListener@Pegas@@@4@@std@@@Pegas@@U?$less@V?$basic_string@DU?$char_traits@D@std@@V?$allocator@D@2@@std@@@2@V?$allocator@U?$pair@$$CBV?$basic_string@DU?$char_traits@D@std@@V?$allocator@D@2@@std@@V?$ptr@V?$set@PAVIEventListener@Pegas@@U?$less@PAVIEventListener@Pegas@@@std@@V?$allocator@PAVIEventListener@Pegas@@@4@@std@@@Pegas@@@std@@@2@$0A@@std@@@std@@QBEPAU?$pair@$$CBV?$basic_string@DU?$char_traits@D@std@@V?$allocator@D@2@@std@@V?$ptr@V?$set@PAVIEventListener@Pegas@@U?$less@PAVIEventListener@Pegas@@@std@@V?$allocator@PAVIEventListener@Pegas@@@4@@std@@@Pegas@@@2@XZ 00423150 f i engine:event_system.obj
 0001:00022150       ??Citerator@?$_Tree@V?$_Tmap_traits@HV?$ptr@VProcess@Pegas@@@Pegas@@U?$less@H@std@@V?$allocator@U?$pair@$$CBHV?$ptr@VProcess@Pegas@@@Pegas@@@std@@@4@$0A@@std@@@std@@QBEPAU?$pair@$$CBHV?$ptr@VProcess@Pegas@@@Pegas@@@2@XZ 00423150 f i engine:processes.obj
 0001:00022170       ??Eiterator@?$_Tree@V?$_Tmap_traits@HV?$ptr@VProcess@Pegas@@@Pegas@@U?$less@H@std@@V?$allocator@U?$pair@$$CBHV?$ptr@VProcess@Pegas@@@Pegas@@@std@@@4@$0A@@std@@@std@@QAEAAV012@XZ 00423170 f i engine:processes.obj
 0001:00022190       ??1?$_List_val@HV?$allocator@H@std@@@std@@QAE@XZ 00423190 f i engine:processes.obj
 0001:000221b0       ??1?$_List_ptr@HV?$allocator@H@std@@@std@@QAE@XZ 004231b0 f i engine:processes.obj
 0001:000221d0       ??1?$_List_nod@HV?$allocator@H@std@@@std@@QAE@XZ 004231d0 f i engine:processes.obj
 0001:000221f0       ?_Key@?$_Tree@V?$_Tmap_traits@HV?$ptr@VProcess@Pegas@@@Pegas@@U?$less@H@std@@V?$allocator@U?$pair@$$CBHV?$ptr@VProcess@Pegas@@@Pegas@@@std@@@4@$0A@@std@@@std@@KAABHPAU_Node@?$_Tree_nod@V?$_Tmap_traits@HV?$ptr@VProcess@Pegas@@@Pegas@@U?$less@H@std@@V?$allocator@U?$pair@$$CBHV?$ptr@VProcess@Pegas@@@Pegas@@@std@@@4@$0A@@std@@@2@@Z 004231f0 f i engine:processes.obj
 0001:000221f0       ?_Key@?$_Tree@V?$_Tset_traits@PAVIEventListener@Pegas@@U?$less@PAVIEventListener@Pegas@@@std@@V?$allocator@PAVIEventListener@Pegas@@@4@$0A@@std@@@std@@KAABQAVIEventListener@Pegas@@PAU_Node@?$_Tree_nod@V?$_Tset_traits@PAVIEventListener@Pegas@@U?$less@PAVIEventListener@Pegas@@@std@@V?$allocator@PAVIEventListener@Pegas@@@4@$0A@@std@@@2@@Z 004231f0 f i engine:event_system.obj
 0001:000221f0       ?_Key@?$_Tree@V?$_Tmap_traits@V?$basic_string@DU?$char_traits@D@std@@V?$allocator@D@2@@std@@V?$ptr@V?$set@PAVIEventListener@Pegas@@U?$less@PAVIEventListener@Pegas@@@std@@V?$allocator@PAVIEventListener@Pegas@@@4@@std@@@Pegas@@U?$less@V?$basic_string@DU?$char_traits@D@std@@V?$allocator@D@2@@std@@@2@V?$allocator@U?$pair@$$CBV?$basic_string@DU?$char_traits@D@std@@V?$allocator@D@2@@std@@V?$ptr@V?$set@PAVIEventListener@Pegas@@U?$less@PAVIEventListener@Pegas@@@std@@V?$allocator@PAVIEventListener@Pegas@@@4@@std@@@Pegas@@@std@@@2@$0A@@std@@@std@@KAABV?$basic_string@DU?$char_traits@D@std@@V?$allocator@D@2@@2@PAU_Node@?$_Tree_nod@V?$_Tmap_traits@V?$basic_string@DU?$char_traits@D@std@@V?$allocator@D@2@@std@@V?$ptr@V?$set@PAVIEventListener@Pegas@@U?$less@PAVIEventListener@Pegas@@@std@@V?$allocator@PAVIEventListener@Pegas@@@4@@std@@@Pegas@@U?$less@V?$basic_string@DU?$char_traits@D@std@@V?$allocator@D@2@@std@@@2@V?$allocator@U?$pair@$$CBV?$basic_string@DU?$char_traits@D@std@@V?$allocator@D@2@@std@@V?$ptr@V?$set@PAVIEventListener@Pegas@@U?$less@PAVIEventListener@Pegas@@@std@@V?$allocator@PAVIEventListener@Pegas@@@4@@std@@@Pegas@@@std@@@2@$0A@@std@@@2@@Z 004231f0 f i engine:event_system.obj
 0001:00022210       ?insert@?$_Tree@V?$_Tmap_traits@HV?$ptr@VProcess@Pegas@@@Pegas@@U?$less@H@std@@V?$allocator@U?$pair@$$CBHV?$ptr@VProcess@Pegas@@@Pegas@@@std@@@4@$0A@@std@@@std@@QAE?AViterator@12@Vconst_iterator@12@ABU?$pair@$$CBHV?$ptr@VProcess@Pegas@@@Pegas@@@2@@Z 00423210 f i engine:processes.obj
 0001:00022810       ?lower_bound@?$_Tree@V?$_Tmap_traits@HV?$ptr@VProcess@Pegas@@@Pegas@@U?$less@H@std@@V?$allocator@U?$pair@$$CBHV?$ptr@VProcess@Pegas@@@Pegas@@@std@@@4@$0A@@std@@@std@@QAE?AViterator@12@ABH@Z 00423810 f i engine:processes.obj
 0001:00022840       ?equal_range@?$_Tree@V?$_Tmap_traits@HV?$ptr@VProcess@Pegas@@@Pegas@@U?$less@H@std@@V?$allocator@U?$pair@$$CBHV?$ptr@VProcess@Pegas@@@Pegas@@@std@@@4@$0A@@std@@@std@@QAE?AU?$pair@Viterator@?$_Tree@V?$_Tmap_traits@HV?$ptr@VProcess@Pegas@@@Pegas@@U?$less@H@std@@V?$allocator@U?$pair@$$CBHV?$ptr@VProcess@Pegas@@@Pegas@@@std@@@4@$0A@@std@@@std@@V123@@2@ABH@Z 00423840 f i engine:processes.obj
 0001:00022860       ?_Insert@?$_Tree@V?$_Tmap_traits@HV?$ptr@VProcess@Pegas@@@Pegas@@U?$less@H@std@@V?$allocator@U?$pair@$$CBHV?$ptr@VProcess@Pegas@@@Pegas@@@std@@@4@$0A@@std@@@std@@IAE?AViterator@12@_NPAU_Node@?$_Tree_nod@V?$_Tmap_traits@HV?$ptr@VProcess@Pegas@@@Pegas@@U?$less@H@std@@V?$allocator@U?$pair@$$CBHV?$ptr@VProcess@Pegas@@@Pegas@@@std@@@4@$0A@@std@@@2@ABU?$pair@$$CBHV?$ptr@VProcess@Pegas@@@Pegas@@@2@@Z 00423860 f i engine:processes.obj
 0001:00022c00       ?front@?$deque@HV?$allocator@H@std@@@std@@QAEAAHXZ 00423c00 f i engine:processes.obj
 0001:00022c20       ?pop_front@?$deque@HV?$allocator@H@std@@@std@@QAEXXZ 00423c20 f i engine:processes.obj
 0001:00022ca0       ?push_back@?$deque@HV?$allocator@H@std@@@std@@QAEXABH@Z 00423ca0 f i engine:processes.obj
 0001:00022d80       ?_Insert@?$list@HV?$allocator@H@std@@@std@@QAEXV?$_Const_iterator@$00@12@ABH@Z 00423d80 f i engine:processes.obj
 0001:00022e00       ?_Buynode@?$list@HV?$allocator@H@std@@@std@@IAEPAU_Node@?$_List_nod@HV?$allocator@H@std@@@2@XZ 00423e00 f i engine:processes.obj
 0001:00022f00       ?_Tidy@?$list@HV?$allocator@H@std@@@std@@IAEXXZ 00423f00 f i engine:processes.obj
 0001:00022f70       ??0?$_List_val@HV?$allocator@H@std@@@std@@QAE@V?$allocator@H@1@@Z 00423f70 f i engine:processes.obj
 0001:00022fb0       ??0?$_Iterator@$00@?$list@HV?$allocator@H@std@@@std@@QAE@PAU_Node@?$_List_nod@HV?$allocator@H@std@@@2@PBV12@@Z 00423fb0 f i engine:processes.obj
 0001:00022fd0       ??D?$_Const_iterator@$00@?$list@HV?$allocator@H@std@@@std@@QBEABHXZ 00423fd0 f i engine:processes.obj
 0001:00022fd0       ??D?$_Const_iterator@$00@?$list@V?$ptr@UEvent@Pegas@@@Pegas@@V?$allocator@V?$ptr@UEvent@Pegas@@@Pegas@@@std@@@std@@QBEABV?$ptr@UEvent@Pegas@@@Pegas@@XZ 00423fd0 f i engine:waiting.obj
 0001:00022fd0       ??D?$_Const_iterator@$00@?$list@V?$ptr@VBaseScreenLayer@Pegas@@@Pegas@@V?$allocator@V?$ptr@VBaseScreenLayer@Pegas@@@Pegas@@@std@@@std@@QBEABV?$ptr@VBaseScreenLayer@Pegas@@@Pegas@@XZ 00423fd0 f i engine:default_game_state.obj
 0001:00023030       ??Dconst_iterator@?$_Tree@V?$_Tmap_traits@HV?$ptr@VProcess@Pegas@@@Pegas@@U?$less@H@std@@V?$allocator@U?$pair@$$CBHV?$ptr@VProcess@Pegas@@@Pegas@@@std@@@4@$0A@@std@@@std@@QBEABU?$pair@$$CBHV?$ptr@VProcess@Pegas@@@Pegas@@@2@XZ 00424030 f i engine:processes.obj
 0001:00023030       ??Dconst_iterator@?$_Tree@V?$_Tset_traits@PAVIEventListener@Pegas@@U?$less@PAVIEventListener@Pegas@@@std@@V?$allocator@PAVIEventListener@Pegas@@@4@$0A@@std@@@std@@QBEABQAVIEventListener@Pegas@@XZ 00424030 f i engine:event_system.obj
 0001:00023030       ??Dconst_iterator@?$_Tree@V?$_Tmap_traits@V?$basic_string@DU?$char_traits@D@std@@V?$allocator@D@2@@std@@V?$ptr@V?$set@PAVIEventListener@Pegas@@U?$less@PAVIEventListener@Pegas@@@std@@V?$allocator@PAVIEventListener@Pegas@@@4@@std@@@Pegas@@U?$less@V?$basic_string@DU?$char_traits@D@std@@V?$allocator@D@2@@std@@@2@V?$allocator@U?$pair@$$CBV?$basic_string@DU?$char_traits@D@std@@V?$allocator@D@2@@std@@V?$ptr@V?$set@PAVIEventListener@Pegas@@U?$less@PAVIEventListener@Pegas@@@std@@V?$allocator@PAVIEventListener@Pegas@@@4@@std@@@Pegas@@@std@@@2@$0A@@std@@@std@@QBEABU?$pair@$$CBV?$basic_string@DU?$char_traits@D@std@@V?$allocator@D@2@@std@@V?$ptr@V?$set@PAVIEventListener@Pegas@@U?$less@PAVIEventListener@Pegas@@@std@@V?$allocator@PAVIEventListener@Pegas@@@4@@std@@@Pegas@@@2@XZ 00424030 f i engine:event_system.obj
 0001:00023080       ??Diterator@?$_Tree@V?$_Tmap_traits@HV?$ptr@VProcess@Pegas@@@Pegas@@U?$less@H@std@@V?$allocator@U?$pair@$$CBHV?$ptr@VProcess@Pegas@@@Pegas@@@std@@@4@$0A@@std@@@std@@QBEAAU?$pair@$$CBHV?$ptr@VProcess@Pegas@@@Pegas@@@2@XZ 00424080 f i engine:processes.obj
 0001:00023080       ??Diterator@?$_Tree@V?$_Tmap_traits@V?$basic_string@DU?$char_traits@D@std@@V?$allocator@D@2@@std@@V?$ptr@V?$set@PAVIEventListener@Pegas@@U?$less@PAVIEventListener@Pegas@@@std@@V?$allocator@PAVIEventListener@Pegas@@@4@@std@@@Pegas@@U?$less@V?$basic_string@DU?$char_traits@D@std@@V?$allocator@D@2@@std@@@2@V?$allocator@U?$pair@$$CBV?$basic_string@DU?$char_traits@D@std@@V?$allocator@D@2@@std@@V?$ptr@V?$set@PAVIEventListener@Pegas@@U?$less@PAVIEventListener@Pegas@@@std@@V?$allocator@PAVIEventListener@Pegas@@@4@@std@@@Pegas@@@std@@@2@$0A@@std@@@std@@QBEAAU?$pair@$$CBV?$basic_string@DU?$char_traits@D@std@@V?$allocator@D@2@@std@@V?$ptr@V?$set@PAVIEventListener@Pegas@@U?$less@PAVIEventListener@Pegas@@@std@@V?$allocator@PAVIEventListener@Pegas@@@4@@std@@@Pegas@@@2@XZ 00424080 f i engine:event_system.obj
 0001:00023080       ??Diterator@?$_Tree@V?$_Tset_traits@PAVIEventListener@Pegas@@U?$less@PAVIEventListener@Pegas@@@std@@V?$allocator@PAVIEventListener@Pegas@@@4@$0A@@std@@@std@@QBEAAPAVIEventListener@Pegas@@XZ 00424080 f i engine:event_system.obj
 0001:000230a0       ??Fiterator@?$_Tree@V?$_Tmap_traits@HV?$ptr@VProcess@Pegas@@@Pegas@@U?$less@H@std@@V?$allocator@U?$pair@$$CBHV?$ptr@VProcess@Pegas@@@Pegas@@@std@@@4@$0A@@std@@@std@@QAEAAV012@XZ 004240a0 f i engine:processes.obj
 0001:000230c0       ??0?$pair@Viterator@?$_Tree@V?$_Tset_traits@PAVIEventListener@Pegas@@U?$less@PAVIEventListener@Pegas@@@std@@V?$allocator@PAVIEventListener@Pegas@@@4@$0A@@std@@@std@@_N@std@@QAE@ABViterator@?$_Tree@V?$_Tset_traits@PAVIEventListener@Pegas@@U?$less@PAVIEventListener@Pegas@@@std@@V?$allocator@PAVIEventListener@Pegas@@@4@$0A@@std@@@1@AB_N@Z 004240c0 f i engine:event_system.obj
 0001:000230c0       ??0?$pair@Viterator@?$_Tree@V?$_Tmap_traits@V?$basic_string@DU?$char_traits@D@std@@V?$allocator@D@2@@std@@V?$ptr@V?$set@PAVIEventListener@Pegas@@U?$less@PAVIEventListener@Pegas@@@std@@V?$allocator@PAVIEventListener@Pegas@@@4@@std@@@Pegas@@U?$less@V?$basic_string@DU?$char_traits@D@std@@V?$allocator@D@2@@std@@@2@V?$allocator@U?$pair@$$CBV?$basic_string@DU?$char_traits@D@std@@V?$allocator@D@2@@std@@V?$ptr@V?$set@PAVIEventListener@Pegas@@U?$less@PAVIEventListener@Pegas@@@std@@V?$allocator@PAVIEventListener@Pegas@@@4@@std@@@Pegas@@@std@@@2@$0A@@std@@@std@@_N@std@@QAE@ABViterator@?$_Tree@V?$_Tmap_traits@V?$basic_string@DU?$char_traits@D@std@@V?$allocator@D@2@@std@@V?$ptr@V?$set@PAVIEventListener@Pegas@@U?$less@PAVIEventListener@Pegas@@@std@@V?$allocator@PAVIEventListener@Pegas@@@4@@std@@@Pegas@@U?$less@V?$basic_string@DU?$char_traits@D@std@@V?$allocator@D@2@@std@@@2@V?$allocator@U?$pair@$$CBV?$basic_string@DU?$char_traits@D@std@@V?$allocator@D@2@@std@@V?$ptr@V?$set@PAVIEventListener@Pegas@@U?$less@PAVIEventListener@Pegas@@@std@@V?$allocator@PAVIEventListener@Pegas@@@4@@std@@@Pegas@@@std@@@2@$0A@@std@@@1@AB_N@Z 004240c0 f i engine:event_system.obj
 0001:000230c0       ??0?$pair@Viterator@?$_Tree@V?$_Tmap_traits@HV?$ptr@VProcess@Pegas@@@Pegas@@U?$less@H@std@@V?$allocator@U?$pair@$$CBHV?$ptr@VProcess@Pegas@@@Pegas@@@std@@@4@$0A@@std@@@std@@_N@std@@QAE@ABViterator@?$_Tree@V?$_Tmap_traits@HV?$ptr@VProcess@Pegas@@@Pegas@@U?$less@H@std@@V?$allocator@U?$pair@$$CBHV?$ptr@VProcess@Pegas@@@Pegas@@@std@@@4@$0A@@std@@@1@AB_N@Z 004240c0 f i engine:processes.obj
 0001:000230f0       ?size@?$deque@HV?$allocator@H@std@@@std@@QBEIXZ 004240f0 f i engine:processes.obj
 0001:000230f0       ?size@?$_Tree@V?$_Tmap_traits@HV?$ptr@VProcess@Pegas@@@Pegas@@U?$less@H@std@@V?$allocator@U?$pair@$$CBHV?$ptr@VProcess@Pegas@@@Pegas@@@std@@@4@$0A@@std@@@std@@QBEIXZ 004240f0 f i engine:processes.obj
 0001:00023110       ?max_size@?$_Tree@V?$_Tmap_traits@HV?$ptr@VProcess@Pegas@@@Pegas@@U?$less@H@std@@V?$allocator@U?$pair@$$CBHV?$ptr@VProcess@Pegas@@@Pegas@@@std@@@4@$0A@@std@@@std@@QBEIXZ 00424110 f i engine:processes.obj
 0001:00023130       ?_Eqrange@?$_Tree@V?$_Tmap_traits@HV?$ptr@VProcess@Pegas@@@Pegas@@U?$less@H@std@@V?$allocator@U?$pair@$$CBHV?$ptr@VProcess@Pegas@@@Pegas@@@std@@@4@$0A@@std@@@std@@IAE?AU?$pair@Viterator@?$_Tree@V?$_Tmap_traits@HV?$ptr@VProcess@Pegas@@@Pegas@@U?$less@H@std@@V?$allocator@U?$pair@$$CBHV?$ptr@VProcess@Pegas@@@Pegas@@@std@@@4@$0A@@std@@@std@@V123@@2@ABH@Z 00424130 f i engine:processes.obj
 0001:000232b0       ?_Lbound@?$_Tree@V?$_Tmap_traits@HV?$ptr@VProcess@Pegas@@@Pegas@@U?$less@H@std@@V?$allocator@U?$pair@$$CBHV?$ptr@VProcess@Pegas@@@Pegas@@@std@@@4@$0A@@std@@@std@@IBEPAU_Node@?$_Tree_nod@V?$_Tmap_traits@HV?$ptr@VProcess@Pegas@@@Pegas@@U?$less@H@std@@V?$allocator@U?$pair@$$CBHV?$ptr@VProcess@Pegas@@@Pegas@@@std@@@4@$0A@@std@@@2@ABH@Z 004242b0 f i engine:processes.obj
 0001:00023330       ?_Buynode@?$_Tree@V?$_Tmap_traits@HV?$ptr@VProcess@Pegas@@@Pegas@@U?$less@H@std@@V?$allocator@U?$pair@$$CBHV?$ptr@VProcess@Pegas@@@Pegas@@@std@@@4@$0A@@std@@@std@@IAEPAU_Node@?$_Tree_nod@V?$_Tmap_traits@HV?$ptr@VProcess@Pegas@@@Pegas@@U?$less@H@std@@V?$allocator@U?$pair@$$CBHV?$ptr@VProcess@Pegas@@@Pegas@@@std@@@4@$0A@@std@@@2@PAU342@00ABU?$pair@$$CBHV?$ptr@VProcess@Pegas@@@Pegas@@@2@D@Z 00424330 f i engine:processes.obj
 0001:00023400       ?begin@?$deque@HV?$allocator@H@std@@@std@@QAE?AV?$_Deque_iterator@HV?$allocator@H@std@@$00@2@XZ 00424400 f i engine:processes.obj
 0001:00023430       ?_Growmap@?$deque@HV?$allocator@H@std@@@std@@IAEXI@Z 00424430 f i engine:processes.obj
 0001:00023650       ?_Buynode@?$list@HV?$allocator@H@std@@@std@@IAEPAU_Node@?$_List_nod@HV?$allocator@H@std@@@2@PAU342@0ABH@Z 00424650 f i engine:processes.obj
 0001:00023790       ?_Incsize@?$list@HV?$allocator@H@std@@@std@@IAEXI@Z 00424790 f i engine:processes.obj
 0001:00023830       ??0?$_List_ptr@HV?$allocator@H@std@@@std@@IAE@V?$allocator@H@1@@Z 00424830 f i engine:processes.obj
 0001:00023870       ?allocate@?$allocator@U_Node@?$_List_nod@HV?$allocator@H@std@@@std@@@std@@QAEPAU_Node@?$_List_nod@HV?$allocator@H@std@@@2@I@Z 00424870 f i engine:processes.obj
 0001:00023890       ?destroy@?$allocator@U_Node@?$_List_nod@HV?$allocator@H@std@@@std@@@std@@QAEXPAU_Node@?$_List_nod@HV?$allocator@H@std@@@2@@Z 00424890 f i engine:processes.obj
 0001:00023890       ?destroy@?$allocator@PAU_Node@?$_List_nod@HV?$allocator@H@std@@@std@@@std@@QAEXPAPAU_Node@?$_List_nod@HV?$allocator@H@std@@@2@@Z 00424890 f i engine:processes.obj
 0001:00023890       ?destroy@?$allocator@PAU_Node@?$_List_nod@V?$ptr@UEvent@Pegas@@@Pegas@@V?$allocator@V?$ptr@UEvent@Pegas@@@Pegas@@@std@@@std@@@std@@QAEXPAPAU_Node@?$_List_nod@V?$ptr@UEvent@Pegas@@@Pegas@@V?$allocator@V?$ptr@UEvent@Pegas@@@Pegas@@@std@@@2@@Z 00424890 f i engine:waiting.obj
 0001:000238b0       ??0?$_Const_iterator@$00@?$list@HV?$allocator@H@std@@@std@@QAE@PAU_Node@?$_List_nod@HV?$allocator@H@std@@@2@PBV12@@Z 004248b0 f i engine:processes.obj
 0001:00023900       ?_Mynode@?$_Const_iterator@$00@?$list@V?$ptr@VBaseScreenLayer@Pegas@@@Pegas@@V?$allocator@V?$ptr@VBaseScreenLayer@Pegas@@@Pegas@@@std@@@std@@QBEPAU_Node@?$_List_nod@V?$ptr@VBaseScreenLayer@Pegas@@@Pegas@@V?$allocator@V?$ptr@VBaseScreenLayer@Pegas@@@Pegas@@@std@@@3@XZ 00424900 f i engine:default_game_state.obj
 0001:00023900       ?_Mynode@?$_Const_iterator@$00@?$list@HV?$allocator@H@std@@@std@@QBEPAU_Node@?$_List_nod@HV?$allocator@H@std@@@3@XZ 00424900 f i engine:processes.obj
 0001:00023900       ?getID@IScreenLayer@Pegas@@QAEHXZ 00424900 f i engine:default_game_state.obj
 0001:00023900       ?_Mynode@?$_Const_iterator@$00@?$list@V?$ptr@UEvent@Pegas@@@Pegas@@V?$allocator@V?$ptr@UEvent@Pegas@@@Pegas@@@std@@@std@@QBEPAU_Node@?$_List_nod@V?$ptr@UEvent@Pegas@@@Pegas@@V?$allocator@V?$ptr@UEvent@Pegas@@@Pegas@@@std@@@3@XZ 00424900 f i engine:waiting.obj
 0001:00023920       ??0const_iterator@?$_Tree@V?$_Tmap_traits@HV?$ptr@VProcess@Pegas@@@Pegas@@U?$less@H@std@@V?$allocator@U?$pair@$$CBHV?$ptr@VProcess@Pegas@@@Pegas@@@std@@@4@$0A@@std@@@std@@QAE@XZ 00424920 f i engine:processes.obj
 0001:00023940       ??Fconst_iterator@?$_Tree@V?$_Tmap_traits@HV?$ptr@VProcess@Pegas@@@Pegas@@U?$less@H@std@@V?$allocator@U?$pair@$$CBHV?$ptr@VProcess@Pegas@@@Pegas@@@std@@@4@$0A@@std@@@std@@QAEAAV012@XZ 00424940 f i engine:processes.obj
 0001:00023960       ??D?$_Deque_iterator@HV?$allocator@H@std@@$00@std@@QBEAAHXZ 00424960 f i engine:processes.obj
 0001:00023980       ?max_size@?$allocator@U?$pair@$$CBHV?$ptr@VProcess@Pegas@@@Pegas@@@std@@@std@@QBEIXZ 00424980 f i engine:processes.obj
 0001:000239b0       ?max_size@?$deque@HV?$allocator@H@std@@@std@@QBEIXZ 004249b0 f i engine:processes.obj
 0001:000239d0       ?_Xlen@?$deque@HV?$allocator@H@std@@@std@@KAXXZ 004249d0 f i engine:processes.obj
 0001:000239d0       ?_Xlen@?$deque@V?$ptr@UEvent@Pegas@@@Pegas@@V?$allocator@V?$ptr@UEvent@Pegas@@@Pegas@@@std@@@std@@KAXXZ 004249d0 f i engine:event_system.obj
 0001:00023a50       ?max_size@?$list@HV?$allocator@H@std@@@std@@QBEIXZ 00424a50 f i engine:processes.obj
 0001:00023a70       ??0?$_List_nod@HV?$allocator@H@std@@@std@@IAE@V?$allocator@H@1@@Z 00424a70 f i engine:processes.obj
 0001:00023ab0       ?_Dec@const_iterator@?$_Tree@V?$_Tmap_traits@HV?$ptr@VProcess@Pegas@@@Pegas@@U?$less@H@std@@V?$allocator@U?$pair@$$CBHV?$ptr@VProcess@Pegas@@@Pegas@@@std@@@4@$0A@@std@@@std@@QAEXXZ 00424ab0 f i engine:processes.obj
 0001:00023bb0       ??0?$pair@Viterator@?$_Tree@V?$_Tset_traits@PAVIEventListener@Pegas@@U?$less@PAVIEventListener@Pegas@@@std@@V?$allocator@PAVIEventListener@Pegas@@@4@$0A@@std@@@std@@V123@@std@@QAE@ABViterator@?$_Tree@V?$_Tset_traits@PAVIEventListener@Pegas@@U?$less@PAVIEventListener@Pegas@@@std@@V?$allocator@PAVIEventListener@Pegas@@@4@$0A@@std@@@1@0@Z 00424bb0 f i engine:event_system.obj
 0001:00023bb0       ??0?$pair@Viterator@?$_Tree@V?$_Tmap_traits@HV?$ptr@VProcess@Pegas@@@Pegas@@U?$less@H@std@@V?$allocator@U?$pair@$$CBHV?$ptr@VProcess@Pegas@@@Pegas@@@std@@@4@$0A@@std@@@std@@V123@@std@@QAE@ABViterator@?$_Tree@V?$_Tmap_traits@HV?$ptr@VProcess@Pegas@@@Pegas@@U?$less@H@std@@V?$allocator@U?$pair@$$CBHV?$ptr@VProcess@Pegas@@@Pegas@@@std@@@4@$0A@@std@@@1@0@Z 00424bb0 f i engine:processes.obj
 0001:00023bb0       ??0?$pair@Vconst_iterator@?$_Tree@V?$_Tset_traits@PAVIEventListener@Pegas@@U?$less@PAVIEventListener@Pegas@@@std@@V?$allocator@PAVIEventListener@Pegas@@@4@$0A@@std@@@std@@V123@@std@@QAE@ABVconst_iterator@?$_Tree@V?$_Tset_traits@PAVIEventListener@Pegas@@U?$less@PAVIEventListener@Pegas@@@std@@V?$allocator@PAVIEventListener@Pegas@@@4@$0A@@std@@@1@0@Z 00424bb0 f i engine:event_system.obj
 0001:00023bf0       ??0_Node@?$_Tree_nod@V?$_Tmap_traits@HV?$ptr@VProcess@Pegas@@@Pegas@@U?$less@H@std@@V?$allocator@U?$pair@$$CBHV?$ptr@VProcess@Pegas@@@Pegas@@@std@@@4@$0A@@std@@@std@@QAE@PAU012@00ABU?$pair@$$CBHV?$ptr@VProcess@Pegas@@@Pegas@@@2@D@Z 00424bf0 f i engine:processes.obj
 0001:00023c40       ??0?$_Deque_iterator@HV?$allocator@H@std@@$00@std@@QAE@IPBV_Container_base_aux@1@@Z 00424c40 f i engine:processes.obj
 0001:00023c60       ??D?$_Deque_const_iterator@HV?$allocator@H@std@@$00@std@@QBEABHXZ 00424c60 f i engine:processes.obj
 0001:00023d00       ??0?$_Deque_const_iterator@HV?$allocator@H@std@@$00@std@@QAE@IPBV_Container_base_aux@1@@Z 00424d00 f i engine:processes.obj
 0001:00023d60       ??$?9VProcess@Pegas@@@Pegas@@YA_NABV?$ptr@VProcess@Pegas@@@0@J@Z 00424d60 f i engine:processes.obj
 0001:00023d60       ??$?9UEvent@Pegas@@@Pegas@@YA_NABV?$ptr@UEvent@Pegas@@@0@J@Z 00424d60 f i engine:event_system.obj
 0001:00023d80       ??$make_pair@HV?$ptr@VProcess@Pegas@@@Pegas@@@std@@YA?AU?$pair@HV?$ptr@VProcess@Pegas@@@Pegas@@@0@HV?$ptr@VProcess@Pegas@@@Pegas@@@Z 00424d80 f i engine:processes.obj
 0001:00023df0       ??$?0HV?$ptr@VProcess@Pegas@@@Pegas@@@?$pair@$$CBHV?$ptr@VProcess@Pegas@@@Pegas@@@std@@QAE@ABU?$pair@HV?$ptr@VProcess@Pegas@@@Pegas@@@1@@Z 00424df0 f i engine:processes.obj
 0001:00023df0       ??0?$pair@$$CBHV?$ptr@VProcess@Pegas@@@Pegas@@@std@@QAE@ABU01@@Z 00424df0 f i engine:processes.obj
 0001:00023e20       ??$_Distance@Viterator@?$_Tree@V?$_Tmap_traits@HV?$ptr@VProcess@Pegas@@@Pegas@@U?$less@H@std@@V?$allocator@U?$pair@$$CBHV?$ptr@VProcess@Pegas@@@Pegas@@@std@@@4@$0A@@std@@@std@@I@std@@YAXViterator@?$_Tree@V?$_Tmap_traits@HV?$ptr@VProcess@Pegas@@@Pegas@@U?$less@H@std@@V?$allocator@U?$pair@$$CBHV?$ptr@VProcess@Pegas@@@Pegas@@@std@@@4@$0A@@std@@@0@0AAI@Z 00424e20 f i engine:processes.obj
 0001:00023e60       ??$unchecked_uninitialized_copy@PAPAHPAPAHV?$allocator@PAH@std@@@stdext@@YAPAPAHPAPAH00AAV?$allocator@PAH@std@@@Z 00424e60 f i engine:processes.obj
 0001:00023e60       ??$unchecked_uninitialized_copy@PAPAV?$ptr@UEvent@Pegas@@@Pegas@@PAPAV12@V?$allocator@PAV?$ptr@UEvent@Pegas@@@Pegas@@@std@@@stdext@@YAPAPAV?$ptr@UEvent@Pegas@@@Pegas@@PAPAV12@00AAV?$allocator@PAV?$ptr@UEvent@Pegas@@@Pegas@@@std@@@Z 00424e60 f i engine:event_system.obj
 0001:00023ec0       ??$_Destroy_range@V?$allocator@PAV?$ptr@UEvent@Pegas@@@Pegas@@@std@@@std@@YAXPAPAV?$ptr@UEvent@Pegas@@@Pegas@@0AAV?$allocator@PAV?$ptr@UEvent@Pegas@@@Pegas@@@0@@Z 00424ec0 f i engine:event_system.obj
 0001:00023ec0       ??$_Destroy_range@V?$allocator@PAH@std@@@std@@YAXPAPAH0AAV?$allocator@PAH@0@@Z 00424ec0 f i engine:processes.obj
 0001:00023f00       ??$_Allocate@U_Node@?$_List_nod@HV?$allocator@H@std@@@std@@@std@@YAPAU_Node@?$_List_nod@HV?$allocator@H@std@@@0@IPAU120@@Z 00424f00 f i engine:processes.obj
 0001:00023f50       ??$_Destroy@PAU_Node@?$_List_nod@HV?$allocator@H@std@@@std@@@std@@YAXPAPAU_Node@?$_List_nod@HV?$allocator@H@std@@@0@@Z 00424f50 f i engine:processes.obj
 0001:00023f50       ??$_Destroy_range@V?$allocator@PAV?$ptr@UEvent@Pegas@@@Pegas@@@std@@@std@@YAXPAPAV?$ptr@UEvent@Pegas@@@Pegas@@0AAV?$allocator@PAV?$ptr@UEvent@Pegas@@@Pegas@@@0@U_Scalar_ptr_iterator_tag@0@@Z 00424f50 f i engine:event_system.obj
 0001:00023f50       ??$_Destroy_range@V?$allocator@PAH@std@@@std@@YAXPAPAH0AAV?$allocator@PAH@0@U_Scalar_ptr_iterator_tag@0@@Z 00424f50 f i engine:processes.obj
 0001:00023f50       ??$_Destroy@PAU_Node@?$_List_nod@V?$ptr@UEvent@Pegas@@@Pegas@@V?$allocator@V?$ptr@UEvent@Pegas@@@Pegas@@@std@@@std@@@std@@YAXPAPAU_Node@?$_List_nod@V?$ptr@UEvent@Pegas@@@Pegas@@V?$allocator@V?$ptr@UEvent@Pegas@@@Pegas@@@std@@@0@@Z 00424f50 f i engine:waiting.obj
 0001:00023f50       ??$_Destroy@U_Node@?$_List_nod@HV?$allocator@H@std@@@std@@@std@@YAXPAU_Node@?$_List_nod@HV?$allocator@H@std@@@0@@Z 00424f50 f i engine:processes.obj
 0001:00023f60       ??0?$pair@HV?$ptr@VProcess@Pegas@@@Pegas@@@std@@QAE@ABHABV?$ptr@VProcess@Pegas@@@Pegas@@@Z 00424f60 f i engine:processes.obj
 0001:00023f60       ??0?$pair@$$CBHV?$ptr@VProcess@Pegas@@@Pegas@@@std@@QAE@ABHABV?$ptr@VProcess@Pegas@@@Pegas@@@Z 00424f60 f i engine:processes.obj
 0001:00023f90       ??$?8VProcess@Pegas@@@Pegas@@YA_NABV?$ptr@VProcess@Pegas@@@0@J@Z 00424f90 f i engine:processes.obj
 0001:00023f90       ??$?8UEvent@Pegas@@@Pegas@@YA_NABV?$ptr@UEvent@Pegas@@@0@J@Z 00424f90 f i engine:event_system.obj
 0001:00023fc0       ??$_Distance2@Viterator@?$_Tree@V?$_Tmap_traits@HV?$ptr@VProcess@Pegas@@@Pegas@@U?$less@H@std@@V?$allocator@U?$pair@$$CBHV?$ptr@VProcess@Pegas@@@Pegas@@@std@@@4@$0A@@std@@@std@@I@std@@YAXViterator@?$_Tree@V?$_Tmap_traits@HV?$ptr@VProcess@Pegas@@@Pegas@@U?$less@H@std@@V?$allocator@U?$pair@$$CBHV?$ptr@VProcess@Pegas@@@Pegas@@@std@@@4@$0A@@std@@@0@0AAIUbidirectional_iterator_tag@0@@Z 00424fc0 f i engine:processes.obj
 0001:00024000       ??$_Uninit_fill_n@PAPAHIPAHV?$allocator@PAH@std@@@std@@YAXPAPAHIABQAHAAV?$allocator@PAH@0@U_Scalar_ptr_iterator_tag@0@U_Range_checked_iterator_tag@0@@Z 00425000 f i engine:processes.obj
 0001:00024000       ??$_Uninit_fill_n@PAPAV?$ptr@UEvent@Pegas@@@Pegas@@IPAV12@V?$allocator@PAV?$ptr@UEvent@Pegas@@@Pegas@@@std@@@std@@YAXPAPAV?$ptr@UEvent@Pegas@@@Pegas@@IABQAV12@AAV?$allocator@PAV?$ptr@UEvent@Pegas@@@Pegas@@@0@U_Scalar_ptr_iterator_tag@0@U_Range_checked_iterator_tag@0@@Z 00425000 f i engine:event_system.obj
 0001:00024020       ?IsValid@?$ptr@VProcess@Pegas@@@Pegas@@QBE_NXZ 00425020 f i engine:processes.obj
 0001:00024020       ?IsValid@?$ptr@UEvent@Pegas@@@Pegas@@QBE_NXZ 00425020 f i engine:event_system.obj
 0001:00024020       ?IsValid@?$ptr@VWidget@Pegas@@@Pegas@@QBE_NXZ 00425020 f i engine:gui_layer.obj
 0001:00024050       ??$unchecked_fill_n@PAPAV?$ptr@UEvent@Pegas@@@Pegas@@IPAV12@@stdext@@YAXPAPAV?$ptr@UEvent@Pegas@@@Pegas@@IABQAV12@@Z 00425050 f i engine:event_system.obj
 0001:00024050       ??$unchecked_fill_n@PAPAHIPAH@stdext@@YAXPAPAHIABQAH@Z 00425050 f i engine:processes.obj
 0001:00024090       ??$_Fill_n@PAPAHIPAH@std@@YAXPAPAHIABQAHUrandom_access_iterator_tag@0@U_Range_checked_iterator_tag@0@@Z 00425090 f i engine:processes.obj
 0001:00024090       ??$_Fill_n@PAPAV?$ptr@UEvent@Pegas@@@Pegas@@IPAV12@@std@@YAXPAPAV?$ptr@UEvent@Pegas@@@Pegas@@IABQAV12@Urandom_access_iterator_tag@0@U_Range_checked_iterator_tag@0@@Z 00425090 f i engine:event_system.obj
 0001:000240d0       ?getListenerName@Waiting@Pegas@@UAE?AV?$basic_string@DU?$char_traits@D@std@@V?$allocator@D@2@@std@@XZ 004250d0 f i engine:waiting.obj
 0001:00024100       ??_GWaiting@Pegas@@UAEPAXI@Z 00425100 f i engine:waiting.obj
 0001:00024100       ??_EWaiting@Pegas@@UAEPAXI@Z 00425100 f i  CIL library: CIL module
 0001:00024130       ??1Waiting@Pegas@@UAE@XZ   00425130 f i engine:waiting.obj
 0001:000241a0       ??0?$list@V?$ptr@UEvent@Pegas@@@Pegas@@V?$allocator@V?$ptr@UEvent@Pegas@@@Pegas@@@std@@@std@@QAE@XZ 004251a0 f i engine:waiting.obj
 0001:00024220       ??1?$list@V?$ptr@UEvent@Pegas@@@Pegas@@V?$allocator@V?$ptr@UEvent@Pegas@@@Pegas@@@std@@@std@@QAE@XZ 00425220 f i engine:waiting.obj
 0001:00024280       ?begin@?$list@V?$ptr@UEvent@Pegas@@@Pegas@@V?$allocator@V?$ptr@UEvent@Pegas@@@Pegas@@@std@@@std@@QAE?AV?$_Iterator@$00@12@XZ 00425280 f i engine:waiting.obj
 0001:000242b0       ?push_back@?$list@V?$ptr@UEvent@Pegas@@@Pegas@@V?$allocator@V?$ptr@UEvent@Pegas@@@Pegas@@@std@@@std@@QAEXABV?$ptr@UEvent@Pegas@@@Pegas@@@Z 004252b0 f i engine:waiting.obj
 0001:000242f0       ??E?$_Iterator@$00@?$list@HV?$allocator@H@std@@@std@@QAEAAV012@XZ 004252f0 f i engine:processes.obj
 0001:000242f0       ??E?$_Iterator@$00@?$list@V?$ptr@UEvent@Pegas@@@Pegas@@V?$allocator@V?$ptr@UEvent@Pegas@@@Pegas@@@std@@@std@@QAEAAV012@XZ 004252f0 f i engine:waiting.obj
 0001:00024310       ??1?$_List_val@V?$ptr@UEvent@Pegas@@@Pegas@@V?$allocator@V?$ptr@UEvent@Pegas@@@Pegas@@@std@@@std@@QAE@XZ 00425310 f i engine:waiting.obj
 0001:00024330       ??1?$_List_ptr@V?$ptr@UEvent@Pegas@@@Pegas@@V?$allocator@V?$ptr@UEvent@Pegas@@@Pegas@@@std@@@std@@QAE@XZ 00425330 f i engine:waiting.obj
 0001:00024350       ??1?$_List_nod@V?$ptr@UEvent@Pegas@@@Pegas@@V?$allocator@V?$ptr@UEvent@Pegas@@@Pegas@@@std@@@std@@QAE@XZ 00425350 f i engine:waiting.obj
 0001:00024370       ?_Insert@?$list@V?$ptr@UEvent@Pegas@@@Pegas@@V?$allocator@V?$ptr@UEvent@Pegas@@@Pegas@@@std@@@std@@QAEXV?$_Const_iterator@$00@12@ABV?$ptr@UEvent@Pegas@@@Pegas@@@Z 00425370 f i engine:waiting.obj
 0001:000243f0       ?_Buynode@?$list@V?$ptr@UEvent@Pegas@@@Pegas@@V?$allocator@V?$ptr@UEvent@Pegas@@@Pegas@@@std@@@std@@IAEPAU_Node@?$_List_nod@V?$ptr@UEvent@Pegas@@@Pegas@@V?$allocator@V?$ptr@UEvent@Pegas@@@Pegas@@@std@@@2@XZ 004253f0 f i engine:waiting.obj
 0001:000244f0       ?_Tidy@?$list@V?$ptr@UEvent@Pegas@@@Pegas@@V?$allocator@V?$ptr@UEvent@Pegas@@@Pegas@@@std@@@std@@IAEXXZ 004254f0 f i engine:waiting.obj
 0001:00024560       ??0?$_List_val@V?$ptr@UEvent@Pegas@@@Pegas@@V?$allocator@V?$ptr@UEvent@Pegas@@@Pegas@@@std@@@std@@QAE@V?$allocator@V?$ptr@UEvent@Pegas@@@Pegas@@@1@@Z 00425560 f i engine:waiting.obj
 0001:00024590       ??E?$_Const_iterator@$00@?$list@V?$ptr@UEvent@Pegas@@@Pegas@@V?$allocator@V?$ptr@UEvent@Pegas@@@Pegas@@@std@@@std@@QAEAAV012@XZ 00425590 f i engine:waiting.obj
 0001:00024590       ??E?$_Const_iterator@$00@?$list@HV?$allocator@H@std@@@std@@QAEAAV012@XZ 00425590 f i engine:processes.obj
 0001:00024600       ?_Prevnode@?$list@HV?$allocator@H@std@@@std@@KAAAPAU_Node@?$_List_nod@HV?$allocator@H@std@@@2@PAU342@@Z 00425600 f i engine:processes.obj
 0001:00024600       ?_Prevnode@?$list@V?$ptr@UEvent@Pegas@@@Pegas@@V?$allocator@V?$ptr@UEvent@Pegas@@@Pegas@@@std@@@std@@KAAAPAU_Node@?$_List_nod@V?$ptr@UEvent@Pegas@@@Pegas@@V?$allocator@V?$ptr@UEvent@Pegas@@@Pegas@@@std@@@2@PAU342@@Z 00425600 f i engine:waiting.obj
 0001:00024610       ?_Myval@?$list@HV?$allocator@H@std@@@std@@KAAAHPAU_Node@?$_List_nod@HV?$allocator@H@std@@@2@@Z 00425610 f i engine:processes.obj
 0001:00024610       ?_Myval@?$list@V?$ptr@VBaseScreenLayer@Pegas@@@Pegas@@V?$allocator@V?$ptr@VBaseScreenLayer@Pegas@@@Pegas@@@std@@@std@@KAAAV?$ptr@VBaseScreenLayer@Pegas@@@Pegas@@PAU_Node@?$_List_nod@V?$ptr@VBaseScreenLayer@Pegas@@@Pegas@@V?$allocator@V?$ptr@VBaseScreenLayer@Pegas@@@Pegas@@@std@@@2@@Z 00425610 f i engine:default_game_state.obj
 0001:00024610       ?_Myval@?$list@V?$ptr@UEvent@Pegas@@@Pegas@@V?$allocator@V?$ptr@UEvent@Pegas@@@Pegas@@@std@@@std@@KAAAV?$ptr@UEvent@Pegas@@@Pegas@@PAU_Node@?$_List_nod@V?$ptr@UEvent@Pegas@@@Pegas@@V?$allocator@V?$ptr@UEvent@Pegas@@@Pegas@@@std@@@2@@Z 00425610 f i engine:waiting.obj
 0001:00024620       ?clear@?$list@V?$ptr@UEvent@Pegas@@@Pegas@@V?$allocator@V?$ptr@UEvent@Pegas@@@Pegas@@@std@@@std@@QAEXXZ 00425620 f i engine:waiting.obj
 0001:000246c0       ?_Buynode@?$list@V?$ptr@UEvent@Pegas@@@Pegas@@V?$allocator@V?$ptr@UEvent@Pegas@@@Pegas@@@std@@@std@@IAEPAU_Node@?$_List_nod@V?$ptr@UEvent@Pegas@@@Pegas@@V?$allocator@V?$ptr@UEvent@Pegas@@@Pegas@@@std@@@2@PAU342@0ABV?$ptr@UEvent@Pegas@@@Pegas@@@Z 004256c0 f i engine:waiting.obj
 0001:00024800       ?_Incsize@?$list@V?$ptr@VBaseScreenLayer@Pegas@@@Pegas@@V?$allocator@V?$ptr@VBaseScreenLayer@Pegas@@@Pegas@@@std@@@std@@IAEXI@Z 00425800 f i engine:default_game_state.obj
 0001:00024800       ?_Incsize@?$list@V?$ptr@UEvent@Pegas@@@Pegas@@V?$allocator@V?$ptr@UEvent@Pegas@@@Pegas@@@std@@@std@@IAEXI@Z 00425800 f i engine:waiting.obj
 0001:000248a0       ??0?$_List_ptr@V?$ptr@UEvent@Pegas@@@Pegas@@V?$allocator@V?$ptr@UEvent@Pegas@@@Pegas@@@std@@@std@@IAE@V?$allocator@V?$ptr@UEvent@Pegas@@@Pegas@@@1@@Z 004258a0 f i engine:waiting.obj
 0001:000248e0       ?deallocate@?$allocator@U_Node@?$_List_nod@V?$ptr@UEvent@Pegas@@@Pegas@@V?$allocator@V?$ptr@UEvent@Pegas@@@Pegas@@@std@@@std@@@std@@QAEXPAU_Node@?$_List_nod@V?$ptr@UEvent@Pegas@@@Pegas@@V?$allocator@V?$ptr@UEvent@Pegas@@@Pegas@@@std@@@2@I@Z 004258e0 f i engine:waiting.obj
 0001:000248e0       ?deallocate@?$allocator@U_Node@?$_List_nod@HV?$allocator@H@std@@@std@@@std@@QAEXPAU_Node@?$_List_nod@HV?$allocator@H@std@@@2@I@Z 004258e0 f i engine:processes.obj
 0001:00024900       ?allocate@?$allocator@U_Node@?$_List_nod@V?$ptr@UEvent@Pegas@@@Pegas@@V?$allocator@V?$ptr@UEvent@Pegas@@@Pegas@@@std@@@std@@@std@@QAEPAU_Node@?$_List_nod@V?$ptr@UEvent@Pegas@@@Pegas@@V?$allocator@V?$ptr@UEvent@Pegas@@@Pegas@@@std@@@2@I@Z 00425900 f i engine:waiting.obj
 0001:00024920       ?max_size@?$list@V?$ptr@VBaseScreenLayer@Pegas@@@Pegas@@V?$allocator@V?$ptr@VBaseScreenLayer@Pegas@@@Pegas@@@std@@@std@@QBEIXZ 00425920 f i engine:default_game_state.obj
 0001:00024920       ?max_size@?$list@V?$ptr@UEvent@Pegas@@@Pegas@@V?$allocator@V?$ptr@UEvent@Pegas@@@Pegas@@@std@@@std@@QBEIXZ 00425920 f i engine:waiting.obj
 0001:00024940       ??0?$_List_nod@V?$ptr@UEvent@Pegas@@@Pegas@@V?$allocator@V?$ptr@UEvent@Pegas@@@Pegas@@@std@@@std@@IAE@V?$allocator@V?$ptr@UEvent@Pegas@@@Pegas@@@1@@Z 00425940 f i engine:waiting.obj
 0001:00024980       ?destroy@?$allocator@U_Node@?$_List_nod@V?$ptr@UEvent@Pegas@@@Pegas@@V?$allocator@V?$ptr@UEvent@Pegas@@@Pegas@@@std@@@std@@@std@@QAEXPAU_Node@?$_List_nod@V?$ptr@UEvent@Pegas@@@Pegas@@V?$allocator@V?$ptr@UEvent@Pegas@@@Pegas@@@std@@@2@@Z 00425980 f i engine:waiting.obj
 0001:000249a0       ??$_Allocate@U_Node@?$_List_nod@V?$ptr@UEvent@Pegas@@@Pegas@@V?$allocator@V?$ptr@UEvent@Pegas@@@Pegas@@@std@@@std@@@std@@YAPAU_Node@?$_List_nod@V?$ptr@UEvent@Pegas@@@Pegas@@V?$allocator@V?$ptr@UEvent@Pegas@@@Pegas@@@std@@@0@IPAU120@@Z 004259a0 f i engine:waiting.obj
 0001:000249f0       ??$_Destroy@U_Node@?$_List_nod@V?$ptr@UEvent@Pegas@@@Pegas@@V?$allocator@V?$ptr@UEvent@Pegas@@@Pegas@@@std@@@std@@@std@@YAXPAU_Node@?$_List_nod@V?$ptr@UEvent@Pegas@@@Pegas@@V?$allocator@V?$ptr@UEvent@Pegas@@@Pegas@@@std@@@0@@Z 004259f0 f i engine:waiting.obj
 0001:00024a00       ??_G_Node@?$_List_nod@V?$ptr@UEvent@Pegas@@@Pegas@@V?$allocator@V?$ptr@UEvent@Pegas@@@Pegas@@@std@@@std@@QAEPAXI@Z 00425a00 f i engine:waiting.obj
 0001:00024a30       ??1_Node@?$_List_nod@V?$ptr@UEvent@Pegas@@@Pegas@@V?$allocator@V?$ptr@UEvent@Pegas@@@Pegas@@@std@@@std@@QAE@XZ 00425a30 f i engine:waiting.obj
 0001:00024a50       ??_EWaiting@Pegas@@WBI@AEPAXI@Z 00425a50 f i engine:waiting.obj
 0001:00024a60       ?isActive@IScreenLayer@Pegas@@QBE_NXZ 00425a60 f i engine:gui_layer.obj
 0001:00024a80       ?begin@?$vector@V?$ptr@VWidget@Pegas@@@Pegas@@V?$allocator@V?$ptr@VWidget@Pegas@@@Pegas@@@std@@@std@@QAE?AV?$_Vector_iterator@V?$ptr@VWidget@Pegas@@@Pegas@@V?$allocator@V?$ptr@VWidget@Pegas@@@Pegas@@@std@@@2@XZ 00425a80 f i engine:gui_layer.obj
 0001:00024ab0       ?end@?$vector@V?$ptr@VWidget@Pegas@@@Pegas@@V?$allocator@V?$ptr@VWidget@Pegas@@@Pegas@@@std@@@std@@QAE?AV?$_Vector_iterator@V?$ptr@VWidget@Pegas@@@Pegas@@V?$allocator@V?$ptr@VWidget@Pegas@@@Pegas@@@std@@@2@XZ 00425ab0 f i engine:gui_layer.obj
 0001:00024ae0       ?size@?$vector@V?$ptr@VWidget@Pegas@@@Pegas@@V?$allocator@V?$ptr@VWidget@Pegas@@@Pegas@@@std@@@std@@QBEIXZ 00425ae0 f i engine:gui_layer.obj
 0001:00024b00       ??A?$vector@V?$ptr@VWidget@Pegas@@@Pegas@@V?$allocator@V?$ptr@VWidget@Pegas@@@Pegas@@@std@@@std@@QAEAAV?$ptr@VWidget@Pegas@@@Pegas@@I@Z 00425b00 f i engine:gui_layer.obj
 0001:00024b30       ?push_back@?$vector@V?$ptr@VWidget@Pegas@@@Pegas@@V?$allocator@V?$ptr@VWidget@Pegas@@@Pegas@@@std@@@std@@QAEXABV?$ptr@VWidget@Pegas@@@Pegas@@@Z 00425b30 f i engine:gui_layer.obj
 0001:00024bb0       ?clear@?$vector@V?$ptr@VWidget@Pegas@@@Pegas@@V?$allocator@V?$ptr@VWidget@Pegas@@@Pegas@@@std@@@std@@QAEXXZ 00425bb0 f i engine:gui_layer.obj
 0001:00024c10       ??0?$ptr@VBaseScreenLayer@Pegas@@@Pegas@@QAE@ABV01@@Z 00425c10 f i engine:default_game_state.obj
 0001:00024c10       ??0?$ptr@VWidget@Pegas@@@Pegas@@QAE@ABV01@@Z 00425c10 f i engine:gui_layer.obj
 0001:00024c40       ??C?$ptr@VWidget@Pegas@@@Pegas@@QBEPAVWidget@1@XZ 00425c40 f i engine:gui_layer.obj
 0001:00024c40       ??C?$ptr@V?$set@PAVIEventListener@Pegas@@U?$less@PAVIEventListener@Pegas@@@std@@V?$allocator@PAVIEventListener@Pegas@@@4@@std@@@Pegas@@QBEPAV?$set@PAVIEventListener@Pegas@@U?$less@PAVIEventListener@Pegas@@@std@@V?$allocator@PAVIEventListener@Pegas@@@4@@std@@XZ 00425c40 f i engine:event_system.obj
 0001:00024c60       ??D?$_Vector_iterator@V?$ptr@VWidget@Pegas@@@Pegas@@V?$allocator@V?$ptr@VWidget@Pegas@@@Pegas@@@std@@@std@@QBEAAV?$ptr@VWidget@Pegas@@@Pegas@@XZ 00425c60 f i engine:gui_layer.obj
 0001:00024c80       ??E?$_Vector_iterator@V?$ptr@VWidget@Pegas@@@Pegas@@V?$allocator@V?$ptr@VWidget@Pegas@@@Pegas@@@std@@@std@@QAEAAV01@XZ 00425c80 f i engine:gui_layer.obj
 0001:00024ca0       ??9?$_Vector_const_iterator@V?$ptr@VWidget@Pegas@@@Pegas@@V?$allocator@V?$ptr@VWidget@Pegas@@@Pegas@@@std@@@std@@QBE_NABV01@@Z 00425ca0 f i engine:gui_layer.obj
 0001:00024cd0       ?capacity@?$vector@V?$ptr@VWidget@Pegas@@@Pegas@@V?$allocator@V?$ptr@VWidget@Pegas@@@Pegas@@@std@@@std@@QBEIXZ 00425cd0 f i engine:gui_layer.obj
 0001:00024d10       ?insert@?$vector@V?$ptr@VWidget@Pegas@@@Pegas@@V?$allocator@V?$ptr@VWidget@Pegas@@@Pegas@@@std@@@std@@QAE?AV?$_Vector_iterator@V?$ptr@VWidget@Pegas@@@Pegas@@V?$allocator@V?$ptr@VWidget@Pegas@@@Pegas@@@std@@@2@V?$_Vector_const_iterator@V?$ptr@VWidget@Pegas@@@Pegas@@V?$allocator@V?$ptr@VWidget@Pegas@@@Pegas@@@std@@@2@ABV?$ptr@VWidget@Pegas@@@Pegas@@@Z 00425d10 f i engine:gui_layer.obj
 0001:00024d90       ?erase@?$vector@V?$ptr@VWidget@Pegas@@@Pegas@@V?$allocator@V?$ptr@VWidget@Pegas@@@Pegas@@@std@@@std@@QAE?AV?$_Vector_iterator@V?$ptr@VWidget@Pegas@@@Pegas@@V?$allocator@V?$ptr@VWidget@Pegas@@@Pegas@@@std@@@2@V?$_Vector_const_iterator@V?$ptr@VWidget@Pegas@@@Pegas@@V?$allocator@V?$ptr@VWidget@Pegas@@@Pegas@@@std@@@2@0@Z 00425d90 f i engine:gui_layer.obj
 0001:00024e20       ?_Ufill@?$vector@V?$ptr@VWidget@Pegas@@@Pegas@@V?$allocator@V?$ptr@VWidget@Pegas@@@Pegas@@@std@@@std@@IAEPAV?$ptr@VWidget@Pegas@@@Pegas@@PAV34@IABV34@@Z 00425e20 f i engine:gui_layer.obj
 0001:00024e60       ?GetRawPointer@?$ptr@VWidget@Pegas@@@Pegas@@QBEPAVWidget@2@XZ 00425e60 f i engine:gui_layer.obj
 0001:00024e60       ?GetRawPointer@?$ptr@V?$set@PAVIEventListener@Pegas@@U?$less@PAVIEventListener@Pegas@@@std@@V?$allocator@PAVIEventListener@Pegas@@@4@@std@@@Pegas@@QBEPAV?$set@PAVIEventListener@Pegas@@U?$less@PAVIEventListener@Pegas@@@std@@V?$allocator@PAVIEventListener@Pegas@@@4@@std@@XZ 00425e60 f i engine:event_system.obj
 0001:00024ec0       ??0?$_Vector_iterator@V?$ptr@VWidget@Pegas@@@Pegas@@V?$allocator@V?$ptr@VWidget@Pegas@@@Pegas@@@std@@@std@@QAE@PAV?$ptr@VWidget@Pegas@@@Pegas@@PBV_Container_base_aux@1@@Z 00425ec0 f i engine:gui_layer.obj
 0001:00024ee0       ??D?$_Vector_const_iterator@V?$ptr@VWidget@Pegas@@@Pegas@@V?$allocator@V?$ptr@VWidget@Pegas@@@Pegas@@@std@@@std@@QBEABV?$ptr@VWidget@Pegas@@@Pegas@@XZ 00425ee0 f i engine:gui_layer.obj
 0001:00024f20       ??E?$_Vector_const_iterator@V?$ptr@VWidget@Pegas@@@Pegas@@V?$allocator@V?$ptr@VWidget@Pegas@@@Pegas@@@std@@@std@@QAEAAV01@XZ 00425f20 f i engine:gui_layer.obj
 0001:00024f70       ??8?$_Vector_const_iterator@V?$ptr@VWidget@Pegas@@@Pegas@@V?$allocator@V?$ptr@VWidget@Pegas@@@Pegas@@@std@@@std@@QBE_NABV01@@Z 00425f70 f i engine:gui_layer.obj
 0001:00024fc0       ?_Make_iter@?$vector@V?$ptr@VWidget@Pegas@@@Pegas@@V?$allocator@V?$ptr@VWidget@Pegas@@@Pegas@@@std@@@std@@QBE?AV?$_Vector_iterator@V?$ptr@VWidget@Pegas@@@Pegas@@V?$allocator@V?$ptr@VWidget@Pegas@@@Pegas@@@std@@@2@V?$_Vector_const_iterator@V?$ptr@VWidget@Pegas@@@Pegas@@V?$allocator@V?$ptr@VWidget@Pegas@@@Pegas@@@std@@@2@@Z 00425fc0 f i engine:gui_layer.obj
 0001:00024fe0       ?_Insert_n@?$vector@V?$ptr@VWidget@Pegas@@@Pegas@@V?$allocator@V?$ptr@VWidget@Pegas@@@Pegas@@@std@@@std@@IAEXV?$_Vector_const_iterator@V?$ptr@VWidget@Pegas@@@Pegas@@V?$allocator@V?$ptr@VWidget@Pegas@@@Pegas@@@std@@@2@IABV?$ptr@VWidget@Pegas@@@Pegas@@@Z 00425fe0 f i engine:gui_layer.obj
 0001:000253b0       ??H?$_Vector_iterator@V?$ptr@VWidget@Pegas@@@Pegas@@V?$allocator@V?$ptr@VWidget@Pegas@@@Pegas@@@std@@@std@@QBE?AV01@H@Z 004263b0 f i engine:gui_layer.obj
 0001:000253f0       ??0?$_Vector_const_iterator@V?$ptr@VWidget@Pegas@@@Pegas@@V?$allocator@V?$ptr@VWidget@Pegas@@@Pegas@@@std@@@std@@QAE@PAV?$ptr@VWidget@Pegas@@@Pegas@@PBV_Container_base_aux@1@@Z 004263f0 f i engine:gui_layer.obj
 0001:00025440       ??G?$_Vector_const_iterator@V?$ptr@VWidget@Pegas@@@Pegas@@V?$allocator@V?$ptr@VWidget@Pegas@@@Pegas@@@std@@@std@@QBEHABV01@@Z 00426440 f i engine:gui_layer.obj
 0001:00025490       ??0?$_Bidit@V?$ptr@VBaseScreenLayer@Pegas@@@Pegas@@HPBV12@ABV12@@std@@QAE@XZ 00426490 f i engine:default_game_state.obj
 0001:00025490       ??0?$_Ranit@V?$ptr@UEvent@Pegas@@@Pegas@@HPBV12@ABV12@@std@@QAE@XZ 00426490 f i engine:event_system.obj
 0001:00025490       ??0?$_Ranit@V?$ptr@VWidget@Pegas@@@Pegas@@HPBV12@ABV12@@std@@QAE@XZ 00426490 f i engine:gui_layer.obj
 0001:00025490       ??0?$_Bidit@V?$ptr@UEvent@Pegas@@@Pegas@@HPBV12@ABV12@@std@@QAE@XZ 00426490 f i engine:waiting.obj
 0001:000254b0       ??Y?$_Vector_iterator@V?$ptr@VWidget@Pegas@@@Pegas@@V?$allocator@V?$ptr@VWidget@Pegas@@@Pegas@@@std@@@std@@QAEAAV01@H@Z 004264b0 f i engine:gui_layer.obj
 0001:000254d0       ??Y?$_Vector_const_iterator@V?$ptr@VWidget@Pegas@@@Pegas@@V?$allocator@V?$ptr@VWidget@Pegas@@@Pegas@@@std@@@std@@QAEAAV01@H@Z 004264d0 f i engine:gui_layer.obj
 0001:00025540       ??$?8VWidget@Pegas@@V01@@Pegas@@YA_NABV?$ptr@VWidget@Pegas@@@0@0@Z 00426540 f i engine:gui_layer.obj
 0001:00025570       ??$unchecked_copy@PAV?$ptr@VWidget@Pegas@@@Pegas@@PAV12@@stdext@@YAPAV?$ptr@VWidget@Pegas@@@Pegas@@PAV12@00@Z 00426570 f i engine:gui_layer.obj
 0001:000255d0       ??$unchecked_uninitialized_fill_n@PAV?$ptr@VWidget@Pegas@@@Pegas@@IV12@V?$allocator@V?$ptr@VWidget@Pegas@@@Pegas@@@std@@@stdext@@YAXPAV?$ptr@VWidget@Pegas@@@Pegas@@IABV12@AAV?$allocator@V?$ptr@VWidget@Pegas@@@Pegas@@@std@@@Z 004265d0 f i engine:gui_layer.obj
 0001:00025610       ??$_Umove@PAV?$ptr@VWidget@Pegas@@@Pegas@@@?$vector@V?$ptr@VWidget@Pegas@@@Pegas@@V?$allocator@V?$ptr@VWidget@Pegas@@@Pegas@@@std@@@std@@IAEPAV?$ptr@VWidget@Pegas@@@Pegas@@PAV23@00@Z 00426610 f i engine:gui_layer.obj
 0001:00025640       ??$fill@PAV?$ptr@VWidget@Pegas@@@Pegas@@V12@@std@@YAXPAV?$ptr@VWidget@Pegas@@@Pegas@@0ABV12@@Z 00426640 f i engine:gui_layer.obj
 0001:00025670       ??$_Unchecked_move_backward@PAV?$ptr@VWidget@Pegas@@@Pegas@@PAV12@@stdext@@YAPAV?$ptr@VWidget@Pegas@@@Pegas@@PAV12@00@Z 00426670 f i engine:gui_layer.obj
 0001:000256e0       ??$_Checked_base@PAPAH@std@@YAPAPAHAAPAPAH@Z 004266e0 f i engine:processes.obj
 0001:000256e0       ??$_Checked_base@PAV?$ptr@VWidget@Pegas@@@Pegas@@@std@@YAPAV?$ptr@VWidget@Pegas@@@Pegas@@AAPAV12@@Z 004266e0 f i engine:gui_layer.obj
 0001:000256e0       ??$_Checked_base@PAPAV?$ptr@UEvent@Pegas@@@Pegas@@@std@@YAPAPAV?$ptr@UEvent@Pegas@@@Pegas@@AAPAPAV12@@Z 004266e0 f i engine:event_system.obj
 0001:00025700       ??$_Copy_opt@PAV?$ptr@VWidget@Pegas@@@Pegas@@PAV12@@std@@YAPAV?$ptr@VWidget@Pegas@@@Pegas@@PAV12@00Urandom_access_iterator_tag@0@U_Nonscalar_ptr_iterator_tag@0@U_Range_checked_iterator_tag@0@@Z 00426700 f i engine:gui_layer.obj
 0001:00025760       ??$_Uninit_fill_n@PAV?$ptr@VWidget@Pegas@@@Pegas@@IV12@V?$allocator@V?$ptr@VWidget@Pegas@@@Pegas@@@std@@@std@@YAXPAV?$ptr@VWidget@Pegas@@@Pegas@@IABV12@AAV?$allocator@V?$ptr@VWidget@Pegas@@@Pegas@@@0@U_Nonscalar_ptr_iterator_tag@0@U_Range_checked_iterator_tag@0@@Z 00426760 f i engine:gui_layer.obj
 0001:00025820       ??$_Unchecked_uninitialized_move@PAV?$ptr@VWidget@Pegas@@@Pegas@@PAV12@V?$allocator@V?$ptr@VWidget@Pegas@@@Pegas@@@std@@@stdext@@YAPAV?$ptr@VWidget@Pegas@@@Pegas@@PAV12@00AAV?$allocator@V?$ptr@VWidget@Pegas@@@Pegas@@@std@@@Z 00426820 f i engine:gui_layer.obj
 0001:00025870       ??$_Fill@PAV?$ptr@VWidget@Pegas@@@Pegas@@V12@@std@@YAXPAV?$ptr@VWidget@Pegas@@@Pegas@@0ABV12@@Z 00426870 f i engine:gui_layer.obj
 0001:000258a0       ??$_Ptr_cat@PAPAHPAPAH@std@@YA?AU_Scalar_ptr_iterator_tag@0@AAPAPAH0@Z 004268a0 f i engine:processes.obj
 0001:000258a0       ??$_Move_cat@PAV?$ptr@VWidget@Pegas@@@Pegas@@@std@@YA?AU_Undefined_move_tag@0@ABQAV?$ptr@VWidget@Pegas@@@Pegas@@@Z 004268a0 f i engine:gui_layer.obj
 0001:000258a0       ??$_Ptr_cat@PAPAV?$ptr@UEvent@Pegas@@@Pegas@@PAPAV12@@std@@YA?AU_Scalar_ptr_iterator_tag@0@AAPAPAV?$ptr@UEvent@Pegas@@@Pegas@@0@Z 004268a0 f i engine:event_system.obj
 0001:000258b0       ??$_Move_backward_opt@PAV?$ptr@VWidget@Pegas@@@Pegas@@PAV12@Urandom_access_iterator_tag@std@@U_Undefined_move_tag@4@@std@@YAPAV?$ptr@VWidget@Pegas@@@Pegas@@PAV12@00Urandom_access_iterator_tag@0@U_Undefined_move_tag@0@U_Range_checked_iterator_tag@0@@Z 004268b0 f i engine:gui_layer.obj
 0001:000258f0       ?construct@?$allocator@V?$ptr@VBaseScreenLayer@Pegas@@@Pegas@@@std@@QAEXPAV?$ptr@VBaseScreenLayer@Pegas@@@Pegas@@ABV34@@Z 004268f0 f i engine:default_game_state.obj
 0001:000258f0       ?construct@?$allocator@V?$ptr@VWidget@Pegas@@@Pegas@@@std@@QAEXPAV?$ptr@VWidget@Pegas@@@Pegas@@ABV34@@Z 004268f0 f i engine:gui_layer.obj
 0001:00025910       ??4?$ptr@VWidget@Pegas@@@Pegas@@QAEAAV01@ABV01@@Z 00426910 f i engine:gui_layer.obj
 0001:00025950       ??$_Copy_opt@PAV?$ptr@VWidget@Pegas@@@Pegas@@PAV12@Uforward_iterator_tag@std@@@std@@YAPAV?$ptr@VWidget@Pegas@@@Pegas@@PAV12@00Uforward_iterator_tag@0@U_Nonscalar_ptr_iterator_tag@0@U_Range_checked_iterator_tag@0@@Z 00426950 f i engine:gui_layer.obj
 0001:00025990       ??$_Uninit_move@PAV?$ptr@VWidget@Pegas@@@Pegas@@PAV12@V?$allocator@V?$ptr@VWidget@Pegas@@@Pegas@@@std@@U_Undefined_move_tag@4@@std@@YAPAV?$ptr@VWidget@Pegas@@@Pegas@@PAV12@00AAV?$allocator@V?$ptr@VWidget@Pegas@@@Pegas@@@0@U_Undefined_move_tag@0@U_Range_checked_iterator_tag@0@@Z 00426990 f i engine:gui_layer.obj
 0001:000259b0       ??$_Copy_backward_opt@PAV?$ptr@VWidget@Pegas@@@Pegas@@PAV12@@std@@YAPAV?$ptr@VWidget@Pegas@@@Pegas@@PAV12@00Urandom_access_iterator_tag@0@U_Nonscalar_ptr_iterator_tag@0@U_Range_checked_iterator_tag@0@@Z 004269b0 f i engine:gui_layer.obj
 0001:00025a10       ??$_Construct@V?$ptr@VBaseScreenLayer@Pegas@@@Pegas@@V12@@std@@YAXPAV?$ptr@VBaseScreenLayer@Pegas@@@Pegas@@ABV12@@Z 00426a10 f i engine:default_game_state.obj
 0001:00025a10       ??$_Construct@V?$ptr@VWidget@Pegas@@@Pegas@@V12@@std@@YAXPAV?$ptr@VWidget@Pegas@@@Pegas@@ABV12@@Z 00426a10 f i engine:gui_layer.obj
 0001:00025a60       ??$unchecked_uninitialized_copy@PAV?$ptr@VWidget@Pegas@@@Pegas@@PAV12@V?$allocator@V?$ptr@VWidget@Pegas@@@Pegas@@@std@@@stdext@@YAPAV?$ptr@VWidget@Pegas@@@Pegas@@PAV12@00AAV?$allocator@V?$ptr@VWidget@Pegas@@@Pegas@@@std@@@Z 00426a60 f i engine:gui_layer.obj
 0001:00025ab0       ??$_Copy_backward_opt@PAV?$ptr@VWidget@Pegas@@@Pegas@@PAV12@Uforward_iterator_tag@std@@@std@@YAPAV?$ptr@VWidget@Pegas@@@Pegas@@PAV12@00Uforward_iterator_tag@0@U_Nonscalar_ptr_iterator_tag@0@U_Range_checked_iterator_tag@0@@Z 00426ab0 f i engine:gui_layer.obj
 0001:00025ae0       ??$_Uninit_copy@PAV?$ptr@VWidget@Pegas@@@Pegas@@PAV12@V?$allocator@V?$ptr@VWidget@Pegas@@@Pegas@@@std@@@std@@YAPAV?$ptr@VWidget@Pegas@@@Pegas@@PAV12@00AAV?$allocator@V?$ptr@VWidget@Pegas@@@Pegas@@@0@U_Nonscalar_ptr_iterator_tag@0@U_Range_checked_iterator_tag@0@@Z 00426ae0 f i engine:gui_layer.obj
 0001:00025ba0       ?setSuccessor@IScreenLayer@Pegas@@QAEXPAV12@@Z 00426ba0 f i engine:default_game_state.obj
 0001:00025bc0       ?begin@?$list@V?$ptr@VBaseScreenLayer@Pegas@@@Pegas@@V?$allocator@V?$ptr@VBaseScreenLayer@Pegas@@@Pegas@@@std@@@std@@QAE?AV?$_Iterator@$00@12@XZ 00426bc0 f i engine:default_game_state.obj
 0001:00025bf0       ?end@?$list@V?$ptr@UEvent@Pegas@@@Pegas@@V?$allocator@V?$ptr@UEvent@Pegas@@@Pegas@@@std@@@std@@QAE?AV?$_Iterator@$00@12@XZ 00426bf0 f i engine:waiting.obj
 0001:00025bf0       ?end@?$list@V?$ptr@VBaseScreenLayer@Pegas@@@Pegas@@V?$allocator@V?$ptr@VBaseScreenLayer@Pegas@@@Pegas@@@std@@@std@@QAE?AV?$_Iterator@$00@12@XZ 00426bf0 f i engine:default_game_state.obj
 0001:00025c20       ?size@?$list@V?$ptr@VBaseScreenLayer@Pegas@@@Pegas@@V?$allocator@V?$ptr@VBaseScreenLayer@Pegas@@@Pegas@@@std@@@std@@QBEIXZ 00426c20 f i engine:default_game_state.obj
 0001:00025c40       ?back@?$list@V?$ptr@VBaseScreenLayer@Pegas@@@Pegas@@V?$allocator@V?$ptr@VBaseScreenLayer@Pegas@@@Pegas@@@std@@@std@@QAEAAV?$ptr@VBaseScreenLayer@Pegas@@@Pegas@@XZ 00426c40 f i engine:default_game_state.obj
 0001:00025c70       ?push_back@?$list@V?$ptr@VBaseScreenLayer@Pegas@@@Pegas@@V?$allocator@V?$ptr@VBaseScreenLayer@Pegas@@@Pegas@@@std@@@std@@QAEXABV?$ptr@VBaseScreenLayer@Pegas@@@Pegas@@@Z 00426c70 f i engine:default_game_state.obj
 0001:00025cb0       ??0?$ptr@VBaseScreenLayer@Pegas@@@Pegas@@QAE@XZ 00426cb0 f i engine:default_game_state.obj
 0001:00025cb0       ??0?$ptr@VWidget@Pegas@@@Pegas@@QAE@XZ 00426cb0 f i engine:gui_layer.obj
 0001:00025ce0       ?get@?$ptr@VBaseScreenLayer@Pegas@@@Pegas@@QBEPAVBaseScreenLayer@2@XZ 00426ce0 f i engine:default_game_state.obj
 0001:00025d00       ??E?$_Iterator@$00@?$list@V?$ptr@VBaseScreenLayer@Pegas@@@Pegas@@V?$allocator@V?$ptr@VBaseScreenLayer@Pegas@@@Pegas@@@std@@@std@@QAEAAV012@XZ 00426d00 f i engine:default_game_state.obj
 0001:00025d20       ??9?$_Const_iterator@$00@?$list@V?$ptr@UEvent@Pegas@@@Pegas@@V?$allocator@V?$ptr@UEvent@Pegas@@@Pegas@@@std@@@std@@QBE_NABV012@@Z 00426d20 f i engine:waiting.obj
 0001:00025d20       ??9?$_Const_iterator@$00@?$list@HV?$allocator@H@std@@@std@@QBE_NABV012@@Z 00426d20 f i engine:processes.obj
 0001:00025d20       ??9?$_Const_iterator@$00@?$list@V?$ptr@VBaseScreenLayer@Pegas@@@Pegas@@V?$allocator@V?$ptr@VBaseScreenLayer@Pegas@@@Pegas@@@std@@@std@@QBE_NABV012@@Z 00426d20 f i engine:default_game_state.obj
 0001:00025d50       ?_Insert@?$list@V?$ptr@VBaseScreenLayer@Pegas@@@Pegas@@V?$allocator@V?$ptr@VBaseScreenLayer@Pegas@@@Pegas@@@std@@@std@@QAEXV?$_Const_iterator@$00@12@ABV?$ptr@VBaseScreenLayer@Pegas@@@Pegas@@@Z 00426d50 f i engine:default_game_state.obj
 0001:00025dc0       ??0?$_Iterator@$00@?$list@V?$ptr@UEvent@Pegas@@@Pegas@@V?$allocator@V?$ptr@UEvent@Pegas@@@Pegas@@@std@@@std@@QAE@PAU_Node@?$_List_nod@V?$ptr@UEvent@Pegas@@@Pegas@@V?$allocator@V?$ptr@UEvent@Pegas@@@Pegas@@@std@@@2@PBV12@@Z 00426dc0 f i engine:waiting.obj
 0001:00025dc0       ??0?$_Iterator@$00@?$list@V?$ptr@VBaseScreenLayer@Pegas@@@Pegas@@V?$allocator@V?$ptr@VBaseScreenLayer@Pegas@@@Pegas@@@std@@@std@@QAE@PAU_Node@?$_List_nod@V?$ptr@VBaseScreenLayer@Pegas@@@Pegas@@V?$allocator@V?$ptr@VBaseScreenLayer@Pegas@@@Pegas@@@std@@@2@PBV12@@Z 00426dc0 f i engine:default_game_state.obj
 0001:00025de0       ??F?$_Iterator@$00@?$list@V?$ptr@VBaseScreenLayer@Pegas@@@Pegas@@V?$allocator@V?$ptr@VBaseScreenLayer@Pegas@@@Pegas@@@std@@@std@@QAEAAV012@XZ 00426de0 f i engine:default_game_state.obj
 0001:00025e00       ??E?$_Const_iterator@$00@?$list@V?$ptr@VBaseScreenLayer@Pegas@@@Pegas@@V?$allocator@V?$ptr@VBaseScreenLayer@Pegas@@@Pegas@@@std@@@std@@QAEAAV012@XZ 00426e00 f i engine:default_game_state.obj
 0001:00025e60       ??8?$_Const_iterator@$00@?$list@V?$ptr@VBaseScreenLayer@Pegas@@@Pegas@@V?$allocator@V?$ptr@VBaseScreenLayer@Pegas@@@Pegas@@@std@@@std@@QBE_NABV012@@Z 00426e60 f i engine:default_game_state.obj
 0001:00025e60       ??8?$_Const_iterator@$00@?$list@V?$ptr@UEvent@Pegas@@@Pegas@@V?$allocator@V?$ptr@UEvent@Pegas@@@Pegas@@@std@@@std@@QBE_NABV012@@Z 00426e60 f i engine:waiting.obj
 0001:00025e60       ??8?$_Const_iterator@$00@?$list@HV?$allocator@H@std@@@std@@QBE_NABV012@@Z 00426e60 f i engine:processes.obj
 0001:00025eb0       ?_Buynode@?$list@V?$ptr@VBaseScreenLayer@Pegas@@@Pegas@@V?$allocator@V?$ptr@VBaseScreenLayer@Pegas@@@Pegas@@@std@@@std@@IAEPAU_Node@?$_List_nod@V?$ptr@VBaseScreenLayer@Pegas@@@Pegas@@V?$allocator@V?$ptr@VBaseScreenLayer@Pegas@@@Pegas@@@std@@@2@PAU342@0ABV?$ptr@VBaseScreenLayer@Pegas@@@Pegas@@@Z 00426eb0 f i engine:default_game_state.obj
 0001:00025fb0       ??0?$_Const_iterator@$00@?$list@V?$ptr@UEvent@Pegas@@@Pegas@@V?$allocator@V?$ptr@UEvent@Pegas@@@Pegas@@@std@@@std@@QAE@PAU_Node@?$_List_nod@V?$ptr@UEvent@Pegas@@@Pegas@@V?$allocator@V?$ptr@UEvent@Pegas@@@Pegas@@@std@@@2@PBV12@@Z 00426fb0 f i engine:waiting.obj
 0001:00025fb0       ??0?$_Const_iterator@$00@?$list@V?$ptr@VBaseScreenLayer@Pegas@@@Pegas@@V?$allocator@V?$ptr@VBaseScreenLayer@Pegas@@@Pegas@@@std@@@std@@QAE@PAU_Node@?$_List_nod@V?$ptr@VBaseScreenLayer@Pegas@@@Pegas@@V?$allocator@V?$ptr@VBaseScreenLayer@Pegas@@@Pegas@@@std@@@2@PBV12@@Z 00426fb0 f i engine:default_game_state.obj
 0001:00026000       ??F?$_Const_iterator@$00@?$list@V?$ptr@VBaseScreenLayer@Pegas@@@Pegas@@V?$allocator@V?$ptr@VBaseScreenLayer@Pegas@@@Pegas@@@std@@@std@@QAEAAV012@XZ 00427000 f i engine:default_game_state.obj
 0001:00026060       ?max_size@?$allocator@V?$ptr@UEvent@Pegas@@@Pegas@@@std@@QBEIXZ 00427060 f i engine:event_system.obj
 0001:00026060       ?max_size@?$allocator@V?$ptr@VBaseScreenLayer@Pegas@@@Pegas@@@std@@QBEIXZ 00427060 f i engine:default_game_state.obj
 0001:00026090       ??0Event_GUI_ButtonClick@Pegas@@QAE@PAVWidget@1@@Z 00427090 f i engine:standart_widgets.obj
 0001:000260c0       ?getType@Event_GUI_ButtonClick@Pegas@@UBE?AV?$basic_string@DU?$char_traits@D@std@@V?$allocator@D@2@@std@@XZ 004270c0 f i engine:standart_widgets.obj
 0001:000260f0       ??0Widget@Pegas@@QAE@H@Z   004270f0 f i engine:standart_widgets.obj
 0001:00026120       ??1Widget@Pegas@@UAE@XZ    00427120 f i engine:standart_widgets.obj
 0001:00026140       ?isPointIn@Widget@Pegas@@UAE_NMM@Z 00427140 f i engine:standart_widgets.obj
 0001:00026150       ?killFocus@Widget@Pegas@@UAEXXZ 00427150 f i engine:standart_widgets.obj
 0001:00026150       ?setFocus@Widget@Pegas@@UAEXXZ 00427150 f i engine:standart_widgets.obj
 0001:00026160       ?onMouseButtonDown@Widget@Pegas@@UAEXHMMH@Z 00427160 f i engine:standart_widgets.obj
 0001:00026160       ?onMouseButtonUp@Widget@Pegas@@UAEXHMMH@Z 00427160 f i engine:standart_widgets.obj
 0001:00026170       ?onMouseMove@Widget@Pegas@@UAEXMMH@Z 00427170 f i engine:standart_widgets.obj
 0001:00026180       ?onMouseWheel@Widget@Pegas@@UAEXHH@Z 00427180 f i engine:standart_widgets.obj
 0001:00026180       ?onKeyUp@Widget@Pegas@@UAEXHH@Z 00427180 f i engine:standart_widgets.obj
 0001:00026180       ?onKeyDown@Widget@Pegas@@UAEXHH@Z 00427180 f i engine:standart_widgets.obj
 0001:00026190       ?onChar@Widget@Pegas@@UAEX_W@Z 00427190 f i engine:standart_widgets.obj
 0001:00026190       ?render@Widget@Pegas@@UAEXPAVIPlatformContext@2@@Z 00427190 f i engine:standart_widgets.obj
 0001:000261a0       ??_EWidget@Pegas@@UAEPAXI@Z 004271a0 f i  CIL library: CIL module
 0001:000261a0       ??_GWidget@Pegas@@UAEPAXI@Z 004271a0 f i engine:standart_widgets.obj
 0001:000261d0       ??0ButtonStyle@ButtonWidget@Pegas@@QAE@XZ 004271d0 f i engine:standart_widgets.obj
 0001:00026220       ??_GButtonWidget@Pegas@@UAEPAXI@Z 00427220 f i engine:standart_widgets.obj
 0001:00026220       ??_EButtonWidget@Pegas@@UAEPAXI@Z 00427220 f i  CIL library: CIL module
 0001:00026250       ??1ButtonWidget@Pegas@@UAE@XZ 00427250 f i engine:standart_widgets.obj
 0001:00026270       ?empty@?$basic_string@_WU?$char_traits@_W@std@@V?$allocator@_W@2@@std@@QBE_NXZ 00427270 f i engine:standart_widgets.obj
 0001:00026290       ??0Event_GUI_FadeinComplete@Pegas@@QAE@XZ 00427290 f i engine:fader_layer.obj
 0001:00026310       ?getType@Event_GUI_FadeinComplete@Pegas@@UBE?AV?$basic_string@DU?$char_traits@D@std@@V?$allocator@D@2@@std@@XZ 00427310 f i engine:fader_layer.obj
 0001:00026340       ??_EEvent_GUI_ButtonClick@Pegas@@UAEPAXI@Z 00427340 f i  CIL library: CIL module
 0001:00026340       ??_EEvent_GUI_FadeoutComplete@Pegas@@UAEPAXI@Z 00427340 f i  CIL library: CIL module
 0001:00026340       ??_EEvent_GUI_FadeinComplete@Pegas@@UAEPAXI@Z 00427340 f i  CIL library: CIL module
 0001:00026340       ??_GEvent_GUI_FadeinComplete@Pegas@@UAEPAXI@Z 00427340 f i engine:fader_layer.obj
 0001:00026340       ??_GEvent_GUI_ButtonClick@Pegas@@UAEPAXI@Z 00427340 f i engine:standart_widgets.obj
 0001:00026340       ??_GEvent_GUI_FadeoutComplete@Pegas@@UAEPAXI@Z 00427340 f i engine:fader_layer.obj
 0001:00026370       ??1Event_GUI_FadeoutComplete@Pegas@@UAE@XZ 00427370 f i engine:fader_layer.obj
 0001:00026370       ??1Event_GUI_FadeinComplete@Pegas@@UAE@XZ 00427370 f i engine:fader_layer.obj
 0001:00026370       ??1Event_GUI_ButtonClick@Pegas@@UAE@XZ 00427370 f i engine:standart_widgets.obj
 0001:00026390       ??0Event_GUI_FadeoutComplete@Pegas@@QAE@XZ 00427390 f i engine:fader_layer.obj
 0001:00026410       ?getType@Event_GUI_FadeoutComplete@Pegas@@UBE?AV?$basic_string@DU?$char_traits@D@std@@V?$allocator@D@2@@std@@XZ 00427410 f i engine:fader_layer.obj
 0001:00026440       ?getListenerName@FaderLayer@Pegas@@UAE?AV?$basic_string@DU?$char_traits@D@std@@V?$allocator@D@2@@std@@XZ 00427440 f i engine:fader_layer.obj
 0001:00026470       ??_GFaderLayer@Pegas@@UAEPAXI@Z 00427470 f i engine:fader_layer.obj
 0001:00026470       ??_EFaderLayer@Pegas@@UAEPAXI@Z 00427470 f i  CIL library: CIL module
 0001:000264a0       ??1FaderLayer@Pegas@@UAE@XZ 004274a0 f i engine:fader_layer.obj
 0001:000264c0       ??$?0UEvent_GUI_ButtonClick@Pegas@@@?$ptr@UEvent@Pegas@@@Pegas@@QAE@PAUEvent_GUI_ButtonClick@1@PAUCounter@1@@Z 004274c0 f i engine:standart_widgets.obj
 0001:000264c0       ??$?0UEvent_GUI_FadeinComplete@Pegas@@@?$ptr@UEvent@Pegas@@@Pegas@@QAE@PAUEvent_GUI_FadeinComplete@1@PAUCounter@1@@Z 004274c0 f i engine:fader_layer.obj
 0001:000264c0       ??$?0UEvent_GUI_FadeoutComplete@Pegas@@@?$ptr@UEvent@Pegas@@@Pegas@@QAE@PAUEvent_GUI_FadeoutComplete@1@PAUCounter@1@@Z 004274c0 f i engine:fader_layer.obj
 0001:00026550       ??_EFaderLayer@Pegas@@WDA@AEPAXI@Z 00427550 f i engine:fader_layer.obj
 0001:00026560       ??_EFaderLayer@Pegas@@WDI@AEPAXI@Z 00427560 f i engine:fader_layer.obj
 0001:00026570       ??_EFaderLayer@Pegas@@WCM@AEPAXI@Z 00427570 f i engine:fader_layer.obj
 0001:00026580       ?open@File@Pegas@@QAE_NXZ  00427580 f   platform:file.obj
 0001:000265d0       ?open@File@Pegas@@QAE_NABV?$basic_string@_WU?$char_traits@_W@std@@V?$allocator@_W@2@@std@@I@Z 004275d0 f   platform:file.obj
 0001:00026700       ?create@File@Pegas@@QAE_NXZ 00427700 f   platform:file.obj
 0001:00026720       ?create@File@Pegas@@QAE_NABV?$basic_string@_WU?$char_traits@_W@std@@V?$allocator@_W@2@@std@@@Z 00427720 f   platform:file.obj
 0001:000267c0       ?close@File@Pegas@@QAEXXZ  004277c0 f   platform:file.obj
 0001:00026800       ?read@File@Pegas@@QAE_NPAXI@Z 00427800 f   platform:file.obj
 0001:00026870       ?write@File@Pegas@@QAE_NPBXI@Z 00427870 f   platform:file.obj
 0001:000268e0       ?write@File@Pegas@@QAE_NH@Z 004278e0 f   platform:file.obj
 0001:00026900       ?write@File@Pegas@@QAE_NM@Z 00427900 f   platform:file.obj
 0001:00026920       ?write@File@Pegas@@QAE_NI@Z 00427920 f   platform:file.obj
 0001:00026940       ?write@File@Pegas@@QAE_N_N@Z 00427940 f   platform:file.obj
 0001:00026960       ?read@File@Pegas@@QAE_NAAH@Z 00427960 f   platform:file.obj
 0001:00026980       ?read@File@Pegas@@QAE_NAAM@Z 00427980 f   platform:file.obj
 0001:000269a0       ?read@File@Pegas@@QAE_NAAI@Z 004279a0 f   platform:file.obj
 0001:000269c0       ?read@File@Pegas@@QAE_NAA_N@Z 004279c0 f   platform:file.obj
 0001:000269e0       ?position@File@Pegas@@QAEIXZ 004279e0 f   platform:file.obj
 0001:00026a30       ?setPosition@File@Pegas@@QAE_NI@Z 00427a30 f   platform:file.obj
 0001:00026a90       ?seek@File@Pegas@@QAE_NJ@Z 00427a90 f   platform:file.obj
 0001:00026af0       ?write@File@Pegas@@QAE_NABV?$basic_string@_WU?$char_traits@_W@std@@V?$allocator@_W@2@@std@@PAI@Z 00427af0 f   platform:file.obj
 0001:00026b70       ?read@File@Pegas@@QAE_NAAV?$basic_string@_WU?$char_traits@_W@std@@V?$allocator@_W@2@@std@@@Z 00427b70 f   platform:file.obj
 0001:00026c30       ?size@File@Pegas@@QAEIXZ   00427c30 f   platform:file.obj
 0001:00026ca0       ?c_str@?$basic_string@_WU?$char_traits@_W@std@@V?$allocator@_W@2@@std@@QBEPB_WXZ 00427ca0 f i platform:file.obj
 0001:00026cc0       ?create@StringResource@Pegas@@UAEXABUIntResourceCode@2@@Z 00427cc0 f   platform:platform_resources.obj
 0001:00026cf0       ?load@StringResource@Pegas@@UAEXXZ 00427cf0 f   platform:platform_resources.obj
 0001:00026d80       ?destroy@StringResource@Pegas@@UAEXXZ 00427d80 f   platform:platform_resources.obj
 0001:00026da0       ??0TextureResource@Pegas@@QAE@XZ 00427da0 f   platform:platform_resources.obj
 0001:00026e60       ??1TextureResource@Pegas@@UAE@XZ 00427e60 f   platform:platform_resources.obj
 0001:00026ec0       ?create@TextureResource@Pegas@@UAEXABUIntResourceCode@2@@Z 00427ec0 f   platform:platform_resources.obj
 0001:00026ef0       ?load@TextureResource@Pegas@@UAEXXZ 00427ef0 f   platform:platform_resources.obj
 0001:00027410       ?destroy@TextureResource@Pegas@@UAEXXZ 00428410 f   platform:platform_resources.obj
 0001:000274b0       ?inreaseInstanceCounter@TextureResource@Pegas@@IAEHXZ 004284b0 f   platform:platform_resources.obj
 0001:000276b0       ?decreaseInstanceCounter@TextureResource@Pegas@@IAEHXZ 004286b0 f   platform:platform_resources.obj
 0001:00027720       ?createBitmapInfoStruct@TextureResource@Pegas@@IAEPAUtagBITMAPINFO@@PAUHBITMAP__@@AAH@Z 00428720 f   platform:platform_resources.obj
 0001:00027890       ?createTexture@TextureResource@Pegas@@IAEIPAKHH@Z 00428890 f   platform:platform_resources.obj
 0001:00027940       ??0FontResource@Pegas@@QAE@XZ 00428940 f   platform:platform_resources.obj
 0001:000279c0       ??1FontResource@Pegas@@UAE@XZ 004289c0 f   platform:platform_resources.obj
 0001:00027a20       ?create@FontResource@Pegas@@UAEXABUFontResourceCode@2@@Z 00428a20 f   platform:platform_resources.obj
 0001:00027a50       ?load@FontResource@Pegas@@UAEXXZ 00428a50 f   platform:platform_resources.obj
 0001:00027b60       ?destroy@FontResource@Pegas@@UAEXXZ 00428b60 f   platform:platform_resources.obj
 0001:00027ba0       ?prepareString@FontResource@Pegas@@QAEPAEABV?$basic_string@_WU?$char_traits@_W@std@@V?$allocator@_W@2@@std@@AAH@Z 00428ba0 f   platform:platform_resources.obj
 0001:00027bf0       ?getTextExtent@FontResource@Pegas@@QAEXABV?$basic_string@_WU?$char_traits@_W@std@@V?$allocator@_W@2@@std@@AAM1@Z 00428bf0 f   platform:platform_resources.obj
 0001:00027c50       ?inreaseInstanceCounter@FontResource@Pegas@@AAEHXZ 00428c50 f   platform:platform_resources.obj
 0001:00027ca0       ?decreaseInstanceCounter@FontResource@Pegas@@AAEHXZ 00428ca0 f   platform:platform_resources.obj
 0001:00027cd0       ??_ETextureResource@Pegas@@UAEPAXI@Z 00428cd0 f i platform:platform_resources.obj
 0001:00027cd0       ??_GTextureResource@Pegas@@UAEPAXI@Z 00428cd0 f i platform:platform_resources.obj
 0001:00027d00       ?getDeviceContext@TextureResource@Pegas@@IAEAAPAUHDC__@@XZ 00428d00 f i platform:platform_resources.obj
 0001:00027d10       ??_GFontResource@Pegas@@UAEPAXI@Z 00428d10 f i platform:platform_resources.obj
 0001:00027d10       ??_EFontResource@Pegas@@UAEPAXI@Z 00428d10 f i platform:platform_resources.obj
 0001:00027d40       ??4FontResourceCode@Pegas@@QAEAAU01@ABU01@@Z 00428d40 f i platform:platform_resources.obj
 0001:00027d70       ?getDeviceContext@FontResource@Pegas@@AAEAAPAUHDC__@@XZ 00428d70 f i platform:platform_resources.obj
 0001:00027d80       ?count@?$_Tree@V?$_Tset_traits@HU?$less@H@std@@V?$allocator@H@2@$0A@@std@@@std@@QBEIABH@Z 00428d80 f i platform:platform_resources.obj
 0001:00027dd0       ??0?$BaseResource@UIntResourceCode@Pegas@@@Pegas@@QAE@XZ 00428dd0 f i platform:platform_resources.obj
 0001:00027e00       ??0IntResourceCode@Pegas@@QAE@XZ 00428e00 f i platform:platform_resources.obj
 0001:00027e30       ??1?$BaseResource@UIntResourceCode@Pegas@@@Pegas@@UAE@XZ 00428e30 f i platform:platform_resources.obj
 0001:00027e50       ??0?$BaseResource@UFontResourceCode@Pegas@@@Pegas@@QAE@XZ 00428e50 f i platform:platform_resources.obj
 0001:00027e80       ??0FontResourceCode@Pegas@@QAE@XZ 00428e80 f i platform:platform_resources.obj
 0001:00027ea0       ??1?$BaseResource@UFontResourceCode@Pegas@@@Pegas@@UAE@XZ 00428ea0 f i platform:platform_resources.obj
 0001:00027ec0       ??_G?$BaseResource@UIntResourceCode@Pegas@@@Pegas@@UAEPAXI@Z 00428ec0 f i platform:platform_resources.obj
 0001:00027ec0       ??_E?$BaseResource@UIntResourceCode@Pegas@@@Pegas@@UAEPAXI@Z 00428ec0 f i platform:platform_resources.obj
 0001:00027ef0       ??_G?$BaseResource@UFontResourceCode@Pegas@@@Pegas@@UAEPAXI@Z 00428ef0 f i platform:platform_resources.obj
 0001:00027ef0       ??_E?$BaseResource@UFontResourceCode@Pegas@@@Pegas@@UAEPAXI@Z 00428ef0 f i platform:platform_resources.obj
 0001:00027f20       ?equal_range@?$_Tree@V?$_Tset_traits@HU?$less@H@std@@V?$allocator@H@2@$0A@@std@@@std@@QBE?AU?$pair@Vconst_iterator@?$_Tree@V?$_Tset_traits@HU?$less@H@std@@V?$allocator@H@2@$0A@@std@@@std@@V123@@2@ABH@Z 00428f20 f i platform:platform_resources.obj
 0001:00027f40       ?_Eqrange@?$_Tree@V?$_Tset_traits@HU?$less@H@std@@V?$allocator@H@2@$0A@@std@@@std@@IBE?AU?$pair@Vconst_iterator@?$_Tree@V?$_Tset_traits@HU?$less@H@std@@V?$allocator@H@2@$0A@@std@@@std@@V123@@2@ABH@Z 00428f40 f i platform:platform_resources.obj
 0001:000280f0       ??$bind2nd@U?$greater@H@std@@H@std@@YA?AV?$binder2nd@U?$greater@H@std@@@0@ABU?$greater@H@0@ABH@Z 004290f0 f i platform:platform_resources.obj
 0001:00028120       ??$find_if@Viterator@?$_Tree@V?$_Tset_traits@HU?$less@H@std@@V?$allocator@H@2@$0A@@std@@@std@@V?$binder2nd@U?$greater@H@std@@@3@@std@@YA?AViterator@?$_Tree@V?$_Tset_traits@HU?$less@H@std@@V?$allocator@H@2@$0A@@std@@@0@V120@0V?$binder2nd@U?$greater@H@std@@@0@@Z 00429120 f i platform:platform_resources.obj
 0001:00028190       ??$_Distance@Vconst_iterator@?$_Tree@V?$_Tset_traits@HU?$less@H@std@@V?$allocator@H@2@$0A@@std@@@std@@I@std@@YAXVconst_iterator@?$_Tree@V?$_Tset_traits@HU?$less@H@std@@V?$allocator@H@2@$0A@@std@@@0@0AAI@Z 00429190 f i platform:platform_resources.obj
 0001:000281d0       ??0?$binder2nd@U?$greater@H@std@@@std@@QAE@ABU?$greater@H@1@ABH@Z 004291d0 f i platform:platform_resources.obj
 0001:000281f0       ??$_Checked_base@Viterator@?$_Tree@V?$_Tset_traits@HU?$less@H@std@@V?$allocator@H@2@$0A@@std@@@std@@@std@@YA?AViterator@?$_Tree@V?$_Tset_traits@HU?$less@H@std@@V?$allocator@H@2@$0A@@std@@@0@AAV120@@Z 004291f0 f i platform:platform_resources.obj
 0001:00028210       ??$_Find_if@Viterator@?$_Tree@V?$_Tset_traits@HU?$less@H@std@@V?$allocator@H@2@$0A@@std@@@std@@V?$binder2nd@U?$greater@H@std@@@3@@std@@YA?AViterator@?$_Tree@V?$_Tset_traits@HU?$less@H@std@@V?$allocator@H@2@$0A@@std@@@0@V120@0V?$binder2nd@U?$greater@H@std@@@0@@Z 00429210 f i platform:platform_resources.obj
 0001:00028260       ??$_Checked_assign_from_base@Viterator@?$_Tree@V?$_Tset_traits@HU?$less@H@std@@V?$allocator@H@2@$0A@@std@@@std@@@std@@YAXAAViterator@?$_Tree@V?$_Tset_traits@HU?$less@H@std@@V?$allocator@H@2@$0A@@std@@@0@ABV120@@Z 00429260 f i platform:platform_resources.obj
 0001:00028280       ??$_Distance2@Vconst_iterator@?$_Tree@V?$_Tset_traits@HU?$less@H@std@@V?$allocator@H@2@$0A@@std@@@std@@I@std@@YAXVconst_iterator@?$_Tree@V?$_Tset_traits@HU?$less@H@std@@V?$allocator@H@2@$0A@@std@@@0@0AAIUbidirectional_iterator_tag@0@@Z 00429280 f i platform:platform_resources.obj
 0001:000282c0       ??R?$binder2nd@U?$greater@H@std@@@std@@QBE_NAAH@Z 004292c0 f i platform:platform_resources.obj
 0001:000282e0       ??R?$greater@H@std@@QBE_NABH0@Z 004292e0 f i platform:platform_resources.obj
 0001:00028300       ??$_Checked_base@Viterator@?$_Tree@V?$_Tset_traits@HU?$less@H@std@@V?$allocator@H@2@$0A@@std@@@std@@@std@@YA?AViterator@?$_Tree@V?$_Tset_traits@HU?$less@H@std@@V?$allocator@H@2@$0A@@std@@@0@AAV120@U_Unchanged_checked_iterator_base_type_tag@0@@Z 00429300 f i platform:platform_resources.obj
 0001:00028330       ?initialize@OGLGrafManager@Pegas@@QAEXPAUHWND__@@@Z 00429330 f   platform:ogl_graf_manager.obj
 0001:00028580       ?setViewport@OGLGrafManager@Pegas@@QAEXMMMM@Z 00429580 f   platform:ogl_graf_manager.obj
 0001:00028680       ?destroy@OGLGrafManager@Pegas@@UAEXXZ 00429680 f   platform:ogl_graf_manager.obj
 0001:000286f0       ?render@OGLGrafManager@Pegas@@UAEXXZ 004296f0 f   platform:ogl_graf_manager.obj
 0001:00028770       ?beginScene@OGLGrafManager@Pegas@@UAEXXZ 00429770 f   platform:ogl_graf_manager.obj
 0001:000287c0       ?endScene@OGLGrafManager@Pegas@@UAEXXZ 004297c0 f   platform:ogl_graf_manager.obj
 0001:000287e0       ?getCanvasWidth@OGLGrafManager@Pegas@@UAEMXZ 004297e0 f   platform:ogl_graf_manager.obj
 0001:00028800       ?getCanvasHeight@OGLGrafManager@Pegas@@UAEMXZ 00429800 f   platform:ogl_graf_manager.obj
 0001:00028820       ?drawLine@OGLGrafManager@Pegas@@UAEXMMMMI@Z 00429820 f   platform:ogl_graf_manager.obj
 0001:000288a0       ?drawRectangle@OGLGrafManager@Pegas@@UAEXMMMMII@Z 004298a0 f   platform:ogl_graf_manager.obj
 0001:00028a30       ?drawEllipse@OGLGrafManager@Pegas@@UAEXMMMMII@Z 00429a30 f   platform:ogl_graf_manager.obj
 0001:00028ca0       ?drawSprite@OGLGrafManager@Pegas@@UAEXABUSpriteParameters@2@@Z 00429ca0 f   platform:ogl_graf_manager.obj
 0001:00028f70       ?drawText@OGLGrafManager@Pegas@@UAEXABV?$basic_string@_WU?$char_traits@_W@std@@V?$allocator@_W@2@@std@@ABUTextParameters@2@@Z 00429f70 f   platform:ogl_graf_manager.obj
 0001:00029050       ?drawText@OGLGrafManager@Pegas@@UAEXHABUTextParameters@2@@Z 0042a050 f   platform:ogl_graf_manager.obj
 0001:00029090       ?getTextExtent@OGLGrafManager@Pegas@@UAEXABV?$basic_string@_WU?$char_traits@_W@std@@V?$allocator@_W@2@@std@@HAAM1@Z 0042a090 f   platform:ogl_graf_manager.obj
 0001:000290d0       ?getTextExtent@OGLGrafManager@Pegas@@UAEXHHAAM0@Z 0042a0d0 f   platform:ogl_graf_manager.obj
 0001:00029120       ?load@EllipseTexture@Pegas@@UAEXXZ 0042a120 f   platform:ogl_graf_manager.obj
 0001:00029370       ??0GMException@Pegas@@QAE@ABV?$basic_string@_WU?$char_traits@_W@std@@V?$allocator@_W@2@@std@@@Z 0042a370 f i platform:ogl_graf_manager.obj
 0001:000293a0       ??_EGMException@Pegas@@UAEPAXI@Z 0042a3a0 f i platform:ogl_graf_manager.obj
 0001:000293a0       ??_GGMException@Pegas@@UAEPAXI@Z 0042a3a0 f i platform:ogl_graf_manager.obj
 0001:000293d0       ??1GMException@Pegas@@UAE@XZ 0042a3d0 f i platform:ogl_graf_manager.obj
 0001:000293f0       ??0GMException@Pegas@@QAE@ABV01@@Z 0042a3f0 f i platform:ogl_graf_manager.obj
 0001:00029420       ?getEllipseBorderTexture@EllipseTexture@Pegas@@QBEIXZ 0042a420 f i platform:ogl_graf_manager.obj
 0001:00029440       ?getTexture@TextureResource@Pegas@@QBEIXZ 0042a440 f i platform:ogl_graf_manager.obj
 0001:00029460       ?getEllipseContentTexture@EllipseTexture@Pegas@@QBEIXZ 0042a460 f i platform:ogl_graf_manager.obj
 0001:00029480       ?getImageWidth@TextureResource@Pegas@@QBEHXZ 0042a480 f i platform:ogl_graf_manager.obj
 0001:000294a0       ?size@?$_Tree@V?$_Tmap_traits@HPAVSoundResource@Pegas@@U?$less@H@std@@V?$allocator@U?$pair@$$CBHPAVSoundResource@Pegas@@@std@@@4@$0A@@std@@@std@@QBEIXZ 0042a4a0 f i platform:winmm_sound_manager.obj
 0001:000294a0       ?size@?$_Tree@V?$_Tmap_traits@HPAVStringResource@Pegas@@U?$less@H@std@@V?$allocator@U?$pair@$$CBHPAVStringResource@Pegas@@@std@@@4@$0A@@std@@@std@@QBEIXZ 0042a4a0 f i platform:ogl_graf_manager.obj
 0001:000294a0       ?size@?$_Tree@V?$_Tmap_traits@HPAVFontResource@Pegas@@U?$less@H@std@@V?$allocator@U?$pair@$$CBHPAVFontResource@Pegas@@@std@@@4@$0A@@std@@@std@@QBEIXZ 0042a4a0 f i platform:ogl_graf_manager.obj
 0001:000294a0       ?getImageHeight@TextureResource@Pegas@@QBEHXZ 0042a4a0 f i platform:ogl_graf_manager.obj
 0001:000294c0       ?getMaxUCoord@TextureResource@Pegas@@QBEMXZ 0042a4c0 f i platform:ogl_graf_manager.obj
 0001:000294e0       ?getMaxVCoord@TextureResource@Pegas@@QBEMXZ 0042a4e0 f i platform:ogl_graf_manager.obj
 0001:00029500       ?getFontID@FontResource@Pegas@@QAEIXZ 0042a500 f i platform:ogl_graf_manager.obj
 0001:00029500       ?getInvertedTexture@TextureResource@Pegas@@QBEIXZ 0042a500 f i platform:ogl_graf_manager.obj
 0001:00029520       ?getString@StringResource@Pegas@@QAEAAV?$basic_string@_WU?$char_traits@_W@std@@V?$allocator@_W@2@@std@@XZ 0042a520 f i platform:ogl_graf_manager.obj
 0001:00029540       ?begin@?$list@PAVIDrawable@Pegas@@V?$allocator@PAVIDrawable@Pegas@@@std@@@std@@QAE?AV?$_Iterator@$00@12@XZ 0042a540 f i platform:ogl_graf_manager.obj
 0001:00029570       ?end@?$list@UFrame@SpriteAnimation@Pegas@@V?$allocator@UFrame@SpriteAnimation@Pegas@@@std@@@std@@QAE?AV?$_Iterator@$00@12@XZ 0042a570 f i platform:sprite_animation.obj
 0001:00029570       ?end@?$list@PAVIDrawable@Pegas@@V?$allocator@PAVIDrawable@Pegas@@@std@@@std@@QAE?AV?$_Iterator@$00@12@XZ 0042a570 f i platform:ogl_graf_manager.obj
 0001:000295a0       ?getInstance@?$Singleton@V?$ResourceManager@VStringResource@Pegas@@UIntResourceCode@2@@Pegas@@@Pegas@@SAAAV?$ResourceManager@VStringResource@Pegas@@UIntResourceCode@2@@2@XZ 0042a5a0 f i platform:ogl_graf_manager.obj
 0001:000295c0       ?getInstance@?$Singleton@V?$ResourceManager@VFontResource@Pegas@@UFontResourceCode@2@@Pegas@@@Pegas@@SAAAV?$ResourceManager@VFontResource@Pegas@@UFontResourceCode@2@@2@XZ 0042a5c0 f i platform:ogl_graf_manager.obj
 0001:000295e0       ??E?$_Iterator@$00@?$list@PAVIDrawable@Pegas@@V?$allocator@PAVIDrawable@Pegas@@@std@@@std@@QAEAAV012@XZ 0042a5e0 f i platform:ogl_graf_manager.obj
 0001:00029600       ??9?$_Const_iterator@$00@?$list@UFrame@SpriteAnimation@Pegas@@V?$allocator@UFrame@SpriteAnimation@Pegas@@@std@@@std@@QBE_NABV012@@Z 0042a600 f i platform:sprite_animation.obj
 0001:00029600       ??9?$_Const_iterator@$00@?$list@PAVIDrawable@Pegas@@V?$allocator@PAVIDrawable@Pegas@@@std@@@std@@QBE_NABV012@@Z 0042a600 f i platform:ogl_graf_manager.obj
 0001:00029630       ??E?$_Const_iterator@$00@?$list@PAVIDrawable@Pegas@@V?$allocator@PAVIDrawable@Pegas@@@std@@@std@@QAEAAV012@XZ 0042a630 f i platform:ogl_graf_manager.obj
 0001:000296a0       ??8?$_Const_iterator@$00@?$list@PAVIDrawable@Pegas@@V?$allocator@PAVIDrawable@Pegas@@@std@@@std@@QBE_NABV012@@Z 0042a6a0 f i platform:ogl_graf_manager.obj
 0001:000296a0       ??8?$_Const_iterator@$00@?$list@UFrame@SpriteAnimation@Pegas@@V?$allocator@UFrame@SpriteAnimation@Pegas@@@std@@@std@@QBE_NABV012@@Z 0042a6a0 f i platform:sprite_animation.obj
 0001:00029700       ??0?$_Bidit@UFrame@SpriteAnimation@Pegas@@HPBU123@ABU123@@std@@QAE@XZ 0042a700 f i platform:sprite_animation.obj
 0001:00029700       ??0?$_Bidit@PAVIDrawable@Pegas@@HPBQAV12@ABQAV12@@std@@QAE@XZ 0042a700 f i platform:ogl_graf_manager.obj
 0001:00029720       ??0?$_Iterator_with_base@Ubidirectional_iterator_tag@std@@PAVIDrawable@Pegas@@HPBQAV34@ABQAV34@V_Iterator_base_aux@2@@std@@QAE@XZ 0042a720 f i platform:ogl_graf_manager.obj
 0001:00029720       ??0?$_Iterator_with_base@Ubidirectional_iterator_tag@std@@UFrame@SpriteAnimation@Pegas@@HPBU345@ABU345@V_Iterator_base_aux@2@@std@@QAE@XZ 0042a720 f i platform:sprite_animation.obj
 0001:00029740       ?getResource@?$ResourceManager@VStringResource@Pegas@@UIntResourceCode@2@@Pegas@@QAEPAVStringResource@2@H@Z 0042a740 f i platform:ogl_graf_manager.obj
 0001:000297e0       ?loadAll@?$ResourceManager@VTextureResource@Pegas@@UIntResourceCode@2@@Pegas@@QAEXXZ 0042a7e0 f i platform:ogl_graf_manager.obj
 0001:000297e0       ?loadAll@?$ResourceManager@VFontResource@Pegas@@UFontResourceCode@2@@Pegas@@QAEXXZ 0042a7e0 f i platform:ogl_graf_manager.obj
 0001:00029850       ?getResource@?$ResourceManager@VFontResource@Pegas@@UFontResourceCode@2@@Pegas@@QAEPAVFontResource@2@H@Z 0042a850 f i platform:ogl_graf_manager.obj
 0001:000298f0       ??$swap@M@std@@YAXAAM0@Z   0042a8f0 f i platform:ogl_graf_manager.obj
 0001:00029920       ?count@?$_Tree@V?$_Tmap_traits@HPAVStringResource@Pegas@@U?$less@H@std@@V?$allocator@U?$pair@$$CBHPAVStringResource@Pegas@@@std@@@4@$0A@@std@@@std@@QBEIABH@Z 0042a920 f i platform:ogl_graf_manager.obj
 0001:00029920       ?count@?$_Tree@V?$_Tmap_traits@HPAVSoundResource@Pegas@@U?$less@H@std@@V?$allocator@U?$pair@$$CBHPAVSoundResource@Pegas@@@std@@@4@$0A@@std@@@std@@QBEIABH@Z 0042a920 f i platform:winmm_sound_manager.obj
 0001:00029970       ??A?$map@HPAVFontResource@Pegas@@U?$less@H@std@@V?$allocator@U?$pair@$$CBHPAVFontResource@Pegas@@@std@@@4@@std@@QAEAAPAVFontResource@Pegas@@ABH@Z 0042a970 f i platform:ogl_graf_manager.obj
 0001:00029a30       ?_Key@?$_Tree@V?$_Tmap_traits@HPAVSoundResource@Pegas@@U?$less@H@std@@V?$allocator@U?$pair@$$CBHPAVSoundResource@Pegas@@@std@@@4@$0A@@std@@@std@@KAABHPAU_Node@?$_Tree_nod@V?$_Tmap_traits@HPAVSoundResource@Pegas@@U?$less@H@std@@V?$allocator@U?$pair@$$CBHPAVSoundResource@Pegas@@@std@@@4@$0A@@std@@@2@@Z 0042aa30 f i platform:winmm_sound_manager.obj
 0001:00029a30       ?_Key@?$_Tree@V?$_Tmap_traits@HPAVStringResource@Pegas@@U?$less@H@std@@V?$allocator@U?$pair@$$CBHPAVStringResource@Pegas@@@std@@@4@$0A@@std@@@std@@KAABHPAU_Node@?$_Tree_nod@V?$_Tmap_traits@HPAVStringResource@Pegas@@U?$less@H@std@@V?$allocator@U?$pair@$$CBHPAVStringResource@Pegas@@@std@@@4@$0A@@std@@@2@@Z 0042aa30 f i platform:ogl_graf_manager.obj
 0001:00029a50       ?equal_range@?$_Tree@V?$_Tmap_traits@HPAVStringResource@Pegas@@U?$less@H@std@@V?$allocator@U?$pair@$$CBHPAVStringResource@Pegas@@@std@@@4@$0A@@std@@@std@@QBE?AU?$pair@Vconst_iterator@?$_Tree@V?$_Tmap_traits@HPAVStringResource@Pegas@@U?$less@H@std@@V?$allocator@U?$pair@$$CBHPAVStringResource@Pegas@@@std@@@4@$0A@@std@@@std@@V123@@2@ABH@Z 0042aa50 f i platform:ogl_graf_manager.obj
 0001:00029a50       ?equal_range@?$_Tree@V?$_Tmap_traits@HPAVSoundResource@Pegas@@U?$less@H@std@@V?$allocator@U?$pair@$$CBHPAVSoundResource@Pegas@@@std@@@4@$0A@@std@@@std@@QBE?AU?$pair@Vconst_iterator@?$_Tree@V?$_Tmap_traits@HPAVSoundResource@Pegas@@U?$less@H@std@@V?$allocator@U?$pair@$$CBHPAVSoundResource@Pegas@@@std@@@4@$0A@@std@@@std@@V123@@2@ABH@Z 0042aa50 f i platform:winmm_sound_manager.obj
 0001:00029a70       ?insert@?$_Tree@V?$_Tmap_traits@HPAVFontResource@Pegas@@U?$less@H@std@@V?$allocator@U?$pair@$$CBHPAVFontResource@Pegas@@@std@@@4@$0A@@std@@@std@@QAE?AViterator@12@Vconst_iterator@12@ABU?$pair@$$CBHPAVFontResource@Pegas@@@2@@Z 0042aa70 f i platform:ogl_graf_manager.obj
 0001:0002a090       ?lower_bound@?$_Tree@V?$_Tmap_traits@HPAVFontResource@Pegas@@U?$less@H@std@@V?$allocator@U?$pair@$$CBHPAVFontResource@Pegas@@@std@@@4@$0A@@std@@@std@@QAE?AViterator@12@ABH@Z 0042b090 f i platform:ogl_graf_manager.obj
 0001:0002a0c0       ?_Eqrange@?$_Tree@V?$_Tmap_traits@HPAVStringResource@Pegas@@U?$less@H@std@@V?$allocator@U?$pair@$$CBHPAVStringResource@Pegas@@@std@@@4@$0A@@std@@@std@@IBE?AU?$pair@Vconst_iterator@?$_Tree@V?$_Tmap_traits@HPAVStringResource@Pegas@@U?$less@H@std@@V?$allocator@U?$pair@$$CBHPAVStringResource@Pegas@@@std@@@4@$0A@@std@@@std@@V123@@2@ABH@Z 0042b0c0 f i platform:ogl_graf_manager.obj
 0001:0002a0c0       ?_Eqrange@?$_Tree@V?$_Tmap_traits@HPAVSoundResource@Pegas@@U?$less@H@std@@V?$allocator@U?$pair@$$CBHPAVSoundResource@Pegas@@@std@@@4@$0A@@std@@@std@@IBE?AU?$pair@Vconst_iterator@?$_Tree@V?$_Tmap_traits@HPAVSoundResource@Pegas@@U?$less@H@std@@V?$allocator@U?$pair@$$CBHPAVSoundResource@Pegas@@@std@@@4@$0A@@std@@@std@@V123@@2@ABH@Z 0042b0c0 f i platform:winmm_sound_manager.obj
 0001:0002a270       ?_Lbound@?$_Tree@V?$_Tmap_traits@HPAVFontResource@Pegas@@U?$less@H@std@@V?$allocator@U?$pair@$$CBHPAVFontResource@Pegas@@@std@@@4@$0A@@std@@@std@@IBEPAU_Node@?$_Tree_nod@V?$_Tmap_traits@HPAVFontResource@Pegas@@U?$less@H@std@@V?$allocator@U?$pair@$$CBHPAVFontResource@Pegas@@@std@@@4@$0A@@std@@@2@ABH@Z 0042b270 f i platform:ogl_graf_manager.obj
 0001:0002a300       ??0const_iterator@?$_Tree@V?$_Tmap_traits@HPAVSoundResource@Pegas@@U?$less@H@std@@V?$allocator@U?$pair@$$CBHPAVSoundResource@Pegas@@@std@@@4@$0A@@std@@@std@@QAE@XZ 0042b300 f i platform:winmm_sound_manager.obj
 0001:0002a300       ??0const_iterator@?$_Tree@V?$_Tmap_traits@HPAVFontResource@Pegas@@U?$less@H@std@@V?$allocator@U?$pair@$$CBHPAVFontResource@Pegas@@@std@@@4@$0A@@std@@@std@@QAE@XZ 0042b300 f i platform:ogl_graf_manager.obj
 0001:0002a300       ??0const_iterator@?$_Tree@V?$_Tmap_traits@HPAVStringResource@Pegas@@U?$less@H@std@@V?$allocator@U?$pair@$$CBHPAVStringResource@Pegas@@@std@@@4@$0A@@std@@@std@@QAE@XZ 0042b300 f i platform:ogl_graf_manager.obj
 0001:0002a320       ??Fconst_iterator@?$_Tree@V?$_Tmap_traits@HPAVStringResource@Pegas@@U?$less@H@std@@V?$allocator@U?$pair@$$CBHPAVStringResource@Pegas@@@std@@@4@$0A@@std@@@std@@QAEAAV012@XZ 0042b320 f i platform:ogl_graf_manager.obj
 0001:0002a320       ??Fconst_iterator@?$_Tree@V?$_Tmap_traits@HPAVSoundResource@Pegas@@U?$less@H@std@@V?$allocator@U?$pair@$$CBHPAVSoundResource@Pegas@@@std@@@4@$0A@@std@@@std@@QAEAAV012@XZ 0042b320 f i platform:winmm_sound_manager.obj
 0001:0002a340       ?_Buynode@?$_Tree@V?$_Tmap_traits@HPAVStringResource@Pegas@@U?$less@H@std@@V?$allocator@U?$pair@$$CBHPAVStringResource@Pegas@@@std@@@4@$0A@@std@@@std@@IAEPAU_Node@?$_Tree_nod@V?$_Tmap_traits@HPAVStringResource@Pegas@@U?$less@H@std@@V?$allocator@U?$pair@$$CBHPAVStringResource@Pegas@@@std@@@4@$0A@@std@@@2@PAU342@00ABU?$pair@$$CBHPAVStringResource@Pegas@@@2@D@Z 0042b340 f i platform:ogl_graf_manager.obj
 0001:0002a340       ?_Buynode@?$_Tree@V?$_Tmap_traits@HPAVSoundResource@Pegas@@U?$less@H@std@@V?$allocator@U?$pair@$$CBHPAVSoundResource@Pegas@@@std@@@4@$0A@@std@@@std@@IAEPAU_Node@?$_Tree_nod@V?$_Tmap_traits@HPAVSoundResource@Pegas@@U?$less@H@std@@V?$allocator@U?$pair@$$CBHPAVSoundResource@Pegas@@@std@@@4@$0A@@std@@@2@PAU342@00ABU?$pair@$$CBHPAVSoundResource@Pegas@@@2@D@Z 0042b340 f i platform:winmm_sound_manager.obj
 0001:0002a430       ?_Dec@const_iterator@?$_Tree@V?$_Tmap_traits@HPAVSoundResource@Pegas@@U?$less@H@std@@V?$allocator@U?$pair@$$CBHPAVSoundResource@Pegas@@@std@@@4@$0A@@std@@@std@@QAEXXZ 0042b430 f i platform:winmm_sound_manager.obj
 0001:0002a430       ?_Dec@const_iterator@?$_Tree@V?$_Tmap_traits@HPAVStringResource@Pegas@@U?$less@H@std@@V?$allocator@U?$pair@$$CBHPAVStringResource@Pegas@@@std@@@4@$0A@@std@@@std@@QAEXXZ 0042b430 f i platform:ogl_graf_manager.obj
 0001:0002a560       ??0?$pair@Vconst_iterator@?$_Tree@V?$_Tmap_traits@HPAVStringResource@Pegas@@U?$less@H@std@@V?$allocator@U?$pair@$$CBHPAVStringResource@Pegas@@@std@@@4@$0A@@std@@@std@@V123@@std@@QAE@ABVconst_iterator@?$_Tree@V?$_Tmap_traits@HPAVStringResource@Pegas@@U?$less@H@std@@V?$allocator@U?$pair@$$CBHPAVStringResource@Pegas@@@std@@@4@$0A@@std@@@1@0@Z 0042b560 f i platform:ogl_graf_manager.obj
 0001:0002a560       ??0?$pair@Vconst_iterator@?$_Tree@V?$_Tset_traits@HU?$less@H@std@@V?$allocator@H@2@$0A@@std@@@std@@V123@@std@@QAE@ABVconst_iterator@?$_Tree@V?$_Tset_traits@HU?$less@H@std@@V?$allocator@H@2@$0A@@std@@@1@0@Z 0042b560 f i platform:platform_resources.obj
 0001:0002a560       ??0?$pair@Vconst_iterator@?$_Tree@V?$_Tmap_traits@HPAVSoundResource@Pegas@@U?$less@H@std@@V?$allocator@U?$pair@$$CBHPAVSoundResource@Pegas@@@std@@@4@$0A@@std@@@std@@V123@@std@@QAE@ABVconst_iterator@?$_Tree@V?$_Tmap_traits@HPAVSoundResource@Pegas@@U?$less@H@std@@V?$allocator@U?$pair@$$CBHPAVSoundResource@Pegas@@@std@@@4@$0A@@std@@@1@0@Z 0042b560 f i platform:winmm_sound_manager.obj
 0001:0002a5a0       ??0?$pair@Viterator@?$_Tree@V?$_Tmap_traits@HPAVSoundResource@Pegas@@U?$less@H@std@@V?$allocator@U?$pair@$$CBHPAVSoundResource@Pegas@@@std@@@4@$0A@@std@@@std@@_N@std@@QAE@ABViterator@?$_Tree@V?$_Tmap_traits@HPAVSoundResource@Pegas@@U?$less@H@std@@V?$allocator@U?$pair@$$CBHPAVSoundResource@Pegas@@@std@@@4@$0A@@std@@@1@AB_N@Z 0042b5a0 f i platform:winmm_sound_manager.obj
 0001:0002a5a0       ??0?$pair@Viterator@?$_Tree@V?$_Tmap_traits@HPAVStringResource@Pegas@@U?$less@H@std@@V?$allocator@U?$pair@$$CBHPAVStringResource@Pegas@@@std@@@4@$0A@@std@@@std@@_N@std@@QAE@ABViterator@?$_Tree@V?$_Tmap_traits@HPAVStringResource@Pegas@@U?$less@H@std@@V?$allocator@U?$pair@$$CBHPAVStringResource@Pegas@@@std@@@4@$0A@@std@@@1@AB_N@Z 0042b5a0 f i platform:ogl_graf_manager.obj
 0001:0002a5d0       ?max_size@?$allocator@U?$pair@$$CBHPAVStringResource@Pegas@@@std@@@std@@QBEIXZ 0042b5d0 f i platform:ogl_graf_manager.obj
 0001:0002a5d0       ?max_size@?$allocator@U?$pair@$$CBHPAVSoundResource@Pegas@@@std@@@std@@QBEIXZ 0042b5d0 f i platform:winmm_sound_manager.obj
 0001:0002a600       ??0_Node@?$_Tree_nod@V?$_Tmap_traits@HPAVSoundResource@Pegas@@U?$less@H@std@@V?$allocator@U?$pair@$$CBHPAVSoundResource@Pegas@@@std@@@4@$0A@@std@@@std@@QAE@PAU012@00ABU?$pair@$$CBHPAVSoundResource@Pegas@@@2@D@Z 0042b600 f i platform:winmm_sound_manager.obj
 0001:0002a600       ??0_Node@?$_Tree_nod@V?$_Tmap_traits@HPAVStringResource@Pegas@@U?$less@H@std@@V?$allocator@U?$pair@$$CBHPAVStringResource@Pegas@@@std@@@4@$0A@@std@@@std@@QAE@PAU012@00ABU?$pair@$$CBHPAVStringResource@Pegas@@@2@D@Z 0042b600 f i platform:ogl_graf_manager.obj
 0001:0002a650       ??$_Distance@Vconst_iterator@?$_Tree@V?$_Tmap_traits@HPAVStringResource@Pegas@@U?$less@H@std@@V?$allocator@U?$pair@$$CBHPAVStringResource@Pegas@@@std@@@4@$0A@@std@@@std@@I@std@@YAXVconst_iterator@?$_Tree@V?$_Tmap_traits@HPAVStringResource@Pegas@@U?$less@H@std@@V?$allocator@U?$pair@$$CBHPAVStringResource@Pegas@@@std@@@4@$0A@@std@@@0@0AAI@Z 0042b650 f i platform:ogl_graf_manager.obj
 0001:0002a650       ??$_Distance@Vconst_iterator@?$_Tree@V?$_Tmap_traits@HPAVSoundResource@Pegas@@U?$less@H@std@@V?$allocator@U?$pair@$$CBHPAVSoundResource@Pegas@@@std@@@4@$0A@@std@@@std@@I@std@@YAXVconst_iterator@?$_Tree@V?$_Tmap_traits@HPAVSoundResource@Pegas@@U?$less@H@std@@V?$allocator@U?$pair@$$CBHPAVSoundResource@Pegas@@@std@@@4@$0A@@std@@@0@0AAI@Z 0042b650 f i platform:winmm_sound_manager.obj
 0001:0002a690       ??$_Iter_cat@Vconst_iterator@?$_Tree@V?$_Tmap_traits@HPAVSoundResource@Pegas@@U?$less@H@std@@V?$allocator@U?$pair@$$CBHPAVSoundResource@Pegas@@@std@@@4@$0A@@std@@@std@@@std@@YA?AUbidirectional_iterator_tag@0@ABVconst_iterator@?$_Tree@V?$_Tmap_traits@HPAVSoundResource@Pegas@@U?$less@H@std@@V?$allocator@U?$pair@$$CBHPAVSoundResource@Pegas@@@std@@@4@$0A@@std@@@0@@Z 0042b690 f i platform:winmm_sound_manager.obj
 0001:0002a690       ??$_Iter_cat@Vconst_iterator@?$_Tree@V?$_Tmap_traits@HPAVStringResource@Pegas@@U?$less@H@std@@V?$allocator@U?$pair@$$CBHPAVStringResource@Pegas@@@std@@@4@$0A@@std@@@std@@@std@@YA?AUbidirectional_iterator_tag@0@ABVconst_iterator@?$_Tree@V?$_Tmap_traits@HPAVStringResource@Pegas@@U?$less@H@std@@V?$allocator@U?$pair@$$CBHPAVStringResource@Pegas@@@std@@@4@$0A@@std@@@0@@Z 0042b690 f i platform:ogl_graf_manager.obj
 0001:0002a690       ??$_Iter_cat@Vconst_iterator@?$_Tree@V?$_Tset_traits@HU?$less@H@std@@V?$allocator@H@2@$0A@@std@@@std@@@std@@YA?AUbidirectional_iterator_tag@0@ABVconst_iterator@?$_Tree@V?$_Tset_traits@HU?$less@H@std@@V?$allocator@H@2@$0A@@std@@@0@@Z 0042b690 f i platform:platform_resources.obj
 0001:0002a6a0       ?playSound@WinMMSoundManager@Pegas@@UAEXH@Z 0042b6a0 f   platform:winmm_sound_manager.obj
 0001:0002a6f0       ?getCode@SoundResource@Pegas@@QAEAAUIntResourceCode@2@XZ 0042b6f0 f i platform:winmm_sound_manager.obj
 0001:0002a710       ?getInstance@?$Singleton@V?$ResourceManager@VSoundResource@Pegas@@UIntResourceCode@2@@Pegas@@@Pegas@@SAAAV?$ResourceManager@VSoundResource@Pegas@@UIntResourceCode@2@@2@XZ 0042b710 f i platform:winmm_sound_manager.obj
 0001:0002a730       ?getResource@?$ResourceManager@VSoundResource@Pegas@@UIntResourceCode@2@@Pegas@@QAEPAVSoundResource@2@H@Z 0042b730 f i platform:winmm_sound_manager.obj
 0001:0002a7d0       ??A?$map@HPAVSoundResource@Pegas@@U?$less@H@std@@V?$allocator@U?$pair@$$CBHPAVSoundResource@Pegas@@@std@@@4@@std@@QAEAAPAVSoundResource@Pegas@@ABH@Z 0042b7d0 f i platform:winmm_sound_manager.obj
 0001:0002a7d0       ??A?$map@HPAVStringResource@Pegas@@U?$less@H@std@@V?$allocator@U?$pair@$$CBHPAVStringResource@Pegas@@@std@@@4@@std@@QAEAAPAVStringResource@Pegas@@ABH@Z 0042b7d0 f i platform:ogl_graf_manager.obj
 0001:0002a890       ?insert@?$_Tree@V?$_Tmap_traits@HPAVStringResource@Pegas@@U?$less@H@std@@V?$allocator@U?$pair@$$CBHPAVStringResource@Pegas@@@std@@@4@$0A@@std@@@std@@QAE?AViterator@12@Vconst_iterator@12@ABU?$pair@$$CBHPAVStringResource@Pegas@@@2@@Z 0042b890 f i platform:ogl_graf_manager.obj
 0001:0002a890       ?insert@?$_Tree@V?$_Tmap_traits@HPAVSoundResource@Pegas@@U?$less@H@std@@V?$allocator@U?$pair@$$CBHPAVSoundResource@Pegas@@@std@@@4@$0A@@std@@@std@@QAE?AViterator@12@Vconst_iterator@12@ABU?$pair@$$CBHPAVSoundResource@Pegas@@@2@@Z 0042b890 f i platform:winmm_sound_manager.obj
 0001:0002aeb0       ?lower_bound@?$_Tree@V?$_Tmap_traits@HPAVStringResource@Pegas@@U?$less@H@std@@V?$allocator@U?$pair@$$CBHPAVStringResource@Pegas@@@std@@@4@$0A@@std@@@std@@QAE?AViterator@12@ABH@Z 0042beb0 f i platform:ogl_graf_manager.obj
 0001:0002aeb0       ?lower_bound@?$_Tree@V?$_Tmap_traits@HPAVSoundResource@Pegas@@U?$less@H@std@@V?$allocator@U?$pair@$$CBHPAVSoundResource@Pegas@@@std@@@4@$0A@@std@@@std@@QAE?AViterator@12@ABH@Z 0042beb0 f i platform:winmm_sound_manager.obj
 0001:0002aee0       ??0?$pair@$$CBHPAVSoundResource@Pegas@@@std@@QAE@ABHABQAVSoundResource@Pegas@@@Z 0042bee0 f i platform:winmm_sound_manager.obj
 0001:0002aee0       ??0?$pair@$$CBHPAVStringResource@Pegas@@@std@@QAE@ABHABQAVStringResource@Pegas@@@Z 0042bee0 f i platform:ogl_graf_manager.obj
 0001:0002aee0       ??0?$pair@$$CBHPAVFontResource@Pegas@@@std@@QAE@ABHABQAVFontResource@Pegas@@@Z 0042bee0 f i platform:ogl_graf_manager.obj
 0001:0002af10       ?insert@?$_Tree@V?$_Tmap_traits@HPAVSoundResource@Pegas@@U?$less@H@std@@V?$allocator@U?$pair@$$CBHPAVSoundResource@Pegas@@@std@@@4@$0A@@std@@@std@@QAE?AU?$pair@Viterator@?$_Tree@V?$_Tmap_traits@HPAVSoundResource@Pegas@@U?$less@H@std@@V?$allocator@U?$pair@$$CBHPAVSoundResource@Pegas@@@std@@@4@$0A@@std@@@std@@_N@2@ABU?$pair@$$CBHPAVSoundResource@Pegas@@@2@@Z 0042bf10 f i platform:winmm_sound_manager.obj
 0001:0002af10       ?insert@?$_Tree@V?$_Tmap_traits@HPAVStringResource@Pegas@@U?$less@H@std@@V?$allocator@U?$pair@$$CBHPAVStringResource@Pegas@@@std@@@4@$0A@@std@@@std@@QAE?AU?$pair@Viterator@?$_Tree@V?$_Tmap_traits@HPAVStringResource@Pegas@@U?$less@H@std@@V?$allocator@U?$pair@$$CBHPAVStringResource@Pegas@@@std@@@4@$0A@@std@@@std@@_N@2@ABU?$pair@$$CBHPAVStringResource@Pegas@@@2@@Z 0042bf10 f i platform:ogl_graf_manager.obj
 0001:0002b0e0       ?_Insert@?$_Tree@V?$_Tmap_traits@HPAVSoundResource@Pegas@@U?$less@H@std@@V?$allocator@U?$pair@$$CBHPAVSoundResource@Pegas@@@std@@@4@$0A@@std@@@std@@IAE?AViterator@12@_NPAU_Node@?$_Tree_nod@V?$_Tmap_traits@HPAVSoundResource@Pegas@@U?$less@H@std@@V?$allocator@U?$pair@$$CBHPAVSoundResource@Pegas@@@std@@@4@$0A@@std@@@2@ABU?$pair@$$CBHPAVSoundResource@Pegas@@@2@@Z 0042c0e0 f i platform:winmm_sound_manager.obj
 0001:0002b0e0       ?_Insert@?$_Tree@V?$_Tmap_traits@HPAVStringResource@Pegas@@U?$less@H@std@@V?$allocator@U?$pair@$$CBHPAVStringResource@Pegas@@@std@@@4@$0A@@std@@@std@@IAE?AViterator@12@_NPAU_Node@?$_Tree_nod@V?$_Tmap_traits@HPAVStringResource@Pegas@@U?$less@H@std@@V?$allocator@U?$pair@$$CBHPAVStringResource@Pegas@@@std@@@4@$0A@@std@@@2@ABU?$pair@$$CBHPAVStringResource@Pegas@@@2@@Z 0042c0e0 f i platform:ogl_graf_manager.obj
 0001:0002b560       ?_Lbound@?$_Tree@V?$_Tmap_traits@HPAVSoundResource@Pegas@@U?$less@H@std@@V?$allocator@U?$pair@$$CBHPAVSoundResource@Pegas@@@std@@@4@$0A@@std@@@std@@IBEPAU_Node@?$_Tree_nod@V?$_Tmap_traits@HPAVSoundResource@Pegas@@U?$less@H@std@@V?$allocator@U?$pair@$$CBHPAVSoundResource@Pegas@@@std@@@4@$0A@@std@@@2@ABH@Z 0042c560 f i platform:winmm_sound_manager.obj
 0001:0002b560       ?_Lbound@?$_Tree@V?$_Tmap_traits@HPAVStringResource@Pegas@@U?$less@H@std@@V?$allocator@U?$pair@$$CBHPAVStringResource@Pegas@@@std@@@4@$0A@@std@@@std@@IBEPAU_Node@?$_Tree_nod@V?$_Tmap_traits@HPAVStringResource@Pegas@@U?$less@H@std@@V?$allocator@U?$pair@$$CBHPAVStringResource@Pegas@@@std@@@4@$0A@@std@@@2@ABH@Z 0042c560 f i platform:ogl_graf_manager.obj
 0001:0002b5f0       ?_Nextnode@?$list@UFrame@SpriteAnimation@Pegas@@V?$allocator@UFrame@SpriteAnimation@Pegas@@@std@@@std@@KAAAPAU_Node@?$_List_nod@UFrame@SpriteAnimation@Pegas@@V?$allocator@UFrame@SpriteAnimation@Pegas@@@std@@@2@PAU342@@Z 0042c5f0 f i platform:sprite_animation.obj
 0001:0002b5f0       ?_Kfn@?$_Tmap_traits@HPAVStringResource@Pegas@@U?$less@H@std@@V?$allocator@U?$pair@$$CBHPAVStringResource@Pegas@@@std@@@4@$0A@@std@@SAABHABU?$pair@$$CBHPAVStringResource@Pegas@@@2@@Z 0042c5f0 f i platform:ogl_graf_manager.obj
 0001:0002b5f0       ?_Kfn@?$_Tmap_traits@HPAVSoundResource@Pegas@@U?$less@H@std@@V?$allocator@U?$pair@$$CBHPAVSoundResource@Pegas@@@std@@@4@$0A@@std@@SAABHABU?$pair@$$CBHPAVSoundResource@Pegas@@@2@@Z 0042c5f0 f i platform:winmm_sound_manager.obj
 0001:0002b600       ?max_size@?$_Tree@V?$_Tmap_traits@HPAVStringResource@Pegas@@U?$less@H@std@@V?$allocator@U?$pair@$$CBHPAVStringResource@Pegas@@@std@@@4@$0A@@std@@@std@@QBEIXZ 0042c600 f i platform:ogl_graf_manager.obj
 0001:0002b600       ?max_size@?$_Tree@V?$_Tmap_traits@HPAVSoundResource@Pegas@@U?$less@H@std@@V?$allocator@U?$pair@$$CBHPAVSoundResource@Pegas@@@std@@@4@$0A@@std@@@std@@QBEIXZ 0042c600 f i platform:winmm_sound_manager.obj
 0001:0002b620       ??Fiterator@?$_Tree@V?$_Tmap_traits@HPAVStringResource@Pegas@@U?$less@H@std@@V?$allocator@U?$pair@$$CBHPAVStringResource@Pegas@@@std@@@4@$0A@@std@@@std@@QAEAAV012@XZ 0042c620 f i platform:ogl_graf_manager.obj
 0001:0002b620       ??Fiterator@?$_Tree@V?$_Tmap_traits@HPAVSoundResource@Pegas@@U?$less@H@std@@V?$allocator@U?$pair@$$CBHPAVSoundResource@Pegas@@@std@@@4@$0A@@std@@@std@@QAEAAV012@XZ 0042c620 f i platform:winmm_sound_manager.obj
 0001:0002b640       ??$_Distance2@Vconst_iterator@?$_Tree@V?$_Tmap_traits@HPAVStringResource@Pegas@@U?$less@H@std@@V?$allocator@U?$pair@$$CBHPAVStringResource@Pegas@@@std@@@4@$0A@@std@@@std@@I@std@@YAXVconst_iterator@?$_Tree@V?$_Tmap_traits@HPAVStringResource@Pegas@@U?$less@H@std@@V?$allocator@U?$pair@$$CBHPAVStringResource@Pegas@@@std@@@4@$0A@@std@@@0@0AAIUbidirectional_iterator_tag@0@@Z 0042c640 f i platform:ogl_graf_manager.obj
 0001:0002b640       ??$_Distance2@Vconst_iterator@?$_Tree@V?$_Tmap_traits@HPAVSoundResource@Pegas@@U?$less@H@std@@V?$allocator@U?$pair@$$CBHPAVSoundResource@Pegas@@@std@@@4@$0A@@std@@@std@@I@std@@YAXVconst_iterator@?$_Tree@V?$_Tmap_traits@HPAVSoundResource@Pegas@@U?$less@H@std@@V?$allocator@U?$pair@$$CBHPAVSoundResource@Pegas@@@std@@@4@$0A@@std@@@0@0AAIUbidirectional_iterator_tag@0@@Z 0042c640 f i platform:winmm_sound_manager.obj
 0001:0002b680       ?showMessage@WindowsOSUtils@Pegas@@UAEXABV?$basic_string@_WU?$char_traits@_W@std@@V?$allocator@_W@2@@std@@0@Z 0042c680 f   platform:windows_os_utils.obj
 0001:0002b6b0       ?showMessage@WindowsOSUtils@Pegas@@UAEXHH@Z 0042c6b0 f   platform:windows_os_utils.obj
 0001:0002b700       ?confirm@WindowsOSUtils@Pegas@@UAE_NABV?$basic_string@_WU?$char_traits@_W@std@@V?$allocator@_W@2@@std@@0@Z 0042c700 f   platform:windows_os_utils.obj
 0001:0002b740       ?confirm@WindowsOSUtils@Pegas@@UAE_NHH@Z 0042c740 f   platform:windows_os_utils.obj
 0001:0002b790       ?getCurrentTime@WindowsOSUtils@Pegas@@UAEHXZ 0042c790 f   platform:windows_os_utils.obj
 0001:0002b7b0       ?debugOutput@WindowsOSUtils@Pegas@@UAAXPBDZZ 0042c7b0 f   platform:windows_os_utils.obj
 0001:0002b820       ??0SpriteAnimation@Pegas@@QAE@HHHH@Z 0042c820 f   platform:sprite_animation.obj
 0001:0002b940       ??1SpriteAnimation@Pegas@@UAE@XZ 0042c940 f   platform:sprite_animation.obj
 0001:0002b9d0       ?setNumFrames@SpriteAnimation@Pegas@@QAEXHH@Z 0042c9d0 f   platform:sprite_animation.obj
 0001:0002b9f0       ?setFPS@SpriteAnimation@Pegas@@QAEXH@Z 0042c9f0 f   platform:sprite_animation.obj
 0001:0002ba30       ?setFlags@SpriteAnimation@Pegas@@QAEXH@Z 0042ca30 f   platform:sprite_animation.obj
 0001:0002ba50       ?getCurrentFrame@SpriteAnimation@Pegas@@QAEAAUFrame@12@XZ 0042ca50 f   platform:sprite_animation.obj
 0001:0002baa0       ?update@SpriteAnimation@Pegas@@UAEXH@Z 0042caa0 f   platform:sprite_animation.obj
 0001:0002bbe0       ?start@SpriteAnimation@Pegas@@MAEXHPAVProcessManager@2@@Z 0042cbe0 f   platform:sprite_animation.obj
 0001:0002bd60       ??_ESpriteAnimation@Pegas@@UAEPAXI@Z 0042cd60 f i platform:sprite_animation.obj
 0001:0002bd60       ??_GSpriteAnimation@Pegas@@UAEPAXI@Z 0042cd60 f i platform:sprite_animation.obj
 0001:0002bd90       ??0?$list@UFrame@SpriteAnimation@Pegas@@V?$allocator@UFrame@SpriteAnimation@Pegas@@@std@@@std@@QAE@XZ 0042cd90 f i platform:sprite_animation.obj
 0001:0002be10       ??1?$list@UFrame@SpriteAnimation@Pegas@@V?$allocator@UFrame@SpriteAnimation@Pegas@@@std@@@std@@QAE@XZ 0042ce10 f i platform:sprite_animation.obj
 0001:0002be70       ?begin@?$list@UFrame@SpriteAnimation@Pegas@@V?$allocator@UFrame@SpriteAnimation@Pegas@@@std@@@std@@QAE?AV?$_Iterator@$00@12@XZ 0042ce70 f i platform:sprite_animation.obj
 0001:0002bea0       ?back@?$list@UFrame@SpriteAnimation@Pegas@@V?$allocator@UFrame@SpriteAnimation@Pegas@@@std@@@std@@QAEAAUFrame@SpriteAnimation@Pegas@@XZ 0042cea0 f i platform:sprite_animation.obj
 0001:0002bed0       ?push_back@?$list@UFrame@SpriteAnimation@Pegas@@V?$allocator@UFrame@SpriteAnimation@Pegas@@@std@@@std@@QAEXABUFrame@SpriteAnimation@Pegas@@@Z 0042ced0 f i platform:sprite_animation.obj
 0001:0002bf10       ?clear@?$list@UFrame@SpriteAnimation@Pegas@@V?$allocator@UFrame@SpriteAnimation@Pegas@@@std@@@std@@QAEXXZ 0042cf10 f i platform:sprite_animation.obj
 0001:0002bfb0       ??0?$_Iterator@$00@?$list@UFrame@SpriteAnimation@Pegas@@V?$allocator@UFrame@SpriteAnimation@Pegas@@@std@@@std@@QAE@XZ 0042cfb0 f i platform:sprite_animation.obj
 0001:0002bfd0       ??D?$_Iterator@$00@?$list@UFrame@SpriteAnimation@Pegas@@V?$allocator@UFrame@SpriteAnimation@Pegas@@@std@@@std@@QBEAAUFrame@SpriteAnimation@Pegas@@XZ 0042cfd0 f i platform:sprite_animation.obj
 0001:0002bfd0       ??D?$_Iterator@$00@?$list@PAVIDrawable@Pegas@@V?$allocator@PAVIDrawable@Pegas@@@std@@@std@@QBEAAPAVIDrawable@Pegas@@XZ 0042cfd0 f i platform:ogl_graf_manager.obj
 0001:0002bff0       ??E?$_Iterator@$00@?$list@UFrame@SpriteAnimation@Pegas@@V?$allocator@UFrame@SpriteAnimation@Pegas@@@std@@@std@@QAEAAV012@XZ 0042cff0 f i platform:sprite_animation.obj
 0001:0002c010       ??1?$_List_val@UFrame@SpriteAnimation@Pegas@@V?$allocator@UFrame@SpriteAnimation@Pegas@@@std@@@std@@QAE@XZ 0042d010 f i platform:sprite_animation.obj
 0001:0002c030       ??1?$_List_ptr@UFrame@SpriteAnimation@Pegas@@V?$allocator@UFrame@SpriteAnimation@Pegas@@@std@@@std@@QAE@XZ 0042d030 f i platform:sprite_animation.obj
 0001:0002c050       ??1?$_List_nod@UFrame@SpriteAnimation@Pegas@@V?$allocator@UFrame@SpriteAnimation@Pegas@@@std@@@std@@QAE@XZ 0042d050 f i platform:sprite_animation.obj
 0001:0002c070       ?_Prevnode@?$list@UFrame@SpriteAnimation@Pegas@@V?$allocator@UFrame@SpriteAnimation@Pegas@@@std@@@std@@KAAAPAU_Node@?$_List_nod@UFrame@SpriteAnimation@Pegas@@V?$allocator@UFrame@SpriteAnimation@Pegas@@@std@@@2@PAU342@@Z 0042d070 f i platform:sprite_animation.obj
 0001:0002c080       ?_Insert@?$list@UFrame@SpriteAnimation@Pegas@@V?$allocator@UFrame@SpriteAnimation@Pegas@@@std@@@std@@QAEXV?$_Const_iterator@$00@12@ABUFrame@SpriteAnimation@Pegas@@@Z 0042d080 f i platform:sprite_animation.obj
 0001:0002c100       ?_Buynode@?$list@UFrame@SpriteAnimation@Pegas@@V?$allocator@UFrame@SpriteAnimation@Pegas@@@std@@@std@@IAEPAU_Node@?$_List_nod@UFrame@SpriteAnimation@Pegas@@V?$allocator@UFrame@SpriteAnimation@Pegas@@@std@@@2@XZ 0042d100 f i platform:sprite_animation.obj
 0001:0002c200       ?_Tidy@?$list@UFrame@SpriteAnimation@Pegas@@V?$allocator@UFrame@SpriteAnimation@Pegas@@@std@@@std@@IAEXXZ 0042d200 f i platform:sprite_animation.obj
 0001:0002c270       ??0?$_List_val@UFrame@SpriteAnimation@Pegas@@V?$allocator@UFrame@SpriteAnimation@Pegas@@@std@@@std@@QAE@V?$allocator@UFrame@SpriteAnimation@Pegas@@@1@@Z 0042d270 f i platform:sprite_animation.obj
 0001:0002c2b0       ??1?$_Container_base_aux_alloc_real@V?$allocator@UFrame@SpriteAnimation@Pegas@@@std@@@std@@IAE@XZ 0042d2b0 f i platform:sprite_animation.obj
 0001:0002c310       ??0?$allocator@UFrame@SpriteAnimation@Pegas@@@std@@QAE@XZ 0042d310 f i platform:sprite_animation.obj
 0001:0002c320       ?deallocate@?$allocator@U_Node@?$_List_nod@UFrame@SpriteAnimation@Pegas@@V?$allocator@UFrame@SpriteAnimation@Pegas@@@std@@@std@@@std@@QAEXPAU_Node@?$_List_nod@UFrame@SpriteAnimation@Pegas@@V?$allocator@UFrame@SpriteAnimation@Pegas@@@std@@@2@I@Z 0042d320 f i platform:sprite_animation.obj
 0001:0002c340       ?destroy@?$allocator@PAU_Node@?$_List_nod@UFrame@SpriteAnimation@Pegas@@V?$allocator@UFrame@SpriteAnimation@Pegas@@@std@@@std@@@std@@QAEXPAPAU_Node@?$_List_nod@UFrame@SpriteAnimation@Pegas@@V?$allocator@UFrame@SpriteAnimation@Pegas@@@std@@@2@@Z 0042d340 f i platform:sprite_animation.obj
 0001:0002c340       ?destroy@?$allocator@U_Node@?$_List_nod@UFrame@SpriteAnimation@Pegas@@V?$allocator@UFrame@SpriteAnimation@Pegas@@@std@@@std@@@std@@QAEXPAU_Node@?$_List_nod@UFrame@SpriteAnimation@Pegas@@V?$allocator@UFrame@SpriteAnimation@Pegas@@@std@@@2@@Z 0042d340 f i platform:sprite_animation.obj
 0001:0002c360       ??0?$_Iterator@$00@?$list@UFrame@SpriteAnimation@Pegas@@V?$allocator@UFrame@SpriteAnimation@Pegas@@@std@@@std@@QAE@PAU_Node@?$_List_nod@UFrame@SpriteAnimation@Pegas@@V?$allocator@UFrame@SpriteAnimation@Pegas@@@std@@@2@PBV12@@Z 0042d360 f i platform:sprite_animation.obj
 0001:0002c360       ??0?$_Iterator@$00@?$list@PAVIDrawable@Pegas@@V?$allocator@PAVIDrawable@Pegas@@@std@@@std@@QAE@PAU_Node@?$_List_nod@PAVIDrawable@Pegas@@V?$allocator@PAVIDrawable@Pegas@@@std@@@2@PBV12@@Z 0042d360 f i platform:ogl_graf_manager.obj
 0001:0002c380       ??F?$_Iterator@$00@?$list@UFrame@SpriteAnimation@Pegas@@V?$allocator@UFrame@SpriteAnimation@Pegas@@@std@@@std@@QAEAAV012@XZ 0042d380 f i platform:sprite_animation.obj
 0001:0002c3a0       ??0?$_Const_iterator@$00@?$list@UFrame@SpriteAnimation@Pegas@@V?$allocator@UFrame@SpriteAnimation@Pegas@@@std@@@std@@QAE@XZ 0042d3a0 f i platform:sprite_animation.obj
 0001:0002c3c0       ??D?$_Const_iterator@$00@?$list@PAVIDrawable@Pegas@@V?$allocator@PAVIDrawable@Pegas@@@std@@@std@@QBEABQAVIDrawable@Pegas@@XZ 0042d3c0 f i platform:ogl_graf_manager.obj
 0001:0002c3c0       ??D?$_Const_iterator@$00@?$list@UFrame@SpriteAnimation@Pegas@@V?$allocator@UFrame@SpriteAnimation@Pegas@@@std@@@std@@QBEABUFrame@SpriteAnimation@Pegas@@XZ 0042d3c0 f i platform:sprite_animation.obj
 0001:0002c420       ??E?$_Const_iterator@$00@?$list@UFrame@SpriteAnimation@Pegas@@V?$allocator@UFrame@SpriteAnimation@Pegas@@@std@@@std@@QAEAAV012@XZ 0042d420 f i platform:sprite_animation.obj
 0001:0002c490       ?_Myval@?$list@PAVIDrawable@Pegas@@V?$allocator@PAVIDrawable@Pegas@@@std@@@std@@KAAAPAVIDrawable@Pegas@@PAU_Node@?$_List_nod@PAVIDrawable@Pegas@@V?$allocator@PAVIDrawable@Pegas@@@std@@@2@@Z 0042d490 f i platform:ogl_graf_manager.obj
 0001:0002c490       ?_Myval@?$list@UFrame@SpriteAnimation@Pegas@@V?$allocator@UFrame@SpriteAnimation@Pegas@@@std@@@std@@KAAAUFrame@SpriteAnimation@Pegas@@PAU_Node@?$_List_nod@UFrame@SpriteAnimation@Pegas@@V?$allocator@UFrame@SpriteAnimation@Pegas@@@std@@@2@@Z 0042d490 f i platform:sprite_animation.obj
 0001:0002c4a0       ?_Buynode@?$list@UFrame@SpriteAnimation@Pegas@@V?$allocator@UFrame@SpriteAnimation@Pegas@@@std@@@std@@IAEPAU_Node@?$_List_nod@UFrame@SpriteAnimation@Pegas@@V?$allocator@UFrame@SpriteAnimation@Pegas@@@std@@@2@PAU342@0ABUFrame@SpriteAnimation@Pegas@@@Z 0042d4a0 f i platform:sprite_animation.obj
 0001:0002c5f0       ?_Incsize@?$list@UFrame@SpriteAnimation@Pegas@@V?$allocator@UFrame@SpriteAnimation@Pegas@@@std@@@std@@IAEXI@Z 0042d5f0 f i platform:sprite_animation.obj
 0001:0002c690       ??0?$_List_ptr@UFrame@SpriteAnimation@Pegas@@V?$allocator@UFrame@SpriteAnimation@Pegas@@@std@@@std@@IAE@V?$allocator@UFrame@SpriteAnimation@Pegas@@@1@@Z 0042d690 f i platform:sprite_animation.obj
 0001:0002c6d0       ?allocate@?$allocator@U_Node@?$_List_nod@UFrame@SpriteAnimation@Pegas@@V?$allocator@UFrame@SpriteAnimation@Pegas@@@std@@@std@@@std@@QAEPAU_Node@?$_List_nod@UFrame@SpriteAnimation@Pegas@@V?$allocator@UFrame@SpriteAnimation@Pegas@@@std@@@2@I@Z 0042d6d0 f i platform:sprite_animation.obj
 0001:0002c6f0       ?construct@?$allocator@PAU_Node@?$_List_nod@UFrame@SpriteAnimation@Pegas@@V?$allocator@UFrame@SpriteAnimation@Pegas@@@std@@@std@@@std@@QAEXPAPAU_Node@?$_List_nod@UFrame@SpriteAnimation@Pegas@@V?$allocator@UFrame@SpriteAnimation@Pegas@@@std@@@2@ABQAU342@@Z 0042d6f0 f i platform:sprite_animation.obj
 0001:0002c710       ??0?$_Const_iterator@$00@?$list@PAVIDrawable@Pegas@@V?$allocator@PAVIDrawable@Pegas@@@std@@@std@@QAE@PAU_Node@?$_List_nod@PAVIDrawable@Pegas@@V?$allocator@PAVIDrawable@Pegas@@@std@@@2@PBV12@@Z 0042d710 f i platform:ogl_graf_manager.obj
 0001:0002c710       ??0?$_Const_iterator@$00@?$list@UFrame@SpriteAnimation@Pegas@@V?$allocator@UFrame@SpriteAnimation@Pegas@@@std@@@std@@QAE@PAU_Node@?$_List_nod@UFrame@SpriteAnimation@Pegas@@V?$allocator@UFrame@SpriteAnimation@Pegas@@@std@@@2@PBV12@@Z 0042d710 f i platform:sprite_animation.obj
 0001:0002c760       ??F?$_Const_iterator@$00@?$list@UFrame@SpriteAnimation@Pegas@@V?$allocator@UFrame@SpriteAnimation@Pegas@@@std@@@std@@QAEAAV012@XZ 0042d760 f i platform:sprite_animation.obj
 0001:0002c7d0       ?_Mynode@?$_Const_iterator@$00@?$list@UFrame@SpriteAnimation@Pegas@@V?$allocator@UFrame@SpriteAnimation@Pegas@@@std@@@std@@QBEPAU_Node@?$_List_nod@UFrame@SpriteAnimation@Pegas@@V?$allocator@UFrame@SpriteAnimation@Pegas@@@std@@@3@XZ 0042d7d0 f i platform:sprite_animation.obj
 0001:0002c7f0       ?max_size@?$list@UFrame@SpriteAnimation@Pegas@@V?$allocator@UFrame@SpriteAnimation@Pegas@@@std@@@std@@QBEIXZ 0042d7f0 f i platform:sprite_animation.obj
 0001:0002c810       ??0?$_List_nod@UFrame@SpriteAnimation@Pegas@@V?$allocator@UFrame@SpriteAnimation@Pegas@@@std@@@std@@IAE@V?$allocator@UFrame@SpriteAnimation@Pegas@@@1@@Z 0042d810 f i platform:sprite_animation.obj
 0001:0002c850       ?construct@?$allocator@UFrame@SpriteAnimation@Pegas@@@std@@QAEXPAUFrame@SpriteAnimation@Pegas@@ABU345@@Z 0042d850 f i platform:sprite_animation.obj
 0001:0002c870       ??0?$_Container_base_aux_alloc_real@V?$allocator@UFrame@SpriteAnimation@Pegas@@@std@@@std@@IAE@V?$allocator@UFrame@SpriteAnimation@Pegas@@@1@@Z 0042d870 f i platform:sprite_animation.obj
 0001:0002c930       ?max_size@?$allocator@UFrame@SpriteAnimation@Pegas@@@std@@QBEIXZ 0042d930 f i platform:sprite_animation.obj
 0001:0002c960       ??$_Destroy@PAU_Node@?$_List_nod@UFrame@SpriteAnimation@Pegas@@V?$allocator@UFrame@SpriteAnimation@Pegas@@@std@@@std@@@std@@YAXPAPAU_Node@?$_List_nod@UFrame@SpriteAnimation@Pegas@@V?$allocator@UFrame@SpriteAnimation@Pegas@@@std@@@0@@Z 0042d960 f i platform:sprite_animation.obj
 0001:0002c960       ??$_Destroy@U_Node@?$_List_nod@UFrame@SpriteAnimation@Pegas@@V?$allocator@UFrame@SpriteAnimation@Pegas@@@std@@@std@@@std@@YAXPAU_Node@?$_List_nod@UFrame@SpriteAnimation@Pegas@@V?$allocator@UFrame@SpriteAnimation@Pegas@@@std@@@0@@Z 0042d960 f i platform:sprite_animation.obj
 0001:0002c970       ??$?0UFrame@SpriteAnimation@Pegas@@@?$allocator@U_Node@?$_List_nod@UFrame@SpriteAnimation@Pegas@@V?$allocator@UFrame@SpriteAnimation@Pegas@@@std@@@std@@@std@@QAE@ABV?$allocator@UFrame@SpriteAnimation@Pegas@@@1@@Z 0042d970 f i platform:sprite_animation.obj
 0001:0002c970       ??$?0UFrame@SpriteAnimation@Pegas@@@?$allocator@PAU_Node@?$_List_nod@UFrame@SpriteAnimation@Pegas@@V?$allocator@UFrame@SpriteAnimation@Pegas@@@std@@@std@@@std@@QAE@ABV?$allocator@UFrame@SpriteAnimation@Pegas@@@1@@Z 0042d970 f i platform:sprite_animation.obj
 0001:0002c970       ??$?0UFrame@SpriteAnimation@Pegas@@@?$allocator@V_Aux_cont@std@@@std@@QAE@ABV?$allocator@UFrame@SpriteAnimation@Pegas@@@1@@Z 0042d970 f i platform:sprite_animation.obj
 0001:0002c970       ??0?$allocator@UFrame@SpriteAnimation@Pegas@@@std@@QAE@ABV01@@Z 0042d970 f i platform:sprite_animation.obj
 0001:0002c980       ??$_Allocate@U_Node@?$_List_nod@UFrame@SpriteAnimation@Pegas@@V?$allocator@UFrame@SpriteAnimation@Pegas@@@std@@@std@@@std@@YAPAU_Node@?$_List_nod@UFrame@SpriteAnimation@Pegas@@V?$allocator@UFrame@SpriteAnimation@Pegas@@@std@@@0@IPAU120@@Z 0042d980 f i platform:sprite_animation.obj
 0001:0002c9d0       ??$_Construct@PAU_Node@?$_List_nod@UFrame@SpriteAnimation@Pegas@@V?$allocator@UFrame@SpriteAnimation@Pegas@@@std@@@std@@PAU123@@std@@YAXPAPAU_Node@?$_List_nod@UFrame@SpriteAnimation@Pegas@@V?$allocator@UFrame@SpriteAnimation@Pegas@@@std@@@0@ABQAU120@@Z 0042d9d0 f i platform:sprite_animation.obj
 0001:0002ca10       ??$_Construct@UFrame@SpriteAnimation@Pegas@@U123@@std@@YAXPAUFrame@SpriteAnimation@Pegas@@ABU123@@Z 0042da10 f i platform:sprite_animation.obj
 0001:0002ca57       ?_Xlen@_String_base@std@@SAXXZ 0042da57 f   libcpmt:string.obj
 0001:0002ca8f       ?_Xran@_String_base@std@@SAXXZ 0042da8f f   libcpmt:string.obj
 0001:0002cac7       ??_U@YAPAXI@Z              0042dac7 f   libcpmt:newaop.obj
 0001:0002cad2       @__security_check_cookie@4 0042dad2 f   LIBCMT:secchk.obj
 0001:0002cae1       __purecall                 0042dae1 f   LIBCMT:purevirt.obj
 0001:0002cb0b       ??1type_info@@UAE@XZ       0042db0b f   LIBCMT:typinfo.obj
 0001:0002cb1b       ??_Gtype_info@@UAEPAXI@Z   0042db1b f i LIBCMT:typinfo.obj
 0001:0002cb1b       ??_Etype_info@@UAEPAXI@Z   0042db1b f i LIBCMT:typinfo.obj
 0001:0002cb3c       ??8type_info@@QBE_NABV0@@Z 0042db3c f   LIBCMT:typinfo.obj
 0001:0002cb5c       ??3@YAXPAX@Z               0042db5c f   LIBCMT:delete.obj
 0001:0002cb67       __initp_misc_invarg        0042db67 f   LIBCMT:invarg.obj
 0001:0002cb76       __invoke_watson            0042db76 f   LIBCMT:invarg.obj
 0001:0002cc9e       __invalid_parameter        0042dc9e f   LIBCMT:invarg.obj
 0001:0002ccc4       __invalid_parameter_noinfo 0042dcc4 f   LIBCMT:invarg.obj
 0001:0002ccd4       ??0exception@std@@QAE@XZ   0042dcd4 f   LIBCMT:stdexcpt.obj
 0001:0002cce5       ??0exception@std@@QAE@ABQBD@Z 0042dce5 f   LIBCMT:stdexcpt.obj
 0001:0002cd38       ??0exception@std@@QAE@ABQBDH@Z 0042dd38 f   LIBCMT:stdexcpt.obj
 0001:0002cd55       ??0exception@std@@QAE@ABV01@@Z 0042dd55 f   LIBCMT:stdexcpt.obj
 0001:0002cdb2       ??1exception@std@@UAE@XZ   0042ddb2 f   LIBCMT:stdexcpt.obj
 0001:0002cdc8       ?what@exception@std@@UBEPBDXZ 0042ddc8 f   LIBCMT:stdexcpt.obj
 0001:0002cdd5       ??_Gexception@std@@UAEPAXI@Z 0042ddd5 f i LIBCMT:stdexcpt.obj
 0001:0002cdd5       ??_Eexception@std@@UAEPAXI@Z 0042ddd5 f i LIBCMT:stdexcpt.obj
 0001:0002cdf6       _memcpy_s                  0042ddf6 f   LIBCMT:memcpy_s.obj
 0001:0002ce73       ??0bad_alloc@std@@QAE@XZ   0042de73 f i LIBCMT:new.obj
 0001:0002ce8e       ??2@YAPAXI@Z               0042de8e f   LIBCMT:new.obj
 0001:0002cef3       _memmove_s                 0042def3 f   LIBCMT:memmove_s.obj
 0001:0002cf50       ?__ArrayUnwind@@YGXPAXIHP6EX0@Z@Z 0042df50 f   LIBCMT:ehvecdtr.obj
 0001:0002cfae       ??_M@YGXPAXIHP6EX0@Z@Z     0042dfae f   LIBCMT:ehvecdtr.obj
 0001:0002d011       ??_L@YGXPAXIHP6EX0@Z1@Z    0042e011 f   LIBCMT:ehvecctr.obj
 0001:0002d076       _rand                      0042e076 f   LIBCMT:rand.obj
 0001:0002d152       ___onexitinit              0042e152 f   LIBCMT:onexit.obj
 0001:0002d183       __onexit                   0042e183 f   LIBCMT:onexit.obj
 0001:0002d1bf       _atexit                    0042e1bf f   LIBCMT:onexit.obj
 0001:0002d1d6       ??_V@YAXPAX@Z              0042e1d6 f   LIBCMT:delete2.obj
 0001:0002d235       __itow                     0042e235 f   LIBCMT:xtow.obj
 0001:0002d405       _wWinMainCRTStartup        0042e405 f   LIBCMT:wwincrt0.obj
 0001:0002d40f       _memcmp                    0042e40f f   LIBCMT:memcmp.obj
 0001:0002ea90       _strlen                    0042fa90 f   LIBCMT:strlen.obj
 0001:0002eb39       __wassert                  0042fb39 f   LIBCMT:wassert.obj
 0001:0002f28b       _wcslen                    0043028b f   LIBCMT:wcslen.obj
 0001:0002f2a5       __fsopen                   004302a5 f   LIBCMT:fopen.obj
 0001:0002f369       _fopen                     00430369 f   LIBCMT:fopen.obj
 0001:0002f380       ??0_LocaleUpdate@@QAE@PAUlocaleinfo_struct@@@Z 00430380 f i LIBCMT:wcstombs.obj
 0001:0002f407       __wcstombs_l_helper        00430407 f   LIBCMT:wcstombs.obj
 0001:0002f649       _wcstombs                  00430649 f   LIBCMT:wcstombs.obj
 0001:0002f663       __wcstombs_s_l             00430663 f   LIBCMT:wcstombs.obj
 0001:0002f71d       _wcstombs_s                0043071d f   LIBCMT:wcstombs.obj
 0001:0002f740       _strcpy                    00430740 f   LIBCMT:strcat.obj
 0001:0002f750       _strcat                    00430750 f   LIBCMT:strcat.obj
 0001:0002f838       __fclose_nolock            00430838 f   LIBCMT:fclose.obj
 0001:0002f8af       _fclose                    004308af f   LIBCMT:fclose.obj
 0001:0002f92b       __flush                    0043092b f   LIBCMT:fflush.obj
 0001:0002f993       __fflush_nolock            00430993 f   LIBCMT:fflush.obj
 0001:0002fab5       _fflush                    00430ab5 f   LIBCMT:fflush.obj
 0001:0002fb08       __flushall                 00430b08 f   LIBCMT:fflush.obj
 0001:0002fb11       __fread_nolock_s           00430b11 f   LIBCMT:fread.obj
 0001:0002fd1b       _fread_s                   00430d1b f   LIBCMT:fread.obj
 0001:0002fdb1       _fread                     00430db1 f   LIBCMT:fread.obj
 0001:0002fdce       __fwrite_nolock            00430dce f   LIBCMT:fwrite.obj
 0001:0002ff30       _fwrite                    00430f30 f   LIBCMT:fwrite.obj
 0001:0002ffb2       __ftell_nolock             00430fb2 f   LIBCMT:ftell.obj
 0001:0003014f       _ftell                     0043114f f   LIBCMT:ftell.obj
 0001:000301bd       __fseek_nolock             004311bd f   LIBCMT:fseek.obj
 0001:00030247       _fseek                     00431247 f   LIBCMT:fseek.obj
 0001:000302cc       ?_JumpToContinuation@@YGXPAXPAUEHRegistrationNode@@@Z 004312cc f   LIBCMT:_trnsctrl_.obj
 0001:000302fe       ?_CallMemberFunction0@@YGXPAX0@Z 004312fe f   LIBCMT:_trnsctrl_.obj
 0001:000302fe       ?_CallMemberFunction2@@YGXPAX00H@Z 004312fe f   LIBCMT:_trnsctrl_.obj
 0001:000302fe       ?_CallMemberFunction1@@YGXPAX00@Z 004312fe f   LIBCMT:_trnsctrl_.obj
 0001:00030305       ?_UnwindNestedFrames@@YGXPAUEHRegistrationNode@@PAUEHExceptionRecord@@@Z 00431305 f   LIBCMT:_trnsctrl_.obj
 0001:00030359       ___CxxFrameHandler3        00431359 f   LIBCMT:_trnsctrl_.obj
 0001:000303c2       ?_CallSETranslator@@YAHPAUEHExceptionRecord@@PAUEHRegistrationNode@@PAX2PBU_s_FuncInfo@@H1@Z 004313c2 f   LIBCMT:_trnsctrl_.obj
 0001:00030538       ?_GetRangeOfTrysToCheck@@YAPBU_s_TryBlockMapEntry@@PBU_s_FuncInfo@@HHPAI1@Z 00431538 f   LIBCMT:_trnsctrl_.obj
 0001:000305ad       __CreateFrameInfo          004315ad f   LIBCMT:_trnsctrl_.obj
 0001:000305d9       __IsExceptionObjectToBeDestroyed 004315d9 f   LIBCMT:_trnsctrl_.obj
 0001:00030600       __FindAndUnlinkFrame       00431600 f   LIBCMT:_trnsctrl_.obj
 0001:00030652       ?_CallCatchBlock2@@YAPAXPAUEHRegistrationNode@@PBU_s_FuncInfo@@PAXHK@Z 00431652 f   LIBCMT:_trnsctrl_.obj
 0001:000306b2       __CxxThrowException@8      004316b2 f   LIBCMT:throw.obj
 0001:00030700       _memset                    00431700 f   LIBCMT:memset.obj
 0001:0003077a       __initp_misc_winxfltr      0043177a f   LIBCMT:winxfltr.obj
 0001:0003077a       __fpclear                  0043177a f   LIBCMT:_fpinit_.obj
 0001:0003077b       __cfltcvt_init             0043177b f   LIBCMT:_fpinit_.obj
 0001:000307db       __fpmath                   004317db f   LIBCMT:_fpinit_.obj
 0001:000307fe       __wsetlocale               004317fe f   LIBCMT:wsetloca.obj
 0001:00030a00       __ftol2_sse                00431a00 f   LIBCMT:ftol2.obj
 0001:00030a09       __ftol2_pentium4           00431a09 f   LIBCMT:ftol2.obj
 0001:00030a1c       __ftol2_sse_excpt          00431a1c f   LIBCMT:ftol2.obj
 0001:00030a36       __ftol2                    00431a36 f   LIBCMT:ftol2.obj
 0001:00030aab       __vsnprintf_l              00431aab f   LIBCMT:vsnprint.obj
 0001:00030b5e       __vsnprintf                00431b5e f   LIBCMT:vsnprint.obj
 0001:00030b7b       __EH_prolog3               00431b7b f   LIBCMT:ehprolg3.obj
 0001:00030bae       __EH_prolog3_catch         00431bae f   LIBCMT:ehprolg3.obj
 0001:00030be4       ___report_gsfailure        00431be4 f   LIBCMT:gs_report.obj
 0001:00030cea       _abort                     00431cea f   LIBCMT:abort.obj
 0001:00030e01       __set_abort_behavior       00431e01 f   LIBCMT:abort.obj
 0001:00030e22       __NMSG_WRITE               00431e22 f   LIBCMT:crt0msg.obj
 0001:00030fcd       __FF_MSGBANNER             00431fcd f   LIBCMT:crt0msg.obj
 0001:00031006       __encode_pointer           00432006 f   LIBCMT:tidtable.obj
 0001:00031078       __encoded_null             00432078 f   LIBCMT:tidtable.obj
 0001:00031081       __decode_pointer           00432081 f   LIBCMT:tidtable.obj
 0001:000310f3       ___crtTlsAlloc@4           004320f3 f   LIBCMT:tidtable.obj
 0001:000310fc       ___set_flsgetvalue         004320fc f   LIBCMT:tidtable.obj
 0001:00031130       __mtterm                   00432130 f   LIBCMT:tidtable.obj
 0001:0003116d       __initptd                  0043216d f   LIBCMT:tidtable.obj
 0001:00031254       __getptd_noexit            00432254 f   LIBCMT:tidtable.obj
 0001:000312cd       __getptd                   004322cd f   LIBCMT:tidtable.obj
 0001:000312e7       __freefls@4                004322e7 f   LIBCMT:tidtable.obj
 0001:00031416       __mtinit                   00432416 f   LIBCMT:tidtable.obj
 0001:000315a3       ___getlocaleinfo           004325a3 f   LIBCMT:inithelp.obj
 0001:00031722       __initp_misc_purevirt      00432722 f   LIBCMT:inithelp.obj
 0001:00031731       ?_Type_info_dtor@type_info@@CAXPAV1@@Z 00432731 f   LIBCMT:typname.obj
 0001:000317b0       _strcmp                    004327b0 f   LIBCMT:strcmp.obj
 0001:00031838       _free                      00432838 f   LIBCMT:free.obj
 0001:000318c6       __crt_debugger_hook        004328c6 f   LIBCMT:dbghook.obj
 0001:000318ce       _strcpy_s                  004328ce f   LIBCMT:strcpy_s.obj
 0001:00031936       _V6_HeapAlloc              00432936 f   LIBCMT:malloc.obj
 0001:00031985       _malloc                    00432985 f   LIBCMT:malloc.obj
 0001:00031a50       _memcpy                    00432a50 f   LIBCMT:memcpy.obj
 0001:00031db5       __get_errno_from_oserr     00432db5 f   LIBCMT:dosmap.obj
 0001:00031df7       __errno                    00432df7 f   LIBCMT:dosmap.obj
 0001:00031e0a       ___doserrno                00432e0a f   LIBCMT:dosmap.obj
 0001:00031e1d       __dosmaperr                00432e1d f   LIBCMT:dosmap.obj
 0001:00031e40       __initp_heap_handler       00432e40 f   LIBCMT:handler.obj
 0001:00031e4f       __callnewh                 00432e4f f   LIBCMT:handler.obj
 0001:00031e80       _memmove                   00432e80 f   LIBCMT:memmove.obj
 0001:000321e5       ?terminate@@YAXXZ          004331e5 f   LIBCMT:hooks.obj
 0001:0003221e       ?unexpected@@YAXXZ         0043321e f   LIBCMT:hooks.obj
 0001:00032231       ?_inconsistency@@YAXXZ     00433231 f   LIBCMT:hooks.obj
 0001:00032269       __initp_eh_hooks           00433269 f   LIBCMT:hooks.obj
 0001:0003227c       __SEH_prolog4              0043327c f   LIBCMT:sehprolg4.obj
 0001:000322c1       __SEH_epilog4              004332c1 f   LIBCMT:sehprolg4.obj
 0001:000322e0       __except_handler4          004332e0 f   LIBCMT:chandler4.obj
 0001:0003246c       __malloc_crt               0043346c f   LIBCMT:crtheap.obj
 0001:000324b1       __calloc_crt               004334b1 f   LIBCMT:crtheap.obj
 0001:000324fd       __realloc_crt              004334fd f   LIBCMT:crtheap.obj
 0001:0003254b       __msize                    0043354b f   LIBCMT:msize.obj
 0001:000325ee       __crt_waiting_on_module_handle 004335ee f   LIBCMT:crt0dat.obj
 0001:0003261e       __amsg_exit                0043361e f   LIBCMT:crt0dat.obj
 0001:00032647       ___crtCorExitProcess       00433647 f   LIBCMT:crt0dat.obj
 0001:00032672       ___crtExitProcess          00433672 f   LIBCMT:crt0dat.obj
 0001:0003268a       __lockexit                 0043368a f   LIBCMT:crt0dat.obj
 0001:00032693       __unlockexit               00433693 f   LIBCMT:crt0dat.obj
 0001:000326b9       __initterm_e               004336b9 f   LIBCMT:crt0dat.obj
 0001:000326dd       __cinit                    004336dd f   LIBCMT:crt0dat.obj
 0001:0003288e       _exit                      0043388e f   LIBCMT:crt0dat.obj
 0001:000328a4       __exit                     004338a4 f   LIBCMT:crt0dat.obj
 0001:000328ba       __cexit                    004338ba f   LIBCMT:crt0dat.obj
 0001:000328c9       __c_exit                   004338c9 f   LIBCMT:crt0dat.obj
 0001:000328d8       __init_pointers            004338d8 f   LIBCMT:crt0dat.obj
 0001:00032930       __aulldvrm                 00433930 f   LIBCMT:ulldvrm.obj
 0001:000329c5       ?__CxxUnhandledExceptionFilter@@YGJPAU_EXCEPTION_POINTERS@@@Z 004339c5 f   LIBCMT:unhandld.obj
 0001:00032a07       ___CxxSetUnhandledExceptionFilter 00433a07 f   LIBCMT:unhandld.obj
 0001:00032a15       __XcptFilter               00433a15 f   LIBCMT:winxfltr.obj
 0001:00032b75       __wwincmdln                00433b75 f   LIBCMT:wwncmdln.obj
 0001:00032bbb       __wsetenvp                 00433bbb f   LIBCMT:wstdenvp.obj
 0001:00032dea       __wsetargv                 00433dea f   LIBCMT:wstdargv.obj
 0001:00032e98       ___crtGetEnvironmentStringsW 00433e98 f   LIBCMT:w_env.obj
 0001:00032eef       ___crtGetCommandLineW      00433eef f   LIBCMT:aw_com.obj
 0001:00032ef5       __ioinit                   00433ef5 f   LIBCMT:ioinit.obj
 0001:00033149       __RTC_Initialize           00434149 f   LIBCMT:_initsect_.obj
 0001:0003316f       __RTC_Terminate            0043416f f   LIBCMT:_initsect_.obj
 0001:00033195       __heap_init                00434195 f   LIBCMT:heapinit.obj
 0001:000331c5       ___security_init_cookie    004341c5 f   LIBCMT:gs_support.obj
 0001:0003325b       __vswprintf_helper         0043425b f   LIBCMT:vswprnc.obj
 0001:00033353       __vswprintf_c_l            00434353 f   LIBCMT:vswprnc.obj
 0001:0003337d       _fwprintf                  0043437d f   LIBCMT:fwprintf.obj
 0001:00033411       _setvbuf                   00434411 f   LIBCMT:setvbuf.obj
 0001:0003350f       ___iob_func                0043450f f   LIBCMT:_file.obj
 0001:00033515       ___initstdio               00434515 f   LIBCMT:_file.obj
 0001:000335c6       ___endstdio                004345c6 f   LIBCMT:_file.obj
 0001:000335e6       __lock_file                004345e6 f   LIBCMT:_file.obj
 0001:00033627       __lock_file2               00434627 f   LIBCMT:_file.obj
 0001:00033659       __unlock_file              00434659 f   LIBCMT:_file.obj
 0001:00033695       __unlock_file2             00434695 f   LIBCMT:_file.obj
 0001:000336c4       __initp_misc_winsig        004346c4 f   LIBCMT:winsig.obj
 0001:00033719       ___get_sigabrt             00434719 f   LIBCMT:winsig.obj
 0001:00033726       _raise                     00434726 f   LIBCMT:winsig.obj
 0001:000338d6       ___crtMessageBoxW          004348d6 f   LIBCMT:crtmboxw.obj
 0001:00033b35       __itow_s                   00434b35 f   LIBCMT:xtows.obj
 0001:00033b61       _wcsncat_s                 00434b61 f   LIBCMT:wcsncat_s.obj
 0001:00033c4f       _wcsncpy_s                 00434c4f f   LIBCMT:wcsncpy_s.obj
 0001:00033d22       _wcscat_s                  00434d22 f   LIBCMT:wcscat_s.obj
 0001:00033d9f       _wcscpy_s                  00434d9f f   LIBCMT:wcscpy_s.obj
 0001:00033e0e       __set_error_mode           00434e0e f   LIBCMT:errmode.obj
 0001:00033e59       __openfile                 00434e59 f   LIBCMT:_open.obj
 0001:00034122       __getstream                00435122 f   LIBCMT:stream.obj
 0001:0003425c       __local_unwind4            0043525c f   LIBCMT:exsup4.obj
 0001:00034332       __seh_longjmp_unwind4@4    00435332 f   LIBCMT:exsup4.obj
 0001:0003434e       @_EH4_CallFilterFunc@8     0043534e f   LIBCMT:exsup4.obj
 0001:00034365       @_EH4_TransferToHandler@8  00435365 f   LIBCMT:exsup4.obj
 0001:0003437e       @_EH4_GlobalUnwind@4       0043537e f   LIBCMT:exsup4.obj
 0001:00034398       @_EH4_LocalUnwind@16       00435398 f   LIBCMT:exsup4.obj
 0001:000345d5       ___updatetmbcinfo          004355d5 f   LIBCMT:mbctype.obj
 0001:000346f5       __setmbcp_nolock           004356f5 f   LIBCMT:mbctype.obj
 0001:000348da       __setmbcp                  004358da f   LIBCMT:mbctype.obj
 0001:00034a74       ___initmbctable            00435a74 f   LIBCMT:mbctype.obj
 0001:00034a92       ___freetlocinfo            00435a92 f   LIBCMT:setlocal.obj
 0001:00034bdb       ___addlocaleref            00435bdb f   LIBCMT:setlocal.obj
 0001:00034c6a       ___removelocaleref         00435c6a f   LIBCMT:setlocal.obj
 0001:00034d67       ___updatetlocinfo          00435d67 f   LIBCMT:setlocal.obj
 0001:00034e30       __matherr                  00435e30 f   LIBCMT:_matherr_.obj
 0001:00034e30       ___init_dummy              00435e30 f   LIBCMT:setlocal.obj
 0001:00034e30       ___init_collate            00435e30 f   LIBCMT:initcoll.obj
 0001:00034e33       __strcats                  00435e33 f   LIBCMT:setlocal.obj
 0001:00034e73       ___lc_strtolc              00435e73 f   LIBCMT:setlocal.obj
 0001:00034f9c       ___lc_lctostr              00435f9c f   LIBCMT:setlocal.obj
 0001:00035186       __expandlocale             00436186 f   LIBCMT:setlocal.obj
 0001:000358d4       _setlocale                 004368d4 f   LIBCMT:setlocal.obj
 0001:00035a44       __close_nolock             00436a44 f   LIBCMT:close.obj
 0001:00035ae0       __close                    00436ae0 f   LIBCMT:close.obj
 0001:00035bad       __fileno                   00436bad f   LIBCMT:fileno.obj
 0001:00035bdf       __freebuf                  00436bdf f   LIBCMT:_freebuf.obj
 0001:00035c10       __write_nolock             00436c10 f   LIBCMT:write.obj
 0001:00036343       __write                    00437343 f   LIBCMT:write.obj
 0001:0003641f       __commit                   0043741f f   LIBCMT:commit.obj
 0001:00036500       __mtinitlocks              00437500 f   LIBCMT:mlock.obj
 0001:0003654b       __mtdeletelocks            0043754b f   LIBCMT:mlock.obj
 0001:000365a2       __unlock                   004375a2 f   LIBCMT:mlock.obj
 0001:000365b9       __mtinitlocknum            004375b9 f   LIBCMT:mlock.obj
 0001:0003667c       __lock                     0043767c f   LIBCMT:mlock.obj
 0001:000366af       __filbuf                   004376af f   LIBCMT:_filbuf.obj
 0001:000367da       __read_nolock              004377da f   LIBCMT:read.obj
 0001:00036d9c       __read                     00437d9c f   LIBCMT:read.obj
 0001:00036e99       __flsbuf                   00437e99 f   LIBCMT:_flsbuf.obj
 0001:00036ffd       __lseek_nolock             00437ffd f   LIBCMT:lseek.obj
 0001:00037072       __lseek                    00438072 f   LIBCMT:lseek.obj
 0001:0003714e       ??0bad_exception@std@@QAE@PBD@Z 0043814e f i LIBCMT:frame.obj
 0001:0003716c       ??1bad_exception@std@@UAE@XZ 0043816c f i LIBCMT:frame.obj
 0001:00037177       ??_Ebad_exception@std@@UAEPAXI@Z 00438177 f i LIBCMT:frame.obj
 0001:00037177       ??_Gbad_exception@std@@UAEPAXI@Z 00438177 f i LIBCMT:frame.obj
 0001:0003719e       ___TypeMatch               0043819e f   LIBCMT:frame.obj
 0001:000371fd       ___FrameUnwindFilter       004381fd f   LIBCMT:frame.obj
 0001:00037246       ___FrameUnwindToState      00438246 f   LIBCMT:frame.obj
 0001:0003736c       ___DestructExceptionObject 0043836c f   LIBCMT:frame.obj
 0001:000373c1       ___AdjustPointer           004383c1 f   LIBCMT:frame.obj
 0001:0003764a       ___BuildCatchObjectHelper  0043864a f   LIBCMT:frame.obj
 0001:000377c9       ___BuildCatchObject        004387c9 f   LIBCMT:frame.obj
 0001:00037d04       ??0bad_exception@std@@QAE@ABV01@@Z 00438d04 f i LIBCMT:frame.obj
 0001:00037d21       ___InternalCxxFrameHandler 00438d21 f   LIBCMT:frame.obj
 0001:00037e10       __CallSettingFrame@12      00438e10 f   LIBCMT:lowhelpr.obj
 0001:00037e37       __NLG_Return               00438e37     LIBCMT:lowhelpr.obj
 0001:00037eb3       __VEC_memzero              00438eb3 f   LIBCMT:p4_memset.obj
 0001:00037f92       __get_sse2_info            00438f92 f   LIBCMT:cpu_disp.obj
 0001:00037ff4       ___sse2_available_init     00438ff4 f   LIBCMT:cpu_disp.obj
 0001:00038001       __forcdecpt_l              00439001 f   LIBCMT:cvt.obj
 0001:00038074       __cropzeros_l              00439074 f   LIBCMT:cvt.obj
 0001:000380f6       __positive                 004390f6 f   LIBCMT:cvt.obj
 0001:00038112       __fassign_l                00439112 f   LIBCMT:cvt.obj
 0001:00038154       __fassign                  00439154 f   LIBCMT:cvt.obj
 0001:0003818d       __forcdecpt                0043918d f   LIBCMT:cvt.obj
 0001:000381a0       __cropzeros                004391a0 f   LIBCMT:cvt.obj
 0001:00038322       __cftoe_l                  00439322 f   LIBCMT:cvt.obj
 0001:000383f2       __cftoe                    004393f2 f   LIBCMT:cvt.obj
 0001:00038412       __cftoa_l                  00439412 f   LIBCMT:cvt.obj
 0001:0003887c       __cftof_l                  0043987c f   LIBCMT:cvt.obj
 0001:00038937       __cftog_l                  00439937 f   LIBCMT:cvt.obj
 0001:00038a31       __cfltcvt_l                00439a31 f   LIBCMT:cvt.obj
 0001:00038ab9       __cfltcvt                  00439ab9 f   LIBCMT:cvt.obj
 0001:00038adc       __initp_misc_cfltcvt_tab   00439adc f   LIBCMT:cmiscdat.obj
 0001:00038afd       __setdefaultprecision      00439afd f   LIBCMT:fp8.obj
 0001:00038b28       __ms_p5_test_fdiv          00439b28 f   LIBCMT:_testfdiv_.obj
 0001:00038b66       __ms_p5_mp_test_fdiv       00439b66 f   LIBCMT:_testfdiv_.obj
 0001:00038b8f       __mbstowcs_l_helper        00439b8f f   LIBCMT:mbstowcs.obj
 0001:00038d30       __mbstowcs_s_l             00439d30 f   LIBCMT:mbstowcs.obj
 0001:00038ee6       __output_l                 00439ee6 f   LIBCMT:output.obj
 0001:00039a7e       ___crtMessageBoxA          0043aa7e f   LIBCMT:crtmbox.obj
 0001:00039be7       _strcat_s                  0043abe7 f   LIBCMT:strcat_s.obj
 0001:00039c5b       _strncpy_s                 0043ac5b f   LIBCMT:strncpy_s.obj
 0001:00039d10       __isdigit_l                0043ad10 f i LIBCMT:_ctype.obj
 0001:00039d61       _isdigit                   0043ad61 f i LIBCMT:_ctype.obj
 0001:00039d8f       ___crtGetLocaleInfoW       0043ad8f f   LIBCMT:w_loc.obj
 0001:00039dc3       __freea                    0043adc3 f i LIBCMT:a_loc.obj
 0001:00039f22       ___crtGetLocaleInfoA       0043af22 f   LIBCMT:a_loc.obj
 0001:00039f5f       ___sbh_find_block          0043af5f f   LIBCMT:sbheap.obj
 0001:00039f8f       ___sbh_free_block          0043af8f f   LIBCMT:sbheap.obj
 0001:0003a2a5       ___sbh_alloc_new_region    0043b2a5 f   LIBCMT:sbheap.obj
 0001:0003a355       ___sbh_alloc_new_group     0043b355 f   LIBCMT:sbheap.obj
 0001:0003a45d       ___sbh_resize_block        0043b45d f   LIBCMT:sbheap.obj
 0001:0003a73e       ___sbh_alloc_block         0043b73e f   LIBCMT:sbheap.obj
 0001:0003aaaa       __VEC_memcpy               0043baaa f   LIBCMT:p4_memcpy.obj
 0001:0003ab90       __ValidateImageBase        0043bb90 f   LIBCMT:pesect.obj
 0001:0003abd0       __FindPESection            0043bbd0 f   LIBCMT:pesect.obj
 0001:0003ac20       __IsNonwritableInCurrentImage 0043bc20 f   LIBCMT:pesect.obj
 0001:0003acdd       __calloc_impl              0043bcdd f   LIBCMT:calloc_impl.obj
 0001:0003adfb       _realloc                   0043bdfb f   LIBCMT:realloc.obj
 0001:0003b016       __initp_misc_rand_s        0043c016 f   LIBCMT:rand_s.obj
 0001:0003b025       __initp_misc_initcrit      0043c025 f   LIBCMT:initcrit.obj
 0001:0003b034       ___crtInitCritSecAndSpinCount 0043c034 f   LIBCMT:initcrit.obj
 0001:0003b13c       __woutput_l                0043c13c f   LIBCMT:woutput.obj
 0001:0003bcd4       __stbuf                    0043ccd4 f   LIBCMT:_sftbuf.obj
 0001:0003bd70       __ftbuf                    0043cd70 f   LIBCMT:_sftbuf.obj
 0001:0003bda4       __fcloseall                0043cda4 f   LIBCMT:closeall.obj
 0001:0003c562       __sopen_helper             0043d562 f   LIBCMT:open.obj
 0001:0003c62e       __sopen_s                  0043d62e f   LIBCMT:open.obj
 0001:0003c64e       __mbsnbicmp_l              0043d64e f   LIBCMT:mbsnbicm.obj
 0001:0003c879       __mbsnbicmp                0043d879 f   LIBCMT:mbsnbicm.obj
 0001:0003c893       __mbsnbcmp_l               0043d893 f   LIBCMT:mbsnbcmp.obj
 0001:0003c9fd       __mbsnbcmp                 0043d9fd f   LIBCMT:mbsnbcmp.obj
 0001:0003ca18       __global_unwind2           0043da18 f   LIBCMT:exsup.obj
 0001:0003ca7d       __local_unwind2            0043da7d f   LIBCMT:exsup.obj
 0001:0003cb01       __abnormal_termination     0043db01 f   LIBCMT:exsup.obj
 0001:0003cb24       __NLG_Notify1              0043db24 f   LIBCMT:exsup.obj
 0001:0003cb2d       __NLG_Notify               0043db2d f   LIBCMT:exsup.obj
 0001:0003cb44       __NLG_Dispatch2            0043db44     LIBCMT:exsup.obj
 0001:0003cb44       __NLG_Dispatch             0043db44     LIBCMT:exsup.obj
 0001:0003cb4c       __NLG_Call                 0043db4c f   LIBCMT:exsup.obj
 0001:0003cb4e       __NLG_Return2              0043db4e     LIBCMT:exsup.obj
 0001:0003cef4       ___crtLCMapStringA         0043def4 f   LIBCMT:a_map.obj
 0001:0003d0f3       ___crtGetStringTypeA       0043e0f3 f   LIBCMT:a_str.obj
 0001:0003d550       ___free_lc_time            0043e550 f   LIBCMT:inittime.obj
 0001:0003d6e5       ___init_time               0043e6e5 f   LIBCMT:inittime.obj
 0001:0003d75e       ___free_lconv_num          0043e75e f   LIBCMT:initnum.obj
 0001:0003d7a3       ___init_numeric            0043e7a3 f   LIBCMT:initnum.obj
 0001:0003d96d       ___free_lconv_mon          0043e96d f   LIBCMT:initmon.obj
 0001:0003d9fb       ___init_monetary           0043e9fb f   LIBCMT:initmon.obj
 0001:0003dcc1       ___init_ctype              0043ecc1 f   LIBCMT:initctyp.obj
 0001:0003e070       _strcspn                   0043f070 f   LIBCMT:strcspn.obj
 0001:0003e671       ___get_qualified_locale    0043f671 f   LIBCMT:getqloc.obj
 0001:0003e862       _strncmp                   0043f862 f   LIBCMT:strncmp.obj
 0001:0003e930       _strpbrk                   0043f930 f   LIBCMT:strpbrk.obj
 0001:0003e970       __set_osfhnd               0043f970 f   LIBCMT:osfinfo.obj
 0001:0003e9f1       __free_osfhnd              0043f9f1 f   LIBCMT:osfinfo.obj
 0001:0003ea77       __get_osfhandle            0043fa77 f   LIBCMT:osfinfo.obj
 0001:0003eaee       ___lock_fhandle            0043faee f   LIBCMT:osfinfo.obj
 0001:0003eb8e       __unlock_fhandle           0043fb8e f   LIBCMT:osfinfo.obj
 0001:0003ebb5       __alloc_osfhnd             0043fbb5 f   LIBCMT:osfinfo.obj
 0001:0003ed4f       __putwch_nolock            0043fd4f f   LIBCMT:putwch.obj
 0001:0003ee14       __mbtowc_l                 0043fe14 f   LIBCMT:mbtowc.obj
 0001:0003ef2b       _mbtowc                    0043ff2b f   LIBCMT:mbtowc.obj
 0001:0003ef45       __isleadbyte_l             0043ff45 f i LIBCMT:_wctype.obj
 0001:0003ef7d       _isleadbyte                0043ff7d f i LIBCMT:_wctype.obj
 0001:0003ef90       __isatty                   0043ff90 f   LIBCMT:isatty.obj
 0001:0003eff4       __lseeki64_nolock          0043fff4 f   LIBCMT:lseeki64.obj
 0001:0003f079       __lseeki64                 00440079 f   LIBCMT:lseeki64.obj
 0001:0003f1a0       __alloca_probe             004401a0     LIBCMT:chkstk.obj
 0001:0003f1a0       __chkstk                   004401a0 f   LIBCMT:chkstk.obj
 0001:0003f1cb       __getbuf                   004401cb f   LIBCMT:_getbuf.obj
 0001:0003f214       ?_ValidateRead@@YAHPBXI@Z  00440214 f   LIBCMT:validate.obj
 0001:0003f214       ?_ValidateExecute@@YAHP6GHXZ@Z 00440214 f   LIBCMT:validate.obj
 0001:0003f214       ?_ValidateWrite@@YAHPAXI@Z 00440214 f   LIBCMT:validate.obj
 0001:0003f230       _strrchr                   00440230 f   LIBCMT:strrchr.obj
 0001:0003f25d       __tolower_l                0044025d f   LIBCMT:tolower.obj
 0001:0003f372       _tolower                   00440372 f   LIBCMT:tolower.obj
 0001:0003f39e       __atodbl_l                 0044039e f   LIBCMT:atodbl.obj
 0001:0003f446       __atoflt_l                 00440446 f   LIBCMT:atodbl.obj
 0001:0003f4ee       __fptostr                  004404ee f   LIBCMT:_fptostr.obj
 0001:0003f5ad       ___dtold                   004405ad f   LIBCMT:_cfout_.obj
 0001:0003f66a       __fltout2                  0044066a f   LIBCMT:_cfout_.obj
 0001:0003f700       __alldvrm                  00440700 f   LIBCMT:lldvrm.obj
 0001:0003f7e0       __aullshr                  004407e0 f   LIBCMT:ullshr.obj
 0001:0003f7ff       __fptrap                   004407ff f   LIBCMT:crt0fp.obj
 0001:0003f808       __controlfp_s              00440808 f   LIBCMT:_contrlfp_.obj
 0001:0003f874       __get_printf_count_output  00440874 f   LIBCMT:printf.obj
 0001:0003f88a       __wctomb_s_l               0044088a f   LIBCMT:wctomb.obj
 0001:0003f9f6       _wctomb_s                  004409f6 f   LIBCMT:wctomb.obj
 0001:0003fa13       __isctype_l                00440a13 f   LIBCMT:isctype.obj
 0001:0003fad0       __alloca_probe_16          00440ad0 f   LIBCMT:alloca16.obj
 0001:0003fae6       __alloca_probe_8           00440ae6     LIBCMT:alloca16.obj
 0001:0003fb00       __allmul                   00440b00 f   LIBCMT:llmul.obj
 0001:0003fb34       _atol                      00440b34 f   LIBCMT:atox.obj
 0001:0003fb4a       __fputwc_nolock            00440b4a f   LIBCMT:fputwc.obj
 0001:0003fcd1       __chsize_nolock            00440cd1 f   LIBCMT:chsize.obj
 0001:0003fe87       __setmode_nolock           00440e87 f   LIBCMT:setmode.obj
 0001:0003ff43       __get_fmode                00440f43 f   LIBCMT:setmode.obj
 0001:0003ff7c       __strnicmp_l               00440f7c f   LIBCMT:strnicmp.obj
 0001:0004006e       __strnicmp                 0044106e f   LIBCMT:strnicmp.obj
 0001:000400cc       ___ansicp                  004410cc f   LIBCMT:convrtcp.obj
 0001:00040115       ___convertcp               00441115 f   LIBCMT:convrtcp.obj
 0001:000402c9       ___ascii_stricmp           004412c9 f   LIBCMT:stricmp.obj
 0001:00040302       __stricmp_l                00441302 f   LIBCMT:stricmp.obj
 0001:000403d7       __stricmp                  004413d7 f   LIBCMT:stricmp.obj
 0001:00040506       __itoa_s                   00441506 f   LIBCMT:xtoas.obj
 0001:00040530       ___initconout              00441530 f   LIBCMT:initcon.obj
 0001:0004054f       ___termcon                 0044154f f   LIBCMT:initcon.obj
 0001:0004057c       __ld12tod                  0044157c f   LIBCMT:_intrncvt_.obj
 0001:00040ac0       __ld12tof                  00441ac0 f   LIBCMT:_intrncvt_.obj
 0001:00041004       ___strgtold12_l            00442004 f   LIBCMT:_strgtold_.obj
 0001:000416fc       _$I10_OUTPUT               004426fc f   LIBCMT:_x10fout_.obj
 0001:0004214e       __control87                0044314e f i LIBCMT:_ieee87_.obj
 0001:0004268c       _strtol                    0044368c f   LIBCMT:strtol.obj
 0001:000426b7       __flswbuf                  004436b7 f   LIBCMT:_flswbuf.obj
 0001:00042830       ___ascii_strnicmp          00443830 f   LIBCMT:_strnicm.obj
 0001:00042891       ___mtold12                 00443891 f   LIBCMT:_mantold_.obj
 0001:00042a5f       __statfp                   00443a5f f   LIBCMT:_fpctrl_.obj
 0001:00042a6f       __clrfp                    00443a6f f   LIBCMT:_fpctrl_.obj
 0001:00042a80       __ctrlfp                   00443a80 f   LIBCMT:_fpctrl_.obj
 0001:00042aa9       __set_statfp               00443aa9 f   LIBCMT:_fpctrl_.obj
 0001:00042b01       ___set_fpsr_sse2           00443b01 f   LIBCMT:_fpctrl_.obj
 0001:00042b90       _strchr                    00443b90 f   LIBCMT:strchr.obj
 0001:00042b96       ___from_strstr_to_strchr   00443b96     LIBCMT:strchr.obj
 0001:00042c4e       _gluOrtho2D@32             00443c4e f   glu32:GLU32.dll
 0001:00042c54       _RtlUnwind@16              00443c54 f   kernel32:KERNEL32.dll
 0001:00042c60       ?isPointIn@ButtonWidget@Pegas@@UAE_NMM@Z 00443c60 f   engine:standart_widgets.obj
 0001:00042cd0       ?onMouseMove@ButtonWidget@Pegas@@UAEXMMH@Z 00443cd0 f   engine:standart_widgets.obj
 0001:00042d30       ?onMouseButtonUp@ButtonWidget@Pegas@@UAEXHMMH@Z 00443d30 f   engine:standart_widgets.obj
 0001:00042d60       ?killFocus@ButtonWidget@Pegas@@UAEXXZ 00443d60 f   engine:standart_widgets.obj
 0001:00042d90       ?setFocus@ButtonWidget@Pegas@@UAEXXZ 00443d90 f   engine:standart_widgets.obj
 0001:00042dc0       ?render@ButtonWidget@Pegas@@UAEXPAVIPlatformContext@2@@Z 00443dc0 f   engine:standart_widgets.obj
 0001:00042ee0       ?recalcTextPosition@ButtonWidget@Pegas@@AAEXXZ 00443ee0 f   engine:standart_widgets.obj
 0001:00042fb0       ?setSize@ButtonWidget@Pegas@@QAEXMM@Z 00443fb0 f   engine:standart_widgets.obj
 0001:00042fe0       ?setPosition@ButtonWidget@Pegas@@QAEXMM@Z 00443fe0 f   engine:standart_widgets.obj
 0001:00043010       ?setButtonStyle@ButtonWidget@Pegas@@QAEXHHIII@Z 00444010 f   engine:standart_widgets.obj
 0001:00043080       ??0ButtonWidget@Pegas@@QAE@H@Z 00444080 f   engine:standart_widgets.obj
 0001:00043180       ?setCaption@ButtonWidget@Pegas@@QAEXABV?$basic_string@_WU?$char_traits@_W@std@@V?$allocator@_W@2@@std@@@Z 00444180 f   engine:standart_widgets.obj
 0001:000431b0       ?onMouseButtonDown@ButtonWidget@Pegas@@UAEXHMMH@Z 004441b0 f   engine:standart_widgets.obj
 0001:00043290       ?onKeyDown@ButtonWidget@Pegas@@UAEXHH@Z 00444290 f   engine:standart_widgets.obj
 0001:00043370       ?enter@DefaultGameState@Pegas@@UAEXPAVIPlatformContext@2@@Z 00444370 f   engine:default_game_state.obj
 0001:000433e0       ?onChar@BaseScreenLayer@Pegas@@UAEX_W@Z 004443e0 f   engine:default_game_state.obj
 0001:00043430       ?onKeyUp@BaseScreenLayer@Pegas@@UAEXHH@Z 00444430 f   engine:default_game_state.obj
 0001:00043480       ?onKeyDown@BaseScreenLayer@Pegas@@UAEXHH@Z 00444480 f   engine:default_game_state.obj
 0001:000434d0       ?onMouseWheel@BaseScreenLayer@Pegas@@UAEXHH@Z 004444d0 f   engine:default_game_state.obj
 0001:00043520       ?onMouseMove@BaseScreenLayer@Pegas@@UAEXMMH@Z 00444520 f   engine:default_game_state.obj
 0001:00043580       ?onMouseButtonUp@BaseScreenLayer@Pegas@@UAEXHMMH@Z 00444580 f   engine:default_game_state.obj
 0001:000435e0       ?onMouseButtonDown@BaseScreenLayer@Pegas@@UAEXHMMH@Z 004445e0 f   engine:default_game_state.obj
 0001:00043640       ?onChar@DefaultGameState@Pegas@@UAEX_W@Z 00444640 f   engine:default_game_state.obj
 0001:00043690       ?onKeyUp@DefaultGameState@Pegas@@UAEXHH@Z 00444690 f   engine:default_game_state.obj
 0001:000436e0       ?onKeyDown@DefaultGameState@Pegas@@UAEXHH@Z 004446e0 f   engine:default_game_state.obj
 0001:00043730       ?onMouseWheel@DefaultGameState@Pegas@@UAEXHH@Z 00444730 f   engine:default_game_state.obj
 0001:00043780       ?onMouseMove@DefaultGameState@Pegas@@UAEXMMH@Z 00444780 f   engine:default_game_state.obj
 0001:000437e0       ?onMouseButtonUp@DefaultGameState@Pegas@@UAEXHMMH@Z 004447e0 f   engine:default_game_state.obj
 0001:00043840       ?onMouseButtonDown@DefaultGameState@Pegas@@UAEXHMMH@Z 00444840 f   engine:default_game_state.obj
 0001:000438a0       ?render@DefaultGameState@Pegas@@UAEXPAVIPlatformContext@2@@Z 004448a0 f   engine:default_game_state.obj
 0001:00043950       ?update@DefaultGameState@Pegas@@UAEXPAVIPlatformContext@2@HH@Z 00444950 f   engine:default_game_state.obj
 0001:000439e0       ?getLayer@DefaultGameState@Pegas@@QAE?AV?$ptr@VBaseScreenLayer@Pegas@@@2@ABH@Z 004449e0 f   engine:default_game_state.obj
 0001:00043a80       ?leave@DefaultGameState@Pegas@@UAEXPAVIPlatformContext@2@@Z 00444a80 f   engine:default_game_state.obj
 0001:00043b50       ?pushLayer@DefaultGameState@Pegas@@QAEXV?$ptr@VBaseScreenLayer@Pegas@@@2@@Z 00444b50 f   engine:default_game_state.obj
 0001:00043c00       ?create@GUILayer@Pegas@@UAEXPAVIPlatformContext@2@@Z 00444c00 f   engine:gui_layer.obj
 0001:00043c20       ?changeFocusPrev@GUILayer@Pegas@@QAEXXZ 00444c20 f   engine:gui_layer.obj
 0001:00043cd0       ?changeFocusNext@GUILayer@Pegas@@QAEXXZ 00444cd0 f   engine:gui_layer.obj
 0001:00043d80       ?onMouseMove@GUILayer@Pegas@@UAEXMMH@Z 00444d80 f   engine:gui_layer.obj
 0001:00043e30       ?render@GUILayer@Pegas@@UAEXPAVIPlatformContext@2@@Z 00444e30 f   engine:gui_layer.obj
 0001:00043ea0       ?getFocusedWidget@GUILayer@Pegas@@QAE?AV?$ptr@VWidget@Pegas@@@2@XZ 00444ea0 f   engine:gui_layer.obj
 0001:00043ef0       ?onChar@GUILayer@Pegas@@UAEX_W@Z 00444ef0 f   engine:gui_layer.obj
 0001:00043f90       ?onKeyUp@GUILayer@Pegas@@UAEXHH@Z 00444f90 f   engine:gui_layer.obj
 0001:00044030       ?onKeyDown@GUILayer@Pegas@@UAEXHH@Z 00445030 f   engine:gui_layer.obj
 0001:000440d0       ?onMouseWheel@GUILayer@Pegas@@UAEXHH@Z 004450d0 f   engine:gui_layer.obj
 0001:00044170       ?onMouseButtonUp@GUILayer@Pegas@@UAEXHMMH@Z 00445170 f   engine:gui_layer.obj
 0001:00044340       ?onMouseButtonDown@GUILayer@Pegas@@UAEXHMMH@Z 00445340 f   engine:gui_layer.obj
 0001:000444e0       ?destroy@GUILayer@Pegas@@UAEXPAVIPlatformContext@2@@Z 004454e0 f   engine:gui_layer.obj
 0001:00044500       ?addWidget@GUILayer@Pegas@@QAEXV?$ptr@VWidget@Pegas@@@2@@Z 00445500 f   engine:gui_layer.obj
 0001:00044560       ?getNextHandle@ProcessManager@Pegas@@CAHXZ 00445560 f   engine:processes.obj
 0001:00044580       ?terminate@Process@Pegas@@UAEXXZ 00445580 f   engine:processes.obj
 0001:000445c0       ?resume@Process@Pegas@@UAEXXZ 004455c0 f   engine:processes.obj
 0001:00044610       ?suspend@Process@Pegas@@UAEXXZ 00445610 f   engine:processes.obj
 0001:00044660       ?start@Process@Pegas@@MAEXHPAVProcessManager@2@@Z 00445660 f   engine:processes.obj
 0001:000446b0       ?getNext@Process@Pegas@@QBE?AV?$ptr@VProcess@Pegas@@@2@XZ 004456b0 f   engine:processes.obj
 0001:000446d0       ?attachNext@Process@Pegas@@UAEXV?$ptr@VProcess@Pegas@@@2@@Z 004456d0 f   engine:processes.obj
 0001:00044740       ??0Process@Pegas@@QAE@XZ   00445740 f   engine:processes.obj
 0001:00044780       ?findActiveProcess@ProcessManager@Pegas@@AAE?AV?$ptr@VProcess@Pegas@@@2@ABH@Z 00445780 f   engine:processes.obj
 0001:000447f0       ?terminateProcess@ProcessManager@Pegas@@QAEXABH@Z 004457f0 f   engine:processes.obj
 0001:00044880       ?attachProcess@ProcessManager@Pegas@@QAEHV?$ptr@VProcess@Pegas@@@2@@Z 00445880 f   engine:processes.obj
 0001:00044950       ?updateProcesses@ProcessManager@Pegas@@QAEXHH@Z 00445950 f   engine:processes.obj
 0001:00044df0       ?render@FaderLayer@Pegas@@UAEXPAVIPlatformContext@2@@Z 00445df0 f   engine:fader_layer.obj
 0001:00044e50       ?handleEvent@FaderLayer@Pegas@@UAEXV?$ptr@UEvent@Pegas@@@2@@Z 00445e50 f   engine:fader_layer.obj
 0001:000451a0       ?update@FaderLayer@Pegas@@UAEXPAVIPlatformContext@2@HH@Z 004461a0 f   engine:fader_layer.obj
 0001:000453a0       ??0FaderLayer@Pegas@@QAE@ABH@Z 004463a0 f   engine:fader_layer.obj
 0001:00045470       ?destroy@FaderLayer@Pegas@@UAEXPAVIPlatformContext@2@@Z 00446470 f   engine:fader_layer.obj
 0001:000454b0       ?create@FaderLayer@Pegas@@UAEXPAVIPlatformContext@2@@Z 004464b0 f   engine:fader_layer.obj
 0001:000455b0       ??0Waiting@Pegas@@QAE@M_N@Z 004465b0 f   engine:waiting.obj
 0001:00045680       ?handleEvent@Waiting@Pegas@@UAEXV?$ptr@UEvent@Pegas@@@2@@Z 00446680 f   engine:waiting.obj
 0001:000457d0       ?addFinalEvent@Waiting@Pegas@@QAEXV?$ptr@UEvent@Pegas@@@2@@Z 004467d0 f   engine:waiting.obj
 0001:00045830       ?update@Waiting@Pegas@@UAEXH@Z 00446830 f   engine:waiting.obj
 0001:00045910       ?terminate@Waiting@Pegas@@UAEXXZ 00446910 f   engine:waiting.obj
 0001:00045950       ?start@Waiting@Pegas@@MAEXHPAVProcessManager@2@@Z 00446950 f   engine:waiting.obj
 0001:000459e0       ?pushEventToQueye@EventManager@Pegas@@QAEXV?$ptr@UEvent@Pegas@@@2@@Z 004469e0 f   engine:event_system.obj
 0001:00045ac0       ?removeEventListener@EventManager@Pegas@@QAEXPAVIEventListener@2@@Z 00446ac0 f   engine:event_system.obj
 0001:00045bf0       ?processEvents@EventManager@Pegas@@QAEXH@Z 00446bf0 f   engine:event_system.obj
 0001:00045f90       ?triggerEvent@EventManager@Pegas@@QAEXV?$ptr@UEvent@Pegas@@@2@@Z 00446f90 f   engine:event_system.obj
 0001:000462c0       ?addEventListener@EventManager@Pegas@@QAEXPAVIEventListener@2@ABV?$basic_string@DU?$char_traits@D@std@@V?$allocator@D@2@@std@@@Z 004472c0 f   engine:event_system.obj
 0001:00046550       _floor                     00447550 f   LIBCMT:_floor_pentium4_.obj
 0001:00046590       __floor_pentium4           00447590 f   LIBCMT:_floor_pentium4_.obj
 0001:00046680       __CIsqrt                   00447680 f   LIBCMT:_sqrt_.obj
 0001:00046694       _sqrt                      00447694     LIBCMT:_sqrt_.obj
 0001:0004673a       ___libm_error_support      0044773a f   LIBCMT:_libm_error_.obj
 0001:000469ea       __sse2_mathfcns_init       004479ea f   LIBCMT:_mathfcns_.obj
 0001:000469fe       __floor_default            004479fe f   LIBCMT:_floor_.obj
 0001:00046ae0       __trandisp1                00447ae0 f   LIBCMT:_87disp_.obj
 0001:00046b47       __trandisp2                00447b47 f   LIBCMT:_87disp_.obj
 0001:00046bd3       __rttospopde               00447bd3     LIBCMT:_87disp_.obj
 0001:00046bd8       __rttospop                 00447bd8     LIBCMT:_87disp_.obj
 0001:00046bda       __rtnospop                 00447bda     LIBCMT:_87disp_.obj
 0001:00046bdc       __rttosnpop                00447bdc     LIBCMT:_87disp_.obj
 0001:00046bdd       __rtnospopde               00447bdd     LIBCMT:_87disp_.obj
 0001:00046be4       __rtzeropop                00447be4     LIBCMT:_87disp_.obj
 0001:00046be6       __rtzeronpop               00447be6     LIBCMT:_87disp_.obj
 0001:00046beb       __rtonepop                 00447beb     LIBCMT:_87disp_.obj
 0001:00046bed       __rtonenpop                00447bed     LIBCMT:_87disp_.obj
 0001:00046bf2       __tosnan1                  00447bf2     LIBCMT:_87disp_.obj
 0001:00046c1d       __nosnan2                  00447c1d     LIBCMT:_87disp_.obj
 0001:00046c1f       __tosnan2                  00447c1f     LIBCMT:_87disp_.obj
 0001:00046c47       __nan2                     00447c47     LIBCMT:_87disp_.obj
 0001:00046c86       __rtindfpop                00447c86     LIBCMT:_87disp_.obj
 0001:00046c88       __rtindfnpop               00447c88     LIBCMT:_87disp_.obj
 0001:00046c99       __rttosnpopde              00447c99     LIBCMT:_87disp_.obj
 0001:00046ca3       __rtchsifneg               00447ca3     LIBCMT:_87disp_.obj
 0001:00046cb0       __startTwoArgErrorHandling 00447cb0 f   LIBCMT:_genexcep_.obj
 0001:00046cc7       __startOneArgErrorHandling 00447cc7 f   LIBCMT:_genexcep_.obj
 0001:00046d10       __twoToTOS                 00447d10 f   LIBCMT:_common_.obj
 0001:00046d25       __load_CW                  00447d25 f   LIBCMT:_common_.obj
 0001:00046d3c       __convertTOStoQNaN         00447d3c f   LIBCMT:_common_.obj
 0001:00046d55       __fload_withFB             00447d55 f   LIBCMT:_common_.obj
 0001:00046d98       __checkTOS_withFB          00447d98 f   LIBCMT:_common_.obj
 0001:00046dae       __fast_exit                00447dae f   LIBCMT:_common_.obj
 0001:00046dbb       __math_exit                00447dbb f   LIBCMT:_common_.obj
 0001:00046de5       __check_overflow_exit      00447de5 f   LIBCMT:_common_.obj
 0001:00046df9       __check_range_exit         00447df9 f   LIBCMT:_common_.obj
 0001:00046e9c       __raise_exc_ex             00447e9c f   LIBCMT:_fpexcept_.obj
 0001:00047178       __raise_exc                00448178 f   LIBCMT:_fpexcept_.obj
 0001:0004719b       __handle_exc               0044819b f   LIBCMT:_fpexcept_.obj
 0001:0004737d       __set_errno_from_matherr   0044837d f   LIBCMT:_fpexcept_.obj
 0001:000473aa       __errcode                  004483aa f   LIBCMT:_fpexcept_.obj
 0001:000473de       __umatherr                 004483de f   LIBCMT:_fpexcept_.obj
 0001:0004747e       __handle_qnan1             0044847e f   LIBCMT:_fpexcept_.obj
 0001:000474d3       __except1                  004484d3 f   LIBCMT:_fpexcept_.obj
 0001:0004759c       __frnd                     0044859c f   LIBCMT:_frnd_.obj
 0001:000475b0       __set_exp                  004485b0 f   LIBCMT:_util_.obj
 0001:000475dc       __sptype                   004485dc f   LIBCMT:_util_.obj
 0001:0004763c       __decomp                   0044863c f   LIBCMT:_util_.obj
 0001:000476f5       __87except                 004486f5 f   LIBCMT:_87except_.obj
 0002:00000000       __imp__ChoosePixelFormat@8 0044d000     gdi32:GDI32.dll
 0002:00000004       __imp__CreateCompatibleDC@4 0044d004     gdi32:GDI32.dll
 0002:00000008       __imp__SwapBuffers@4       0044d008     gdi32:GDI32.dll
 0002:0000000c       __imp__DeleteDC@4          0044d00c     gdi32:GDI32.dll
 0002:00000010       __imp__SetPixelFormat@12   0044d010     gdi32:GDI32.dll
 0002:00000014       __imp__GetTextExtentPointW@16 0044d014     gdi32:GDI32.dll
 0002:00000018       __imp__DeleteObject@4      0044d018     gdi32:GDI32.dll
 0002:0000001c       __imp__CreateFontA@56      0044d01c     gdi32:GDI32.dll
 0002:00000020       __imp__SelectObject@8      0044d020     gdi32:GDI32.dll
 0002:00000024       __imp__GetObjectW@12       0044d024     gdi32:GDI32.dll
 0002:00000028       __imp__GetDIBits@28        0044d028     gdi32:GDI32.dll
 0002:0000002c       \177GDI32_NULL_THUNK_DATA  0044d02c     gdi32:GDI32.dll
 0002:00000030       __imp__gluOrtho2D@32       0044d030     glu32:GLU32.dll
 0002:00000034       \177GLU32_NULL_THUNK_DATA  0044d034     glu32:GLU32.dll
 0002:00000038       __imp__GetUserDefaultLCID@0 0044d038     kernel32:KERNEL32.dll
 0002:0000003c       __imp__GetStringTypeW@16   0044d03c     kernel32:KERNEL32.dll
 0002:00000040       __imp__GetStringTypeA@20   0044d040     kernel32:KERNEL32.dll
 0002:00000044       __imp__LCMapStringW@24     0044d044     kernel32:KERNEL32.dll
 0002:00000048       __imp__LCMapStringA@24     0044d048     kernel32:KERNEL32.dll
 0002:0000004c       __imp__CreateFileA@28      0044d04c     kernel32:KERNEL32.dll
 0002:00000050       __imp__InitializeCriticalSectionAndSpinCount@8 0044d050     kernel32:KERNEL32.dll
 0002:00000054       __imp__HeapReAlloc@16      0044d054     kernel32:KERNEL32.dll
 0002:00000058       __imp__VirtualAlloc@16     0044d058     kernel32:KERNEL32.dll
 0002:0000005c       __imp__GetLocaleInfoA@16   0044d05c     kernel32:KERNEL32.dll
 0002:00000060       __imp__GetLocaleInfoW@16   0044d060     kernel32:KERNEL32.dll
 0002:00000064       __imp__LoadLibraryA@4      0044d064     kernel32:KERNEL32.dll
 0002:00000068       __imp__GetModuleHandleA@4  0044d068     kernel32:KERNEL32.dll
 0002:0000006c       __imp__SetFilePointer@16   0044d06c     kernel32:KERNEL32.dll
 0002:00000070       __imp__ReadFile@20         0044d070     kernel32:KERNEL32.dll
 0002:00000074       __imp__MultiByteToWideChar@24 0044d074     kernel32:KERNEL32.dll
 0002:00000078       __imp__EnumSystemLocalesA@8 0044d078     kernel32:KERNEL32.dll
 0002:0000007c       __imp__IsValidLocale@8     0044d07c     kernel32:KERNEL32.dll
 0002:00000080       __imp__SetStdHandle@8      0044d080     kernel32:KERNEL32.dll
 0002:00000084       __imp__WriteConsoleA@20    0044d084     kernel32:KERNEL32.dll
 0002:00000088       __imp__GetConsoleOutputCP@0 0044d088     kernel32:KERNEL32.dll
 0002:0000008c       __imp__SetEndOfFile@4      0044d08c     kernel32:KERNEL32.dll
 0002:00000090       __imp__GetProcessHeap@0    0044d090     kernel32:KERNEL32.dll
 0002:00000094       __imp__OutputDebugStringA@4 0044d094     kernel32:KERNEL32.dll
 0002:00000098       __imp__FlushFileBuffers@4  0044d098     kernel32:KERNEL32.dll
 0002:0000009c       __imp__GetConsoleMode@8    0044d09c     kernel32:KERNEL32.dll
 0002:000000a0       __imp__GetConsoleCP@0      0044d0a0     kernel32:KERNEL32.dll
 0002:000000a4       __imp__CloseHandle@4       0044d0a4     kernel32:KERNEL32.dll
 0002:000000a8       __imp__IsValidCodePage@4   0044d0a8     kernel32:KERNEL32.dll
 0002:000000ac       __imp__GetOEMCP@0          0044d0ac     kernel32:KERNEL32.dll
 0002:000000b0       __imp__GetACP@0            0044d0b0     kernel32:KERNEL32.dll
 0002:000000b4       __imp__GetCPInfo@8         0044d0b4     kernel32:KERNEL32.dll
 0002:000000b8       __imp__LoadLibraryW@4      0044d0b8     kernel32:KERNEL32.dll
 0002:000000bc       __imp__LeaveCriticalSection@4 0044d0bc     kernel32:KERNEL32.dll
 0002:000000c0       __imp__EnterCriticalSection@4 0044d0c0     kernel32:KERNEL32.dll
 0002:000000c4       __imp__GetSystemTimeAsFileTime@4 0044d0c4     kernel32:KERNEL32.dll
 0002:000000c8       __imp__GetCurrentProcessId@0 0044d0c8     kernel32:KERNEL32.dll
 0002:000000cc       __imp__GetTickCount@0      0044d0cc     kernel32:KERNEL32.dll
 0002:000000d0       __imp__QueryPerformanceCounter@4 0044d0d0     kernel32:KERNEL32.dll
 0002:000000d4       __imp__VirtualFree@12      0044d0d4     kernel32:KERNEL32.dll
 0002:000000d8       __imp__HeapCreate@12       0044d0d8     kernel32:KERNEL32.dll
 0002:000000dc       __imp__DeleteCriticalSection@4 0044d0dc     kernel32:KERNEL32.dll
 0002:000000e0       __imp__GetStartupInfoA@4   0044d0e0     kernel32:KERNEL32.dll
 0002:000000e4       __imp__SetHandleCount@4    0044d0e4     kernel32:KERNEL32.dll
 0002:000000e8       __imp__GetCommandLineW@0   0044d0e8     kernel32:KERNEL32.dll
 0002:000000ec       __imp__GetEnvironmentStringsW@0 0044d0ec     kernel32:KERNEL32.dll
 0002:000000f0       __imp__FreeEnvironmentStringsW@4 0044d0f0     kernel32:KERNEL32.dll
 0002:000000f4       __imp__ExitProcess@4       0044d0f4     kernel32:KERNEL32.dll
 0002:000000f8       __imp__HeapSize@12         0044d0f8     kernel32:KERNEL32.dll
 0002:000000fc       __imp__Sleep@4             0044d0fc     kernel32:KERNEL32.dll
 0002:00000100       __imp__HeapAlloc@12        0044d100     kernel32:KERNEL32.dll
 0002:00000104       __imp__HeapFree@12         0044d104     kernel32:KERNEL32.dll
 0002:00000108       __imp__GetCurrentThreadId@0 0044d108     kernel32:KERNEL32.dll
 0002:0000010c       __imp__SetLastError@4      0044d10c     kernel32:KERNEL32.dll
 0002:00000110       __imp__InterlockedIncrement@4 0044d110     kernel32:KERNEL32.dll
 0002:00000114       __imp__TlsFree@4           0044d114     kernel32:KERNEL32.dll
 0002:00000118       __imp__TlsSetValue@8       0044d118     kernel32:KERNEL32.dll
 0002:0000011c       __imp__TlsAlloc@0          0044d11c     kernel32:KERNEL32.dll
 0002:00000120       __imp__TlsGetValue@4       0044d120     kernel32:KERNEL32.dll
 0002:00000124       __imp__GetProcAddress@8    0044d124     kernel32:KERNEL32.dll
 0002:00000128       __imp__GetModuleHandleW@4  0044d128     kernel32:KERNEL32.dll
 0002:0000012c       __imp__LocalAlloc@8        0044d12c     kernel32:KERNEL32.dll
 0002:00000130       __imp__LocalFree@4         0044d130     kernel32:KERNEL32.dll
 0002:00000134       __imp__TerminateProcess@8  0044d134     kernel32:KERNEL32.dll
 0002:00000138       __imp__GetCurrentProcess@0 0044d138     kernel32:KERNEL32.dll
 0002:0000013c       __imp__UnhandledExceptionFilter@4 0044d13c     kernel32:KERNEL32.dll
 0002:00000140       __imp__SetUnhandledExceptionFilter@4 0044d140     kernel32:KERNEL32.dll
 0002:00000144       __imp__IsDebuggerPresent@0 0044d144     kernel32:KERNEL32.dll
 0002:00000148       __imp__GetStartupInfoW@4   0044d148     kernel32:KERNEL32.dll
 0002:0000014c       __imp__WriteConsoleW@20    0044d14c     kernel32:KERNEL32.dll
 0002:00000150       __imp__GetFileType@4       0044d150     kernel32:KERNEL32.dll
 0002:00000154       __imp__GetStdHandle@4      0044d154     kernel32:KERNEL32.dll
 0002:00000158       __imp__GetModuleFileNameW@12 0044d158     kernel32:KERNEL32.dll
 0002:0000015c       __imp__GetLastError@0      0044d15c     kernel32:KERNEL32.dll
 0002:00000160       __imp__WideCharToMultiByte@32 0044d160     kernel32:KERNEL32.dll
 0002:00000164       __imp__RtlUnwind@16        0044d164     kernel32:KERNEL32.dll
 0002:00000168       __imp__RaiseException@16   0044d168     kernel32:KERNEL32.dll
 0002:0000016c       __imp__InterlockedDecrement@4 0044d16c     kernel32:KERNEL32.dll
 0002:00000170       __imp__WriteFile@20        0044d170     kernel32:KERNEL32.dll
 0002:00000174       __imp__GetModuleFileNameA@12 0044d174     kernel32:KERNEL32.dll
 0002:00000178       \177KERNEL32_NULL_THUNK_DATA 0044d178     kernel32:KERNEL32.dll
 0002:0000017c       __imp__glRasterPos2f@8     0044d17c     opengl32:OPENGL32.dll
 0002:00000180       __imp__glPushAttrib@4      0044d180     opengl32:OPENGL32.dll
 0002:00000184       __imp__glListBase@4        0044d184     opengl32:OPENGL32.dll
 0002:00000188       __imp__glCallLists@12      0044d188     opengl32:OPENGL32.dll
 0002:0000018c       __imp__glPopAttrib@0       0044d18c     opengl32:OPENGL32.dll
 0002:00000190       __imp__glPushMatrix@0      0044d190     opengl32:OPENGL32.dll
 0002:00000194       __imp__glTranslatef@12     0044d194     opengl32:OPENGL32.dll
 0002:00000198       __imp__glRotatef@16        0044d198     opengl32:OPENGL32.dll
 0002:0000019c       __imp__glScalef@12         0044d19c     opengl32:OPENGL32.dll
 0002:000001a0       __imp__glPopMatrix@0       0044d1a0     opengl32:OPENGL32.dll
 0002:000001a4       __imp__glTexCoord2f@8      0044d1a4     opengl32:OPENGL32.dll
 0002:000001a8       __imp__glDisable@4         0044d1a8     opengl32:OPENGL32.dll
 0002:000001ac       __imp__glColor4ub@16       0044d1ac     opengl32:OPENGL32.dll
 0002:000001b0       __imp__glBegin@4           0044d1b0     opengl32:OPENGL32.dll
 0002:000001b4       __imp__glVertex2f@8        0044d1b4     opengl32:OPENGL32.dll
 0002:000001b8       __imp__glEnd@0             0044d1b8     opengl32:OPENGL32.dll
 0002:000001bc       __imp__glGetFloatv@8       0044d1bc     opengl32:OPENGL32.dll
 0002:000001c0       __imp__glFlush@0           0044d1c0     opengl32:OPENGL32.dll
 0002:000001c4       __imp__glClearColor@16     0044d1c4     opengl32:OPENGL32.dll
 0002:000001c8       __imp__glClear@4           0044d1c8     opengl32:OPENGL32.dll
 0002:000001cc       __imp__wglDeleteContext@4  0044d1cc     opengl32:OPENGL32.dll
 0002:000001d0       __imp__glViewport@16       0044d1d0     opengl32:OPENGL32.dll
 0002:000001d4       __imp__glMatrixMode@4      0044d1d4     opengl32:OPENGL32.dll
 0002:000001d8       __imp__glLoadIdentity@0    0044d1d8     opengl32:OPENGL32.dll
 0002:000001dc       __imp__wglCreateContext@4  0044d1dc     opengl32:OPENGL32.dll
 0002:000001e0       __imp__wglMakeCurrent@8    0044d1e0     opengl32:OPENGL32.dll
 0002:000001e4       __imp__glPixelStorei@8     0044d1e4     opengl32:OPENGL32.dll
 0002:000001e8       __imp__glEnable@4          0044d1e8     opengl32:OPENGL32.dll
 0002:000001ec       __imp__glBlendFunc@8       0044d1ec     opengl32:OPENGL32.dll
 0002:000001f0       __imp__glTexEnvf@12        0044d1f0     opengl32:OPENGL32.dll
 0002:000001f4       __imp__glGenLists@4        0044d1f4     opengl32:OPENGL32.dll
 0002:000001f8       __imp__wglUseFontBitmapsA@16 0044d1f8     opengl32:OPENGL32.dll
 0002:000001fc       __imp__glGenTextures@8     0044d1fc     opengl32:OPENGL32.dll
 0002:00000200       __imp__glBindTexture@8     0044d200     opengl32:OPENGL32.dll
 0002:00000204       __imp__glTexParameteri@12  0044d204     opengl32:OPENGL32.dll
 0002:00000208       __imp__glTexImage2D@36     0044d208     opengl32:OPENGL32.dll
 0002:0000020c       \177OPENGL32_NULL_THUNK_DATA 0044d20c     opengl32:OPENGL32.dll
 0002:00000210       __imp__GetKeyboardState@4  0044d210     user32:USER32.dll
 0002:00000214       __imp__LoadStringW@16      0044d214     user32:USER32.dll
 0002:00000218       __imp__MessageBoxW@16      0044d218     user32:USER32.dll
 0002:0000021c       __imp__ReleaseDC@8         0044d21c     user32:USER32.dll
 0002:00000220       __imp__GetDC@4             0044d220     user32:USER32.dll
 0002:00000224       __imp__LoadBitmapW@8       0044d224     user32:USER32.dll
 0002:00000228       __imp__wsprintfW           0044d228     user32:USER32.dll
 0002:0000022c       __imp__EndDialog@8         0044d22c     user32:USER32.dll
 0002:00000230       __imp__PostQuitMessage@4   0044d230     user32:USER32.dll
 0002:00000234       __imp__EndPaint@8          0044d234     user32:USER32.dll
 0002:00000238       __imp__BeginPaint@8        0044d238     user32:USER32.dll
 0002:0000023c       __imp__DefWindowProcW@16   0044d23c     user32:USER32.dll
 0002:00000240       __imp__DestroyWindow@4     0044d240     user32:USER32.dll
 0002:00000244       __imp__DialogBoxParamW@20  0044d244     user32:USER32.dll
 0002:00000248       __imp__GetClientRect@8     0044d248     user32:USER32.dll
 0002:0000024c       __imp__UpdateWindow@4      0044d24c     user32:USER32.dll
 0002:00000250       __imp__ShowWindow@8        0044d250     user32:USER32.dll
 0002:00000254       __imp__MoveWindow@24       0044d254     user32:USER32.dll
 0002:00000258       __imp__GetMenu@4           0044d258     user32:USER32.dll
 0002:0000025c       __imp__AdjustWindowRectEx@16 0044d25c     user32:USER32.dll
 0002:00000260       __imp__GetWindowInfo@8     0044d260     user32:USER32.dll
 0002:00000264       __imp__CreateWindowExW@48  0044d264     user32:USER32.dll
 0002:00000268       __imp__RegisterClassExW@4  0044d268     user32:USER32.dll
 0002:0000026c       __imp__LoadCursorW@8       0044d26c     user32:USER32.dll
 0002:00000270       __imp__LoadIconW@8         0044d270     user32:USER32.dll
 0002:00000274       __imp__DispatchMessageW@4  0044d274     user32:USER32.dll
 0002:00000278       __imp__TranslateMessage@4  0044d278     user32:USER32.dll
 0002:0000027c       __imp__GetMessageW@16      0044d27c     user32:USER32.dll
 0002:00000280       __imp__PeekMessageW@20     0044d280     user32:USER32.dll
 0002:00000284       __imp__LoadAcceleratorsW@8 0044d284     user32:USER32.dll
 0002:00000288       \177USER32_NULL_THUNK_DATA 0044d288     user32:USER32.dll
 0002:0000028c       __imp__timeGetTime@0       0044d28c     winmm:WINMM.dll
 0002:00000290       __imp__PlaySoundW@12       0044d290     winmm:WINMM.dll
 0002:00000294       \177WINMM_NULL_THUNK_DATA  0044d294     winmm:WINMM.dll
 0002:00000298       ___xc_a                    0044d298     LIBCMT:crt0init.obj
 0002:0000034c       ___xc_z                    0044d34c     LIBCMT:crt0init.obj
 0002:00000350       ___xi_a                    0044d350     LIBCMT:crt0init.obj
 0002:0000036c       ___xi_z                    0044d36c     LIBCMT:crt0init.obj
 0002:00000370       ___xp_a                    0044d370     LIBCMT:crt0init.obj
 0002:0000037c       ___xp_z                    0044d37c     LIBCMT:crt0init.obj
 0002:00000380       ___xt_a                    0044d380     LIBCMT:crt0init.obj
 0002:00000384       ___xt_z                    0044d384     LIBCMT:crt0init.obj
 0002:00000804       ??_7bad_alloc@std@@6B@     0044d804     platform:file.obj
 0002:00000830       ??_7TextureResource@Pegas@@6B@ 0044d830     platform:platform_resources.obj
 0002:00000844       ??_7FontResource@Pegas@@6B@ 0044d844     platform:platform_resources.obj
 0002:00000858       ??_7?$BaseResource@UIntResourceCode@Pegas@@@Pegas@@6B@ 0044d858     platform:platform_resources.obj
 0002:0000086c       ??_7?$BaseResource@UFontResourceCode@Pegas@@@Pegas@@6B@ 0044d86c     platform:platform_resources.obj
 0002:00000880       ??_7length_error@std@@6B@  0044d880     platform:platform_resources.obj
 0002:0000088c       ??_7logic_error@std@@6B@   0044d88c     platform:platform_resources.obj
 0002:00000898       ??_7out_of_range@std@@6B@  0044d898     platform:platform_resources.obj
 0002:000009cc       __real@46040000            0044d9cc     platform:ogl_graf_manager.obj
 0002:000009d4       ??_7GMException@Pegas@@6B@ 0044d9d4     platform:ogl_graf_manager.obj
 0002:000009dc       __real@3f000000            0044d9dc     platform:ogl_graf_manager.obj
 0002:000009e0       __real@bf000000            0044d9e0     platform:ogl_graf_manager.obj
 0002:00000a7c       ??_7SpriteAnimation@Pegas@@6B@ 0044da7c     platform:sprite_animation.obj
 0002:00000a9c       ??_7Process@Pegas@@6B@     0044da9c     platform:sprite_animation.obj
 0002:00000ab8       ??_C@_0BA@JFNIOLAK@string?5too?5long?$AA@ 0044dab8     libcpmt:string.obj
 0002:00000ac8       ??_C@_0BI@CFPLBAOH@invalid?5string?5position?$AA@ 0044dac8     libcpmt:string.obj
 0002:00000ae4       ??_7type_info@@6B@         0044dae4     LIBCMT:typinfo.obj
 0002:00000aec       ??_7exception@std@@6B@     0044daec     LIBCMT:stdexcpt.obj
 0002:00000af4       ??_C@_0BC@EOODALEL@Unknown?5exception?$AA@ 0044daf4     LIBCMT:stdexcpt.obj
 0002:00000b08       ??_C@_15IABLJNFO@?$AA?6?$AA?6?$AA?$AA@ 0044db08     LIBCMT:wassert.obj
 0002:00000b10       ??_C@_13LBAGMAIH@?$AA?6?$AA?$AA@ 0044db10     LIBCMT:wassert.obj
 0002:00000b14       ??_C@_17LGKOMLJ@?$AA?4?$AA?4?$AA?4?$AA?$AA@ 0044db14     LIBCMT:wassert.obj
 0002:00000b20       ??_C@_1EK@MBDPDCGA@?$AAM?$AAi?$AAc?$AAr?$AAo?$AAs?$AAo?$AAf?$AAt?$AA?5?$AAV?$AAi?$AAs?$AAu?$AAa?$AAl?$AA?5?$AAC?$AA?$CL?$AA?$CL?$AA?5?$AAR?$AAu?$AAn?$AAt?$AAi?$AAm?$AAe?$AA?5?$AAL?$AAi?$AAb@ 0044db20     LIBCMT:wassert.obj
 0002:00000b70       ??_C@_1HK@POCJMFGK@?$AA?$CI?$AAP?$AAr?$AAe?$AAs?$AAs?$AA?5?$AAR?$AAe?$AAt?$AAr?$AAy?$AA?5?$AAt?$AAo?$AA?5?$AAd?$AAe?$AAb?$AAu?$AAg?$AA?5?$AAt?$AAh?$AAe?$AA?5?$AAa?$AAp?$AAp?$AAl?$AAi?$AAc@ 0044db70     LIBCMT:wassert.obj
 0002:00000bf0       ??_C@_1OA@EGMLFBHJ@?$AAF?$AAo?$AAr?$AA?5?$AAi?$AAn?$AAf?$AAo?$AAr?$AAm?$AAa?$AAt?$AAi?$AAo?$AAn?$AA?5?$AAo?$AAn?$AA?5?$AAh?$AAo?$AAw?$AA?5?$AAy?$AAo?$AAu?$AAr?$AA?5?$AAp?$AAr?$AAo?$AAg@ 0044dbf0     LIBCMT:wassert.obj
 0002:00000cd0       ??_C@_1BK@PEDCIPMA@?$AAE?$AAx?$AAp?$AAr?$AAe?$AAs?$AAs?$AAi?$AAo?$AAn?$AA?3?$AA?5?$AA?$AA@ 0044dcd0     LIBCMT:wassert.obj
 0002:00000cec       ??_C@_1O@KCAFKHJE@?$AAL?$AAi?$AAn?$AAe?$AA?3?$AA?5?$AA?$AA@ 0044dcec     LIBCMT:wassert.obj
 0002:00000cfc       ??_C@_1O@HEMHKNDC@?$AAF?$AAi?$AAl?$AAe?$AA?3?$AA?5?$AA?$AA@ 0044dcfc     LIBCMT:wassert.obj
 0002:00000d0c       ??_C@_1CO@EAEJAADC@?$AA?$DM?$AAp?$AAr?$AAo?$AAg?$AAr?$AAa?$AAm?$AA?5?$AAn?$AAa?$AAm?$AAe?$AA?5?$AAu?$AAn?$AAk?$AAn?$AAo?$AAw?$AAn?$AA?$DO?$AA?$AA@ 0044dd0c     LIBCMT:wassert.obj
 0002:00000d3c       ??_C@_1BE@PHKBBGE@?$AAP?$AAr?$AAo?$AAg?$AAr?$AAa?$AAm?$AA?3?$AA?5?$AA?$AA@ 0044dd3c     LIBCMT:wassert.obj
 0002:00000d50       ??_C@_1CE@OJBNHDMO@?$AAA?$AAs?$AAs?$AAe?$AAr?$AAt?$AAi?$AAo?$AAn?$AA?5?$AAf?$AAa?$AAi?$AAl?$AAe?$AAd?$AA?$CB?$AA?$AA@ 0044dd50     LIBCMT:wassert.obj
 0002:00000d94       __FPinit                   0044dd94     LIBCMT:_fpinit_.obj
 0002:00000d98       __FPmtinit                 0044dd98     LIBCMT:_fpinit_.obj
 0002:00000d9c       __FPmtterm                 0044dd9c     LIBCMT:_fpinit_.obj
 0002:00000da8       ??_C@_0P@GGKDKEEG@runtime?5error?5?$AA@ 0044dda8     LIBCMT:crt0msg.obj
 0002:00000db8       ??_C@_02PCIJFNDE@?$AN?6?$AA@ 0044ddb8     LIBCMT:crt0msg.obj
 0002:00000dbc       ??_C@_0O@MJNIPGOH@TLOSS?5error?$AN?6?$AA@ 0044ddbc     LIBCMT:crt0msg.obj
 0002:00000dcc       ??_C@_0N@BONNPDHF@SING?5error?$AN?6?$AA@ 0044ddcc     LIBCMT:crt0msg.obj
 0002:00000ddc       ??_C@_0P@MBDAJNE@DOMAIN?5error?$AN?6?$AA@ 0044dddc     LIBCMT:crt0msg.obj
 0002:00000df0       ??_C@_0JL@DFDOOABL@R6034?$AN?6An?5application?5has?5made?5a@ 0044ddf0     LIBCMT:crt0msg.obj
 0002:00000e90       ??_C@_0PH@EPAFIJ@R6033?$AN?6?9?5Attempt?5to?5use?5MSIL?5cod@ 0044de90     LIBCMT:crt0msg.obj
 0002:00000f88       ??_C@_0DD@BKEEABMM@R6032?$AN?6?9?5not?5enough?5space?5for?5lo@ 0044df88     LIBCMT:crt0msg.obj
 0002:00000fc0       ??_C@_0GD@OFKILIED@R6031?$AN?6?9?5Attempt?5to?5initialize?5t@ 0044dfc0     LIBCMT:crt0msg.obj
 0002:00001024       ??_C@_0BP@LPMHJOKI@R6030?$AN?6?9?5CRT?5not?5initialized?$AN?6?$AA@ 0044e024     LIBCMT:crt0msg.obj
 0002:00001044       ??_C@_0CF@KJDAIALP@R6028?$AN?6?9?5unable?5to?5initialize?5he@ 0044e044     LIBCMT:crt0msg.obj
 0002:0000106c       ??_C@_0DF@GAKBPDFP@R6027?$AN?6?9?5not?5enough?5space?5for?5lo@ 0044e06c     LIBCMT:crt0msg.obj
 0002:000010a4       ??_C@_0DF@IBLNNAIG@R6026?$AN?6?9?5not?5enough?5space?5for?5st@ 0044e0a4     LIBCMT:crt0msg.obj
 0002:000010dc       ??_C@_0CG@IOHKGFNJ@R6025?$AN?6?9?5pure?5virtual?5function?5c@ 0044e0dc     LIBCMT:crt0msg.obj
 0002:00001104       ??_C@_0DF@JIJJFJDC@R6024?$AN?6?9?5not?5enough?5space?5for?5_o@ 0044e104     LIBCMT:crt0msg.obj
 0002:0000113c       ??_C@_0CJ@EGEJHFME@R6019?$AN?6?9?5unable?5to?5open?5console?5@ 0044e13c     LIBCMT:crt0msg.obj
 0002:00001168       ??_C@_0CB@GNHNIELH@R6018?$AN?6?9?5unexpected?5heap?5error?$AN?6@ 0044e168     LIBCMT:crt0msg.obj
 0002:0000118c       ??_C@_0CN@FOLDKNG@R6017?$AN?6?9?5unexpected?5multithread?5@ 0044e18c     LIBCMT:crt0msg.obj
 0002:000011bc       ??_C@_0CM@FAHFJNHO@R6016?$AN?6?9?5not?5enough?5space?5for?5th@ 0044e1bc     LIBCMT:crt0msg.obj
 0002:000011e8       ??_C@_0JG@LBKMGKLD@?$AN?6This?5application?5has?5requested@ 0044e1e8     LIBCMT:crt0msg.obj
 0002:00001280       ??_C@_0CM@FLCNIPKK@R6009?$AN?6?9?5not?5enough?5space?5for?5en@ 0044e280     LIBCMT:crt0msg.obj
 0002:000012ac       ??_C@_0CK@KMMJOAPP@R6008?$AN?6?9?5not?5enough?5space?5for?5ar@ 0044e2ac     LIBCMT:crt0msg.obj
 0002:000012d8       ??_C@_0CN@LEKKICBM@R6002?$AN?6?9?5floating?5point?5support?5@ 0044e2d8     LIBCMT:crt0msg.obj
 0002:00001308       ??_C@_0CF@GOGNBNAK@Microsoft?5Visual?5C?$CL?$CL?5Runtime?5Lib@ 0044e308     LIBCMT:crt0msg.obj
 0002:00001330       ??_C@_02PHMGELLB@?6?6?$AA@ 0044e330     LIBCMT:crt0msg.obj
 0002:00001334       ??_C@_03KHICJKCI@?4?4?4?$AA@ 0044e334     LIBCMT:crt0msg.obj
 0002:00001338       ??_C@_0BH@DNAGHKFM@?$DMprogram?5name?5unknown?$DO?$AA@ 0044e338     LIBCMT:crt0msg.obj
 0002:00001350       ??_C@_0BK@OFGJDLJJ@Runtime?5Error?$CB?6?6Program?3?5?$AA@ 0044e350     LIBCMT:crt0msg.obj
 0002:0000136c       ??_C@_0O@NLDKAIKN@EncodePointer?$AA@ 0044e36c     LIBCMT:tidtable.obj
 0002:0000137c       ??_C@_1BK@DBDEIDLH@?$AAK?$AAE?$AAR?$AAN?$AAE?$AAL?$AA3?$AA2?$AA?4?$AAD?$AAL?$AAL?$AA?$AA@ 0044e37c     LIBCMT:tidtable.obj
 0002:00001398       ??_C@_0O@KBPMFGHI@DecodePointer?$AA@ 0044e398     LIBCMT:tidtable.obj
 0002:000013a8       ??_C@_07PEJMOBNF@FlsFree?$AA@ 0044e3a8     LIBCMT:tidtable.obj
 0002:000013b0       ??_C@_0M@JCPCPOEF@FlsSetValue?$AA@ 0044e3b0     LIBCMT:tidtable.obj
 0002:000013bc       ??_C@_0M@GDNOONDI@FlsGetValue?$AA@ 0044e3bc     LIBCMT:tidtable.obj
 0002:000013c8       ??_C@_08KNHFBNJ@FlsAlloc?$AA@ 0044e3c8     LIBCMT:tidtable.obj
 0002:000013d4       ??_C@_0P@MIGLKIOC@CorExitProcess?$AA@ 0044e3d4     LIBCMT:crt0dat.obj
 0002:000013e4       ??_C@_1BI@BGOHAHKC@?$AAm?$AAs?$AAc?$AAo?$AAr?$AAe?$AAe?$AA?4?$AAd?$AAl?$AAl?$AA?$AA@ 0044e3e4     LIBCMT:crt0dat.obj
 0002:00001400       __XcptActTab               0044e400     LIBCMT:winxfltr.obj
 0002:00001478       ??_C@_0BI@DFKBFLJE@GetProcessWindowStation?$AA@ 0044e478     LIBCMT:crtmboxw.obj
 0002:00001490       ??_C@_0BK@DEKFELLI@GetUserObjectInformationW?$AA@ 0044e490     LIBCMT:crtmboxw.obj
 0002:000014ac       ??_C@_0BD@HHGDFDBJ@GetLastActivePopup?$AA@ 0044e4ac     LIBCMT:crtmboxw.obj
 0002:000014c0       ??_C@_0BA@HNOPNCHB@GetActiveWindow?$AA@ 0044e4c0     LIBCMT:crtmboxw.obj
 0002:000014d0       ??_C@_0M@DLDCCGNP@MessageBoxW?$AA@ 0044e4d0     LIBCMT:crtmboxw.obj
 0002:000014dc       ??_C@_1BG@GOEBHBDC@?$AAU?$AAS?$AAE?$AAR?$AA3?$AA2?$AA?4?$AAD?$AAL?$AAL?$AA?$AA@ 0044e4dc     LIBCMT:crtmboxw.obj
 0002:00001514       ??_C@_07LCBHPJJN@LC_TIME?$AA@ 0044e514     LIBCMT:setlocal.obj
 0002:0000151c       ??_C@_0L@DLHIECNL@LC_NUMERIC?$AA@ 0044e51c     LIBCMT:setlocal.obj
 0002:00001528       ??_C@_0M@MIENIKLA@LC_MONETARY?$AA@ 0044e528     LIBCMT:setlocal.obj
 0002:00001534       ??_C@_08EADHIDAD@LC_CTYPE?$AA@ 0044e534     LIBCMT:setlocal.obj
 0002:00001540       ??_C@_0L@KFJHEKIK@LC_COLLATE?$AA@ 0044e540     LIBCMT:setlocal.obj
 0002:0000154c       ??_C@_06NEFDFEKB@LC_ALL?$AA@ 0044e54c     LIBCMT:setlocal.obj
 0002:00001558       ___lc_category             0044e558     LIBCMT:setlocal.obj
 0002:00001620       ??_C@_03EGDHDPFD@_?4?0?$AA@ 0044e620     LIBCMT:setlocal.obj
 0002:00001624       ??_C@_01LFCBOECM@?4?$AA@   0044e624     LIBCMT:setlocal.obj
 0002:00001628       ??_C@_01IDAFKMJL@_?$AA@    0044e628     LIBCMT:setlocal.obj
 0002:0000162c       ??_C@_01ICJEACDI@?$DL?$AA@ 0044e62c     LIBCMT:setlocal.obj
 0002:00001630       ??_C@_01NEMOKFLO@?$DN?$AA@ 0044e630     LIBCMT:setlocal.obj
 0002:00001632       ??_C@_00CNPNBAHC@?$AA@     0044e632     LIBCMT:setlocal.obj
 0002:00001634       ??_C@_01GFHCPBMG@C?$AA@    0044e634     LIBCMT:setlocal.obj
 0002:00001638       ??_C@_02BALPLPBG@?$DN?$DL?$AA@ 0044e638     LIBCMT:setlocal.obj
 0002:0000163c       __pDestructExceptionObject 0044e63c     LIBCMT:frame.obj
 0002:00001644       ??_7bad_exception@std@@6B@ 0044e644     LIBCMT:frame.obj
 0002:0000164c       ??_C@_0O@DPKOEFFH@bad?5exception?$AA@ 0044e64c     LIBCMT:frame.obj
 0002:0000165c       ??_C@_05KLBDPFGC@e?$CL000?$AA@ 0044e65c     LIBCMT:cvt.obj
 0002:00001668       __real@4150017ec0000000    0044e668     LIBCMT:_testfdiv_.obj
 0002:00001670       __real@4147ffff80000000    0044e670     LIBCMT:_testfdiv_.obj
 0002:00001678       ??_C@_0BK@NHEOCAHP@IsProcessorFeaturePresent?$AA@ 0044e678     LIBCMT:_testfdiv_.obj
 0002:00001694       ??_C@_08CPNIBGIE@KERNEL32?$AA@ 0044e694     LIBCMT:_testfdiv_.obj
 0002:000016a0       ??_C@_1O@CEDCILHN@?$AA?$CI?$AAn?$AAu?$AAl?$AAl?$AA?$CJ?$AA?$AA@ 0044e6a0     LIBCMT:output.obj
 0002:000016b0       ??_C@_06OJHGLDPL@?$CInull?$CJ?$AA@ 0044e6b0     LIBCMT:output.obj
 0002:000016b8       ___lookuptable             0044e6b8     LIBCMT:output.obj
 0002:00001714       ??_C@_0BK@CIDNPOGP@GetUserObjectInformationA?$AA@ 0044e714     LIBCMT:crtmbox.obj
 0002:00001730       ??_C@_0M@CHKKJDAI@MessageBoxA?$AA@ 0044e730     LIBCMT:crtmbox.obj
 0002:0000173c       ??_C@_0L@NDEGIDAG@USER32?4DLL?$AA@ 0044e73c     LIBCMT:crtmbox.obj
 0002:00001748       ??_C@_0BK@CFCOFLF@?5Complete?5Object?5Locator?8?$AA@ 0044e748     LIBCMT:undname.obj
 0002:00001764       ??_C@_0BN@MECKDCOJ@?5Class?5Hierarchy?5Descriptor?8?$AA@ 0044e764     LIBCMT:undname.obj
 0002:00001784       ??_C@_0BD@LGICGFMM@?5Base?5Class?5Array?8?$AA@ 0044e784     LIBCMT:undname.obj
 0002:00001798       ??_C@_0BM@LDKODKLH@?5Base?5Class?5Descriptor?5at?5?$CI?$AA@ 0044e798     LIBCMT:undname.obj
 0002:000017b4       ??_C@_0BC@DAFEJGAK@?5Type?5Descriptor?8?$AA@ 0044e7b4     LIBCMT:undname.obj
 0002:000017c8       ??_C@_0BM@PMGGMLDN@?$GAlocal?5static?5thread?5guard?8?$AA@ 0044e7c8     LIBCMT:undname.obj
 0002:000017e4       ??_C@_0CL@FGIJHLCE@?$GAmanaged?5vector?5copy?5constructor@ 0044e7e4     LIBCMT:undname.obj
 0002:00001810       ??_C@_0CJ@GJELGAMM@?$GAvector?5vbase?5copy?5constructor?5i@ 0044e810     LIBCMT:undname.obj
 0002:0000183c       ??_C@_0CD@CGAJBKEJ@?$GAvector?5copy?5constructor?5iterato@ 0044e83c     LIBCMT:undname.obj
 0002:00001860       ??_C@_0CB@PDBIFEP@?$GAdynamic?5atexit?5destructor?5for?5?8@ 0044e860     LIBCMT:undname.obj
 0002:00001884       ??_C@_0BL@CLIPGLGB@?$GAdynamic?5initializer?5for?5?8?$AA@ 0044e884     LIBCMT:undname.obj
 0002:000018a0       ??_C@_0CM@FCBBDIGB@?$GAeh?5vector?5vbase?5copy?5constructo@ 0044e8a0     LIBCMT:undname.obj
 0002:000018cc       ??_C@_0CG@HLDDJMAG@?$GAeh?5vector?5copy?5constructor?5iter@ 0044e8cc     LIBCMT:undname.obj
 0002:000018f4       ??_C@_0CF@IMGKMJNO@?$GAmanaged?5vector?5destructor?5itera@ 0044e8f4     LIBCMT:undname.obj
 0002:0000191c       ??_C@_0CG@CFDHKGGD@?$GAmanaged?5vector?5constructor?5iter@ 0044e91c     LIBCMT:undname.obj
 0002:00001944       ??_C@_0BN@CKNJLHMB@?$GAplacement?5delete?$FL?$FN?5closure?8?$AA@ 0044e944     LIBCMT:undname.obj
 0002:00001964       ??_C@_0BL@CNOONJFP@?$GAplacement?5delete?5closure?8?$AA@ 0044e964     LIBCMT:undname.obj
 0002:00001980       ??_C@_0P@HJKNJFNN@?$GAomni?5callsig?8?$AA@ 0044e980     LIBCMT:undname.obj
 0002:00001990       ??_C@_09LBNFPBCA@?5delete?$FL?$FN?$AA@ 0044e990     LIBCMT:undname.obj
 0002:0000199c       ??_C@_06FHBGPFGH@?5new?$FL?$FN?$AA@ 0044e99c     LIBCMT:undname.obj
 0002:000019a4       ??_C@_0CE@IIHCMGGL@?$GAlocal?5vftable?5constructor?5closu@ 0044e9a4     LIBCMT:undname.obj
 0002:000019c8       ??_C@_0BA@KKLDJDLB@?$GAlocal?5vftable?8?$AA@ 0044e9c8     LIBCMT:undname.obj
 0002:000019d8       ??_C@_05KHLCHHI@?$GARTTI?$AA@ 0044e9d8     LIBCMT:undname.obj
 0002:000019e0       ??_C@_03KLGMFNMG@?$GAEH?$AA@ 0044e9e0     LIBCMT:undname.obj
 0002:000019e4       ??_C@_0BA@KBCDOMBN@?$GAudt?5returning?8?$AA@ 0044e9e4     LIBCMT:undname.obj
 0002:000019f4       ??_C@_0BL@LLKPOHJI@?$GAcopy?5constructor?5closure?8?$AA@ 0044e9f4     LIBCMT:undname.obj
 0002:00001a10       ??_C@_0CH@OOJPLCPH@?$GAeh?5vector?5vbase?5constructor?5ite@ 0044ea10     LIBCMT:undname.obj
 0002:00001a38       ??_C@_0CA@GCEOPDGL@?$GAeh?5vector?5destructor?5iterator?8?$AA@ 0044ea38     LIBCMT:undname.obj
 0002:00001a58       ??_C@_0CB@JONCMFFK@?$GAeh?5vector?5constructor?5iterator?8@ 0044ea58     LIBCMT:undname.obj
 0002:00001a7c       ??_C@_0BL@NILFHHPC@?$GAvirtual?5displacement?5map?8?$AA@ 0044ea7c     LIBCMT:undname.obj
 0002:00001a98       ??_C@_0CE@IKBNEHA@?$GAvector?5vbase?5constructor?5iterat@ 0044ea98     LIBCMT:undname.obj
 0002:00001abc       ??_C@_0BN@LFPFMEDL@?$GAvector?5destructor?5iterator?8?$AA@ 0044eabc     LIBCMT:undname.obj
 0002:00001adc       ??_C@_0BO@PFGOCPJJ@?$GAvector?5constructor?5iterator?8?$AA@ 0044eadc     LIBCMT:undname.obj
 0002:00001afc       ??_C@_0BN@IMDCHIKM@?$GAscalar?5deleting?5destructor?8?$AA@ 0044eafc     LIBCMT:undname.obj
 0002:00001b1c       ??_C@_0BO@OBMKPJIG@?$GAdefault?5constructor?5closure?8?$AA@ 0044eb1c     LIBCMT:undname.obj
 0002:00001b3c       ??_C@_0BN@DEGPLNFK@?$GAvector?5deleting?5destructor?8?$AA@ 0044eb3c     LIBCMT:undname.obj
 0002:00001b5c       ??_C@_0BD@JDLKDPAB@?$GAvbase?5destructor?8?$AA@ 0044eb5c     LIBCMT:undname.obj
 0002:00001b70       ??_C@_08OBABFOLI@?$GAstring?8?$AA@ 0044eb70     LIBCMT:undname.obj
 0002:00001b7c       ??_C@_0BF@KDPPACIK@?$GAlocal?5static?5guard?8?$AA@ 0044eb7c     LIBCMT:undname.obj
 0002:00001b94       ??_C@_08LLFFHHDJ@?$GAtypeof?8?$AA@ 0044eb94     LIBCMT:undname.obj
 0002:00001ba0       ??_C@_07FEEIOKP@?$GAvcall?8?$AA@ 0044eba0     LIBCMT:undname.obj
 0002:00001ba8       ??_C@_09BLBHBJP@?$GAvbtable?8?$AA@ 0044eba8     LIBCMT:undname.obj
 0002:00001bb4       ??_C@_09IFPLHPGF@?$GAvftable?8?$AA@ 0044ebb4     LIBCMT:undname.obj
 0002:00001bc0       ??_C@_02MHEGNOJ@?$FO?$DN?$AA@ 0044ebc0     LIBCMT:undname.obj
 0002:00001bc4       ??_C@_02DHLNPPGH@?$HM?$DN?$AA@ 0044ebc4     LIBCMT:undname.obj
 0002:00001bc8       ??_C@_02FGJGFEAB@?$CG?$DN?$AA@ 0044ebc8     LIBCMT:undname.obj
 0002:00001bcc       ??_C@_03CDNPDDLA@?$DM?$DM?$DN?$AA@ 0044ebcc     LIBCMT:undname.obj
 0002:00001bd0       ??_C@_03IKFCCPFF@?$DO?$DO?$DN?$AA@ 0044ebd0     LIBCMT:undname.obj
 0002:00001bd4       ??_C@_02FENAOKFI@?$CF?$DN?$AA@ 0044ebd4     LIBCMT:undname.obj
 0002:00001bd8       ??_C@_02FJEHGPIO@?1?$DN?$AA@ 0044ebd8     LIBCMT:undname.obj
 0002:00001bdc       ??_C@_02FKMDLLOA@?9?$DN?$AA@ 0044ebdc     LIBCMT:undname.obj
 0002:00001be0       ??_C@_02FOEOMHFC@?$CL?$DN?$AA@ 0044ebe0     LIBCMT:undname.obj
 0002:00001be4       ??_C@_02FPIMKNGF@?$CK?$DN?$AA@ 0044ebe4     LIBCMT:undname.obj
 0002:00001be8       ??_C@_02NONPIBCD@?$HM?$HM?$AA@ 0044ebe8     LIBCMT:undname.obj
 0002:00001bec       ??_C@_02PPKAJPJL@?$CG?$CG?$AA@ 0044ebec     LIBCMT:undname.obj
 0002:00001bf0       ??_C@_01DNKMNLPK@?$HM?$AA@ 0044ebf0     LIBCMT:undname.obj
 0002:00001bf4       ??_C@_01JKBOJNNK@?$FO?$AA@ 0044ebf4     LIBCMT:undname.obj
 0002:00001bf8       ??_C@_01PJKLJHI@?$HO?$AA@  0044ebf8     LIBCMT:undname.obj
 0002:00001bfc       ??_C@_02HCKGKOFO@?$CI?$CJ?$AA@ 0044ebfc     LIBCMT:undname.obj
 0002:00001c00       ??_C@_01IHBHIGKO@?0?$AA@   0044ec00     LIBCMT:undname.obj
 0002:00001c04       ??_C@_02EEKDKGMJ@?$DO?$DN?$AA@ 0044ec04     LIBCMT:undname.obj
 0002:00001c08       ??_C@_01PPODPGHN@?$DO?$AA@ 0044ec08     LIBCMT:undname.obj
 0002:00001c0c       ??_C@_02EHCHHCKH@?$DM?$DN?$AA@ 0044ec0c     LIBCMT:undname.obj
 0002:00001c10       ??_C@_01MNNFJEPP@?$DM?$AA@ 0044ec10     LIBCMT:undname.obj
 0002:00001c14       ??_C@_01FGNFDNOH@?$CF?$AA@ 0044ec14     LIBCMT:undname.obj
 0002:00001c18       ??_C@_01KMDKNFGN@?1?$AA@   0044ec18     LIBCMT:undname.obj
 0002:00001c1c       ??_C@_03MNHNFDLC@?9?$DO?$CK?$AA@ 0044ec1c     LIBCMT:undname.obj
 0002:00001c20       ??_C@_01HNPIGOCE@?$CG?$AA@ 0044ec20     LIBCMT:undname.obj
 0002:00001c24       ??_C@_01MIFGBAGJ@?$CL?$AA@ 0044ec24     LIBCMT:undname.obj
 0002:00001c28       ??_C@_01JOAMLHOP@?9?$AA@   0044ec28     LIBCMT:undname.obj
 0002:00001c2c       ??_C@_02BAABKJLB@?9?9?$AA@ 0044ec2c     LIBCMT:undname.obj
 0002:00001c30       ??_C@_02ECNGHCIF@?$CL?$CL?$AA@ 0044ec30     LIBCMT:undname.obj
 0002:00001c34       ??_C@_01NBENCBCI@?$CK?$AA@ 0044ec34     LIBCMT:undname.obj
 0002:00001c38       ??_C@_02HBOOOICD@?9?$DO?$AA@ 0044ec38     LIBCMT:undname.obj
 0002:00001c3c       ??_C@_08LHJFAFGD@operator?$AA@ 0044ec3c     LIBCMT:undname.obj
 0002:00001c48       ??_C@_02GPECMEKF@?$FL?$FN?$AA@ 0044ec48     LIBCMT:undname.obj
 0002:00001c4c       ??_C@_02FDNJECIE@?$CB?$DN?$AA@ 0044ec4c     LIBCMT:undname.obj
 0002:00001c50       ??_C@_02EGOFBIJA@?$DN?$DN?$AA@ 0044ec50     LIBCMT:undname.obj
 0002:00001c54       ??_C@_01DCLJPIOD@?$CB?$AA@ 0044ec54     LIBCMT:undname.obj
 0002:00001c58       ??_C@_02FODMEDOG@?$DM?$DM?$AA@ 0044ec58     LIBCMT:undname.obj
 0002:00001c5c       ??_C@_02GPIOPFAK@?$DO?$DO?$AA@ 0044ec5c     LIBCMT:undname.obj
 0002:00001c60       ??_C@_07FPCDHGMM@?5delete?$AA@ 0044ec60     LIBCMT:undname.obj
 0002:00001c68       ??_C@_04NIHEBCM@?5new?$AA@ 0044ec68     LIBCMT:undname.obj
 0002:00001c70       ??_C@_0M@GFIIJFMG@__unaligned?$AA@ 0044ec70     LIBCMT:undname.obj
 0002:00001c7c       ??_C@_0L@PILCLIHE@__restrict?$AA@ 0044ec7c     LIBCMT:undname.obj
 0002:00001c88       ??_C@_07JOMMBBKO@__ptr64?$AA@ 0044ec88     LIBCMT:undname.obj
 0002:00001c90       ??_C@_09HIJEGCPM@__clrcall?$AA@ 0044ec90     LIBCMT:undname.obj
 0002:00001c9c       ??_C@_0L@JMKHOMEK@__fastcall?$AA@ 0044ec9c     LIBCMT:undname.obj
 0002:00001ca8       ??_C@_0L@NPHFGOKO@__thiscall?$AA@ 0044eca8     LIBCMT:undname.obj
 0002:00001cb4       ??_C@_09IFJBGAPI@__stdcall?$AA@ 0044ecb4     LIBCMT:undname.obj
 0002:00001cc0       ??_C@_08GHMPAG@__pascal?$AA@ 0044ecc0     LIBCMT:undname.obj
 0002:00001ccc       ??_C@_07KOLFKCDI@__cdecl?$AA@ 0044eccc     LIBCMT:undname.obj
 0002:00001cd4       ??_C@_08EHJDFFNH@__based?$CI?$AA@ 0044ecd4     LIBCMT:undname.obj
 0002:00001e60       ??_C@_13NOLLCAOD@?$AA?$AA?$AA?$AA@ 0044ee60     LIBCMT:a_map.obj
 0002:00001e68       ___newctype                0044ee68     LIBCMT:ctype.obj
 0002:00002168       __wctype                   0044f168     LIBCMT:ctype.obj
 0002:00002370       ___newclmap                0044f370     LIBCMT:ctype.obj
 0002:000024f0       ___newcumap                0044f4f0     LIBCMT:ctype.obj
 0002:00002670       ??_C@_08JCCMCCIL@HH?3mm?3ss?$AA@ 0044f670     LIBCMT:strftime.obj
 0002:0000267c       ??_C@_0BE@CKGJFCPC@dddd?0?5MMMM?5dd?0?5yyyy?$AA@ 0044f67c     LIBCMT:strftime.obj
 0002:00002690       ??_C@_08BPBNCDIB@MM?1dd?1yy?$AA@ 0044f690     LIBCMT:strftime.obj
 0002:0000269c       ??_C@_02CJNFDJBF@PM?$AA@   0044f69c     LIBCMT:strftime.obj
 0002:000026a0       ??_C@_02DEDBPAFC@AM?$AA@   0044f6a0     LIBCMT:strftime.obj
 0002:000026a4       ??_C@_08EDHMEBNP@December?$AA@ 0044f6a4     LIBCMT:strftime.obj
 0002:000026b0       ??_C@_08HCHEGEOA@November?$AA@ 0044f6b0     LIBCMT:strftime.obj
 0002:000026bc       ??_C@_07JJNFCEND@October?$AA@ 0044f6bc     LIBCMT:strftime.obj
 0002:000026c4       ??_C@_09BHHEALKD@September?$AA@ 0044f6c4     LIBCMT:strftime.obj
 0002:000026d0       ??_C@_06LBBHFDDG@August?$AA@ 0044f6d0     LIBCMT:strftime.obj
 0002:000026d8       ??_C@_04MIEPOIFP@July?$AA@ 0044f6d8     LIBCMT:strftime.obj
 0002:000026e0       ??_C@_04CNLMGBGM@June?$AA@ 0044f6e0     LIBCMT:strftime.obj
 0002:000026e8       ??_C@_05DMJDNLEJ@April?$AA@ 0044f6e8     LIBCMT:strftime.obj
 0002:000026f0       ??_C@_05HPCKOFNC@March?$AA@ 0044f6f0     LIBCMT:strftime.obj
 0002:000026f8       ??_C@_08GNJGEPFN@February?$AA@ 0044f6f8     LIBCMT:strftime.obj
 0002:00002704       ??_C@_07CGJPFGJA@January?$AA@ 0044f704     LIBCMT:strftime.obj
 0002:0000270c       ??_C@_03MKABNOCG@Dec?$AA@  0044f70c     LIBCMT:strftime.obj
 0002:00002710       ??_C@_03JPJOFNIA@Nov?$AA@  0044f710     LIBCMT:strftime.obj
 0002:00002714       ??_C@_03BMAOKBAD@Oct?$AA@  0044f714     LIBCMT:strftime.obj
 0002:00002718       ??_C@_03GGCAPAJC@Sep?$AA@  0044f718     LIBCMT:strftime.obj
 0002:0000271c       ??_C@_03IFJFEIGA@Aug?$AA@  0044f71c     LIBCMT:strftime.obj
 0002:00002720       ??_C@_03LBGABGKK@Jul?$AA@  0044f720     LIBCMT:strftime.obj
 0002:00002724       ??_C@_03IDFGHECI@Jun?$AA@  0044f724     LIBCMT:strftime.obj
 0002:00002728       ??_C@_03CNMDKL@May?$AA@    0044f728     LIBCMT:strftime.obj
 0002:0000272c       ??_C@_03LEOLGMJP@Apr?$AA@  0044f72c     LIBCMT:strftime.obj
 0002:00002730       ??_C@_03ODNJBKGA@Mar?$AA@  0044f730     LIBCMT:strftime.obj
 0002:00002734       ??_C@_03HJBDCHOM@Feb?$AA@  0044f734     LIBCMT:strftime.obj
 0002:00002738       ??_C@_03JIHJHPIE@Jan?$AA@  0044f738     LIBCMT:strftime.obj
 0002:0000273c       ??_C@_08INBOOONO@Saturday?$AA@ 0044f73c     LIBCMT:strftime.obj
 0002:00002748       ??_C@_06JECMNKMI@Friday?$AA@ 0044f748     LIBCMT:strftime.obj
 0002:00002750       ??_C@_08HACCIKIA@Thursday?$AA@ 0044f750     LIBCMT:strftime.obj
 0002:0000275c       ??_C@_09DLIGFAKA@Wednesday?$AA@ 0044f75c     LIBCMT:strftime.obj
 0002:00002768       ??_C@_07BAAGCFCM@Tuesday?$AA@ 0044f768     LIBCMT:strftime.obj
 0002:00002770       ??_C@_06JLEDEDGH@Monday?$AA@ 0044f770     LIBCMT:strftime.obj
 0002:00002778       ??_C@_06OOPIFAJ@Sunday?$AA@ 0044f778     LIBCMT:strftime.obj
 0002:00002780       ??_C@_03FEFJNEK@Sat?$AA@   0044f780     LIBCMT:strftime.obj
 0002:00002784       ??_C@_03IDIOELNC@Fri?$AA@  0044f784     LIBCMT:strftime.obj
 0002:00002788       ??_C@_03IOFIKPDN@Thu?$AA@  0044f788     LIBCMT:strftime.obj
 0002:0000278c       ??_C@_03MHOMLAJA@Wed?$AA@  0044f78c     LIBCMT:strftime.obj
 0002:00002790       ??_C@_03NAGEINEP@Tue?$AA@  0044f790     LIBCMT:strftime.obj
 0002:00002794       ??_C@_03PDAGKDH@Mon?$AA@   0044f794     LIBCMT:strftime.obj
 0002:00002798       ??_C@_03KOEHGMDN@Sun?$AA@  0044f798     LIBCMT:strftime.obj
 0002:0000279c       ??_C@_0O@FMJNFNKE@united?9states?$AA@ 0044f79c     LIBCMT:getqloc.obj
 0002:000027ac       ??_C@_0P@NDHFFKCA@united?9kingdom?$AA@ 0044f7ac     LIBCMT:getqloc.obj
 0002:000027bc       ??_C@_0BC@HHDADLGF@trinidad?5?$CG?5tobago?$AA@ 0044f7bc     LIBCMT:getqloc.obj
 0002:000027d0       ??_C@_0M@IOAEBDAC@south?9korea?$AA@ 0044f7d0     LIBCMT:getqloc.obj
 0002:000027dc       ??_C@_0N@FIELFKIJ@south?9africa?$AA@ 0044f7dc     LIBCMT:getqloc.obj
 0002:000027ec       ??_C@_0M@OPNDHCMC@south?5korea?$AA@ 0044f7ec     LIBCMT:getqloc.obj
 0002:000027f8       ??_C@_0N@MDEOEPFI@south?5africa?$AA@ 0044f7f8     LIBCMT:getqloc.obj
 0002:00002808       ??_C@_06FKAPCJLB@slovak?$AA@ 0044f808     LIBCMT:getqloc.obj
 0002:00002810       ??_C@_0M@EFJANOAL@puerto?9rico?$AA@ 0044f810     LIBCMT:getqloc.obj
 0002:0000281c       ??_C@_08PGOJKDAI@pr?9china?$AA@ 0044f81c     LIBCMT:getqloc.obj
 0002:00002828       ??_C@_08JHDOMCMI@pr?5china?$AA@ 0044f828     LIBCMT:getqloc.obj
 0002:00002834       ??_C@_02JHCHFBLL@nz?$AA@   0044f834     LIBCMT:getqloc.obj
 0002:00002838       ??_C@_0M@LINHDHKP@new?9zealand?$AA@ 0044f838     LIBCMT:getqloc.obj
 0002:00002844       ??_C@_09IIIPPBDB@hong?9kong?$AA@ 0044f844     LIBCMT:getqloc.obj
 0002:00002850       ??_C@_07HJLCKBG@holland?$AA@ 0044f850     LIBCMT:getqloc.obj
 0002:00002858       ??_C@_0O@LEHGMHAG@great?5britain?$AA@ 0044f858     LIBCMT:getqloc.obj
 0002:00002868       ??_C@_07FACOMELA@england?$AA@ 0044f868     LIBCMT:getqloc.obj
 0002:00002870       ??_C@_05JIHCEICB@czech?$AA@ 0044f870     LIBCMT:getqloc.obj
 0002:00002878       ??_C@_05BBJOBLGB@china?$AA@ 0044f878     LIBCMT:getqloc.obj
 0002:00002880       ??_C@_07GPKPHICP@britain?$AA@ 0044f880     LIBCMT:getqloc.obj
 0002:00002888       ??_C@_07MHIPBHMG@america?$AA@ 0044f888     LIBCMT:getqloc.obj
 0002:00002890       ??_C@_03KIALPMKC@usa?$AA@  0044f890     LIBCMT:getqloc.obj
 0002:00002894       ??_C@_02FGJGKGGD@us?$AA@   0044f894     LIBCMT:getqloc.obj
 0002:00002898       ??_C@_02NEINDODK@uk?$AA@   0044f898     LIBCMT:getqloc.obj
 0002:0000289c       ??_C@_05JMPCFJFJ@swiss?$AA@ 0044f89c     LIBCMT:getqloc.obj
 0002:000028a4       ??_C@_0BA@HLOCPIOD@swedish?9finland?$AA@ 0044f8a4     LIBCMT:getqloc.obj
 0002:000028b4       ??_C@_0BC@PKCNIABK@spanish?9venezuela?$AA@ 0044f8b4     LIBCMT:getqloc.obj
 0002:000028c8       ??_C@_0BA@GBHHMIJI@spanish?9uruguay?$AA@ 0044f8c8     LIBCMT:getqloc.obj
 0002:000028d8       ??_C@_0BE@BHDOHPMC@spanish?9puerto?5rico?$AA@ 0044f8d8     LIBCMT:getqloc.obj
 0002:000028ec       ??_C@_0N@KMOIDGGN@spanish?9peru?$AA@ 0044f8ec     LIBCMT:getqloc.obj
 0002:000028fc       ??_C@_0BB@HMHLPGPH@spanish?9paraguay?$AA@ 0044f8fc     LIBCMT:getqloc.obj
 0002:00002910       ??_C@_0P@MCPKNGFD@spanish?9panama?$AA@ 0044f910     LIBCMT:getqloc.obj
 0002:00002920       ??_C@_0BC@IHOHGAIL@spanish?9nicaragua?$AA@ 0044f920     LIBCMT:getqloc.obj
 0002:00002934       ??_C@_0P@KLMJDNFJ@spanish?9modern?$AA@ 0044f934     LIBCMT:getqloc.obj
 0002:00002944       ??_C@_0BA@BPAPGBCM@spanish?9mexican?$AA@ 0044f944     LIBCMT:getqloc.obj
 0002:00002954       ??_C@_0BB@PDECHHHE@spanish?9honduras?$AA@ 0044f954     LIBCMT:getqloc.obj
 0002:00002968       ??_C@_0BC@KLHKFGDB@spanish?9guatemala?$AA@ 0044f968     LIBCMT:getqloc.obj
 0002:0000297c       ??_C@_0BE@MFOOKJAI@spanish?9el?5salvador?$AA@ 0044f97c     LIBCMT:getqloc.obj
 0002:00002990       ??_C@_0BA@FCOKFPFC@spanish?9ecuador?$AA@ 0044f990     LIBCMT:getqloc.obj
 0002:000029a0       ??_C@_0BL@PLMGIMOO@spanish?9dominican?5republic?$AA@ 0044f9a0     LIBCMT:getqloc.obj
 0002:000029bc       ??_C@_0BD@HLGDNMHB@spanish?9costa?5rica?$AA@ 0044f9bc     LIBCMT:getqloc.obj
 0002:000029d0       ??_C@_0BB@PKCBKCPE@spanish?9colombia?$AA@ 0044f9d0     LIBCMT:getqloc.obj
 0002:000029e4       ??_C@_0O@MCBIJGNE@spanish?9chile?$AA@ 0044f9e4     LIBCMT:getqloc.obj
 0002:000029f4       ??_C@_0BA@BEFEIGJJ@spanish?9bolivia?$AA@ 0044f9f4     LIBCMT:getqloc.obj
 0002:00002a04       ??_C@_0BC@EMECMPD@spanish?9argentina?$AA@ 0044fa04     LIBCMT:getqloc.obj
 0002:00002a18       ??_C@_0BF@EALFLENP@portuguese?9brazilian?$AA@ 0044fa18     LIBCMT:getqloc.obj
 0002:00002a30       ??_C@_0BC@HBLEBLNN@norwegian?9nynorsk?$AA@ 0044fa30     LIBCMT:getqloc.obj
 0002:00002a44       ??_C@_0BB@HMACDDCK@norwegian?9bokmal?$AA@ 0044fa44     LIBCMT:getqloc.obj
 0002:00002a58       ??_C@_09BAFFPPHE@norwegian?$AA@ 0044fa58     LIBCMT:getqloc.obj
 0002:00002a64       ??_C@_0O@EAJFJDFG@italian?9swiss?$AA@ 0044fa64     LIBCMT:getqloc.obj
 0002:00002a74       ??_C@_0O@CNOMPGD@irish?9english?$AA@ 0044fa74     LIBCMT:getqloc.obj
 0002:00002a84       ??_C@_0N@EDHBGCKG@german?9swiss?$AA@ 0044fa84     LIBCMT:getqloc.obj
 0002:00002a94       ??_C@_0BC@JACMHNBP@german?9luxembourg?$AA@ 0044fa94     LIBCMT:getqloc.obj
 0002:00002aa8       ??_C@_0BE@HBGMGFEG@german?9lichtenstein?$AA@ 0044faa8     LIBCMT:getqloc.obj
 0002:00002abc       ??_C@_0BA@HKKBIBKL@german?9austrian?$AA@ 0044fabc     LIBCMT:getqloc.obj
 0002:00002acc       ??_C@_0N@GCAEPEBK@french?9swiss?$AA@ 0044facc     LIBCMT:getqloc.obj
 0002:00002adc       ??_C@_0BC@DJFJJCK@french?9luxembourg?$AA@ 0044fadc     LIBCMT:getqloc.obj
 0002:00002af0       ??_C@_0BA@NNCEDFIC@french?9canadian?$AA@ 0044faf0     LIBCMT:getqloc.obj
 0002:00002b00       ??_C@_0P@CMPOCLM@french?9belgian?$AA@ 0044fb00     LIBCMT:getqloc.obj
 0002:00002b10       ??_C@_0M@GHHDJOK@english?9usa?$AA@ 0044fb10     LIBCMT:getqloc.obj
 0002:00002b1c       ??_C@_0L@PLDJKEIL@english?9us?$AA@ 0044fb1c     LIBCMT:getqloc.obj
 0002:00002b28       ??_C@_0L@HJCCDMNC@english?9uk?$AA@ 0044fb28     LIBCMT:getqloc.obj
 0002:00002b34       ??_C@_0BK@CKLIAGJB@english?9trinidad?5y?5tobago?$AA@ 0044fb34     LIBCMT:getqloc.obj
 0002:00002b50       ??_C@_0BF@JMJMGNNF@english?9south?5africa?$AA@ 0044fb50     LIBCMT:getqloc.obj
 0002:00002b68       ??_C@_0L@DKIIFDFD@english?9nz?$AA@ 0044fb68     LIBCMT:getqloc.obj
 0002:00002b74       ??_C@_0BA@ONHGJCLH@english?9jamaica?$AA@ 0044fb74     LIBCMT:getqloc.obj
 0002:00002b84       ??_C@_0M@HJBGHOPO@english?9ire?$AA@ 0044fb84     LIBCMT:getqloc.obj
 0002:00002b90       ??_C@_0BC@LFEKMIFB@english?9caribbean?$AA@ 0044fb90     LIBCMT:getqloc.obj
 0002:00002ba4       ??_C@_0M@OLDPFKHI@english?9can?$AA@ 0044fba4     LIBCMT:getqloc.obj
 0002:00002bb0       ??_C@_0P@OMDEHBMP@english?9belize?$AA@ 0044fbb0     LIBCMT:getqloc.obj
 0002:00002bc0       ??_C@_0M@KFHFPFED@english?9aus?$AA@ 0044fbc0     LIBCMT:getqloc.obj
 0002:00002bcc       ??_C@_0BB@MNMBKDFE@english?9american?$AA@ 0044fbcc     LIBCMT:getqloc.obj
 0002:00002be0       ??_C@_0O@KIDLNNBA@dutch?9belgian?$AA@ 0044fbe0     LIBCMT:getqloc.obj
 0002:00002bf0       ??_C@_0BE@JBKABBMH@chinese?9traditional?$AA@ 0044fbf0     LIBCMT:getqloc.obj
 0002:00002c04       ??_C@_0BC@MJJMPKCG@chinese?9singapore?$AA@ 0044fc04     LIBCMT:getqloc.obj
 0002:00002c18       ??_C@_0BD@FDKADDCP@chinese?9simplified?$AA@ 0044fc18     LIBCMT:getqloc.obj
 0002:00002c2c       ??_C@_0BB@DBEFDDME@chinese?9hongkong?$AA@ 0044fc2c     LIBCMT:getqloc.obj
 0002:00002c40       ??_C@_07DHNMFMCI@chinese?$AA@ 0044fc40     LIBCMT:getqloc.obj
 0002:00002c48       ??_C@_03FNDDCHI@chi?$AA@   0044fc48     LIBCMT:getqloc.obj
 0002:00002c4c       ??_C@_03BMMIADDJ@chh?$AA@  0044fc4c     LIBCMT:getqloc.obj
 0002:00002c50       ??_C@_08OAIPJDGI@canadian?$AA@ 0044fc50     LIBCMT:getqloc.obj
 0002:00002c5c       ??_C@_07HBPMNPNJ@belgian?$AA@ 0044fc5c     LIBCMT:getqloc.obj
 0002:00002c64       ??_C@_0L@OEKOPBEL@australian?$AA@ 0044fc64     LIBCMT:getqloc.obj
 0002:00002c70       ??_C@_0BB@MEIMBEDG@american?9english?$AA@ 0044fc70     LIBCMT:getqloc.obj
 0002:00002c84       ??_C@_0BB@DFMDPDGB@american?5english?$AA@ 0044fc84     LIBCMT:getqloc.obj
 0002:00002c98       ??_C@_08IJLOKOLL@american?$AA@ 0044fc98     LIBCMT:getqloc.obj
 0002:00002ca8       ___rg_language             0044fca8     LIBCMT:getqloc.obj
 0002:00002eb0       ___rg_country              0044feb0     LIBCMT:getqloc.obj
 0002:00002f68       ___rglangidNotDefault      0044ff68     LIBCMT:getqloc.obj
 0002:00002f7c       ??_C@_01GBGANLPD@0?$AA@    0044ff7c     LIBCMT:getqloc.obj
 0002:00002f80       ??_C@_03NFKLAGEF@OCP?$AA@  0044ff80     LIBCMT:getqloc.obj
 0002:00002f84       ??_C@_03DFHEHBHG@ACP?$AA@  0044ff84     LIBCMT:getqloc.obj
 0002:00002f88       ??_C@_0BC@NFIEMBLL@Norwegian?9Nynorsk?$AA@ 0044ff88     LIBCMT:getqloc.obj
 0002:00002fa0       ___lookuptable_s           0044ffa0     LIBCMT:outputs.obj
 0002:00002ffc       ___dnames                  0044fffc     LIBCMT:timeset.obj
 0002:00003014       ___mnames                  00450014     LIBCMT:timeset.obj
 0002:0000303c       ??_C@_07GPDNMNG@CONOUT$?$AA@ 0045003c     LIBCMT:initcon.obj
 0002:00003044       ??_C@_06IMKFLFPG@1?$CDQNAN?$AA@ 00450044     LIBCMT:_x10fout_.obj
 0002:0000304c       ??_C@_05DNEBIAHO@1?$CDINF?$AA@ 0045004c     LIBCMT:_x10fout_.obj
 0002:00003054       ??_C@_05PHHOCPM@1?$CDIND?$AA@ 00450054     LIBCMT:_x10fout_.obj
 0002:0000305c       ??_C@_06PGGFOGJG@1?$CDSNAN?$AA@ 0045005c     LIBCMT:_x10fout_.obj
 0002:00003064       ??_C@_1BA@DNKKBBGG@?$AAV?$AAe?$AAr?$AAd?$AAa?$AAn?$AAa?$AA?$AA@ 00450064     game_app.obj
 0002:00003074       ??_C@_1BC@KNCGDCAL@?$AAS?$AAn?$AAa?$AAp?$AA?5?$AAI?$AAT?$AAC?$AA?$AA@ 00450074     game_app.obj
 0002:00003088       ??_C@_19KOJIGNOD@?$AA?4?$AAm?$AAa?$AAp?$AA?$AA@ 00450088     game_app.obj
 0002:00003094       ??_C@_1BA@OOGGKGGN@?$AA?4?$AA?1?$AAm?$AAa?$AAp?$AAs?$AA?1?$AA?$AA@ 00450094     game_app.obj
 0002:000030a4       ??_C@_0BE@JONHPENG@map?1set?$DMT?$DO?5too?5long?$AA@ 004500a4     game_app.obj
 0002:000030b8       ??_C@_0BB@MOGOBHAF@list?$DMT?$DO?5too?5long?$AA@ 004500b8     game_app.obj
 0002:000030cc       ??_C@_0BC@KBDMBKEH@deque?$DMT?$DO?5too?5long?$AA@ 004500cc     game_app.obj
 0002:000030e0       ??_C@_0BP@EDPINLBI@Resource?5with?5id?5already?5exist?$AA@ 004500e0     game_app.obj
 0002:00003100       ??_C@_0DP@JLMAKMBI@?$FLSmartPointer?5Exception?$FN?5Attempt@ 00450100     game_app.obj
 0002:00003140       ??_C@_0CB@LHHECHL@Event_Game_ChangeState?5?$FLid?5?$DN?5?$CFd?$FN@ 00450140     game_app.obj
 0002:00003164       ??_C@_0CE@MAOKBNFK@Event_Game_ForwardToState?5?$FLid?5?$DN?5@ 00450164     game_app.obj
 0002:00003188       ??_C@_0CD@IGIIOIGA@Event_Game_BackwardToPreviousSta@ 00450188     game_app.obj
 0002:000031ac       ??_C@_0BM@PAPJHAGI@invalid?5map?1set?$DMT?$DO?5iterator?$AA@ 004501ac     game_app.obj
 0002:000031c8       ?npos@?$basic_string@_WU?$char_traits@_W@std@@V?$allocator@_W@2@@std@@2IB 004501c8     game_app.obj
 0002:000031d0       ??_7NullPointerException@Pegas@@6B@ 004501d0     game_app.obj
 0002:000031dc       ??_7Event@Pegas@@6B@       004501dc     game_app.obj
 0002:000031ec       ??_7ISerializer@Pegas@@6B@ 004501ec     game_app.obj
 0002:0000323c       ??_7Event_Game_ChangeState@Pegas@@6B@ 0045023c     game_app.obj
 0002:00003248       ??_7Event_Game_ForwardToState@Pegas@@6B@ 00450248     game_app.obj
 0002:00003254       ??_7Event_Game_BackwardToPreviousState@Pegas@@6B@ 00450254     game_app.obj
 0002:00003264       ??_7File@Pegas@@6B@        00450264     game_app.obj
 0002:000032b4       ??_7GameApplication@Pegas@@6BIPlatformContext@1@@ 004502b4     pacman.obj
 0002:000032f4       ??_7GameApplication@Pegas@@6BIEventListener@1@@ 004502f4     pacman.obj
 0002:00003300       ??_C@_0BA@EONMOJPA@GameApplication?$AA@ 00450300     pacman.obj
 0002:00003314       ??_7GrafManager@Pegas@@6B@ 00450314     pacman.obj
 0002:00003354       ??_7SoundManager@Pegas@@6B@ 00450354     pacman.obj
 0002:00003360       ??_7OSUtils@Pegas@@6B@     00450360     pacman.obj
 0002:00003380       ??_7IEventListener@Pegas@@6B@ 00450380     pacman.obj
 0002:00003390       ??_7EventManager@Pegas@@6B@ 00450390     pacman.obj
 0002:00003398       ??_7ProcessManager@Pegas@@6B@ 00450398     pacman.obj
 0002:000033a0       ??_7?$ResourceManager@VStringResource@Pegas@@UIntResourceCode@2@@Pegas@@6B@ 004503a0     pacman.obj
 0002:000033a8       ??_7?$ResourceManager@VSoundResource@Pegas@@UIntResourceCode@2@@Pegas@@6B@ 004503a8     pacman.obj
 0002:000033b0       ??_7?$ResourceManager@VTextureResource@Pegas@@UIntResourceCode@2@@Pegas@@6B@ 004503b0     pacman.obj
 0002:000033b8       ??_7?$ResourceManager@VFontResource@Pegas@@UFontResourceCode@2@@Pegas@@6B@ 004503b8     pacman.obj
 0002:000033c0       ??_7WindowsOSUtils@Pegas@@6B@ 004503c0     pacman.obj
 0002:000033e0       ??_7WinMMSoundManager@Pegas@@6B@ 004503e0     pacman.obj
 0002:000033ec       ??_7EllipseTexture@Pegas@@6B@ 004503ec     pacman.obj
 0002:00003404       ??_7OGLGrafManager@Pegas@@6B@ 00450404     pacman.obj
 0002:00003440       ??_C@_0P@GHFPNOJB@bad?5allocation?$AA@ 00450440     stdafx.obj
 0002:00003450       ??_C@_0M@LIKGKCPA@BaseAIState?$AA@ 00450450     game_ai.obj
 0002:00003460       ??_7BaseAIState@Pegas@@6BProcess@1@@ 00450460     game_ai.obj
 0002:0000348c       ??_7BaseAIState@Pegas@@6BIEventListener@1@@ 0045048c     game_ai.obj
 0002:0000349c       ??_7BlinkyChaseState@Pegas@@6BProcess@1@@ 0045049c     game_ai.obj
 0002:000034c8       ??_7BlinkyChaseState@Pegas@@6BIEventListener@1@@ 004504c8     game_ai.obj
 0002:000034d8       ??_7PinkyChaseState@Pegas@@6BProcess@1@@ 004504d8     game_ai.obj
 0002:00003504       ??_7PinkyChaseState@Pegas@@6BIEventListener@1@@ 00450504     game_ai.obj
 0002:00003514       ??_7InkyChaseState@Pegas@@6BProcess@1@@ 00450514     game_ai.obj
 0002:00003540       ??_7InkyChaseState@Pegas@@6BIEventListener@1@@ 00450540     game_ai.obj
 0002:00003550       ??_7ClydeChaseState@Pegas@@6BProcess@1@@ 00450550     game_ai.obj
 0002:0000357c       ??_7ClydeChaseState@Pegas@@6BIEventListener@1@@ 0045057c     game_ai.obj
 0002:0000358c       ??_7RunawayState@Pegas@@6BProcess@1@@ 0045058c     game_ai.obj
 0002:000035b8       ??_7RunawayState@Pegas@@6BIEventListener@1@@ 004505b8     game_ai.obj
 0002:000035c8       ??_7PrayState@Pegas@@6BProcess@1@@ 004505c8     game_ai.obj
 0002:000035f8       ??_7PrayState@Pegas@@6BIEventListener@1@@ 004505f8     game_ai.obj
 0002:00003608       ??_7Event_ChangeDirection@Pegas@@6B@ 00450608     game_ai.obj
 0002:00003614       ??_7Event_CharacterChangeState@Pegas@@6B@ 00450614     game_ai.obj
 0002:0000361c       ??_C@_0BD@OLBABOEK@vector?$DMT?$DO?5too?5long?$AA@ 0045061c     game_ai.obj
 0002:00003630       ??_C@_0BG@IDMHCFEN@Event_ChangeDirection?$AA@ 00450630     game_events.obj
 0002:00003648       ??_C@_0BO@JOFIEFDG@Event_CancelChangingDirection?$AA@ 00450648     game_events.obj
 0002:00003668       ??_C@_0BH@NFIAAIEA@Event_DirectionChanged?$AA@ 00450668     game_events.obj
 0002:00003680       ??_C@_0BH@NJKDHPHM@Event_CharacterStopped?$AA@ 00450680     game_events.obj
 0002:00003698       ??_C@_0BG@KHPODJFL@Event_CharacterMoveOn?$AA@ 00450698     game_events.obj
 0002:000036b0       ??_C@_0BG@IKBKAEGJ@Event_CharacterKilled?$AA@ 004506b0     game_events.obj
 0002:000036c8       ??_C@_0BF@EFGFILNC@Event_CharacterMoved?$AA@ 004506c8     game_events.obj
 0002:000036e0       ??_C@_0BM@MNBPNAIN@Event_CharacterStateChanged?$AA@ 004506e0     game_events.obj
 0002:000036fc       ??_C@_0BL@HNOFCBJD@Event_CharacterChangeState?$AA@ 004506fc     game_events.obj
 0002:00003718       ??_C@_0BI@JNJCHCGB@Event_CharacterTonnelIn?$AA@ 00450718     game_events.obj
 0002:00003730       ??_C@_0BJ@EEGDGMAD@Event_CharacterTonnelOut?$AA@ 00450730     game_events.obj
 0002:0000374c       ??_C@_0BE@DGELDJBC@Event_ShowCharacter?$AA@ 0045074c     game_events.obj
 0002:00003760       ??_C@_0BE@EFFPDOBC@Event_HideCharacter?$AA@ 00450760     game_events.obj
 0002:00003774       ??_C@_0BN@GHNJKFIB@Event_EnableCharacterControl?$AA@ 00450774     game_events.obj
 0002:00003794       ??_C@_0BO@MLKANJHL@Event_DisableCharacterControl?$AA@ 00450794     game_events.obj
 0002:000037b4       ??_C@_0BK@OFFMJHCF@Event_PacmanSwallowedPill?$AA@ 004507b4     game_events.obj
 0002:000037d0       ??_C@_0BC@HBDHNHLI@Event_PacmanDeath?$AA@ 004507d0     game_events.obj
 0002:000037e4       ??_C@_0BK@KCGFGBJB@Event_PacmanDeathComplete?$AA@ 004507e4     game_events.obj
 0002:00003800       ??_C@_0BD@GLHCHJNO@Event_SuperForceOn?$AA@ 00450800     game_events.obj
 0002:00003814       ??_C@_0BE@FMLEBADD@Event_SuperForceOff?$AA@ 00450814     game_events.obj
 0002:00003828       ??_C@_0BH@FCBINLPD@Event_SuperForcePreOff?$AA@ 00450828     game_events.obj
 0002:00003840       ??_C@_0O@PNONMKDB@Event_BonusOn?$AA@ 00450840     game_events.obj
 0002:00003850       ??_C@_0P@GMJHHAGJ@Event_BonusOff?$AA@ 00450850     game_events.obj
 0002:00003860       ??_C@_0BC@LGEACEMI@Event_ResetActors?$AA@ 00450860     game_events.obj
 0002:00003874       ??_C@_0BC@LDEECEKG@Event_RestartGame?$AA@ 00450874     game_events.obj
 0002:00003888       ??_C@_0BH@IGHHKKCH@Event_HUD_LevelChanged?$AA@ 00450888     game_events.obj
 0002:000038a0       ??_C@_0BI@JGIPJPND@Event_HUD_ScoresChanged?$AA@ 004508a0     game_events.obj
 0002:000038b8       ??_C@_0BH@PAAEGKAG@Event_HUD_LivesChanged?$AA@ 004508b8     game_events.obj
 0002:000038d0       ??_C@_0P@FHJKMFIO@Event_HUD_Frag?$AA@ 004508d0     game_events.obj
 0002:000038e0       ??_C@_0BD@NIFCNPFC@Event_HUD_NewLevel?$AA@ 004508e0     game_events.obj
 0002:000038f4       ??_C@_0BD@IHHMPDHK@Event_HUD_GetReady?$AA@ 004508f4     game_events.obj
 0002:00003908       ??_C@_0BD@EMIGPIPH@Event_HUD_GameOver?$AA@ 00450908     game_events.obj
 0002:0000391c       ??_C@_09EDIHJNKH@Character?$AA@ 0045091c     game_objects.obj
 0002:0000392c       ??_7Character@Pegas@@6B@   0045092c     game_objects.obj
 0002:00003950       ??_7Pacman@Pegas@@6B@      00450950     game_objects.obj
 0002:00003974       ??_7Ghost@Pegas@@6B@       00450974     game_objects.obj
 0002:00003998       ??_7Event_DirectionChanged@Pegas@@6B@ 00450998     game_objects.obj
 0002:000039a4       ??_7Event_CharacterStopped@Pegas@@6B@ 004509a4     game_objects.obj
 0002:000039b0       ??_7Event_CharacterMoveOn@Pegas@@6B@ 004509b0     game_objects.obj
 0002:000039bc       ??_7Event_CharacterMoved@Pegas@@6B@ 004509bc     game_objects.obj
 0002:000039c8       ??_7Event_CharacterStateChanged@Pegas@@6B@ 004509c8     game_objects.obj
 0002:000039d4       ??_7Event_HideCharacter@Pegas@@6B@ 004509d4     game_objects.obj
 0002:000039e0       ??_7Event_PacmanSwallowedPill@Pegas@@6B@ 004509e0     game_objects.obj
 0002:000039ec       ??_7Event_CharacterTonnelIn@Pegas@@6B@ 004509ec     game_objects.obj
 0002:000039f8       ??_7Event_CharacterKilled@Pegas@@6B@ 004509f8     game_objects.obj
 0002:00003a04       ??_7Event_PacmanDeathComplete@Pegas@@6B@ 00450a04     game_objects.obj
 0002:00003a0c       ??_C@_09DCOIOELM@GameWorld?$AA@ 00450a0c     game_world.obj
 0002:00003a18       ??_C@_0CE@EEGKFNNJ@Event_HUD_LevelChanged?5?$FLlevel?5?$DN?5@ 00450a18     game_world.obj
 0002:00003a3c       ??_C@_0CN@FMBGEPL@Event_HUD_NewLevel?5?$FLlevel?5?$DN?5?$CFd?0?5@ 00450a3c     game_world.obj
 0002:00003a6c       ??_C@_0CG@BEPFIEEH@Event_HUD_ScoresChanged?5?$FLscores?5@ 00450a6c     game_world.obj
 0002:00003a94       ??_C@_0CE@EJDAGHNE@Event_HUD_LivesChanged?5?$FLlives?5?$DN?5@ 00450a94     game_world.obj
 0002:00003ab8       ??_C@_0DB@JOGKFMGM@Event_HUD_Frag?5?$FLscores?5?$DN?5?$CFd?0?5x?5?$DN@ 00450ab8     game_world.obj
 0002:00003aec       ??_C@_0BP@CPIKGOBH@Event_HUD_GetReady?5?$FLshow?5?$DN?5?$CFd?$FN?$AA@ 00450aec     game_world.obj
 0002:00003b0c       ??_C@_0BP@MPDPAGJI@Event_HUD_GameOver?5?$FLshow?5?$DN?5?$CFd?$FN?$AA@ 00450b0c     game_world.obj
 0002:00003d28       ?k_keyCodeESCAPE@IKeyboardController@Pegas@@2HB 00450d28     engine:interfaces.obj
 0002:00003d2c       ?k_keyCodeTAB@IKeyboardController@Pegas@@2HB 00450d2c     engine:interfaces.obj
 0002:00003d30       ?k_keyCodeENTER@IKeyboardController@Pegas@@2HB 00450d30     engine:interfaces.obj
 0002:00003d34       ?k_keyCodeSPACE@IKeyboardController@Pegas@@2HB 00450d34     engine:interfaces.obj
 0002:00003d38       ?k_keyCodeCTRL@IKeyboardController@Pegas@@2HB 00450d38     engine:interfaces.obj
 0002:00003d3c       ?k_keyCodeLEFT@IKeyboardController@Pegas@@2HB 00450d3c     engine:interfaces.obj
 0002:00003d40       ?k_keyCodeUP@IKeyboardController@Pegas@@2HB 00450d40     engine:interfaces.obj
 0002:00003d44       ?k_keyCodeRIGHT@IKeyboardController@Pegas@@2HB 00450d44     engine:interfaces.obj
 0002:00003d48       ?k_keyCodeDOWN@IKeyboardController@Pegas@@2HB 00450d48     engine:interfaces.obj
 0002:00003d4c       ?k_keyCode_0@IKeyboardController@Pegas@@2HB 00450d4c     engine:interfaces.obj
 0002:00003d50       ?k_keyCode_1@IKeyboardController@Pegas@@2HB 00450d50     engine:interfaces.obj
 0002:00003d54       ?k_keyCode_2@IKeyboardController@Pegas@@2HB 00450d54     engine:interfaces.obj
 0002:00003d58       ?k_keyCode_3@IKeyboardController@Pegas@@2HB 00450d58     engine:interfaces.obj
 0002:00003d5c       ?k_keyCode_4@IKeyboardController@Pegas@@2HB 00450d5c     engine:interfaces.obj
 0002:00003d60       ?k_keyCode_5@IKeyboardController@Pegas@@2HB 00450d60     engine:interfaces.obj
 0002:00003d64       ?k_keyCode_6@IKeyboardController@Pegas@@2HB 00450d64     engine:interfaces.obj
 0002:00003d68       ?k_keyCode_7@IKeyboardController@Pegas@@2HB 00450d68     engine:interfaces.obj
 0002:00003d6c       ?k_keyCode_8@IKeyboardController@Pegas@@2HB 00450d6c     engine:interfaces.obj
 0002:00003d70       ?k_keyCode_9@IKeyboardController@Pegas@@2HB 00450d70     engine:interfaces.obj
 0002:00003d74       ?k_keyCode_A@IKeyboardController@Pegas@@2HB 00450d74     engine:interfaces.obj
 0002:00003d78       ?k_keyCode_B@IKeyboardController@Pegas@@2HB 00450d78     engine:interfaces.obj
 0002:00003d7c       ?k_keyCode_C@IKeyboardController@Pegas@@2HB 00450d7c     engine:interfaces.obj
 0002:00003d80       ?k_keyCode_Q@IKeyboardController@Pegas@@2HB 00450d80     engine:interfaces.obj
 0002:00003d84       ?k_keyCode_S@IKeyboardController@Pegas@@2HB 00450d84     engine:interfaces.obj
 0002:00003d88       ?k_keyCode_W@IKeyboardController@Pegas@@2HB 00450d88     engine:interfaces.obj
 0002:00003e68       ?MAX_INT32@Pegas@@3HB      00450e68     engine:types.obj
 0002:00003e6c       ?MAX_REAL32@Pegas@@3MB     00450e6c     engine:types.obj
 0002:00003ee8       ?kTimeNoLimit@ProcessManager@Pegas@@2HB 00450ee8     engine:processes.obj
 0002:00004344       ?k_logoWidth@MainMenuLayer@Pegas@@0MB 00451344     pacman_game_screens.obj
 0002:00004348       ?k_logoHeight@MainMenuLayer@Pegas@@0MB 00451348     pacman_game_screens.obj
 0002:00004364       ?k_baseSuperForceTime@GameWorld@Pegas@@0MB 00451364     game_world.obj
 0002:00004368       ??_C@_1BO@MMOOMICP@?$AAm?$AAa?$AAz?$AAe?$AA_?$AA?$CF?$AAd?$AA_?$AA?$CF?$AAd?$AA?4?$AAm?$AAa?$AAp?$AA?$AA@ 00451368     game_world.obj
 0002:00004388       ??_C@_0L@IPBIFIDN@loading?4?4?4?$AA@ 00451388     game_world.obj
 0002:00004394       ??_C@_0BB@OBGLEHND@loading?5complete?$AA@ 00451394     game_world.obj
 0002:000043a8       ??_C@_0BC@KCIDILFK@can?5not?5open?5file?$AA@ 004513a8     game_world.obj
 0002:000043bc       ??_C@_0N@DOGPGK@FaderProcess?$AA@ 004513bc     game_world.obj
 0002:000043d0       ??_7?$FaderProcess@UEvent_GUI_StartFadein@Pegas@@UEvent_GUI_FadeinComplete@2@@Pegas@@6BProcess@1@@ 004513d0     game_world.obj
 0002:000043f0       ??_7?$FaderProcess@UEvent_GUI_StartFadein@Pegas@@UEvent_GUI_FadeinComplete@2@@Pegas@@6BIEventListener@1@@ 004513f0     game_world.obj
 0002:00004400       ??_7GameWorld@Pegas@@6B@   00451400     game_world.obj
 0002:00004410       ??_7Event_EnableCharacterControl@Pegas@@6B@ 00451410     game_world.obj
 0002:0000441c       ??_7Event_DisableCharacterControl@Pegas@@6B@ 0045141c     game_world.obj
 0002:00004428       ??_7Event_CharacterTonnelOut@Pegas@@6B@ 00451428     game_world.obj
 0002:00004434       ??_7Event_PacmanDeath@Pegas@@6B@ 00451434     game_world.obj
 0002:00004440       ??_7Event_SuperForceOn@Pegas@@6B@ 00451440     game_world.obj
 0002:0000444c       ??_7Event_SuperForceOff@Pegas@@6B@ 0045144c     game_world.obj
 0002:00004458       ??_7Event_SuperForcePreOff@Pegas@@6B@ 00451458     game_world.obj
 0002:00004464       ??_7Event_ResetActors@Pegas@@6B@ 00451464     game_world.obj
 0002:00004470       ??_7Event_RestartGame@Pegas@@6B@ 00451470     game_world.obj
 0002:0000447c       ??_7Event_HUD_LevelChanged@Pegas@@6B@ 0045147c     game_world.obj
 0002:00004488       ??_7Event_HUD_NewLevel@Pegas@@6B@ 00451488     game_world.obj
 0002:00004494       ??_7Event_HUD_ScoresChanged@Pegas@@6B@ 00451494     game_world.obj
 0002:000044a0       ??_7Event_HUD_LivesChanged@Pegas@@6B@ 004514a0     game_world.obj
 0002:000044ac       ??_7Event_HUD_Frag@Pegas@@6B@ 004514ac     game_world.obj
 0002:000044b8       ??_7Event_HUD_GetReady@Pegas@@6B@ 004514b8     game_world.obj
 0002:000044c4       ??_7Event_HUD_GameOver@Pegas@@6B@ 004514c4     game_world.obj
 0002:000044cc       ??_C@_0CE@LENMAHPP@Event_GUI_StartFadein?5?$FLtime?5?$DN?5?$CF?4@ 004514cc     game_world.obj
 0002:000044f0       ??_C@_0CA@CPABDBHF@Event_GUI_FadeOn?5?$FLpercent?5?$DN?5?$CFd?$FN?$AA@ 004514f0     game_world.obj
 0002:00004510       ??_C@_0BC@KCHAMBF@Event_GUI_FadeOff?$AA@ 00451510     game_world.obj
 0002:00004528       ??_7Event_GUI_StartFadein@Pegas@@6B@ 00451528     game_world.obj
 0002:00004534       ??_7Event_GUI_FadeOn@Pegas@@6B@ 00451534     game_world.obj
 0002:00004540       ??_7Event_GUI_FadeOff@Pegas@@6B@ 00451540     game_world.obj
 0002:0000454c       ??_7ChangeStateTask@Pegas@@6B@ 0045154c     game_world.obj
 0002:00004568       ??_C@_0M@KHIMLLPP@EditorLayer?$AA@ 00451568     editor.obj
 0002:00004574       ??_C@_19MMMJOANK@?$AAs?$AAa?$AAv?$AAe?$AA?$AA@ 00451574     editor.obj
 0002:00004580       ??_C@_19KJIJHNML@?$AAl?$AAo?$AAa?$AAd?$AA?$AA@ 00451580     editor.obj
 0002:0000458c       ??_C@_09FONHNCGI@saving?4?4?4?$AA@ 0045158c     editor.obj
 0002:00004598       ??_C@_0BA@OEBLNHPD@saving?5complete?$AA@ 00451598     editor.obj
 0002:000045a8       ??_C@_0BE@CJBDMANO@can?5not?5create?5file?$AA@ 004515a8     editor.obj
 0002:000045bc       ??_C@_1DM@BHEGPGJM@?$AAc?$AAu?$AAr?$AAr?$AAe?$AAn?$AAt?$AA?5?$AAm?$AAo?$AAd?$AAe?$AA?3?$AA?5?$AAt?$AAi?$AAl?$AAe?$AAs?$AA?5?$AAp?$AAl?$AAa?$AAc?$AAe?$AAm?$AAe?$AAn?$AAt?$AA?$AA@ 004515bc     editor.obj
 0002:000045f8       ??_C@_1BI@ILMOPNJJ@?$AA?$FL?$AAp?$AAr?$AAe?$AAy?$AA?5?$AAg?$AAo?$AAa?$AAl?$AA?$FN?$AA?$AA@ 004515f8     editor.obj
 0002:00004610       ??_C@_1EM@DLFIOEGF@?$AAc?$AAu?$AAr?$AAr?$AAe?$AAn?$AAt?$AA?5?$AAm?$AAo?$AAd?$AAe?$AA?3?$AA?5?$AAw?$AAa?$AAl?$AAl?$AA?5?$AAo?$AAb?$AAs?$AAt?$AAa?$AAc?$AAl?$AAe?$AA?5?$AAp?$AAl?$AAa?$AAc@ 00451610     editor.obj
 0002:0000465c       ??_C@_1BM@BCIPJPAE@?$AA?$FL?$AAb?$AAl?$AAi?$AAn?$AAk?$AAy?$AA?5?$AAg?$AAo?$AAa?$AAl?$AA?$FN?$AA?$AA@ 0045165c     editor.obj
 0002:00004678       ??_C@_1EG@IFBLKBEK@?$AAc?$AAu?$AAr?$AAr?$AAe?$AAn?$AAt?$AA?5?$AAm?$AAo?$AAd?$AAe?$AA?3?$AA?5?$AAs?$AAu?$AAp?$AAe?$AAr?$AA?5?$AAp?$AAi?$AAl?$AAl?$AA?5?$AAp?$AAl?$AAa?$AAc?$AAe?$AAm?$AAe@ 00451678     editor.obj
 0002:000046c0       ??_C@_1BK@BHJBJCLO@?$AA?$FL?$AAp?$AAi?$AAn?$AAk?$AAy?$AA?5?$AAg?$AAo?$AAa?$AAl?$AA?$FN?$AA?$AA@ 004516c0     editor.obj
 0002:000046dc       ??_C@_1DO@FBBJEMHE@?$AAc?$AAu?$AAr?$AAr?$AAe?$AAn?$AAt?$AA?5?$AAm?$AAo?$AAd?$AAe?$AA?3?$AA?5?$AAp?$AAa?$AAc?$AAm?$AAa?$AAn?$AA?5?$AAp?$AAl?$AAa?$AAc?$AAe?$AAm?$AAe?$AAn?$AAt?$AA?$AA@ 004516dc     editor.obj
 0002:0000471c       ??_C@_1BI@KGIPHBFP@?$AA?$FL?$AAi?$AAn?$AAk?$AAy?$AA?5?$AAg?$AAo?$AAa?$AAl?$AA?$FN?$AA?$AA@ 0045171c     editor.obj
 0002:00004738       ??_C@_1EE@OHDPGJJP@?$AAc?$AAu?$AAr?$AAr?$AAe?$AAn?$AAt?$AA?5?$AAm?$AAo?$AAd?$AAe?$AA?3?$AA?5?$AAr?$AAo?$AAo?$AAm?$AA?5?$AAd?$AAo?$AAo?$AAr?$AA?5?$AAp?$AAl?$AAa?$AAc?$AAe?$AAm?$AAe?$AAn@ 00451738     editor.obj
 0002:0000477c       ??_C@_1BK@MNJFPHOD@?$AA?$FL?$AAc?$AAl?$AAy?$AAd?$AAe?$AA?5?$AAg?$AAo?$AAa?$AAl?$AA?$FN?$AA?$AA@ 0045177c     editor.obj
 0002:00004798       ??_C@_1DO@GNKPAHBI@?$AAc?$AAu?$AAr?$AAr?$AAe?$AAn?$AAt?$AA?5?$AAm?$AAo?$AAd?$AAe?$AA?3?$AA?5?$AAt?$AAo?$AAn?$AAn?$AAe?$AAl?$AA?5?$AAp?$AAl?$AAa?$AAc?$AAe?$AAm?$AAe?$AAn?$AAt?$AA?$AA@ 00451798     editor.obj
 0002:000047d8       ??_C@_1DO@BCJGCNMA@?$AAc?$AAu?$AAr?$AAr?$AAe?$AAn?$AAt?$AA?5?$AAm?$AAo?$AAd?$AAe?$AA?3?$AA?5?$AAb?$AAl?$AAi?$AAn?$AAk?$AAy?$AA?5?$AAp?$AAl?$AAa?$AAc?$AAe?$AAm?$AAe?$AAn?$AAt?$AA?$AA@ 004517d8     editor.obj
 0002:00004818       ??_C@_1DM@EGGBGDA@?$AAc?$AAu?$AAr?$AAr?$AAe?$AAn?$AAt?$AA?5?$AAm?$AAo?$AAd?$AAe?$AA?3?$AA?5?$AAp?$AAi?$AAn?$AAk?$AAy?$AA?5?$AAp?$AAl?$AAa?$AAc?$AAe?$AAm?$AAe?$AAn?$AAt?$AA?$AA@ 00451818     editor.obj
 0002:00004854       ??_C@_1DK@GFFAKNCL@?$AAc?$AAu?$AAr?$AAr?$AAe?$AAn?$AAt?$AA?5?$AAm?$AAo?$AAd?$AAe?$AA?3?$AA?5?$AAi?$AAn?$AAk?$AAy?$AA?5?$AAp?$AAl?$AAa?$AAc?$AAe?$AAm?$AAe?$AAn?$AAt?$AA?$AA@ 00451854     editor.obj
 0002:00004890       ??_C@_1DM@ELBPLGIL@?$AAc?$AAu?$AAr?$AAr?$AAe?$AAn?$AAt?$AA?5?$AAm?$AAo?$AAd?$AAe?$AA?3?$AA?5?$AAc?$AAl?$AAy?$AAd?$AAe?$AA?5?$AAp?$AAl?$AAa?$AAc?$AAe?$AAm?$AAe?$AAn?$AAt?$AA?$AA@ 00451890     editor.obj
 0002:000048cc       ??_C@_1DM@GDCLGEDI@?$AAc?$AAu?$AAr?$AAr?$AAe?$AAn?$AAt?$AA?5?$AAm?$AAo?$AAd?$AAe?$AA?3?$AA?5?$AAb?$AAo?$AAn?$AAu?$AAs?$AA?5?$AAp?$AAl?$AAa?$AAc?$AAe?$AAm?$AAe?$AAn?$AAt?$AA?$AA@ 004518cc     editor.obj
 0002:00004908       ??_C@_1EG@CGAPCLMO@?$AAc?$AAu?$AAr?$AAr?$AAe?$AAn?$AAt?$AA?5?$AAm?$AAo?$AAd?$AAe?$AA?3?$AA?5?$AAg?$AAo?$AAa?$AAl?$AA?5?$AAn?$AAo?$AAd?$AAe?$AA?5?$AAp?$AAl?$AAa?$AAc?$AAe?$AAm?$AAe?$AAn@ 00451908     editor.obj
 0002:00004950       ??_C@_11LOCGONAA@?$AA?$AA@ 00451950     editor.obj
 0002:00004954       ??_C@_0CF@CEOMFDBL@tile?5clicked?5?$FLrow?5?$DN?5?$CFd?0?5column?5?$DN@ 00451954     editor.obj
 0002:00004980       ??_7EditorLayer@Pegas@@6BIScreenLayer@1@@ 00451980     editor.obj
 0002:0000499c       ??_7EditorLayer@Pegas@@6BIKeyboardController@1@@ 0045199c     editor.obj
 0002:000049b0       ??_7EditorLayer@Pegas@@6BIMouseController@1@@ 004519b0     editor.obj
 0002:000049c8       ??_7EditorLayer@Pegas@@6B@ 004519c8     editor.obj
 0002:000049d8       ??_7Editor@Pegas@@6BIGameState@1@@ 004519d8     editor.obj
 0002:000049f0       ??_7Editor@Pegas@@6BIKeyboardController@1@@ 004519f0     editor.obj
 0002:00004a04       ??_7Editor@Pegas@@6BIMouseController@1@@ 00451a04     editor.obj
 0002:00004a18       ??_C@_0CF@CONNJFH@Event_GUI_StartFadeout?5?$FLtime?5?$DN?5?$CF@ 00451a18     editor.obj
 0002:00004a40       ??_C@_17DNKGFJB@?$AAG?$AAU?$AAI?$AA?$AA@ 00451a40     editor.obj
 0002:00004a4c       ??_7IKeyboardController@Pegas@@6B@ 00451a4c     editor.obj
 0002:00004a60       ??_7IMouseController@Pegas@@6B@ 00451a60     editor.obj
 0002:00004a78       ??_7IGameState@Pegas@@6B@  00451a78     editor.obj
 0002:00004a90       ??_7IScreenLayer@Pegas@@6B@ 00451a90     editor.obj
 0002:00004aac       ??_7Event_GUI_StartFadeout@Pegas@@6B@ 00451aac     editor.obj
 0002:00004ab8       ??_7BaseScreenLayer@Pegas@@6BIScreenLayer@1@@ 00451ab8     editor.obj
 0002:00004ad4       ??_7BaseScreenLayer@Pegas@@6BIKeyboardController@1@@ 00451ad4     editor.obj
 0002:00004ae8       ??_7BaseScreenLayer@Pegas@@6BIMouseController@1@@ 00451ae8     editor.obj
 0002:00004b00       ??_7DefaultGameState@Pegas@@6BIGameState@1@@ 00451b00     editor.obj
 0002:00004b18       ??_7DefaultGameState@Pegas@@6BIKeyboardController@1@@ 00451b18     editor.obj
 0002:00004b2c       ??_7DefaultGameState@Pegas@@6BIMouseController@1@@ 00451b2c     editor.obj
 0002:00004b44       ??_7GUILayer@Pegas@@6BIScreenLayer@1@@ 00451b44     editor.obj
 0002:00004b60       ??_7GUILayer@Pegas@@6BIKeyboardController@1@@ 00451b60     editor.obj
 0002:00004b74       ??_7GUILayer@Pegas@@6BIMouseController@1@@ 00451b74     editor.obj
 0002:00004b88       ??_C@_0BC@LNIIEIBN@GameVerticalLayer?$AA@ 00451b88     game_screen.obj
 0002:00004b9c       ??_C@_0L@MGNMJALP@GameScreen?$AA@ 00451b9c     game_screen.obj
 0002:00004ba8       ??_C@_1BI@ENDLDKBM@?$AAg?$AAa?$AAm?$AAe?$AA?5?$AAs?$AAc?$AAr?$AAe?$AAe?$AAn?$AA?$AA@ 00451ba8     game_screen.obj
 0002:00004bc0       ??_C@_15KNBIKKIN@?$AA?$CF?$AAd?$AA?$AA@ 00451bc0     game_screen.obj
 0002:00004bc8       ??_C@_0BO@EJGDPHBF@Resource?5with?5id?5is?5not?5exist?$AA@ 00451bc8     game_screen.obj
 0002:00004bec       ??_7Frag@Pegas@@6B@        00451bec     game_screen.obj
 0002:00004c0c       ??_7GameVerticalLayer@Pegas@@6BIScreenLayer@1@@ 00451c0c     game_screen.obj
 0002:00004c28       ??_7GameVerticalLayer@Pegas@@6BIKeyboardController@1@@ 00451c28     game_screen.obj
 0002:00004c3c       ??_7GameVerticalLayer@Pegas@@6BIMouseController@1@@ 00451c3c     game_screen.obj
 0002:00004c54       ??_7GameVerticalLayer@Pegas@@6B@ 00451c54     game_screen.obj
 0002:00004c64       ??_7GameScreen@Pegas@@6BIGameState@1@@ 00451c64     game_screen.obj
 0002:00004c7c       ??_7GameScreen@Pegas@@6BIKeyboardController@1@@ 00451c7c     game_screen.obj
 0002:00004c90       ??_7GameScreen@Pegas@@6BIMouseController@1@@ 00451c90     game_screen.obj
 0002:00004ca8       ??_7GameScreen@Pegas@@6B@  00451ca8     game_screen.obj
 0002:00004cb8       ??_7Event_CancelChangingDirection@Pegas@@6B@ 00451cb8     game_screen.obj
 0002:00004cc0       ??_C@_0BB@IKLONCHG@Event_Game_Pause?$AA@ 00451cc0     game_screen.obj
 0002:00004cd8       ??_7Event_Game_Pause@Pegas@@6B@ 00451cd8     game_screen.obj
 0002:00004ce0       ??_C@_0O@CDFAIFFD@MainMenuLayer?$AA@ 00451ce0     pacman_game_screens.obj
 0002:00004cf0       ??_C@_0M@CCDBFMDE@GlobalPause?$AA@ 00451cf0     pacman_game_screens.obj
 0002:00004cfc       ??_C@_1BA@GIBKLCM@?$AAo?$AAp?$AAt?$AAi?$AAo?$AAn?$AAs?$AA?$AA@ 00451cfc     pacman_game_screens.obj
 0002:00004d0c       ??_C@_1M@JGKKHEFC@?$AAs?$AAt?$AAa?$AAr?$AAt?$AA?$AA@ 00451d0c     pacman_game_screens.obj
 0002:00004d18       ??_C@_1O@DABCFFED@?$AAe?$AAd?$AAi?$AAt?$AAo?$AAr?$AA?$AA@ 00451d18     pacman_game_screens.obj
 0002:00004d28       ??_C@_19JPKILLMB@?$AAe?$AAx?$AAi?$AAt?$AA?$AA@ 00451d28     pacman_game_screens.obj
 0002:00004d34       ??_C@_1O@NEOIFABC@?$AAr?$AAe?$AAs?$AAu?$AAm?$AAe?$AA?$AA@ 00451d34     pacman_game_screens.obj
 0002:00004d44       ??_C@_19CKOIIPIC@?$AAq?$AAu?$AAi?$AAt?$AA?$AA@ 00451d44     pacman_game_screens.obj
 0002:00004d54       ??_7MainMenuLayer@Pegas@@6BIScreenLayer@1@@ 00451d54     pacman_game_screens.obj
 0002:00004d70       ??_7MainMenuLayer@Pegas@@6BIKeyboardController@1@@ 00451d70     pacman_game_screens.obj
 0002:00004d84       ??_7MainMenuLayer@Pegas@@6BIMouseController@1@@ 00451d84     pacman_game_screens.obj
 0002:00004d9c       ??_7MainMenuLayer@Pegas@@6B@ 00451d9c     pacman_game_screens.obj
 0002:00004dac       ??_7MainMenu@Pegas@@6BIGameState@1@@ 00451dac     pacman_game_screens.obj
 0002:00004dc4       ??_7MainMenu@Pegas@@6BIKeyboardController@1@@ 00451dc4     pacman_game_screens.obj
 0002:00004dd8       ??_7MainMenu@Pegas@@6BIMouseController@1@@ 00451dd8     pacman_game_screens.obj
 0002:00004df0       ??_7GlobalPause@Pegas@@6BIScreenLayer@1@@ 00451df0     pacman_game_screens.obj
 0002:00004e0c       ??_7GlobalPause@Pegas@@6BIKeyboardController@1@@ 00451e0c     pacman_game_screens.obj
 0002:00004e20       ??_7GlobalPause@Pegas@@6BIMouseController@1@@ 00451e20     pacman_game_screens.obj
 0002:00004e38       ??_7GlobalPause@Pegas@@6B@ 00451e38     pacman_game_screens.obj
 0002:00004e44       ??_C@_0BC@JFAFNMC@Event_Game_Resume?$AA@ 00451e44     pacman_game_screens.obj
 0002:00004e5c       ??_7Event_Game_Resume@Pegas@@6B@ 00451e5c     pacman_game_screens.obj
 0002:00004e64       ??_C@_07OFINCGEG@Waiting?$AA@ 00451e64     engine:waiting.obj
 0002:00004e70       ??_7Waiting@Pegas@@6BProcess@1@@ 00451e70     engine:waiting.obj
 0002:00004e90       ??_7Waiting@Pegas@@6BIEventListener@1@@ 00451e90     engine:waiting.obj
 0002:00004ea0       ??_7Widget@Pegas@@6B@      00451ea0     engine:standart_widgets.obj
 0002:00004ed4       ??_7Event_GUI_ButtonClick@Pegas@@6B@ 00451ed4     engine:standart_widgets.obj
 0002:00004ee0       ??_7ButtonWidget@Pegas@@6B@ 00451ee0     engine:standart_widgets.obj
