 asteroids

 Timestamp is 541b2262 (Fri Sep 19 00:20:18 2014)

 Preferred load address is 00400000

 Start         Length     Name                   Class
 0001:00000000 000d0028H .text                   CODE
 0001:000d0030 0000b283H .text$x                 CODE
 0001:000db2c0 000008aeH .text$yc                CODE
 0001:000dbb70 00000691H .text$yd                CODE
 0002:00000000 000002e0H .idata$5                DATA
 0002:000002e0 00000004H .CRT$XCA                DATA
 0002:000002e4 00000004H .CRT$XCC                DATA
 0002:000002e8 00000080H .CRT$XCU                DATA
 0002:00000368 00000004H .CRT$XCZ                DATA
 0002:0000036c 00000004H .CRT$XIA                DATA
 0002:00000370 00000014H .CRT$XIC                DATA
 0002:00000384 00000004H .CRT$XIY                DATA
 0002:00000388 00000004H .CRT$XIZ                DATA
 0002:0000038c 00000004H .CRT$XPA                DATA
 0002:00000390 00000008H .CRT$XPX                DATA
 0002:00000398 00000004H .CRT$XPXA               DATA
 0002:0000039c 00000004H .CRT$XPZ                DATA
 0002:000003a0 00000004H .CRT$XTA                DATA
 0002:000003a4 00000004H .CRT$XTZ                DATA
 0002:000003b0 0001ee08H .rdata                  DATA
 0002:0001f1b8 00000060H .rdata$debug            DATA
 0002:0001f218 00001d20H .rdata$r                DATA
 0002:00020f40 00000b00H .rdata$sxdata           DATA
 0002:00021a40 00000004H .rtc$IAA                DATA
 0002:00021a44 00000018H .rtc$IMZ                DATA
 0002:00021a5c 00000004H .rtc$IZZ                DATA
 0002:00021a60 00000004H .rtc$TAA                DATA
 0002:00021a64 00000018H .rtc$TMZ                DATA
 0002:00021a7c 00000004H .rtc$TZZ                DATA
 0002:00021a80 0000b55cH .xdata$x                DATA
 0002:0002cfdc 00000078H .idata$2                DATA
 0002:0002d054 00000014H .idata$3                DATA
 0002:0002d068 000002e0H .idata$4                DATA
 0002:0002d348 00000c02H .idata$6                DATA
 0002:0002df4a 00000000H .edata                  DATA
 0003:00000000 00002570H .data                   DATA
 0003:00002580 00002488H .bss                    DATA
 0004:00000000 000004c0H .rsrc$01                DATA
 0004:000004c0 0000b9e8H .rsrc$02                DATA

  Address         Publics by Value              Rva+Base       Lib:Object

 0000:00000000       __except_list              00000000     <absolute>
 0000:000002c0       ___safe_se_handler_count   000002c0     <absolute>
 0000:00000000       ___ImageBase               00400000     <linker-defined>
 0001:00000000       ??0?$basic_string@DU?$char_traits@D@std@@V?$allocator@D@2@@std@@QAE@PBD@Z 00401000 f i game_events.obj
 0001:000000b0       ??1?$_String_val@DV?$allocator@D@std@@@std@@QAE@XZ 004010b0 f i game_events.obj
 0001:000000f0       ??1_String_base@std@@QAE@XZ 004010f0 f i game_events.obj
 0001:00000130       ??1_Container_base_secure@std@@QAE@XZ 00401130 f i game_events.obj
 0001:00000170       ?_Orphan_all@_Container_base_secure@std@@QBEXXZ 00401170 f i game_events.obj
 0001:00000230       ?assign@?$basic_string@DU?$char_traits@D@std@@V?$allocator@D@2@@std@@QAEAAV12@PBD@Z 00401230 f i game_events.obj
 0001:000002a0       ?length@?$char_traits@D@std@@SAIPBD@Z 004012a0 f i game_events.obj
 0001:000002e0       ?_Tidy@?$basic_string@DU?$char_traits@D@std@@V?$allocator@D@2@@std@@IAEX_NI@Z 004012e0 f i game_events.obj
 0001:00000390       ??0?$_String_val@DV?$allocator@D@std@@@std@@IAE@V?$allocator@D@1@@Z 00401390 f i game_events.obj
 0001:000003f0       ??0?$allocator@D@std@@QAE@XZ 004013f0 f i game_events.obj
 0001:00000420       ??0_String_base@std@@QAE@XZ 00401420 f i game_events.obj
 0001:00000470       ??0_Container_base_secure@std@@QAE@XZ 00401470 f i game_events.obj
 0001:000004b0       ?assign@?$basic_string@DU?$char_traits@D@std@@V?$allocator@D@2@@std@@QAEAAV12@PBDI@Z 004014b0 f i game_events.obj
 0001:00000580       ?assign@?$basic_string@DU?$char_traits@D@std@@V?$allocator@D@2@@std@@QAEAAV12@ABV12@II@Z 00401580 f i game_events.obj
 0001:00000660       ?size@?$basic_string@DU?$char_traits@D@std@@V?$allocator@D@2@@std@@QBEIXZ 00401660 f i game_events.obj
 0001:00000690       ?_Myptr@?$basic_string@DU?$char_traits@D@std@@V?$allocator@D@2@@std@@IBEPBDXZ 00401690 f i game_events.obj
 0001:000006f0       ?erase@?$basic_string@DU?$char_traits@D@std@@V?$allocator@D@2@@std@@QAEAAV12@II@Z 004016f0 f i game_events.obj
 0001:000007b0       ?_Eos@?$basic_string@DU?$char_traits@D@std@@V?$allocator@D@2@@std@@IAEXI@Z 004017b0 f i game_events.obj
 0001:00000820       ?assign@?$char_traits@D@std@@SAXAADABD@Z 00401820 f i game_events.obj
 0001:00000850       ?_Grow@?$basic_string@DU?$char_traits@D@std@@V?$allocator@D@2@@std@@IAE_NI_N@Z 00401850 f i game_events.obj
 0001:00000920       ?_Myptr@?$basic_string@DU?$char_traits@D@std@@V?$allocator@D@2@@std@@IAEPADXZ 00401920 f i game_events.obj
 0001:00000980       ??0?$allocator@D@std@@QAE@ABV01@@Z 00401980 f i game_events.obj
 0001:000009b0       ?deallocate@?$allocator@D@std@@QAEXPADI@Z 004019b0 f i game_events.obj
 0001:00000a00       ?max_size@?$basic_string@DU?$char_traits@D@std@@V?$allocator@D@2@@std@@QBEIXZ 00401a00 f i game_events.obj
 0001:00000a70       ?_Copy@?$basic_string@DU?$char_traits@D@std@@V?$allocator@D@2@@std@@IAEXII@Z 00401a70 f i game_events.obj
 0001:00000c30       ?_Inside@?$basic_string@DU?$char_traits@D@std@@V?$allocator@D@2@@std@@IAE_NPBD@Z 00401c30 f i game_events.obj
 0001:00000ca0       ?allocate@?$allocator@D@std@@QAEPADI@Z 00401ca0 f i game_events.obj
 0001:00000cf0       ?max_size@?$allocator@D@std@@QBEIXZ 00401cf0 f i game_events.obj
 0001:00000d50       ??$_Debug_pointer@D@std@@YAXPBDPB_WI@Z 00401d50 f i game_events.obj
 0001:00000da0       ??$copy_s@U?$char_traits@D@std@@@_Traits_helper@std@@YAPADPADIPBDI@Z 00401da0 f i game_events.obj
 0001:00000e00       ??$move_s@U?$char_traits@D@std@@@_Traits_helper@std@@YAPADPADIPBDI@Z 00401e00 f i game_events.obj
 0001:00000e60       ??$_Allocate@D@std@@YAPADIPAD@Z 00401e60 f i game_events.obj
 0001:00000ee0       ??0bad_alloc@std@@QAE@PBD@Z 00401ee0 f i game_events.obj
 0001:00000f40       ??1bad_alloc@std@@UAE@XZ   00401f40 f i game_events.obj
 0001:00000f90       ??_Gbad_alloc@std@@UAEPAXI@Z 00401f90 f i game_events.obj
 0001:00000f90       ??_Ebad_alloc@std@@UAEPAXI@Z 00401f90 f i game_events.obj
 0001:00000ff0       ??0bad_alloc@std@@QAE@ABV01@@Z 00401ff0 f i game_events.obj
 0001:00001050       ??$_Char_traits_cat@U?$char_traits@D@std@@@std@@YA?AU_Secure_char_traits_tag@0@XZ 00402050 f i game_events.obj
 0001:000010b0       ??$copy_s@U?$char_traits@D@std@@@_Traits_helper@std@@YAPADPADIPBDIU_Secure_char_traits_tag@1@@Z 004020b0 f i game_events.obj
 0001:00001100       ?_Copy_s@?$char_traits@D@std@@SAPADPADIPBDI@Z 00402100 f i game_events.obj
 0001:00001150       ??$move_s@U?$char_traits@D@std@@@_Traits_helper@std@@YAPADPADIPBDIU_Secure_char_traits_tag@1@@Z 00402150 f i game_events.obj
 0001:000011a0       ?_Move_s@?$char_traits@D@std@@SAPADPADIPBDI@Z 004021a0 f i game_events.obj
 0001:000011f0       ??1?$basic_string@DU?$char_traits@D@std@@V?$allocator@D@2@@std@@QAE@XZ 004021f0 f i game_events.obj
 0001:00001280       ??0GameManager@Pegas@@QAE@XZ 00402280 f   game_manager.obj
 0001:000013d0       ?getListenerName@GameManager@Pegas@@UAE?AV?$basic_string@DU?$char_traits@D@std@@V?$allocator@D@2@@std@@XZ 004023d0 f i game_manager.obj
 0001:00001440       ??_GGameManager@Pegas@@UAEPAXI@Z 00402440 f i game_manager.obj
 0001:00001440       ??_EGameManager@Pegas@@UAEPAXI@Z 00402440 f i game_manager.obj
 0001:000014a0       ??1?$map@HPAVIGameObject@Pegas@@U?$less@H@std@@V?$allocator@U?$pair@$$CBHPAVIGameObject@Pegas@@@std@@@4@@std@@QAE@XZ 004024a0 f i game_manager.obj
 0001:000014e0       ??1GameManager@Pegas@@UAE@XZ 004024e0 f i game_manager.obj
 0001:000015a0       ?create@GameManager@Pegas@@UAEXPAVIPlatformContext@2@@Z 004025a0 f   game_manager.obj
 0001:00001740       ?setupWorldBound@GameManager@Pegas@@AAEXXZ 00402740 f   game_manager.obj
 0001:00001840       ?createShip@GameManager@Pegas@@AAEXXZ 00402840 f   game_manager.obj
 0001:00001c80       ??0Event_Player_EnableControl@Pegas@@QAE@XZ 00402c80 f i game_manager.obj
 0001:00001cd0       ?getType@Event_Player_EnableControl@Pegas@@UBE?AV?$basic_string@DU?$char_traits@D@std@@V?$allocator@D@2@@std@@XZ 00402cd0 f i game_manager.obj
 0001:00001d40       ??_GEvent_Player_EnableControl@Pegas@@UAEPAXI@Z 00402d40 f i game_manager.obj
 0001:00001d40       ??_EEvent_Player_EnableControl@Pegas@@UAEPAXI@Z 00402d40 f i game_manager.obj
 0001:00001da0       ??1Event_Player_EnableControl@Pegas@@UAE@XZ 00402da0 f i game_manager.obj
 0001:00001de0       ??0Event_Player_EnableGodMode@Pegas@@QAE@XZ 00402de0 f i game_manager.obj
 0001:00001e30       ?getType@Event_Player_EnableGodMode@Pegas@@UBE?AV?$basic_string@DU?$char_traits@D@std@@V?$allocator@D@2@@std@@XZ 00402e30 f i game_manager.obj
 0001:00001ea0       ??_EEvent_Player_EnableGodMode@Pegas@@UAEPAXI@Z 00402ea0 f i game_manager.obj
 0001:00001ea0       ??_GEvent_Player_EnableGodMode@Pegas@@UAEPAXI@Z 00402ea0 f i game_manager.obj
 0001:00001f00       ??1Event_Player_EnableGodMode@Pegas@@UAE@XZ 00402f00 f i game_manager.obj
 0001:00001f40       ??0Event_Player_DisableGodMode@Pegas@@QAE@XZ 00402f40 f i game_manager.obj
 0001:00001f90       ?getType@Event_Player_DisableGodMode@Pegas@@UBE?AV?$basic_string@DU?$char_traits@D@std@@V?$allocator@D@2@@std@@XZ 00402f90 f i game_manager.obj
 0001:00002000       ??_EEvent_Player_DisableGodMode@Pegas@@UAEPAXI@Z 00403000 f i game_manager.obj
 0001:00002000       ??_GEvent_Player_DisableGodMode@Pegas@@UAEPAXI@Z 00403000 f i game_manager.obj
 0001:00002060       ??1Event_Player_DisableGodMode@Pegas@@UAE@XZ 00403060 f i game_manager.obj
 0001:000020a0       ??1?$pair@Viterator@?$_Tree@V?$_Tmap_traits@HPAVIGameObject@Pegas@@U?$less@H@std@@V?$allocator@U?$pair@$$CBHPAVIGameObject@Pegas@@@std@@@4@$0A@@std@@@std@@_N@std@@QAE@XZ 004030a0 f i game_manager.obj
 0001:000020e0       ??1iterator@?$_Tree@V?$_Tmap_traits@HPAVIGameObject@Pegas@@U?$less@H@std@@V?$allocator@U?$pair@$$CBHPAVIGameObject@Pegas@@@std@@@4@$0A@@std@@@std@@QAE@XZ 004030e0 f i game_manager.obj
 0001:00002120       ??1const_iterator@?$_Tree@V?$_Tmap_traits@HPAVIGameObject@Pegas@@U?$less@H@std@@V?$allocator@U?$pair@$$CBHPAVIGameObject@Pegas@@@std@@@4@$0A@@std@@@std@@QAE@XZ 00403120 f i game_manager.obj
 0001:00002160       ??1?$_Bidit@U?$pair@$$CBHPAVIGameObject@Pegas@@@std@@HPBU12@ABU12@@std@@QAE@XZ 00403160 f i game_manager.obj
 0001:000021a0       ??1?$_Iterator_with_base@Ubidirectional_iterator_tag@std@@U?$pair@$$CBHPAVIGameObject@Pegas@@@2@HPBU32@ABU32@V_Iterator_base@2@@std@@QAE@XZ 004031a0 f i game_manager.obj
 0001:000021e0       ?createAsteroids@GameManager@Pegas@@AAEXXZ 004031e0 f   game_manager.obj
 0001:00002450       ??0Event_Actor_CreateAsteroid@Pegas@@QAE@ABVVector3@1@0@Z 00403450 f i game_manager.obj
 0001:00002520       ?getType@Event_Actor_CreateAsteroid@Pegas@@UBE?AV?$basic_string@DU?$char_traits@D@std@@V?$allocator@D@2@@std@@XZ 00403520 f i game_manager.obj
 0001:00002590       ??_GEvent_Actor_CreateAsteroid@Pegas@@UAEPAXI@Z 00403590 f i game_manager.obj
 0001:00002590       ??_EEvent_Actor_CreateAsteroid@Pegas@@UAEPAXI@Z 00403590 f i game_manager.obj
 0001:000025f0       ??1Event_Actor_CreateAsteroid@Pegas@@UAE@XZ 004035f0 f i game_manager.obj
 0001:00002630       ?cos@@YAMM@Z               00403630 f i game_manager.obj
 0001:00002680       _cosf                      00403680 f i game_manager.obj
 0001:000026d0       ?destroy@GameManager@Pegas@@UAEXPAVIPlatformContext@2@@Z 004036d0 f   game_manager.obj
 0001:00002740       ?update@GameManager@Pegas@@UAEXPAVIPlatformContext@2@HH@Z 00403740 f   game_manager.obj
 0001:00002d70       ??0Event_Actor_Destroy@Pegas@@QAE@H@Z 00403d70 f i game_manager.obj
 0001:00002dd0       ?getType@Event_Actor_Destroy@Pegas@@UBE?AV?$basic_string@DU?$char_traits@D@std@@V?$allocator@D@2@@std@@XZ 00403dd0 f i game_manager.obj
 0001:00002e40       ??_EEvent_Actor_Destroy@Pegas@@UAEPAXI@Z 00403e40 f i game_manager.obj
 0001:00002e40       ??_GEvent_Actor_Destroy@Pegas@@UAEPAXI@Z 00403e40 f i game_manager.obj
 0001:00002ea0       ??1Event_Actor_Destroy@Pegas@@UAE@XZ 00403ea0 f i game_manager.obj
 0001:00002ee0       ??0Event_Actor_SetPosition@Pegas@@QAE@HABVVector3@1@@Z 00403ee0 f i game_manager.obj
 0001:00002fa0       ?getType@Event_Actor_SetPosition@Pegas@@UBE?AV?$basic_string@DU?$char_traits@D@std@@V?$allocator@D@2@@std@@XZ 00403fa0 f i game_manager.obj
 0001:00003010       ??_GEvent_Actor_SetPosition@Pegas@@UAEPAXI@Z 00404010 f i game_manager.obj
 0001:00003010       ??_EEvent_Actor_SetPosition@Pegas@@UAEPAXI@Z 00404010 f i game_manager.obj
 0001:00003070       ??1Event_Actor_SetPosition@Pegas@@UAE@XZ 00404070 f i game_manager.obj
 0001:000030b0       ?sin@@YAMM@Z               004040b0 f i game_manager.obj
 0001:00003100       _sinf                      00404100 f i game_manager.obj
 0001:00003150       ??1?$_Iterator@$00@?$list@U?$pair@HH@std@@V?$allocator@U?$pair@HH@std@@@2@@std@@QAE@XZ 00404150 f i game_manager.obj
 0001:00003190       ??1?$_Const_iterator@$00@?$list@U?$pair@HH@std@@V?$allocator@U?$pair@HH@std@@@2@@std@@QAE@XZ 00404190 f i game_manager.obj
 0001:000031d0       ??1?$_Bidit@U?$pair@HH@std@@HPBU12@ABU12@@std@@QAE@XZ 004041d0 f i game_manager.obj
 0001:00003210       ??1?$_Iterator_with_base@Ubidirectional_iterator_tag@std@@U?$pair@HH@2@HPBU32@ABU32@V_Iterator_base@2@@std@@QAE@XZ 00404210 f i game_manager.obj
 0001:00003250       ?render@GameManager@Pegas@@UAEXPAVIPlatformContext@2@@Z 00404250 f   game_manager.obj
 0001:000033d0       ?onKeyDown@GameManager@Pegas@@UAEXHH@Z 004043d0 f   game_manager.obj
 0001:00003800       ??0Event_Player_RotateLeft@Pegas@@QAE@XZ 00404800 f i game_manager.obj
 0001:00003850       ?getType@Event_Player_RotateLeft@Pegas@@UBE?AV?$basic_string@DU?$char_traits@D@std@@V?$allocator@D@2@@std@@XZ 00404850 f i game_manager.obj
 0001:000038c0       ??_EEvent_Player_RotateLeft@Pegas@@UAEPAXI@Z 004048c0 f i game_manager.obj
 0001:000038c0       ??_GEvent_Player_RotateLeft@Pegas@@UAEPAXI@Z 004048c0 f i game_manager.obj
 0001:00003920       ??1Event_Player_RotateLeft@Pegas@@UAE@XZ 00404920 f i game_manager.obj
 0001:00003960       ??0Event_Player_RotateRight@Pegas@@QAE@XZ 00404960 f i game_manager.obj
 0001:000039b0       ?getType@Event_Player_RotateRight@Pegas@@UBE?AV?$basic_string@DU?$char_traits@D@std@@V?$allocator@D@2@@std@@XZ 004049b0 f i game_manager.obj
 0001:00003a20       ??_EEvent_Player_RotateRight@Pegas@@UAEPAXI@Z 00404a20 f i game_manager.obj
 0001:00003a20       ??_GEvent_Player_RotateRight@Pegas@@UAEPAXI@Z 00404a20 f i game_manager.obj
 0001:00003a80       ??1Event_Player_RotateRight@Pegas@@UAE@XZ 00404a80 f i game_manager.obj
 0001:00003ac0       ??0Event_Player_Thrust@Pegas@@QAE@XZ 00404ac0 f i game_manager.obj
 0001:00003b10       ?getType@Event_Player_Thrust@Pegas@@UBE?AV?$basic_string@DU?$char_traits@D@std@@V?$allocator@D@2@@std@@XZ 00404b10 f i game_manager.obj
 0001:00003b80       ??_GEvent_Player_Thrust@Pegas@@UAEPAXI@Z 00404b80 f i game_manager.obj
 0001:00003b80       ??_EEvent_Player_Thrust@Pegas@@UAEPAXI@Z 00404b80 f i game_manager.obj
 0001:00003be0       ??1Event_Player_Thrust@Pegas@@UAE@XZ 00404be0 f i game_manager.obj
 0001:00003c20       ??0Event_Player_Fire@Pegas@@QAE@XZ 00404c20 f i game_manager.obj
 0001:00003c70       ?getType@Event_Player_Fire@Pegas@@UBE?AV?$basic_string@DU?$char_traits@D@std@@V?$allocator@D@2@@std@@XZ 00404c70 f i game_manager.obj
 0001:00003ce0       ??_GEvent_Player_Fire@Pegas@@UAEPAXI@Z 00404ce0 f i game_manager.obj
 0001:00003ce0       ??_EEvent_Player_Fire@Pegas@@UAEPAXI@Z 00404ce0 f i game_manager.obj
 0001:00003d40       ??1Event_Player_Fire@Pegas@@UAE@XZ 00404d40 f i game_manager.obj
 0001:00003d80       ?onKeyUp@GameManager@Pegas@@UAEXHH@Z 00404d80 f   game_manager.obj
 0001:00004090       ??0Event_Player_Stop_Thrust@Pegas@@QAE@XZ 00405090 f i game_manager.obj
 0001:000040e0       ?getType@Event_Player_Stop_Thrust@Pegas@@UBE?AV?$basic_string@DU?$char_traits@D@std@@V?$allocator@D@2@@std@@XZ 004050e0 f i game_manager.obj
 0001:00004150       ??_GEvent_Player_Stop_Thrust@Pegas@@UAEPAXI@Z 00405150 f i game_manager.obj
 0001:00004150       ??_EEvent_Player_Stop_Thrust@Pegas@@UAEPAXI@Z 00405150 f i game_manager.obj
 0001:000041b0       ??1Event_Player_Stop_Thrust@Pegas@@UAE@XZ 004051b0 f i game_manager.obj
 0001:000041f0       ??0Event_Player_Stop_Fire@Pegas@@QAE@XZ 004051f0 f i game_manager.obj
 0001:00004240       ?getType@Event_Player_Stop_Fire@Pegas@@UBE?AV?$basic_string@DU?$char_traits@D@std@@V?$allocator@D@2@@std@@XZ 00405240 f i game_manager.obj
 0001:000042b0       ??_GEvent_Player_Stop_Fire@Pegas@@UAEPAXI@Z 004052b0 f i game_manager.obj
 0001:000042b0       ??_EEvent_Player_Stop_Fire@Pegas@@UAEPAXI@Z 004052b0 f i game_manager.obj
 0001:00004310       ??1Event_Player_Stop_Fire@Pegas@@UAE@XZ 00405310 f i game_manager.obj
 0001:00004350       ??0Event_Player_Stop_Rotation@Pegas@@QAE@XZ 00405350 f i game_manager.obj
 0001:000043a0       ?getType@Event_Player_Stop_Rotation@Pegas@@UBE?AV?$basic_string@DU?$char_traits@D@std@@V?$allocator@D@2@@std@@XZ 004053a0 f i game_manager.obj
 0001:00004410       ??_GEvent_Player_Stop_Rotation@Pegas@@UAEPAXI@Z 00405410 f i game_manager.obj
 0001:00004410       ??_EEvent_Player_Stop_Rotation@Pegas@@UAEPAXI@Z 00405410 f i game_manager.obj
 0001:00004470       ??1Event_Player_Stop_Rotation@Pegas@@UAE@XZ 00405470 f i game_manager.obj
 0001:000044b0       ?handleEvent@GameManager@Pegas@@UAEXV?$ptr@UEvent@Pegas@@@2@@Z 004054b0 f   game_manager.obj
 0001:00005280       ??0Event_Actor_CreateShip@Pegas@@QAE@XZ 00406280 f i game_manager.obj
 0001:000052d0       ?getType@Event_Actor_CreateShip@Pegas@@UBE?AV?$basic_string@DU?$char_traits@D@std@@V?$allocator@D@2@@std@@XZ 004062d0 f i game_manager.obj
 0001:00005340       ??_GEvent_Actor_CreateShip@Pegas@@UAEPAXI@Z 00406340 f i game_manager.obj
 0001:00005340       ??_EEvent_Actor_CreateShip@Pegas@@UAEPAXI@Z 00406340 f i game_manager.obj
 0001:000053a0       ??1Event_Actor_CreateShip@Pegas@@UAE@XZ 004063a0 f i game_manager.obj
 0001:000053e0       ??1_Iterator_base@std@@QAE@XZ 004063e0 f i game_manager.obj
 0001:000054a0       ?_Orphan_me@_Iterator_base@std@@QAEXXZ 004064a0 f i game_manager.obj
 0001:00005550       ?isObjectVisible@GameManager@Pegas@@AAE_NABVVector3@2@@Z 00406550 f   game_manager.obj
 0001:000055f0       ?getPositionToTeleport@GameManager@Pegas@@AAE?AVVector3@2@ABV32@@Z 004065f0 f   game_manager.obj
 0001:00005740       ?getInstance@?$Singleton@VGrafManager@Pegas@@@Pegas@@SAAAVGrafManager@2@XZ 00406740 f i game_manager.obj
 0001:00005790       ?getInstance@?$Singleton@VEventManager@Pegas@@@Pegas@@SAAAVEventManager@2@XZ 00406790 f i game_manager.obj
 0001:000057e0       ??0?$ptr@UEvent@Pegas@@@Pegas@@QAE@ABV01@@Z 004067e0 f i game_manager.obj
 0001:00005840       ??C?$ptr@UEvent@Pegas@@@Pegas@@QBEPAUEvent@1@XZ 00406840 f i game_manager.obj
 0001:00005880       ??0?$list@U?$pair@HH@std@@V?$allocator@U?$pair@HH@std@@@2@@std@@QAE@ABV01@@Z 00406880 f i game_manager.obj
 0001:00005a10       ??1?$list@U?$pair@HH@std@@V?$allocator@U?$pair@HH@std@@@2@@std@@QAE@XZ 00406a10 f i game_manager.obj
 0001:00005a90       ?begin@?$list@U?$pair@HH@std@@V?$allocator@U?$pair@HH@std@@@2@@std@@QAE?AV?$_Iterator@$00@12@XZ 00406a90 f i game_manager.obj
 0001:00005b10       ?end@?$list@U?$pair@HH@std@@V?$allocator@U?$pair@HH@std@@@2@@std@@QAE?AV?$_Iterator@$00@12@XZ 00406b10 f i game_manager.obj
 0001:00005b80       ??0?$map@HPAVIGameObject@Pegas@@U?$less@H@std@@V?$allocator@U?$pair@$$CBHPAVIGameObject@Pegas@@@std@@@4@@std@@QAE@XZ 00406b80 f i game_manager.obj
 0001:00005be0       ??A?$map@HPAVIGameObject@Pegas@@U?$less@H@std@@V?$allocator@U?$pair@$$CBHPAVIGameObject@Pegas@@@std@@@4@@std@@QAEAAPAVIGameObject@Pegas@@ABH@Z 00406be0 f i game_manager.obj
 0001:00005e00       ??1?$_Tree@V?$_Tmap_traits@HPAVIGameObject@Pegas@@U?$less@H@std@@V?$allocator@U?$pair@$$CBHPAVIGameObject@Pegas@@@std@@@4@$0A@@std@@@std@@QAE@XZ 00406e00 f i game_manager.obj
 0001:00005e80       ?begin@?$_Tree@V?$_Tmap_traits@HPAVIGameObject@Pegas@@U?$less@H@std@@V?$allocator@U?$pair@$$CBHPAVIGameObject@Pegas@@@std@@@4@$0A@@std@@@std@@QAE?AViterator@12@XZ 00406e80 f i game_manager.obj
 0001:00005ef0       ?end@?$_Tree@V?$_Tmap_traits@HPAVIGameObject@Pegas@@U?$less@H@std@@V?$allocator@U?$pair@$$CBHPAVIGameObject@Pegas@@@std@@@4@$0A@@std@@@std@@QAE?AViterator@12@XZ 00406ef0 f i game_manager.obj
 0001:00005f60       ?insert@?$_Tree@V?$_Tmap_traits@HPAVIGameObject@Pegas@@U?$less@H@std@@V?$allocator@U?$pair@$$CBHPAVIGameObject@Pegas@@@std@@@4@$0A@@std@@@std@@QAE?AU?$pair@Viterator@?$_Tree@V?$_Tmap_traits@HPAVIGameObject@Pegas@@U?$less@H@std@@V?$allocator@U?$pair@$$CBHPAVIGameObject@Pegas@@@std@@@4@$0A@@std@@@std@@_N@2@ABU?$pair@$$CBHPAVIGameObject@Pegas@@@2@@Z 00406f60 f i game_manager.obj
 0001:00006340       ?erase@?$_Tree@V?$_Tmap_traits@HPAVIGameObject@Pegas@@U?$less@H@std@@V?$allocator@U?$pair@$$CBHPAVIGameObject@Pegas@@@std@@@4@$0A@@std@@@std@@QAEIABH@Z 00407340 f i game_manager.obj
 0001:000064e0       ?count@?$_Tree@V?$_Tmap_traits@HPAVIGameObject@Pegas@@U?$less@H@std@@V?$allocator@U?$pair@$$CBHPAVIGameObject@Pegas@@@std@@@4@$0A@@std@@@std@@QBEIABH@Z 004074e0 f i game_manager.obj
 0001:00006610       ??Citerator@?$_Tree@V?$_Tmap_traits@HPAVIGameObject@Pegas@@U?$less@H@std@@V?$allocator@U?$pair@$$CBHPAVIGameObject@Pegas@@@std@@@4@$0A@@std@@@std@@QBEPAU?$pair@$$CBHPAVIGameObject@Pegas@@@2@XZ 00407610 f i game_manager.obj
 0001:00006650       ??Eiterator@?$_Tree@V?$_Tmap_traits@HPAVIGameObject@Pegas@@U?$less@H@std@@V?$allocator@U?$pair@$$CBHPAVIGameObject@Pegas@@@std@@@4@$0A@@std@@@std@@QAEAAV012@XZ 00407650 f i game_manager.obj
 0001:000066a0       ??9const_iterator@?$_Tree@V?$_Tmap_traits@HPAVIGameObject@Pegas@@U?$less@H@std@@V?$allocator@U?$pair@$$CBHPAVIGameObject@Pegas@@@std@@@4@$0A@@std@@@std@@QBE_NABV012@@Z 004076a0 f i game_manager.obj
 0001:000066f0       ??D?$_Iterator@$00@?$list@U?$pair@HH@std@@V?$allocator@U?$pair@HH@std@@@2@@std@@QBEAAU?$pair@HH@2@XZ 004076f0 f i game_manager.obj
 0001:00006730       ??E?$_Iterator@$00@?$list@U?$pair@HH@std@@V?$allocator@U?$pair@HH@std@@@2@@std@@QAEAAV012@XZ 00407730 f i game_manager.obj
 0001:00006780       ??9?$_Const_iterator@$00@?$list@U?$pair@HH@std@@V?$allocator@U?$pair@HH@std@@@2@@std@@QBE_NABV012@@Z 00407780 f i game_manager.obj
 0001:000067d0       ??1?$_List_val@U?$pair@HH@std@@V?$allocator@U?$pair@HH@std@@@2@@std@@QAE@XZ 004077d0 f i game_manager.obj
 0001:00006810       ??0?$_Const_iterator@$00@?$list@U?$pair@HH@std@@V?$allocator@U?$pair@HH@std@@@2@@std@@QAE@ABV012@@Z 00407810 f i game_manager.obj
 0001:00006870       ??0const_iterator@?$_Tree@V?$_Tmap_traits@HPAVIGameObject@Pegas@@U?$less@H@std@@V?$allocator@U?$pair@$$CBHPAVIGameObject@Pegas@@@std@@@4@$0A@@std@@@std@@QAE@ABV012@@Z 00407870 f i game_manager.obj
 0001:000068d0       ??4iterator@?$_Tree@V?$_Tmap_traits@HPAVIGameObject@Pegas@@U?$less@H@std@@V?$allocator@U?$pair@$$CBHPAVIGameObject@Pegas@@@std@@@4@$0A@@std@@@std@@QAEAAV012@ABV012@@Z 004078d0 f i game_manager.obj
 0001:00006920       ??1?$_Tree_val@V?$_Tmap_traits@HPAVIGameObject@Pegas@@U?$less@H@std@@V?$allocator@U?$pair@$$CBHPAVIGameObject@Pegas@@@std@@@4@$0A@@std@@@std@@QAE@XZ 00407920 f i game_manager.obj
 0001:00006960       ??1?$pair@Viterator@?$_Tree@V?$_Tmap_traits@HPAVIGameObject@Pegas@@U?$less@H@std@@V?$allocator@U?$pair@$$CBHPAVIGameObject@Pegas@@@std@@@4@$0A@@std@@@std@@V123@@std@@QAE@XZ 00407960 f i game_manager.obj
 0001:000069f0       ??0iterator@?$_Tree@V?$_Tmap_traits@HPAVIGameObject@Pegas@@U?$less@H@std@@V?$allocator@U?$pair@$$CBHPAVIGameObject@Pegas@@@std@@@4@$0A@@std@@@std@@QAE@ABV012@@Z 004079f0 f i game_manager.obj
 0001:00006a40       ??1?$pair@Vconst_iterator@?$_Tree@V?$_Tmap_traits@HPAVIGameObject@Pegas@@U?$less@H@std@@V?$allocator@U?$pair@$$CBHPAVIGameObject@Pegas@@@std@@@4@$0A@@std@@@std@@V123@@std@@QAE@XZ 00407a40 f i game_manager.obj
 0001:00006ad0       ??1?$_List_ptr@U?$pair@HH@std@@V?$allocator@U?$pair@HH@std@@@2@@std@@QAE@XZ 00407ad0 f i game_manager.obj
 0001:00006b10       ??0?$_Bidit@U?$pair@HH@std@@HPBU12@ABU12@@std@@QAE@ABU01@@Z 00407b10 f i game_manager.obj
 0001:00006b60       ??0?$_Bidit@U?$pair@$$CBHPAVIGameObject@Pegas@@@std@@HPBU12@ABU12@@std@@QAE@ABU01@@Z 00407b60 f i game_manager.obj
 0001:00006bb0       ??4const_iterator@?$_Tree@V?$_Tmap_traits@HPAVIGameObject@Pegas@@U?$less@H@std@@V?$allocator@U?$pair@$$CBHPAVIGameObject@Pegas@@@std@@@4@$0A@@std@@@std@@QAEAAV012@ABV012@@Z 00407bb0 f i game_manager.obj
 0001:00006c10       ??1?$_Tree_ptr@V?$_Tmap_traits@HPAVIGameObject@Pegas@@U?$less@H@std@@V?$allocator@U?$pair@$$CBHPAVIGameObject@Pegas@@@std@@@4@$0A@@std@@@std@@QAE@XZ 00407c10 f i game_manager.obj
 0001:00006c50       ??1?$_List_nod@U?$pair@HH@std@@V?$allocator@U?$pair@HH@std@@@2@@std@@QAE@XZ 00407c50 f i game_manager.obj
 0001:00006c90       ??0?$_Iterator_with_base@Ubidirectional_iterator_tag@std@@U?$pair@HH@2@HPBU32@ABU32@V_Iterator_base@2@@std@@QAE@ABU01@@Z 00407c90 f i game_manager.obj
 0001:00006ce0       ??0_Iterator_base@std@@QAE@ABV01@@Z 00407ce0 f i game_manager.obj
 0001:00006d40       ??4_Iterator_base@std@@QAEAAV01@ABV01@@Z 00407d40 f i game_manager.obj
 0001:00006e20       ?_Adopt@_Iterator_base@std@@QAEXPBV_Container_base_secure@2@@Z 00407e20 f i game_manager.obj
 0001:00006f10       ??0?$_Iterator_with_base@Ubidirectional_iterator_tag@std@@U?$pair@$$CBHPAVIGameObject@Pegas@@@2@HPBU32@ABU32@V_Iterator_base@2@@std@@QAE@ABU01@@Z 00407f10 f i game_manager.obj
 0001:00006f60       ??4?$_Bidit@U?$pair@$$CBHPAVIGameObject@Pegas@@@std@@HPBU12@ABU12@@std@@QAEAAU01@ABU01@@Z 00407f60 f i game_manager.obj
 0001:00006fb0       ??1?$_Tree_nod@V?$_Tmap_traits@HPAVIGameObject@Pegas@@U?$less@H@std@@V?$allocator@U?$pair@$$CBHPAVIGameObject@Pegas@@@std@@@4@$0A@@std@@@std@@QAE@XZ 00407fb0 f i game_manager.obj
 0001:00006ff0       ??4?$_Iterator_with_base@Ubidirectional_iterator_tag@std@@U?$pair@$$CBHPAVIGameObject@Pegas@@@2@HPBU32@ABU32@V_Iterator_base@2@@std@@QAEAAU01@ABU01@@Z 00407ff0 f i game_manager.obj
 0001:00007040       ??1?$_Tmap_traits@HPAVIGameObject@Pegas@@U?$less@H@std@@V?$allocator@U?$pair@$$CBHPAVIGameObject@Pegas@@@std@@@4@$0A@@std@@QAE@XZ 00408040 f i game_manager.obj
 0001:00007080       ??R?$less@H@std@@QBE_NABH0@Z 00408080 f i game_manager.obj
 0001:000070c0       ?GetRawPointer@?$ptr@UEvent@Pegas@@@Pegas@@QBEPAUEvent@2@XZ 004080c0 f i game_manager.obj
 0001:00007160       ?acquire@?$ptr@UEvent@Pegas@@@Pegas@@AAEXPAUCounter@2@@Z 00408160 f i game_manager.obj
 0001:000071b0       ?_Nextnode@?$list@U?$pair@HH@std@@V?$allocator@U?$pair@HH@std@@@2@@std@@KAAAPAU_Node@?$_List_nod@U?$pair@HH@std@@V?$allocator@U?$pair@HH@std@@@2@@2@PAU342@@Z 004081b0 f i game_manager.obj
 0001:000071e0       ?begin@?$list@U?$pair@HH@std@@V?$allocator@U?$pair@HH@std@@@2@@std@@QBE?AV?$_Const_iterator@$00@12@XZ 004081e0 f i game_manager.obj
 0001:00007260       ?end@?$list@U?$pair@HH@std@@V?$allocator@U?$pair@HH@std@@@2@@std@@QBE?AV?$_Const_iterator@$00@12@XZ 00408260 f i game_manager.obj
 0001:000072d0       ?_Buynode@?$list@U?$pair@HH@std@@V?$allocator@U?$pair@HH@std@@@2@@std@@IAEPAU_Node@?$_List_nod@U?$pair@HH@std@@V?$allocator@U?$pair@HH@std@@@2@@2@XZ 004082d0 f i game_manager.obj
 0001:00007430       ?_Tidy@?$list@U?$pair@HH@std@@V?$allocator@U?$pair@HH@std@@@2@@std@@IAEXXZ 00408430 f i game_manager.obj
 0001:000074d0       ??0?$_List_val@U?$pair@HH@std@@V?$allocator@U?$pair@HH@std@@@2@@std@@QAE@V?$allocator@U?$pair@HH@std@@@1@@Z 004084d0 f i game_manager.obj
 0001:00007540       ??1?$_Container_base_aux_alloc_empty@V?$allocator@U?$pair@HH@std@@@std@@@std@@IAE@XZ 00408540 f i game_manager.obj
 0001:00007580       ??0?$allocator@U?$pair@HH@std@@@std@@QAE@ABV01@@Z 00408580 f i game_manager.obj
 0001:000075b0       ?_Isnil@?$_Tree@V?$_Tmap_traits@HPAVIGameObject@Pegas@@U?$less@H@std@@V?$allocator@U?$pair@$$CBHPAVIGameObject@Pegas@@@std@@@4@$0A@@std@@@std@@KAAADPAU_Node@?$_Tree_nod@V?$_Tmap_traits@HPAVIGameObject@Pegas@@U?$less@H@std@@V?$allocator@U?$pair@$$CBHPAVIGameObject@Pegas@@@std@@@4@$0A@@std@@@2@@Z 004085b0 f i game_manager.obj
 0001:000075e0       ?_Key@?$_Tree@V?$_Tmap_traits@HPAVIGameObject@Pegas@@U?$less@H@std@@V?$allocator@U?$pair@$$CBHPAVIGameObject@Pegas@@@std@@@4@$0A@@std@@@std@@KAABHPAU_Node@?$_Tree_nod@V?$_Tmap_traits@HPAVIGameObject@Pegas@@U?$less@H@std@@V?$allocator@U?$pair@$$CBHPAVIGameObject@Pegas@@@std@@@4@$0A@@std@@@2@@Z 004085e0 f i game_manager.obj
 0001:00007630       ?_Left@?$_Tree@V?$_Tmap_traits@HPAVIGameObject@Pegas@@U?$less@H@std@@V?$allocator@U?$pair@$$CBHPAVIGameObject@Pegas@@@std@@@4@$0A@@std@@@std@@KAAAPAU_Node@?$_Tree_nod@V?$_Tmap_traits@HPAVIGameObject@Pegas@@U?$less@H@std@@V?$allocator@U?$pair@$$CBHPAVIGameObject@Pegas@@@std@@@4@$0A@@std@@@2@PAU342@@Z 00408630 f i game_manager.obj
 0001:00007660       ?_Right@?$_Tree@V?$_Tmap_traits@HPAVIGameObject@Pegas@@U?$less@H@std@@V?$allocator@U?$pair@$$CBHPAVIGameObject@Pegas@@@std@@@4@$0A@@std@@@std@@KAAAPAU_Node@?$_Tree_nod@V?$_Tmap_traits@HPAVIGameObject@Pegas@@U?$less@H@std@@V?$allocator@U?$pair@$$CBHPAVIGameObject@Pegas@@@std@@@4@$0A@@std@@@2@PAU342@@Z 00408660 f i game_manager.obj
 0001:00007690       ??0?$_Tree@V?$_Tmap_traits@HPAVIGameObject@Pegas@@U?$less@H@std@@V?$allocator@U?$pair@$$CBHPAVIGameObject@Pegas@@@std@@@4@$0A@@std@@@std@@QAE@ABU?$less@H@1@ABV?$allocator@U?$pair@$$CBHPAVIGameObject@Pegas@@@std@@@1@@Z 00408690 f i game_manager.obj
 0001:00007730       ?insert@?$_Tree@V?$_Tmap_traits@HPAVIGameObject@Pegas@@U?$less@H@std@@V?$allocator@U?$pair@$$CBHPAVIGameObject@Pegas@@@std@@@4@$0A@@std@@@std@@QAE?AViterator@12@Vconst_iterator@12@ABU?$pair@$$CBHPAVIGameObject@Pegas@@@2@@Z 00408730 f i game_manager.obj
 0001:00008300       ?erase@?$_Tree@V?$_Tmap_traits@HPAVIGameObject@Pegas@@U?$less@H@std@@V?$allocator@U?$pair@$$CBHPAVIGameObject@Pegas@@@std@@@4@$0A@@std@@@std@@QAE?AViterator@12@Vconst_iterator@12@0@Z 00409300 f i game_manager.obj
 0001:00008590       ?lower_bound@?$_Tree@V?$_Tmap_traits@HPAVIGameObject@Pegas@@U?$less@H@std@@V?$allocator@U?$pair@$$CBHPAVIGameObject@Pegas@@@std@@@4@$0A@@std@@@std@@QAE?AViterator@12@ABH@Z 00409590 f i game_manager.obj
 0001:00008600       ?equal_range@?$_Tree@V?$_Tmap_traits@HPAVIGameObject@Pegas@@U?$less@H@std@@V?$allocator@U?$pair@$$CBHPAVIGameObject@Pegas@@@std@@@4@$0A@@std@@@std@@QAE?AU?$pair@Viterator@?$_Tree@V?$_Tmap_traits@HPAVIGameObject@Pegas@@U?$less@H@std@@V?$allocator@U?$pair@$$CBHPAVIGameObject@Pegas@@@std@@@4@$0A@@std@@@std@@V123@@2@ABH@Z 00409600 f i game_manager.obj
 0001:00008670       ?equal_range@?$_Tree@V?$_Tmap_traits@HPAVIGameObject@Pegas@@U?$less@H@std@@V?$allocator@U?$pair@$$CBHPAVIGameObject@Pegas@@@std@@@4@$0A@@std@@@std@@QBE?AU?$pair@Vconst_iterator@?$_Tree@V?$_Tmap_traits@HPAVIGameObject@Pegas@@U?$less@H@std@@V?$allocator@U?$pair@$$CBHPAVIGameObject@Pegas@@@std@@@4@$0A@@std@@@std@@V123@@2@ABH@Z 00409670 f i game_manager.obj
 0001:000086e0       ?_Insert@?$_Tree@V?$_Tmap_traits@HPAVIGameObject@Pegas@@U?$less@H@std@@V?$allocator@U?$pair@$$CBHPAVIGameObject@Pegas@@@std@@@4@$0A@@std@@@std@@IAE?AViterator@12@_NPAU_Node@?$_Tree_nod@V?$_Tmap_traits@HPAVIGameObject@Pegas@@U?$less@H@std@@V?$allocator@U?$pair@$$CBHPAVIGameObject@Pegas@@@std@@@4@$0A@@std@@@2@ABU?$pair@$$CBHPAVIGameObject@Pegas@@@2@@Z 004096e0 f i game_manager.obj
 0001:00008bb0       ??0length_error@std@@QAE@ABV?$basic_string@DU?$char_traits@D@std@@V?$allocator@D@2@@1@@Z 00409bb0 f i game_manager.obj
 0001:00008c10       ??0logic_error@std@@QAE@ABV?$basic_string@DU?$char_traits@D@std@@V?$allocator@D@2@@1@@Z 00409c10 f i game_manager.obj
 0001:00008cb0       ?what@logic_error@std@@UBEPBDXZ 00409cb0 f i game_manager.obj
 0001:00008d00       ??_Glogic_error@std@@UAEPAXI@Z 00409d00 f i game_manager.obj
 0001:00008d00       ??_Elogic_error@std@@UAEPAXI@Z 00409d00 f i game_manager.obj
 0001:00008d60       ??1logic_error@std@@UAE@XZ 00409d60 f i game_manager.obj
 0001:00008dc0       ??1length_error@std@@UAE@XZ 00409dc0 f i game_manager.obj
 0001:00008e10       ??_Elength_error@std@@UAEPAXI@Z 00409e10 f i game_manager.obj
 0001:00008e10       ??_Glength_error@std@@UAEPAXI@Z 00409e10 f i game_manager.obj
 0001:00008e70       ?_Lmost@?$_Tree@V?$_Tmap_traits@HPAVIGameObject@Pegas@@U?$less@H@std@@V?$allocator@U?$pair@$$CBHPAVIGameObject@Pegas@@@std@@@4@$0A@@std@@@std@@IBEAAPAU_Node@?$_Tree_nod@V?$_Tmap_traits@HPAVIGameObject@Pegas@@U?$less@H@std@@V?$allocator@U?$pair@$$CBHPAVIGameObject@Pegas@@@std@@@4@$0A@@std@@@2@XZ 00409e70 f i game_manager.obj
 0001:00008ec0       ?_Root@?$_Tree@V?$_Tmap_traits@HPAVIGameObject@Pegas@@U?$less@H@std@@V?$allocator@U?$pair@$$CBHPAVIGameObject@Pegas@@@std@@@4@$0A@@std@@@std@@IBEAAPAU_Node@?$_Tree_nod@V?$_Tmap_traits@HPAVIGameObject@Pegas@@U?$less@H@std@@V?$allocator@U?$pair@$$CBHPAVIGameObject@Pegas@@@std@@@4@$0A@@std@@@2@XZ 00409ec0 f i game_manager.obj
 0001:00008f10       ?_Tidy@?$_Tree@V?$_Tmap_traits@HPAVIGameObject@Pegas@@U?$less@H@std@@V?$allocator@U?$pair@$$CBHPAVIGameObject@Pegas@@@std@@@4@$0A@@std@@@std@@IAEXXZ 00409f10 f i game_manager.obj
 0001:000090d0       ?_Kfn@?$_Tmap_traits@HPAVIGameObject@Pegas@@U?$less@H@std@@V?$allocator@U?$pair@$$CBHPAVIGameObject@Pegas@@@std@@@4@$0A@@std@@SAABHABU?$pair@$$CBHPAVIGameObject@Pegas@@@2@@Z 0040a0d0 f i game_manager.obj
 0001:00009100       ??1?$_Container_base_aux_alloc_empty@V?$allocator@U?$pair@$$CBHPAVIGameObject@Pegas@@@std@@@std@@@std@@IAE@XZ 0040a100 f i game_manager.obj
 0001:00009140       ??0?$allocator@U?$pair@$$CBHPAVIGameObject@Pegas@@@std@@@std@@QAE@XZ 0040a140 f i game_manager.obj
 0001:00009170       ??0?$pair@$$CBHPAVIGameObject@Pegas@@@std@@QAE@ABHABQAVIGameObject@Pegas@@@Z 0040a170 f i game_manager.obj
 0001:000091c0       ??0?$pair@Viterator@?$_Tree@V?$_Tmap_traits@HPAVIGameObject@Pegas@@U?$less@H@std@@V?$allocator@U?$pair@$$CBHPAVIGameObject@Pegas@@@std@@@4@$0A@@std@@@std@@_N@std@@QAE@ABViterator@?$_Tree@V?$_Tmap_traits@HPAVIGameObject@Pegas@@U?$less@H@std@@V?$allocator@U?$pair@$$CBHPAVIGameObject@Pegas@@@std@@@4@$0A@@std@@@1@AB_N@Z 0040a1c0 f i game_manager.obj
 0001:00009220       ??0iterator@?$_Tree@V?$_Tmap_traits@HPAVIGameObject@Pegas@@U?$less@H@std@@V?$allocator@U?$pair@$$CBHPAVIGameObject@Pegas@@@std@@@4@$0A@@std@@@std@@QAE@PAU_Node@?$_Tree_nod@V?$_Tmap_traits@HPAVIGameObject@Pegas@@U?$less@H@std@@V?$allocator@U?$pair@$$CBHPAVIGameObject@Pegas@@@std@@@4@$0A@@std@@@2@PBV12@@Z 0040a220 f i game_manager.obj
 0001:00009270       ??Diterator@?$_Tree@V?$_Tmap_traits@HPAVIGameObject@Pegas@@U?$less@H@std@@V?$allocator@U?$pair@$$CBHPAVIGameObject@Pegas@@@std@@@4@$0A@@std@@@std@@QBEAAU?$pair@$$CBHPAVIGameObject@Pegas@@@2@XZ 0040a270 f i game_manager.obj
 0001:000092b0       ??Fiterator@?$_Tree@V?$_Tmap_traits@HPAVIGameObject@Pegas@@U?$less@H@std@@V?$allocator@U?$pair@$$CBHPAVIGameObject@Pegas@@@std@@@4@$0A@@std@@@std@@QAEAAV012@XZ 0040a2b0 f i game_manager.obj
 0001:00009300       ??Econst_iterator@?$_Tree@V?$_Tmap_traits@HPAVIGameObject@Pegas@@U?$less@H@std@@V?$allocator@U?$pair@$$CBHPAVIGameObject@Pegas@@@std@@@4@$0A@@std@@@std@@QAEAAV012@XZ 0040a300 f i game_manager.obj
 0001:00009350       ??8const_iterator@?$_Tree@V?$_Tmap_traits@HPAVIGameObject@Pegas@@U?$less@H@std@@V?$allocator@U?$pair@$$CBHPAVIGameObject@Pegas@@@std@@@4@$0A@@std@@@std@@QBE_NABV012@@Z 0040a350 f i game_manager.obj
 0001:00009410       ?_Mynode@const_iterator@?$_Tree@V?$_Tmap_traits@HPAVIGameObject@Pegas@@U?$less@H@std@@V?$allocator@U?$pair@$$CBHPAVIGameObject@Pegas@@@std@@@4@$0A@@std@@@std@@QBEPAU_Node@?$_Tree_nod@V?$_Tmap_traits@HPAVIGameObject@Pegas@@U?$less@H@std@@V?$allocator@U?$pair@$$CBHPAVIGameObject@Pegas@@@std@@@4@$0A@@std@@@3@XZ 0040a410 f i game_manager.obj
 0001:00009440       ??0?$_Iterator@$00@?$list@U?$pair@HH@std@@V?$allocator@U?$pair@HH@std@@@2@@std@@QAE@PAU_Node@?$_List_nod@U?$pair@HH@std@@V?$allocator@U?$pair@HH@std@@@2@@2@PBV12@@Z 0040a440 f i game_manager.obj
 0001:00009490       ??D?$_Const_iterator@$00@?$list@U?$pair@HH@std@@V?$allocator@U?$pair@HH@std@@@2@@std@@QBEABU?$pair@HH@2@XZ 0040a490 f i game_manager.obj
 0001:00009560       ??E?$_Const_iterator@$00@?$list@U?$pair@HH@std@@V?$allocator@U?$pair@HH@std@@@2@@std@@QAEAAV012@XZ 0040a560 f i game_manager.obj
 0001:00009640       ??8?$_Const_iterator@$00@?$list@U?$pair@HH@std@@V?$allocator@U?$pair@HH@std@@@2@@std@@QBE_NABV012@@Z 0040a640 f i game_manager.obj
 0001:000096a0       ?_Prevnode@?$list@U?$pair@HH@std@@V?$allocator@U?$pair@HH@std@@@2@@std@@KAAAPAU_Node@?$_List_nod@U?$pair@HH@std@@V?$allocator@U?$pair@HH@std@@@2@@2@PAU342@@Z 0040a6a0 f i game_manager.obj
 0001:000096d0       ?_Myval@?$list@U?$pair@HH@std@@V?$allocator@U?$pair@HH@std@@@2@@std@@KAAAU?$pair@HH@2@PAU_Node@?$_List_nod@U?$pair@HH@std@@V?$allocator@U?$pair@HH@std@@@2@@2@@Z 0040a6d0 f i game_manager.obj
 0001:00009700       ?clear@?$list@U?$pair@HH@std@@V?$allocator@U?$pair@HH@std@@@2@@std@@QAEXXZ 0040a700 f i game_manager.obj
 0001:000097e0       ??0?$_List_ptr@U?$pair@HH@std@@V?$allocator@U?$pair@HH@std@@@2@@std@@IAE@V?$allocator@U?$pair@HH@std@@@1@@Z 0040a7e0 f i game_manager.obj
 0001:00009850       ?deallocate@?$allocator@U_Node@?$_List_nod@U?$pair@HH@std@@V?$allocator@U?$pair@HH@std@@@2@@std@@@std@@QAEXPAU_Node@?$_List_nod@U?$pair@HH@std@@V?$allocator@U?$pair@HH@std@@@2@@2@I@Z 0040a850 f i game_manager.obj
 0001:000098a0       ?allocate@?$allocator@U_Node@?$_List_nod@U?$pair@HH@std@@V?$allocator@U?$pair@HH@std@@@2@@std@@@std@@QAEPAU_Node@?$_List_nod@U?$pair@HH@std@@V?$allocator@U?$pair@HH@std@@@2@@2@I@Z 0040a8a0 f i game_manager.obj
 0001:000098f0       ?construct@?$allocator@PAU_Node@?$_List_nod@U?$pair@HH@std@@V?$allocator@U?$pair@HH@std@@@2@@std@@@std@@QAEXPAPAU_Node@?$_List_nod@U?$pair@HH@std@@V?$allocator@U?$pair@HH@std@@@2@@2@ABQAU342@@Z 0040a8f0 f i game_manager.obj
 0001:00009940       ?destroy@?$allocator@PAU_Node@?$_List_nod@U?$pair@HH@std@@V?$allocator@U?$pair@HH@std@@@2@@std@@@std@@QAEXPAPAU_Node@?$_List_nod@U?$pair@HH@std@@V?$allocator@U?$pair@HH@std@@@2@@2@@Z 0040a940 f i game_manager.obj
 0001:00009990       ?_Color@?$_Tree@V?$_Tmap_traits@HPAVIGameObject@Pegas@@U?$less@H@std@@V?$allocator@U?$pair@$$CBHPAVIGameObject@Pegas@@@std@@@4@$0A@@std@@@std@@KAAADPAU_Node@?$_Tree_nod@V?$_Tmap_traits@HPAVIGameObject@Pegas@@U?$less@H@std@@V?$allocator@U?$pair@$$CBHPAVIGameObject@Pegas@@@std@@@4@$0A@@std@@@2@@Z 0040a990 f i game_manager.obj
 0001:000099c0       ?_Parent@?$_Tree@V?$_Tmap_traits@HPAVIGameObject@Pegas@@U?$less@H@std@@V?$allocator@U?$pair@$$CBHPAVIGameObject@Pegas@@@std@@@4@$0A@@std@@@std@@KAAAPAU_Node@?$_Tree_nod@V?$_Tmap_traits@HPAVIGameObject@Pegas@@U?$less@H@std@@V?$allocator@U?$pair@$$CBHPAVIGameObject@Pegas@@@std@@@4@$0A@@std@@@2@PAU342@@Z 0040a9c0 f i game_manager.obj
 0001:000099f0       ?_Myval@?$_Tree@V?$_Tmap_traits@HPAVIGameObject@Pegas@@U?$less@H@std@@V?$allocator@U?$pair@$$CBHPAVIGameObject@Pegas@@@std@@@4@$0A@@std@@@std@@KAAAU?$pair@$$CBHPAVIGameObject@Pegas@@@2@PAU_Node@?$_Tree_nod@V?$_Tmap_traits@HPAVIGameObject@Pegas@@U?$less@H@std@@V?$allocator@U?$pair@$$CBHPAVIGameObject@Pegas@@@std@@@4@$0A@@std@@@2@@Z 0040a9f0 f i game_manager.obj
 0001:00009a20       ?_Make_iter@?$_Tree@V?$_Tmap_traits@HPAVIGameObject@Pegas@@U?$less@H@std@@V?$allocator@U?$pair@$$CBHPAVIGameObject@Pegas@@@std@@@4@$0A@@std@@@std@@QBE?AViterator@12@Vconst_iterator@12@@Z 0040aa20 f i game_manager.obj
 0001:00009b00       ?size@?$_Tree@V?$_Tmap_traits@HPAVIGameObject@Pegas@@U?$less@H@std@@V?$allocator@U?$pair@$$CBHPAVIGameObject@Pegas@@@std@@@4@$0A@@std@@@std@@QBEIXZ 0040ab00 f i game_manager.obj
 0001:00009b30       ?max_size@?$_Tree@V?$_Tmap_traits@HPAVIGameObject@Pegas@@U?$less@H@std@@V?$allocator@U?$pair@$$CBHPAVIGameObject@Pegas@@@std@@@4@$0A@@std@@@std@@QBEIXZ 0040ab30 f i game_manager.obj
 0001:00009b80       ?erase@?$_Tree@V?$_Tmap_traits@HPAVIGameObject@Pegas@@U?$less@H@std@@V?$allocator@U?$pair@$$CBHPAVIGameObject@Pegas@@@std@@@4@$0A@@std@@@std@@QAE?AViterator@12@Vconst_iterator@12@@Z 0040ab80 f i game_manager.obj
 0001:0000a3d0       ?clear@?$_Tree@V?$_Tmap_traits@HPAVIGameObject@Pegas@@U?$less@H@std@@V?$allocator@U?$pair@$$CBHPAVIGameObject@Pegas@@@std@@@4@$0A@@std@@@std@@QAEXXZ 0040b3d0 f i game_manager.obj
 0001:0000a470       ?_Eqrange@?$_Tree@V?$_Tmap_traits@HPAVIGameObject@Pegas@@U?$less@H@std@@V?$allocator@U?$pair@$$CBHPAVIGameObject@Pegas@@@std@@@4@$0A@@std@@@std@@IBE?AU?$pair@Vconst_iterator@?$_Tree@V?$_Tmap_traits@HPAVIGameObject@Pegas@@U?$less@H@std@@V?$allocator@U?$pair@$$CBHPAVIGameObject@Pegas@@@std@@@4@$0A@@std@@@std@@V123@@2@ABH@Z 0040b470 f i game_manager.obj
 0001:0000a720       ?_Eqrange@?$_Tree@V?$_Tmap_traits@HPAVIGameObject@Pegas@@U?$less@H@std@@V?$allocator@U?$pair@$$CBHPAVIGameObject@Pegas@@@std@@@4@$0A@@std@@@std@@IAE?AU?$pair@Viterator@?$_Tree@V?$_Tmap_traits@HPAVIGameObject@Pegas@@U?$less@H@std@@V?$allocator@U?$pair@$$CBHPAVIGameObject@Pegas@@@std@@@4@$0A@@std@@@std@@V123@@2@ABH@Z 0040b720 f i game_manager.obj
 0001:0000a9d0       ??0logic_error@std@@QAE@ABV01@@Z 0040b9d0 f i game_manager.obj
 0001:0000aa70       ?_Init@?$_Tree@V?$_Tmap_traits@HPAVIGameObject@Pegas@@U?$less@H@std@@V?$allocator@U?$pair@$$CBHPAVIGameObject@Pegas@@@std@@@4@$0A@@std@@@std@@IAEXXZ 0040ba70 f i game_manager.obj
 0001:0000ab10       ?_Lbound@?$_Tree@V?$_Tmap_traits@HPAVIGameObject@Pegas@@U?$less@H@std@@V?$allocator@U?$pair@$$CBHPAVIGameObject@Pegas@@@std@@@4@$0A@@std@@@std@@IBEPAU_Node@?$_Tree_nod@V?$_Tmap_traits@HPAVIGameObject@Pegas@@U?$less@H@std@@V?$allocator@U?$pair@$$CBHPAVIGameObject@Pegas@@@std@@@4@$0A@@std@@@2@ABH@Z 0040bb10 f i game_manager.obj
 0001:0000abe0       ?_Lrotate@?$_Tree@V?$_Tmap_traits@HPAVIGameObject@Pegas@@U?$less@H@std@@V?$allocator@U?$pair@$$CBHPAVIGameObject@Pegas@@@std@@@4@$0A@@std@@@std@@IAEXPAU_Node@?$_Tree_nod@V?$_Tmap_traits@HPAVIGameObject@Pegas@@U?$less@H@std@@V?$allocator@U?$pair@$$CBHPAVIGameObject@Pegas@@@std@@@4@$0A@@std@@@2@@Z 0040bbe0 f i game_manager.obj
 0001:0000ad40       ?_Rmost@?$_Tree@V?$_Tmap_traits@HPAVIGameObject@Pegas@@U?$less@H@std@@V?$allocator@U?$pair@$$CBHPAVIGameObject@Pegas@@@std@@@4@$0A@@std@@@std@@IBEAAPAU_Node@?$_Tree_nod@V?$_Tmap_traits@HPAVIGameObject@Pegas@@U?$less@H@std@@V?$allocator@U?$pair@$$CBHPAVIGameObject@Pegas@@@std@@@4@$0A@@std@@@2@XZ 0040bd40 f i game_manager.obj
 0001:0000ad90       ?_Rrotate@?$_Tree@V?$_Tmap_traits@HPAVIGameObject@Pegas@@U?$less@H@std@@V?$allocator@U?$pair@$$CBHPAVIGameObject@Pegas@@@std@@@4@$0A@@std@@@std@@IAEXPAU_Node@?$_Tree_nod@V?$_Tmap_traits@HPAVIGameObject@Pegas@@U?$less@H@std@@V?$allocator@U?$pair@$$CBHPAVIGameObject@Pegas@@@std@@@4@$0A@@std@@@2@@Z 0040bd90 f i game_manager.obj
 0001:0000aef0       ?_Buynode@?$_Tree@V?$_Tmap_traits@HPAVIGameObject@Pegas@@U?$less@H@std@@V?$allocator@U?$pair@$$CBHPAVIGameObject@Pegas@@@std@@@4@$0A@@std@@@std@@IAEPAU_Node@?$_Tree_nod@V?$_Tmap_traits@HPAVIGameObject@Pegas@@U?$less@H@std@@V?$allocator@U?$pair@$$CBHPAVIGameObject@Pegas@@@std@@@4@$0A@@std@@@2@PAU342@00ABU?$pair@$$CBHPAVIGameObject@Pegas@@@2@D@Z 0040bef0 f i game_manager.obj
 0001:0000b010       ??2@YAPAXIPAX@Z            0040c010 f i game_manager.obj
 0001:0000b040       ??3@YAXPAX0@Z              0040c040 f i game_manager.obj
 0001:0000b070       ??0?$_Tree_val@V?$_Tmap_traits@HPAVIGameObject@Pegas@@U?$less@H@std@@V?$allocator@U?$pair@$$CBHPAVIGameObject@Pegas@@@std@@@4@$0A@@std@@@std@@IAE@ABU?$less@H@1@V?$allocator@U?$pair@$$CBHPAVIGameObject@Pegas@@@std@@@1@@Z 0040c070 f i game_manager.obj
 0001:0000b0e0       ??0?$allocator@U?$pair@$$CBHPAVIGameObject@Pegas@@@std@@@std@@QAE@ABV01@@Z 0040c0e0 f i game_manager.obj
 0001:0000b110       ?deallocate@?$allocator@U_Node@?$_Tree_nod@V?$_Tmap_traits@HPAVIGameObject@Pegas@@U?$less@H@std@@V?$allocator@U?$pair@$$CBHPAVIGameObject@Pegas@@@std@@@4@$0A@@std@@@std@@@std@@QAEXPAU_Node@?$_Tree_nod@V?$_Tmap_traits@HPAVIGameObject@Pegas@@U?$less@H@std@@V?$allocator@U?$pair@$$CBHPAVIGameObject@Pegas@@@std@@@4@$0A@@std@@@2@I@Z 0040c110 f i game_manager.obj
 0001:0000b160       ?destroy@?$allocator@PAU_Node@?$_Tree_nod@V?$_Tmap_traits@HPAVIGameObject@Pegas@@U?$less@H@std@@V?$allocator@U?$pair@$$CBHPAVIGameObject@Pegas@@@std@@@4@$0A@@std@@@std@@@std@@QAEXPAPAU_Node@?$_Tree_nod@V?$_Tmap_traits@HPAVIGameObject@Pegas@@U?$less@H@std@@V?$allocator@U?$pair@$$CBHPAVIGameObject@Pegas@@@std@@@4@$0A@@std@@@2@@Z 0040c160 f i game_manager.obj
 0001:0000b1b0       ??0const_iterator@?$_Tree@V?$_Tmap_traits@HPAVIGameObject@Pegas@@U?$less@H@std@@V?$allocator@U?$pair@$$CBHPAVIGameObject@Pegas@@@std@@@4@$0A@@std@@@std@@QAE@XZ 0040c1b0 f i game_manager.obj
 0001:0000b200       ??0const_iterator@?$_Tree@V?$_Tmap_traits@HPAVIGameObject@Pegas@@U?$less@H@std@@V?$allocator@U?$pair@$$CBHPAVIGameObject@Pegas@@@std@@@4@$0A@@std@@@std@@QAE@PAU_Node@?$_Tree_nod@V?$_Tmap_traits@HPAVIGameObject@Pegas@@U?$less@H@std@@V?$allocator@U?$pair@$$CBHPAVIGameObject@Pegas@@@std@@@4@$0A@@std@@@2@PBV12@@Z 0040c200 f i game_manager.obj
 0001:0000b2a0       ??Dconst_iterator@?$_Tree@V?$_Tmap_traits@HPAVIGameObject@Pegas@@U?$less@H@std@@V?$allocator@U?$pair@$$CBHPAVIGameObject@Pegas@@@std@@@4@$0A@@std@@@std@@QBEABU?$pair@$$CBHPAVIGameObject@Pegas@@@2@XZ 0040c2a0 f i game_manager.obj
 0001:0000b370       ??Econst_iterator@?$_Tree@V?$_Tmap_traits@HPAVIGameObject@Pegas@@U?$less@H@std@@V?$allocator@U?$pair@$$CBHPAVIGameObject@Pegas@@@std@@@4@$0A@@std@@@std@@QAE?AV012@H@Z 0040c370 f i game_manager.obj
 0001:0000b450       ??Fconst_iterator@?$_Tree@V?$_Tmap_traits@HPAVIGameObject@Pegas@@U?$less@H@std@@V?$allocator@U?$pair@$$CBHPAVIGameObject@Pegas@@@std@@@4@$0A@@std@@@std@@QAEAAV012@XZ 0040c450 f i game_manager.obj
 0001:0000b4a0       ?_Inc@const_iterator@?$_Tree@V?$_Tmap_traits@HPAVIGameObject@Pegas@@U?$less@H@std@@V?$allocator@U?$pair@$$CBHPAVIGameObject@Pegas@@@std@@@4@$0A@@std@@@std@@QAEXXZ 0040c4a0 f i game_manager.obj
 0001:0000b600       ??0?$_Const_iterator@$00@?$list@U?$pair@HH@std@@V?$allocator@U?$pair@HH@std@@@2@@std@@QAE@PAU_Node@?$_List_nod@U?$pair@HH@std@@V?$allocator@U?$pair@HH@std@@@2@@2@PBV12@@Z 0040c600 f i game_manager.obj
 0001:0000b6a0       ?_Compat@?$_Const_iterator@$00@?$list@U?$pair@HH@std@@V?$allocator@U?$pair@HH@std@@@2@@std@@QBEXABV123@@Z 0040c6a0 f i game_manager.obj
 0001:0000b750       ??0?$_Bidit@U?$pair@$$CBHPAVIGameObject@Pegas@@@std@@HPBU12@ABU12@@std@@QAE@XZ 0040c750 f i game_manager.obj
 0001:0000b7a0       ??0?$_Bidit@U?$pair@HH@std@@HPBU12@ABU12@@std@@QAE@XZ 0040c7a0 f i game_manager.obj
 0001:0000b7f0       ??0?$_Iterator_with_base@Ubidirectional_iterator_tag@std@@U?$pair@$$CBHPAVIGameObject@Pegas@@@2@HPBU32@ABU32@V_Iterator_base@2@@std@@QAE@XZ 0040c7f0 f i game_manager.obj
 0001:0000b840       ??0_Iterator_base@std@@QAE@XZ 0040c840 f i game_manager.obj
 0001:0000b880       ??0?$_Iterator_with_base@Ubidirectional_iterator_tag@std@@U?$pair@HH@2@HPBU32@ABU32@V_Iterator_base@2@@std@@QAE@XZ 0040c880 f i game_manager.obj
 0001:0000b8d0       ?_Orphan_ptr@?$list@U?$pair@HH@std@@V?$allocator@U?$pair@HH@std@@@2@@std@@IBEXAAV12@PAU_Node@?$_List_nod@U?$pair@HH@std@@V?$allocator@U?$pair@HH@std@@@2@@2@@Z 0040c8d0 f i game_manager.obj
 0001:0000b9a0       ??0?$_List_nod@U?$pair@HH@std@@V?$allocator@U?$pair@HH@std@@@2@@std@@IAE@V?$allocator@U?$pair@HH@std@@@1@@Z 0040c9a0 f i game_manager.obj
 0001:0000ba10       ?destroy@?$allocator@U_Node@?$_List_nod@U?$pair@HH@std@@V?$allocator@U?$pair@HH@std@@@2@@std@@@std@@QAEXPAU_Node@?$_List_nod@U?$pair@HH@std@@V?$allocator@U?$pair@HH@std@@@2@@2@@Z 0040ca10 f i game_manager.obj
 0001:0000ba60       ?_Erase@?$_Tree@V?$_Tmap_traits@HPAVIGameObject@Pegas@@U?$less@H@std@@V?$allocator@U?$pair@$$CBHPAVIGameObject@Pegas@@@std@@@4@$0A@@std@@@std@@IAEXPAU_Node@?$_Tree_nod@V?$_Tmap_traits@HPAVIGameObject@Pegas@@U?$less@H@std@@V?$allocator@U?$pair@$$CBHPAVIGameObject@Pegas@@@std@@@4@$0A@@std@@@2@@Z 0040ca60 f i game_manager.obj
 0001:0000bb10       ?_Max@?$_Tree@V?$_Tmap_traits@HPAVIGameObject@Pegas@@U?$less@H@std@@V?$allocator@U?$pair@$$CBHPAVIGameObject@Pegas@@@std@@@4@$0A@@std@@@std@@KAPAU_Node@?$_Tree_nod@V?$_Tmap_traits@HPAVIGameObject@Pegas@@U?$less@H@std@@V?$allocator@U?$pair@$$CBHPAVIGameObject@Pegas@@@std@@@4@$0A@@std@@@2@PAU342@@Z 0040cb10 f i game_manager.obj
 0001:0000bb80       ?_Min@?$_Tree@V?$_Tmap_traits@HPAVIGameObject@Pegas@@U?$less@H@std@@V?$allocator@U?$pair@$$CBHPAVIGameObject@Pegas@@@std@@@4@$0A@@std@@@std@@KAPAU_Node@?$_Tree_nod@V?$_Tmap_traits@HPAVIGameObject@Pegas@@U?$less@H@std@@V?$allocator@U?$pair@$$CBHPAVIGameObject@Pegas@@@std@@@4@$0A@@std@@@2@PAU342@@Z 0040cb80 f i game_manager.obj
 0001:0000bbf0       ?_Orphan_ptr@?$_Tree@V?$_Tmap_traits@HPAVIGameObject@Pegas@@U?$less@H@std@@V?$allocator@U?$pair@$$CBHPAVIGameObject@Pegas@@@std@@@4@$0A@@std@@@std@@IBEXAAV12@PAU_Node@?$_Tree_nod@V?$_Tmap_traits@HPAVIGameObject@Pegas@@U?$less@H@std@@V?$allocator@U?$pair@$$CBHPAVIGameObject@Pegas@@@std@@@4@$0A@@std@@@2@@Z 0040cbf0 f i game_manager.obj
 0001:0000bcc0       ?_Buynode@?$_Tree@V?$_Tmap_traits@HPAVIGameObject@Pegas@@U?$less@H@std@@V?$allocator@U?$pair@$$CBHPAVIGameObject@Pegas@@@std@@@4@$0A@@std@@@std@@IAEPAU_Node@?$_Tree_nod@V?$_Tmap_traits@HPAVIGameObject@Pegas@@U?$less@H@std@@V?$allocator@U?$pair@$$CBHPAVIGameObject@Pegas@@@std@@@4@$0A@@std@@@2@XZ 0040ccc0 f i game_manager.obj
 0001:0000be90       ??0?$_Tree_ptr@V?$_Tmap_traits@HPAVIGameObject@Pegas@@U?$less@H@std@@V?$allocator@U?$pair@$$CBHPAVIGameObject@Pegas@@@std@@@4@$0A@@std@@@std@@QAE@ABU?$less@H@1@V?$allocator@U?$pair@$$CBHPAVIGameObject@Pegas@@@std@@@1@@Z 0040ce90 f i game_manager.obj
 0001:0000bf00       ?max_size@?$allocator@U?$pair@$$CBHPAVIGameObject@Pegas@@@std@@@std@@QBEIXZ 0040cf00 f i game_manager.obj
 0001:0000bf60       ?allocate@?$allocator@U_Node@?$_Tree_nod@V?$_Tmap_traits@HPAVIGameObject@Pegas@@U?$less@H@std@@V?$allocator@U?$pair@$$CBHPAVIGameObject@Pegas@@@std@@@4@$0A@@std@@@std@@@std@@QAEPAU_Node@?$_Tree_nod@V?$_Tmap_traits@HPAVIGameObject@Pegas@@U?$less@H@std@@V?$allocator@U?$pair@$$CBHPAVIGameObject@Pegas@@@std@@@4@$0A@@std@@@2@I@Z 0040cf60 f i game_manager.obj
 0001:0000bfb0       ?destroy@?$allocator@U_Node@?$_Tree_nod@V?$_Tmap_traits@HPAVIGameObject@Pegas@@U?$less@H@std@@V?$allocator@U?$pair@$$CBHPAVIGameObject@Pegas@@@std@@@4@$0A@@std@@@std@@@std@@QAEXPAU_Node@?$_Tree_nod@V?$_Tmap_traits@HPAVIGameObject@Pegas@@U?$less@H@std@@V?$allocator@U?$pair@$$CBHPAVIGameObject@Pegas@@@std@@@4@$0A@@std@@@2@@Z 0040cfb0 f i game_manager.obj
 0001:0000c000       ?_Dec@const_iterator@?$_Tree@V?$_Tmap_traits@HPAVIGameObject@Pegas@@U?$less@H@std@@V?$allocator@U?$pair@$$CBHPAVIGameObject@Pegas@@@std@@@4@$0A@@std@@@std@@QAEXXZ 0040d000 f i game_manager.obj
 0001:0000c260       ??0?$pair@Viterator@?$_Tree@V?$_Tmap_traits@HPAVIGameObject@Pegas@@U?$less@H@std@@V?$allocator@U?$pair@$$CBHPAVIGameObject@Pegas@@@std@@@4@$0A@@std@@@std@@V123@@std@@QAE@ABViterator@?$_Tree@V?$_Tmap_traits@HPAVIGameObject@Pegas@@U?$less@H@std@@V?$allocator@U?$pair@$$CBHPAVIGameObject@Pegas@@@std@@@4@$0A@@std@@@1@0@Z 0040d260 f i game_manager.obj
 0001:0000c2f0       ??0?$pair@Vconst_iterator@?$_Tree@V?$_Tmap_traits@HPAVIGameObject@Pegas@@U?$less@H@std@@V?$allocator@U?$pair@$$CBHPAVIGameObject@Pegas@@@std@@@4@$0A@@std@@@std@@V123@@std@@QAE@ABVconst_iterator@?$_Tree@V?$_Tmap_traits@HPAVIGameObject@Pegas@@U?$less@H@std@@V?$allocator@U?$pair@$$CBHPAVIGameObject@Pegas@@@std@@@4@$0A@@std@@@1@0@Z 0040d2f0 f i game_manager.obj
 0001:0000c380       ??0_Node@?$_Tree_nod@V?$_Tmap_traits@HPAVIGameObject@Pegas@@U?$less@H@std@@V?$allocator@U?$pair@$$CBHPAVIGameObject@Pegas@@@std@@@4@$0A@@std@@@std@@QAE@PAU012@00ABU?$pair@$$CBHPAVIGameObject@Pegas@@@2@D@Z 0040d380 f i game_manager.obj
 0001:0000c3f0       ??0?$_Container_base_aux_alloc_empty@V?$allocator@U?$pair@HH@std@@@std@@@std@@IAE@V?$allocator@U?$pair@HH@std@@@1@@Z 0040d3f0 f i game_manager.obj
 0001:0000c440       ??0?$_Tree_nod@V?$_Tmap_traits@HPAVIGameObject@Pegas@@U?$less@H@std@@V?$allocator@U?$pair@$$CBHPAVIGameObject@Pegas@@@std@@@4@$0A@@std@@@std@@IAE@ABU?$less@H@1@V?$allocator@U?$pair@$$CBHPAVIGameObject@Pegas@@@std@@@1@@Z 0040d440 f i game_manager.obj
 0001:0000c4b0       ?construct@?$allocator@PAU_Node@?$_Tree_nod@V?$_Tmap_traits@HPAVIGameObject@Pegas@@U?$less@H@std@@V?$allocator@U?$pair@$$CBHPAVIGameObject@Pegas@@@std@@@4@$0A@@std@@@std@@@std@@QAEXPAPAU_Node@?$_Tree_nod@V?$_Tmap_traits@HPAVIGameObject@Pegas@@U?$less@H@std@@V?$allocator@U?$pair@$$CBHPAVIGameObject@Pegas@@@std@@@4@$0A@@std@@@2@ABQAU342@@Z 0040d4b0 f i game_manager.obj
 0001:0000c500       ??0?$_Tmap_traits@HPAVIGameObject@Pegas@@U?$less@H@std@@V?$allocator@U?$pair@$$CBHPAVIGameObject@Pegas@@@std@@@4@$0A@@std@@QAE@U?$less@H@1@V?$allocator@U?$pair@$$CBHPAVIGameObject@Pegas@@@std@@@1@@Z 0040d500 f i game_manager.obj
 0001:0000c560       ??0?$_Container_base_aux_alloc_empty@V?$allocator@U?$pair@$$CBHPAVIGameObject@Pegas@@@std@@@std@@@std@@IAE@V?$allocator@U?$pair@$$CBHPAVIGameObject@Pegas@@@std@@@1@@Z 0040d560 f i game_manager.obj
 0001:0000c5b0       ??$?0VShip@Pegas@@@?$ptr@VProcess@Pegas@@@Pegas@@QAE@PAVShip@1@PAUCounter@1@@Z 0040d5b0 f i game_manager.obj
 0001:0000c6b0       ??$make_pair@HPAVShip@Pegas@@@std@@YA?AU?$pair@HPAVShip@Pegas@@@0@HPAVShip@Pegas@@@Z 0040d6b0 f i game_manager.obj
 0001:0000c700       ??$?0HPAVShip@Pegas@@@?$pair@$$CBHPAVIGameObject@Pegas@@@std@@QAE@ABU?$pair@HPAVShip@Pegas@@@1@@Z 0040d700 f i game_manager.obj
 0001:0000c780       ??$?0UEvent_Player_EnableControl@Pegas@@@?$ptr@UEvent@Pegas@@@Pegas@@QAE@PAUEvent_Player_EnableControl@1@PAUCounter@1@@Z 0040d780 f i game_manager.obj
 0001:0000c880       ??$?0UEvent_Player_EnableGodMode@Pegas@@@?$ptr@UEvent@Pegas@@@Pegas@@QAE@PAUEvent_Player_EnableGodMode@1@PAUCounter@1@@Z 0040d880 f i game_manager.obj
 0001:0000c980       ??$?0UEvent_Player_DisableGodMode@Pegas@@@?$ptr@UEvent@Pegas@@@Pegas@@QAE@PAUEvent_Player_DisableGodMode@1@PAUCounter@1@@Z 0040d980 f i game_manager.obj
 0001:0000ca80       ??$?0VWaiting@Pegas@@@?$ptr@VProcess@Pegas@@@Pegas@@QAE@PAVWaiting@1@PAUCounter@1@@Z 0040da80 f i game_manager.obj
 0001:0000cb80       ??$?0UEvent_Actor_CreateAsteroid@Pegas@@@?$ptr@UEvent@Pegas@@@Pegas@@QAE@PAUEvent_Actor_CreateAsteroid@1@PAUCounter@1@@Z 0040db80 f i game_manager.obj
 0001:0000cc80       ??$?8DU?$char_traits@D@std@@V?$allocator@D@1@@std@@YA_NABV?$basic_string@DU?$char_traits@D@std@@V?$allocator@D@2@@0@PBD@Z 0040dc80 f i game_manager.obj
 0001:0000ccd0       ??$?0UEvent_Actor_SetPosition@Pegas@@@?$ptr@UEvent@Pegas@@@Pegas@@QAE@PAUEvent_Actor_SetPosition@1@PAUCounter@1@@Z 0040dcd0 f i game_manager.obj
 0001:0000cdd0       ??$?0UEvent_Actor_Destroy@Pegas@@@?$ptr@UEvent@Pegas@@@Pegas@@QAE@PAUEvent_Actor_Destroy@1@PAUCounter@1@@Z 0040ddd0 f i game_manager.obj
 0001:0000ced0       ??$?0UEvent_Player_Thrust@Pegas@@@?$ptr@UEvent@Pegas@@@Pegas@@QAE@PAUEvent_Player_Thrust@1@PAUCounter@1@@Z 0040ded0 f i game_manager.obj
 0001:0000cfe0       ??$?0UEvent_Player_RotateLeft@Pegas@@@?$ptr@UEvent@Pegas@@@Pegas@@QAE@PAUEvent_Player_RotateLeft@1@PAUCounter@1@@Z 0040dfe0 f i game_manager.obj
 0001:0000d0e0       ??$?0UEvent_Player_RotateRight@Pegas@@@?$ptr@UEvent@Pegas@@@Pegas@@QAE@PAUEvent_Player_RotateRight@1@PAUCounter@1@@Z 0040e0e0 f i game_manager.obj
 0001:0000d1e0       ??$?0UEvent_Player_Fire@Pegas@@@?$ptr@UEvent@Pegas@@@Pegas@@QAE@PAUEvent_Player_Fire@1@PAUCounter@1@@Z 0040e1e0 f i game_manager.obj
 0001:0000d2e0       ??$?0UEvent_Player_Stop_Thrust@Pegas@@@?$ptr@UEvent@Pegas@@@Pegas@@QAE@PAUEvent_Player_Stop_Thrust@1@PAUCounter@1@@Z 0040e2e0 f i game_manager.obj
 0001:0000d3e0       ??$?0UEvent_Player_Stop_Rotation@Pegas@@@?$ptr@UEvent@Pegas@@@Pegas@@QAE@PAUEvent_Player_Stop_Rotation@1@PAUCounter@1@@Z 0040e3e0 f i game_manager.obj
 0001:0000d4e0       ??$?0UEvent_Player_Stop_Fire@Pegas@@@?$ptr@UEvent@Pegas@@@Pegas@@QAE@PAUEvent_Player_Stop_Fire@1@PAUCounter@1@@Z 0040e4e0 f i game_manager.obj
 0001:0000d5e0       ??$?8DU?$char_traits@D@std@@V?$allocator@D@1@@std@@YA_NABV?$basic_string@DU?$char_traits@D@std@@V?$allocator@D@2@@0@0@Z 0040e5e0 f i game_manager.obj
 0001:0000d630       ??$cast@UEvent_Actor_CreateAsteroid@Pegas@@@Event@Pegas@@QAEPAUEvent_Actor_CreateAsteroid@1@XZ 0040e630 f i game_manager.obj
 0001:0000d660       ??$?0VAsteroid@Pegas@@@?$ptr@VProcess@Pegas@@@Pegas@@QAE@PAVAsteroid@1@PAUCounter@1@@Z 0040e660 f i game_manager.obj
 0001:0000d760       ??$make_pair@HPAVAsteroid@Pegas@@@std@@YA?AU?$pair@HPAVAsteroid@Pegas@@@0@HPAVAsteroid@Pegas@@@Z 0040e760 f i game_manager.obj
 0001:0000d7b0       ??$?0HPAVAsteroid@Pegas@@@?$pair@$$CBHPAVIGameObject@Pegas@@@std@@QAE@ABU?$pair@HPAVAsteroid@Pegas@@@1@@Z 0040e7b0 f i game_manager.obj
 0001:0000d830       ??$cast@UEvent_Actor_CreateShatter@Pegas@@@Event@Pegas@@QAEPAUEvent_Actor_CreateShatter@1@XZ 0040e830 f i game_manager.obj
 0001:0000d860       ??$?0VShatter@Pegas@@@?$ptr@VProcess@Pegas@@@Pegas@@QAE@PAVShatter@1@PAUCounter@1@@Z 0040e860 f i game_manager.obj
 0001:0000d960       ??$make_pair@HPAVShatter@Pegas@@@std@@YA?AU?$pair@HPAVShatter@Pegas@@@0@HPAVShatter@Pegas@@@Z 0040e960 f i game_manager.obj
 0001:0000d9b0       ??$?0HPAVShatter@Pegas@@@?$pair@$$CBHPAVIGameObject@Pegas@@@std@@QAE@ABU?$pair@HPAVShatter@Pegas@@@1@@Z 0040e9b0 f i game_manager.obj
 0001:0000da30       ??$cast@UEvent_Actor_CreateBullet@Pegas@@@Event@Pegas@@QAEPAUEvent_Actor_CreateBullet@1@XZ 0040ea30 f i game_manager.obj
 0001:0000da60       ??$?0VBullet@Pegas@@@?$ptr@VProcess@Pegas@@@Pegas@@QAE@PAVBullet@1@PAUCounter@1@@Z 0040ea60 f i game_manager.obj
 0001:0000db60       ??$make_pair@HPAVBullet@Pegas@@@std@@YA?AU?$pair@HPAVBullet@Pegas@@@0@HPAVBullet@Pegas@@@Z 0040eb60 f i game_manager.obj
 0001:0000dbb0       ??$?0HPAVBullet@Pegas@@@?$pair@$$CBHPAVIGameObject@Pegas@@@std@@QAE@ABU?$pair@HPAVBullet@Pegas@@@1@@Z 0040ebb0 f i game_manager.obj
 0001:0000dc30       ??$cast@UEvent_Actor_CreateExplosion@Pegas@@@Event@Pegas@@QAEPAUEvent_Actor_CreateExplosion@1@XZ 0040ec30 f i game_manager.obj
 0001:0000dc60       ??$?0VExplosion@Pegas@@@?$ptr@VProcess@Pegas@@@Pegas@@QAE@PAVExplosion@1@PAUCounter@1@@Z 0040ec60 f i game_manager.obj
 0001:0000dd60       ??$make_pair@HPAVExplosion@Pegas@@@std@@YA?AU?$pair@HPAVExplosion@Pegas@@@0@HPAVExplosion@Pegas@@@Z 0040ed60 f i game_manager.obj
 0001:0000ddb0       ??$?0HPAVExplosion@Pegas@@@?$pair@$$CBHPAVIGameObject@Pegas@@@std@@QAE@ABU?$pair@HPAVExplosion@Pegas@@@1@@Z 0040edb0 f i game_manager.obj
 0001:0000de30       ??$cast@UEvent_Actor_Destroy@Pegas@@@Event@Pegas@@QAEPAUEvent_Actor_Destroy@1@XZ 0040ee30 f i game_manager.obj
 0001:0000de60       ??$?0UEvent_Actor_CreateShip@Pegas@@@?$ptr@UEvent@Pegas@@@Pegas@@QAE@PAUEvent_Actor_CreateShip@1@PAUCounter@1@@Z 0040ee60 f i game_manager.obj
 0001:0000df60       ??$insert@V?$_Const_iterator@$00@?$list@U?$pair@HH@std@@V?$allocator@U?$pair@HH@std@@@2@@std@@@?$list@U?$pair@HH@std@@V?$allocator@U?$pair@HH@std@@@2@@std@@QAEXV?$_Const_iterator@$00@01@00@Z 0040ef60 f i game_manager.obj
 0001:0000e090       ??$_Debug_lt_pred@U?$less@H@std@@HH@std@@YA_NU?$less@H@0@ABH1PB_WI@Z 0040f090 f i game_manager.obj
 0001:0000e110       ??$_Distance@Viterator@?$_Tree@V?$_Tmap_traits@HPAVIGameObject@Pegas@@U?$less@H@std@@V?$allocator@U?$pair@$$CBHPAVIGameObject@Pegas@@@std@@@4@$0A@@std@@@std@@I@std@@YAXViterator@?$_Tree@V?$_Tmap_traits@HPAVIGameObject@Pegas@@U?$less@H@std@@V?$allocator@U?$pair@$$CBHPAVIGameObject@Pegas@@@std@@@4@$0A@@std@@@0@0AAI@Z 0040f110 f i game_manager.obj
 0001:0000e200       ??$_Distance@Vconst_iterator@?$_Tree@V?$_Tmap_traits@HPAVIGameObject@Pegas@@U?$less@H@std@@V?$allocator@U?$pair@$$CBHPAVIGameObject@Pegas@@@std@@@4@$0A@@std@@@std@@I@std@@YAXVconst_iterator@?$_Tree@V?$_Tmap_traits@HPAVIGameObject@Pegas@@U?$less@H@std@@V?$allocator@U?$pair@$$CBHPAVIGameObject@Pegas@@@std@@@4@$0A@@std@@@0@0AAI@Z 0040f200 f i game_manager.obj
 0001:0000e2f0       ??$?0U?$pair@HH@std@@@?$allocator@PAU_Node@?$_List_nod@U?$pair@HH@std@@V?$allocator@U?$pair@HH@std@@@2@@std@@@std@@QAE@ABV?$allocator@U?$pair@HH@std@@@1@@Z 0040f2f0 f i game_manager.obj
 0001:0000e320       ??$_Allocate@U_Node@?$_List_nod@U?$pair@HH@std@@V?$allocator@U?$pair@HH@std@@@2@@std@@@std@@YAPAU_Node@?$_List_nod@U?$pair@HH@std@@V?$allocator@U?$pair@HH@std@@@2@@0@IPAU120@@Z 0040f320 f i game_manager.obj
 0001:0000e3a0       ??$_Construct@PAU_Node@?$_List_nod@U?$pair@HH@std@@V?$allocator@U?$pair@HH@std@@@2@@std@@PAU123@@std@@YAXPAPAU_Node@?$_List_nod@U?$pair@HH@std@@V?$allocator@U?$pair@HH@std@@@2@@0@ABQAU120@@Z 0040f3a0 f i game_manager.obj
 0001:0000e420       ??$_Destroy@PAU_Node@?$_List_nod@U?$pair@HH@std@@V?$allocator@U?$pair@HH@std@@@2@@std@@@std@@YAXPAPAU_Node@?$_List_nod@U?$pair@HH@std@@V?$allocator@U?$pair@HH@std@@@2@@0@@Z 0040f420 f i game_manager.obj
 0001:0000e450       ??$_Destroy@PAU_Node@?$_Tree_nod@V?$_Tmap_traits@HPAVIGameObject@Pegas@@U?$less@H@std@@V?$allocator@U?$pair@$$CBHPAVIGameObject@Pegas@@@std@@@4@$0A@@std@@@std@@@std@@YAXPAPAU_Node@?$_Tree_nod@V?$_Tmap_traits@HPAVIGameObject@Pegas@@U?$less@H@std@@V?$allocator@U?$pair@$$CBHPAVIGameObject@Pegas@@@std@@@4@$0A@@std@@@0@@Z 0040f450 f i game_manager.obj
 0001:0000e480       ??$?0U?$pair@HH@std@@@?$allocator@U_Node@?$_List_nod@U?$pair@HH@std@@V?$allocator@U?$pair@HH@std@@@2@@std@@@std@@QAE@ABV?$allocator@U?$pair@HH@std@@@1@@Z 0040f480 f i game_manager.obj
 0001:0000e4b0       ??$_Destroy@U_Node@?$_List_nod@U?$pair@HH@std@@V?$allocator@U?$pair@HH@std@@@2@@std@@@std@@YAXPAU_Node@?$_List_nod@U?$pair@HH@std@@V?$allocator@U?$pair@HH@std@@@2@@0@@Z 0040f4b0 f i game_manager.obj
 0001:0000e4e0       ??$?0U?$pair@$$CBHPAVIGameObject@Pegas@@@std@@@?$allocator@PAU_Node@?$_Tree_nod@V?$_Tmap_traits@HPAVIGameObject@Pegas@@U?$less@H@std@@V?$allocator@U?$pair@$$CBHPAVIGameObject@Pegas@@@std@@@4@$0A@@std@@@std@@@std@@QAE@ABV?$allocator@U?$pair@$$CBHPAVIGameObject@Pegas@@@std@@@1@@Z 0040f4e0 f i game_manager.obj
 0001:0000e510       ??$_Allocate@U_Node@?$_Tree_nod@V?$_Tmap_traits@HPAVIGameObject@Pegas@@U?$less@H@std@@V?$allocator@U?$pair@$$CBHPAVIGameObject@Pegas@@@std@@@4@$0A@@std@@@std@@@std@@YAPAU_Node@?$_Tree_nod@V?$_Tmap_traits@HPAVIGameObject@Pegas@@U?$less@H@std@@V?$allocator@U?$pair@$$CBHPAVIGameObject@Pegas@@@std@@@4@$0A@@std@@@0@IPAU120@@Z 0040f510 f i game_manager.obj
 0001:0000e590       ??$_Destroy@U_Node@?$_Tree_nod@V?$_Tmap_traits@HPAVIGameObject@Pegas@@U?$less@H@std@@V?$allocator@U?$pair@$$CBHPAVIGameObject@Pegas@@@std@@@4@$0A@@std@@@std@@@std@@YAXPAU_Node@?$_Tree_nod@V?$_Tmap_traits@HPAVIGameObject@Pegas@@U?$less@H@std@@V?$allocator@U?$pair@$$CBHPAVIGameObject@Pegas@@@std@@@4@$0A@@std@@@0@@Z 0040f590 f i game_manager.obj
 0001:0000e5c0       ??$?0U?$pair@$$CBHPAVIGameObject@Pegas@@@std@@@?$allocator@U_Node@?$_Tree_nod@V?$_Tmap_traits@HPAVIGameObject@Pegas@@U?$less@H@std@@V?$allocator@U?$pair@$$CBHPAVIGameObject@Pegas@@@std@@@4@$0A@@std@@@std@@@std@@QAE@ABV?$allocator@U?$pair@$$CBHPAVIGameObject@Pegas@@@std@@@1@@Z 0040f5c0 f i game_manager.obj
 0001:0000e5f0       ??$_Construct@PAU_Node@?$_Tree_nod@V?$_Tmap_traits@HPAVIGameObject@Pegas@@U?$less@H@std@@V?$allocator@U?$pair@$$CBHPAVIGameObject@Pegas@@@std@@@4@$0A@@std@@@std@@PAU123@@std@@YAXPAPAU_Node@?$_Tree_nod@V?$_Tmap_traits@HPAVIGameObject@Pegas@@U?$less@H@std@@V?$allocator@U?$pair@$$CBHPAVIGameObject@Pegas@@@std@@@4@$0A@@std@@@0@ABQAU120@@Z 0040f5f0 f i game_manager.obj
 0001:0000e670       ?acquire@?$ptr@VProcess@Pegas@@@Pegas@@AAEXPAUCounter@2@@Z 0040f670 f i game_manager.obj
 0001:0000e6c0       ??0?$pair@HPAVShip@Pegas@@@std@@QAE@ABHABQAVShip@Pegas@@@Z 0040f6c0 f i game_manager.obj
 0001:0000e710       ??0?$pair@HPAVAsteroid@Pegas@@@std@@QAE@ABHABQAVAsteroid@Pegas@@@Z 0040f710 f i game_manager.obj
 0001:0000e760       ??0?$pair@HPAVShatter@Pegas@@@std@@QAE@ABHABQAVShatter@Pegas@@@Z 0040f760 f i game_manager.obj
 0001:0000e7b0       ??0?$pair@HPAVBullet@Pegas@@@std@@QAE@ABHABQAVBullet@Pegas@@@Z 0040f7b0 f i game_manager.obj
 0001:0000e800       ??0?$pair@HPAVExplosion@Pegas@@@std@@QAE@ABHABQAVExplosion@Pegas@@@Z 0040f800 f i game_manager.obj
 0001:0000e850       ??$_Iter_cat@V?$_Const_iterator@$00@?$list@U?$pair@HH@std@@V?$allocator@U?$pair@HH@std@@@2@@std@@@std@@YA?AUbidirectional_iterator_tag@0@ABV?$_Const_iterator@$00@?$list@U?$pair@HH@std@@V?$allocator@U?$pair@HH@std@@@2@@0@@Z 0040f850 f i game_manager.obj
 0001:0000e8b0       ??$_Insert@V?$_Const_iterator@$00@?$list@U?$pair@HH@std@@V?$allocator@U?$pair@HH@std@@@2@@std@@@?$list@U?$pair@HH@std@@V?$allocator@U?$pair@HH@std@@@2@@std@@QAEXV?$_Const_iterator@$00@01@00Uforward_iterator_tag@1@@Z 0040f8b0 f i game_manager.obj
 0001:0000eb00       ??$_Iter_cat@Viterator@?$_Tree@V?$_Tmap_traits@HPAVIGameObject@Pegas@@U?$less@H@std@@V?$allocator@U?$pair@$$CBHPAVIGameObject@Pegas@@@std@@@4@$0A@@std@@@std@@@std@@YA?AUbidirectional_iterator_tag@0@ABViterator@?$_Tree@V?$_Tmap_traits@HPAVIGameObject@Pegas@@U?$less@H@std@@V?$allocator@U?$pair@$$CBHPAVIGameObject@Pegas@@@std@@@4@$0A@@std@@@0@@Z 0040fb00 f i game_manager.obj
 0001:0000eb60       ??$_Distance2@Viterator@?$_Tree@V?$_Tmap_traits@HPAVIGameObject@Pegas@@U?$less@H@std@@V?$allocator@U?$pair@$$CBHPAVIGameObject@Pegas@@@std@@@4@$0A@@std@@@std@@I@std@@YAXViterator@?$_Tree@V?$_Tmap_traits@HPAVIGameObject@Pegas@@U?$less@H@std@@V?$allocator@U?$pair@$$CBHPAVIGameObject@Pegas@@@std@@@4@$0A@@std@@@0@0AAIUbidirectional_iterator_tag@0@@Z 0040fb60 f i game_manager.obj
 0001:0000ec10       ??$_Iter_cat@Vconst_iterator@?$_Tree@V?$_Tmap_traits@HPAVIGameObject@Pegas@@U?$less@H@std@@V?$allocator@U?$pair@$$CBHPAVIGameObject@Pegas@@@std@@@4@$0A@@std@@@std@@@std@@YA?AUbidirectional_iterator_tag@0@ABVconst_iterator@?$_Tree@V?$_Tmap_traits@HPAVIGameObject@Pegas@@U?$less@H@std@@V?$allocator@U?$pair@$$CBHPAVIGameObject@Pegas@@@std@@@4@$0A@@std@@@0@@Z 0040fc10 f i game_manager.obj
 0001:0000ec70       ??$_Distance2@Vconst_iterator@?$_Tree@V?$_Tmap_traits@HPAVIGameObject@Pegas@@U?$less@H@std@@V?$allocator@U?$pair@$$CBHPAVIGameObject@Pegas@@@std@@@4@$0A@@std@@@std@@I@std@@YAXVconst_iterator@?$_Tree@V?$_Tmap_traits@HPAVIGameObject@Pegas@@U?$less@H@std@@V?$allocator@U?$pair@$$CBHPAVIGameObject@Pegas@@@std@@@4@$0A@@std@@@0@0AAIUbidirectional_iterator_tag@0@@Z 0040fc70 f i game_manager.obj
 0001:0000ed20       ?_Insert@?$list@U?$pair@HH@std@@V?$allocator@U?$pair@HH@std@@@2@@std@@QAEXV?$_Const_iterator@$00@12@ABU?$pair@HH@2@@Z 0040fd20 f i game_manager.obj
 0001:0000ee20       ?erase@?$list@U?$pair@HH@std@@V?$allocator@U?$pair@HH@std@@@2@@std@@QAE?AV?$_Iterator@$00@12@V?$_Const_iterator@$00@12@@Z 0040fe20 f i game_manager.obj
 0001:0000eff0       ??F?$_Const_iterator@$00@?$list@U?$pair@HH@std@@V?$allocator@U?$pair@HH@std@@@2@@std@@QAEAAV012@XZ 0040fff0 f i game_manager.obj
 0001:0000f0d0       ?_Make_iter@?$list@U?$pair@HH@std@@V?$allocator@U?$pair@HH@std@@@2@@std@@QBE?AV?$_Iterator@$00@12@V?$_Const_iterator@$00@12@@Z 004100d0 f i game_manager.obj
 0001:0000f180       ?_Buynode@?$list@U?$pair@HH@std@@V?$allocator@U?$pair@HH@std@@@2@@std@@IAEPAU_Node@?$_List_nod@U?$pair@HH@std@@V?$allocator@U?$pair@HH@std@@@2@@2@PAU342@0ABU?$pair@HH@2@@Z 00410180 f i game_manager.obj
 0001:0000f300       ?_Incsize@?$list@U?$pair@HH@std@@V?$allocator@U?$pair@HH@std@@@2@@std@@IAEXI@Z 00410300 f i game_manager.obj
 0001:0000f3e0       ??E?$_Const_iterator@$00@?$list@U?$pair@HH@std@@V?$allocator@U?$pair@HH@std@@@2@@std@@QAE?AV012@H@Z 004103e0 f i game_manager.obj
 0001:0000f4c0       ?_Mynode@?$_Const_iterator@$00@?$list@U?$pair@HH@std@@V?$allocator@U?$pair@HH@std@@@2@@std@@QBEPAU_Node@?$_List_nod@U?$pair@HH@std@@V?$allocator@U?$pair@HH@std@@@2@@3@XZ 004104c0 f i game_manager.obj
 0001:0000f4f0       ?max_size@?$list@U?$pair@HH@std@@V?$allocator@U?$pair@HH@std@@@2@@std@@QBEIXZ 004104f0 f i game_manager.obj
 0001:0000f540       ?construct@?$allocator@U?$pair@HH@std@@@std@@QAEXPAU?$pair@HH@2@ABU32@@Z 00410540 f i game_manager.obj
 0001:0000f590       ?max_size@?$allocator@U?$pair@HH@std@@@std@@QBEIXZ 00410590 f i game_manager.obj
 0001:0000f5f0       ??$_Debug_range@V?$_Const_iterator@$00@?$list@U?$pair@HH@std@@V?$allocator@U?$pair@HH@std@@@2@@std@@@std@@YAXV?$_Const_iterator@$00@?$list@U?$pair@HH@std@@V?$allocator@U?$pair@HH@std@@@2@@0@0PB_WI@Z 004105f0 f i game_manager.obj
 0001:0000f6f0       ??$_Construct@U?$pair@HH@std@@U12@@std@@YAXPAU?$pair@HH@0@ABU10@@Z 004106f0 f i game_manager.obj
 0001:0000f770       ??$_Debug_range2@V?$_Const_iterator@$00@?$list@U?$pair@HH@std@@V?$allocator@U?$pair@HH@std@@@2@@std@@@std@@YAXV?$_Const_iterator@$00@?$list@U?$pair@HH@std@@V?$allocator@U?$pair@HH@std@@@2@@0@0PB_WIUinput_iterator_tag@0@@Z 00410770 f i game_manager.obj
 0001:0000f7f0       ??_EGameManager@Pegas@@WDM@AEPAXI@Z 004107f0 f i game_manager.obj
 0001:0000f800       ??_EGameManager@Pegas@@WDA@AEPAXI@Z 00410800 f i game_manager.obj
 0001:0000f810       ??_EGameManager@Pegas@@WDE@AEPAXI@Z 00410810 f i game_manager.obj
 0001:0000f820       ??0Vector3@Pegas@@QAE@XZ   00410820 f i game_manager.obj
 0001:0000f870       ??0Vector3@Pegas@@QAE@ABV01@@Z 00410870 f i game_manager.obj
 0001:0000f8d0       ??0Vector3@Pegas@@QAE@MMM@Z 004108d0 f i game_manager.obj
 0001:0000f920       ??HPegas@@YA?AVVector3@0@ABV10@0@Z 00410920 f i game_manager.obj
 0001:0000f9b0       ??GPegas@@YA?AVVector3@0@ABV10@0@Z 004109b0 f i game_manager.obj
 0001:0000fa40       ??DPegas@@YA?AVVector3@0@ABV10@M@Z 00410a40 f i game_manager.obj
 0001:0000fad0       ?normalize@Vector3@Pegas@@QAEAAV12@XZ 00410ad0 f i game_manager.obj
 0001:0000fb50       ?length@Vector3@Pegas@@QAEMXZ 00410b50 f i game_manager.obj
 0001:0000fbd0       ?sqrt@@YAMM@Z              00410bd0 f i game_manager.obj
 0001:0000fc20       _sqrtf                     00410c20 f i game_manager.obj
 0001:0000fc70       ??0NullPointerException@Pegas@@QAE@XZ 00410c70 f i game_manager.obj
 0001:0000fcc0       ?what@NullPointerException@Pegas@@UBEPBDXZ 00410cc0 f i game_manager.obj
 0001:0000fcf0       ??_GNullPointerException@Pegas@@UAEPAXI@Z 00410cf0 f i game_manager.obj
 0001:0000fcf0       ??_ENullPointerException@Pegas@@UAEPAXI@Z 00410cf0 f i game_manager.obj
 0001:0000fd50       ??1NullPointerException@Pegas@@UAE@XZ 00410d50 f i game_manager.obj
 0001:0000fda0       ??0Counter@Pegas@@QAE@I@Z  00410da0 f i game_manager.obj
 0001:0000fde0       ??1Event@Pegas@@UAE@XZ     00410de0 f i game_manager.obj
 0001:0000fe20       ??_EEvent@Pegas@@UAEPAXI@Z 00410e20 f i game_manager.obj
 0001:0000fe20       ??_GEvent@Pegas@@UAEPAXI@Z 00410e20 f i game_manager.obj
 0001:0000fe80       ??1IEventListener@Pegas@@UAE@XZ 00410e80 f i game_manager.obj
 0001:0000fec0       ??_GIEventListener@Pegas@@UAEPAXI@Z 00410ec0 f i game_manager.obj
 0001:0000fec0       ??_EIEventListener@Pegas@@UAEPAXI@Z 00410ec0 f i game_manager.obj
 0001:0000ff20       ?onActivate@IScreenLayer@Pegas@@UAEX_N@Z 00410f20 f i game_manager.obj
 0001:0000ff50       ??0ProcessManager@Pegas@@QAE@XZ 00410f50 f i game_manager.obj
 0001:00010020       ??1ProcessManager@Pegas@@UAE@XZ 00411020 f i game_manager.obj
 0001:000100d0       ??_EProcessManager@Pegas@@UAEPAXI@Z 004110d0 f i game_manager.obj
 0001:000100d0       ??_GProcessManager@Pegas@@UAEPAXI@Z 004110d0 f i game_manager.obj
 0001:00010130       ??1?$map@HV?$ptr@VProcess@Pegas@@@Pegas@@U?$less@H@std@@V?$allocator@U?$pair@$$CBHV?$ptr@VProcess@Pegas@@@Pegas@@@std@@@4@@std@@QAE@XZ 00411130 f i game_manager.obj
 0001:00010170       ??1?$queue@HV?$deque@HV?$allocator@H@std@@@std@@@std@@QAE@XZ 00411170 f i game_manager.obj
 0001:000101b0       ??0Event@Pegas@@QAE@XZ     004111b0 f i game_manager.obj
 0001:000101f0       ??0BaseScreenLayer@Pegas@@QAE@ABV?$basic_string@_WU?$char_traits@_W@std@@V?$allocator@_W@2@@std@@ABH_N@Z 004111f0 f i game_manager.obj
 0001:000102d0       ??0IKeyboardController@Pegas@@QAE@XZ 004112d0 f i game_manager.obj
 0001:00010310       ??1IKeyboardController@Pegas@@UAE@XZ 00411310 f i game_manager.obj
 0001:00010350       ??_GIKeyboardController@Pegas@@UAEPAXI@Z 00411350 f i game_manager.obj
 0001:00010350       ??_EIKeyboardController@Pegas@@UAEPAXI@Z 00411350 f i game_manager.obj
 0001:000103b0       ??0IMouseController@Pegas@@QAE@XZ 004113b0 f i game_manager.obj
 0001:000103f0       ??1IMouseController@Pegas@@UAE@XZ 004113f0 f i game_manager.obj
 0001:00010430       ??_EIMouseController@Pegas@@UAEPAXI@Z 00411430 f i game_manager.obj
 0001:00010430       ??_GIMouseController@Pegas@@UAEPAXI@Z 00411430 f i game_manager.obj
 0001:00010490       ??0IScreenLayer@Pegas@@QAE@ABV?$basic_string@_WU?$char_traits@_W@std@@V?$allocator@_W@2@@std@@ABH@Z 00411490 f i game_manager.obj
 0001:00010500       ??1IScreenLayer@Pegas@@UAE@XZ 00411500 f i game_manager.obj
 0001:00010550       ?setActivity@IScreenLayer@Pegas@@QAEX_N@Z 00411550 f i game_manager.obj
 0001:000105b0       ??_GIScreenLayer@Pegas@@UAEPAXI@Z 004115b0 f i game_manager.obj
 0001:000105b0       ??_EIScreenLayer@Pegas@@UAEPAXI@Z 004115b0 f i game_manager.obj
 0001:00010610       ??1BaseScreenLayer@Pegas@@UAE@XZ 00411610 f i game_manager.obj
 0001:000106c0       ?update@BaseScreenLayer@Pegas@@UAEXPAVIPlatformContext@2@HH@Z 004116c0 f i game_manager.obj
 0001:000106f0       ?render@BaseScreenLayer@Pegas@@UAEXPAVIPlatformContext@2@@Z 004116f0 f i game_manager.obj
 0001:00010720       ?create@BaseScreenLayer@Pegas@@UAEXPAVIPlatformContext@2@@Z 00411720 f i game_manager.obj
 0001:00010750       ?destroy@BaseScreenLayer@Pegas@@UAEXPAVIPlatformContext@2@@Z 00411750 f i game_manager.obj
 0001:00010780       ??_GBaseScreenLayer@Pegas@@UAEPAXI@Z 00411780 f i game_manager.obj
 0001:00010780       ??_EBaseScreenLayer@Pegas@@UAEPAXI@Z 00411780 f i game_manager.obj
 0001:000107e0       ??0IEventListener@Pegas@@QAE@XZ 004117e0 f i game_manager.obj
 0001:00010820       ??0?$basic_string@DU?$char_traits@D@std@@V?$allocator@D@2@@std@@QAE@ABV01@@Z 00411820 f i game_manager.obj
 0001:000108c0       ?c_str@?$basic_string@DU?$char_traits@D@std@@V?$allocator@D@2@@std@@QBEPBDXZ 004118c0 f i game_manager.obj
 0001:00010900       ?compare@?$basic_string@DU?$char_traits@D@std@@V?$allocator@D@2@@std@@QBEHABV12@@Z 00411900 f i game_manager.obj
 0001:00010960       ?compare@?$basic_string@DU?$char_traits@D@std@@V?$allocator@D@2@@std@@QBEHPBD@Z 00411960 f i game_manager.obj
 0001:000109e0       ??0?$basic_string@_WU?$char_traits@_W@std@@V?$allocator@_W@2@@std@@QAE@PB_W@Z 004119e0 f i game_manager.obj
 0001:00010a90       ??0?$basic_string@_WU?$char_traits@_W@std@@V?$allocator@_W@2@@std@@QAE@ABV01@@Z 00411a90 f i game_manager.obj
 0001:00010b30       ??1?$basic_string@_WU?$char_traits@_W@std@@V?$allocator@_W@2@@std@@QAE@XZ 00411b30 f i game_manager.obj
 0001:00010bc0       ??0?$map@HV?$ptr@VProcess@Pegas@@@Pegas@@U?$less@H@std@@V?$allocator@U?$pair@$$CBHV?$ptr@VProcess@Pegas@@@Pegas@@@std@@@4@@std@@QAE@XZ 00411bc0 f i game_manager.obj
 0001:00010c20       ??1?$_Tree@V?$_Tmap_traits@HV?$ptr@VProcess@Pegas@@@Pegas@@U?$less@H@std@@V?$allocator@U?$pair@$$CBHV?$ptr@VProcess@Pegas@@@Pegas@@@std@@@4@$0A@@std@@@std@@QAE@XZ 00411c20 f i game_manager.obj
 0001:00010ca0       ??0?$queue@HV?$deque@HV?$allocator@H@std@@@std@@@std@@QAE@XZ 00411ca0 f i game_manager.obj
 0001:00010cf0       ??1?$deque@HV?$allocator@H@std@@@std@@QAE@XZ 00411cf0 f i game_manager.obj
 0001:00010d70       ??1?$_String_val@_WV?$allocator@_W@std@@@std@@QAE@XZ 00411d70 f i game_manager.obj
 0001:00010db0       ??1?$_Tree_val@V?$_Tmap_traits@HV?$ptr@VProcess@Pegas@@@Pegas@@U?$less@H@std@@V?$allocator@U?$pair@$$CBHV?$ptr@VProcess@Pegas@@@Pegas@@@std@@@4@$0A@@std@@@std@@QAE@XZ 00411db0 f i game_manager.obj
 0001:00010df0       ??1?$_Deque_val@HV?$allocator@H@std@@@std@@QAE@XZ 00411df0 f i game_manager.obj
 0001:00010e30       ??1?$_Tree_ptr@V?$_Tmap_traits@HV?$ptr@VProcess@Pegas@@@Pegas@@U?$less@H@std@@V?$allocator@U?$pair@$$CBHV?$ptr@VProcess@Pegas@@@Pegas@@@std@@@4@$0A@@std@@@std@@QAE@XZ 00411e30 f i game_manager.obj
 0001:00010e70       ??1?$_Deque_map@HV?$allocator@H@std@@@std@@QAE@XZ 00411e70 f i game_manager.obj
 0001:00010eb0       ??1?$_Tree_nod@V?$_Tmap_traits@HV?$ptr@VProcess@Pegas@@@Pegas@@U?$less@H@std@@V?$allocator@U?$pair@$$CBHV?$ptr@VProcess@Pegas@@@Pegas@@@std@@@4@$0A@@std@@@std@@QAE@XZ 00411eb0 f i game_manager.obj
 0001:00010ef0       ??1?$_Tmap_traits@HV?$ptr@VProcess@Pegas@@@Pegas@@U?$less@H@std@@V?$allocator@U?$pair@$$CBHV?$ptr@VProcess@Pegas@@@Pegas@@@std@@@4@$0A@@std@@QAE@XZ 00411ef0 f i game_manager.obj
 0001:00010f30       ?compare@?$basic_string@DU?$char_traits@D@std@@V?$allocator@D@2@@std@@QBEHIIPBDI@Z 00411f30 f i game_manager.obj
 0001:00011040       ?compare@?$char_traits@D@std@@SAHPBD0I@Z 00412040 f i game_manager.obj
 0001:00011090       ??0?$_String_val@DV?$allocator@D@std@@@std@@QAE@ABV01@@Z 00412090 f i game_manager.obj
 0001:00011100       ?assign@?$basic_string@_WU?$char_traits@_W@std@@V?$allocator@_W@2@@std@@QAEAAV12@ABV12@II@Z 00412100 f i game_manager.obj
 0001:000111f0       ?erase@?$basic_string@_WU?$char_traits@_W@std@@V?$allocator@_W@2@@std@@QAEAAV12@II@Z 004121f0 f i game_manager.obj
 0001:000112c0       ?size@?$basic_string@_WU?$char_traits@_W@std@@V?$allocator@_W@2@@std@@QBEIXZ 004122c0 f i game_manager.obj
 0001:000112f0       ?assign@?$basic_string@_WU?$char_traits@_W@std@@V?$allocator@_W@2@@std@@QAEAAV12@PB_W@Z 004122f0 f i game_manager.obj
 0001:00011360       ?length@?$char_traits@_W@std@@SAIPB_W@Z 00412360 f i game_manager.obj
 0001:000113a0       ?_Eos@?$basic_string@_WU?$char_traits@_W@std@@V?$allocator@_W@2@@std@@IAEXI@Z 004123a0 f i game_manager.obj
 0001:00011410       ?assign@?$char_traits@_W@std@@SAXAA_WAB_W@Z 00412410 f i game_manager.obj
 0001:00011450       ?_Tidy@?$basic_string@_WU?$char_traits@_W@std@@V?$allocator@_W@2@@std@@IAEX_NI@Z 00412450 f i game_manager.obj
 0001:00011500       ?_Myptr@?$basic_string@_WU?$char_traits@_W@std@@V?$allocator@_W@2@@std@@IAEPA_WXZ 00412500 f i game_manager.obj
 0001:00011560       ?_Myptr@?$basic_string@_WU?$char_traits@_W@std@@V?$allocator@_W@2@@std@@IBEPB_WXZ 00412560 f i game_manager.obj
 0001:000115c0       ??0?$_String_val@_WV?$allocator@_W@std@@@std@@IAE@V?$allocator@_W@1@@Z 004125c0 f i game_manager.obj
 0001:00011620       ??0?$_String_val@_WV?$allocator@_W@std@@@std@@QAE@ABV01@@Z 00412620 f i game_manager.obj
 0001:00011690       ??0?$allocator@_W@std@@QAE@XZ 00412690 f i game_manager.obj
 0001:000116c0       ??1?$_Container_base_aux_alloc_empty@V?$allocator@H@std@@@std@@IAE@XZ 004126c0 f i game_manager.obj
 0001:00011700       ??0?$_Tree@V?$_Tmap_traits@HV?$ptr@VProcess@Pegas@@@Pegas@@U?$less@H@std@@V?$allocator@U?$pair@$$CBHV?$ptr@VProcess@Pegas@@@Pegas@@@std@@@4@$0A@@std@@@std@@QAE@ABU?$less@H@1@ABV?$allocator@U?$pair@$$CBHV?$ptr@VProcess@Pegas@@@Pegas@@@std@@@1@@Z 00412700 f i game_manager.obj
 0001:000117a0       ?_Tidy@?$_Tree@V?$_Tmap_traits@HV?$ptr@VProcess@Pegas@@@Pegas@@U?$less@H@std@@V?$allocator@U?$pair@$$CBHV?$ptr@VProcess@Pegas@@@Pegas@@@std@@@4@$0A@@std@@@std@@IAEXXZ 004127a0 f i game_manager.obj
 0001:00011960       ??1?$_Container_base_aux_alloc_empty@V?$allocator@U?$pair@$$CBHV?$ptr@VProcess@Pegas@@@Pegas@@@std@@@std@@@std@@IAE@XZ 00412960 f i game_manager.obj
 0001:000119a0       ??0?$allocator@U?$pair@$$CBHV?$ptr@VProcess@Pegas@@@Pegas@@@std@@@std@@QAE@XZ 004129a0 f i game_manager.obj
 0001:000119d0       ??0?$deque@HV?$allocator@H@std@@@std@@QAE@XZ 004129d0 f i game_manager.obj
 0001:00011a50       ??0?$allocator@H@std@@QAE@XZ 00412a50 f i game_manager.obj
 0001:00011a80       ?_Tidy@?$deque@HV?$allocator@H@std@@@std@@IAEXXZ 00412a80 f i game_manager.obj
 0001:00011b70       ??1iterator@?$_Tree@V?$_Tmap_traits@HV?$ptr@VProcess@Pegas@@@Pegas@@U?$less@H@std@@V?$allocator@U?$pair@$$CBHV?$ptr@VProcess@Pegas@@@Pegas@@@std@@@4@$0A@@std@@@std@@QAE@XZ 00412b70 f i game_manager.obj
 0001:00011bb0       ??0const_iterator@?$_Tree@V?$_Tmap_traits@HV?$ptr@VProcess@Pegas@@@Pegas@@U?$less@H@std@@V?$allocator@U?$pair@$$CBHV?$ptr@VProcess@Pegas@@@Pegas@@@std@@@4@$0A@@std@@@std@@QAE@ABV012@@Z 00412bb0 f i game_manager.obj
 0001:00011c10       ??1const_iterator@?$_Tree@V?$_Tmap_traits@HV?$ptr@VProcess@Pegas@@@Pegas@@U?$less@H@std@@V?$allocator@U?$pair@$$CBHV?$ptr@VProcess@Pegas@@@Pegas@@@std@@@4@$0A@@std@@@std@@QAE@XZ 00412c10 f i game_manager.obj
 0001:00011c50       ??0?$_Bidit@U?$pair@$$CBHV?$ptr@VProcess@Pegas@@@Pegas@@@std@@HPBU12@ABU12@@std@@QAE@ABU01@@Z 00412c50 f i game_manager.obj
 0001:00011ca0       ??1?$_Bidit@U?$pair@$$CBHV?$ptr@VProcess@Pegas@@@Pegas@@@std@@HPBU12@ABU12@@std@@QAE@XZ 00412ca0 f i game_manager.obj
 0001:00011ce0       ??0?$_Iterator_with_base@Ubidirectional_iterator_tag@std@@U?$pair@$$CBHV?$ptr@VProcess@Pegas@@@Pegas@@@2@HPBU32@ABU32@V_Iterator_base@2@@std@@QAE@ABU01@@Z 00412ce0 f i game_manager.obj
 0001:00011d30       ??1?$_Iterator_with_base@Ubidirectional_iterator_tag@std@@U?$pair@$$CBHV?$ptr@VProcess@Pegas@@@Pegas@@@2@HPBU32@ABU32@V_Iterator_base@2@@std@@QAE@XZ 00412d30 f i game_manager.obj
 0001:00011d70       ?assign@?$basic_string@_WU?$char_traits@_W@std@@V?$allocator@_W@2@@std@@QAEAAV12@PB_WI@Z 00412d70 f i game_manager.obj
 0001:00011e40       ?_Grow@?$basic_string@_WU?$char_traits@_W@std@@V?$allocator@_W@2@@std@@IAE_NI_N@Z 00412e40 f i game_manager.obj
 0001:00011f10       ??0?$allocator@_W@std@@QAE@ABV01@@Z 00412f10 f i game_manager.obj
 0001:00011f40       ?deallocate@?$allocator@_W@std@@QAEXPA_WI@Z 00412f40 f i game_manager.obj
 0001:00011f90       ?deallocate@?$allocator@H@std@@QAEXPAHI@Z 00412f90 f i game_manager.obj
 0001:00011fe0       ?_Left@?$_Tree@V?$_Tmap_traits@HV?$ptr@VProcess@Pegas@@@Pegas@@U?$less@H@std@@V?$allocator@U?$pair@$$CBHV?$ptr@VProcess@Pegas@@@Pegas@@@std@@@4@$0A@@std@@@std@@KAAAPAU_Node@?$_Tree_nod@V?$_Tmap_traits@HV?$ptr@VProcess@Pegas@@@Pegas@@U?$less@H@std@@V?$allocator@U?$pair@$$CBHV?$ptr@VProcess@Pegas@@@Pegas@@@std@@@4@$0A@@std@@@2@PAU342@@Z 00412fe0 f i game_manager.obj
 0001:00012010       ?_Parent@?$_Tree@V?$_Tmap_traits@HV?$ptr@VProcess@Pegas@@@Pegas@@U?$less@H@std@@V?$allocator@U?$pair@$$CBHV?$ptr@VProcess@Pegas@@@Pegas@@@std@@@4@$0A@@std@@@std@@KAAAPAU_Node@?$_Tree_nod@V?$_Tmap_traits@HV?$ptr@VProcess@Pegas@@@Pegas@@U?$less@H@std@@V?$allocator@U?$pair@$$CBHV?$ptr@VProcess@Pegas@@@Pegas@@@std@@@4@$0A@@std@@@2@PAU342@@Z 00413010 f i game_manager.obj
 0001:00012040       ?_Right@?$_Tree@V?$_Tmap_traits@HV?$ptr@VProcess@Pegas@@@Pegas@@U?$less@H@std@@V?$allocator@U?$pair@$$CBHV?$ptr@VProcess@Pegas@@@Pegas@@@std@@@4@$0A@@std@@@std@@KAAAPAU_Node@?$_Tree_nod@V?$_Tmap_traits@HV?$ptr@VProcess@Pegas@@@Pegas@@U?$less@H@std@@V?$allocator@U?$pair@$$CBHV?$ptr@VProcess@Pegas@@@Pegas@@@std@@@4@$0A@@std@@@2@PAU342@@Z 00413040 f i game_manager.obj
 0001:00012070       ?begin@?$_Tree@V?$_Tmap_traits@HV?$ptr@VProcess@Pegas@@@Pegas@@U?$less@H@std@@V?$allocator@U?$pair@$$CBHV?$ptr@VProcess@Pegas@@@Pegas@@@std@@@4@$0A@@std@@@std@@QAE?AViterator@12@XZ 00413070 f i game_manager.obj
 0001:000120e0       ?end@?$_Tree@V?$_Tmap_traits@HV?$ptr@VProcess@Pegas@@@Pegas@@U?$less@H@std@@V?$allocator@U?$pair@$$CBHV?$ptr@VProcess@Pegas@@@Pegas@@@std@@@4@$0A@@std@@@std@@QAE?AViterator@12@XZ 004130e0 f i game_manager.obj
 0001:00012150       ?erase@?$_Tree@V?$_Tmap_traits@HV?$ptr@VProcess@Pegas@@@Pegas@@U?$less@H@std@@V?$allocator@U?$pair@$$CBHV?$ptr@VProcess@Pegas@@@Pegas@@@std@@@4@$0A@@std@@@std@@QAE?AViterator@12@Vconst_iterator@12@0@Z 00413150 f i game_manager.obj
 0001:000123e0       ?_Init@?$_Tree@V?$_Tmap_traits@HV?$ptr@VProcess@Pegas@@@Pegas@@U?$less@H@std@@V?$allocator@U?$pair@$$CBHV?$ptr@VProcess@Pegas@@@Pegas@@@std@@@4@$0A@@std@@@std@@IAEXXZ 004133e0 f i game_manager.obj
 0001:00012480       ??0?$_Tree_val@V?$_Tmap_traits@HV?$ptr@VProcess@Pegas@@@Pegas@@U?$less@H@std@@V?$allocator@U?$pair@$$CBHV?$ptr@VProcess@Pegas@@@Pegas@@@std@@@4@$0A@@std@@@std@@IAE@ABU?$less@H@1@V?$allocator@U?$pair@$$CBHV?$ptr@VProcess@Pegas@@@Pegas@@@std@@@1@@Z 00413480 f i game_manager.obj
 0001:000124f0       ??0?$allocator@U?$pair@$$CBHV?$ptr@VProcess@Pegas@@@Pegas@@@std@@@std@@QAE@ABV01@@Z 004134f0 f i game_manager.obj
 0001:00012520       ?deallocate@?$allocator@U_Node@?$_Tree_nod@V?$_Tmap_traits@HV?$ptr@VProcess@Pegas@@@Pegas@@U?$less@H@std@@V?$allocator@U?$pair@$$CBHV?$ptr@VProcess@Pegas@@@Pegas@@@std@@@4@$0A@@std@@@std@@@std@@QAEXPAU_Node@?$_Tree_nod@V?$_Tmap_traits@HV?$ptr@VProcess@Pegas@@@Pegas@@U?$less@H@std@@V?$allocator@U?$pair@$$CBHV?$ptr@VProcess@Pegas@@@Pegas@@@std@@@4@$0A@@std@@@2@I@Z 00413520 f i game_manager.obj
 0001:00012570       ?destroy@?$allocator@PAU_Node@?$_Tree_nod@V?$_Tmap_traits@HV?$ptr@VProcess@Pegas@@@Pegas@@U?$less@H@std@@V?$allocator@U?$pair@$$CBHV?$ptr@VProcess@Pegas@@@Pegas@@@std@@@4@$0A@@std@@@std@@@std@@QAEXPAPAU_Node@?$_Tree_nod@V?$_Tmap_traits@HV?$ptr@VProcess@Pegas@@@Pegas@@U?$less@H@std@@V?$allocator@U?$pair@$$CBHV?$ptr@VProcess@Pegas@@@Pegas@@@std@@@4@$0A@@std@@@2@@Z 00413570 f i game_manager.obj
 0001:000125c0       ?empty@?$deque@HV?$allocator@H@std@@@std@@QBE_NXZ 004135c0 f i game_manager.obj
 0001:00012600       ?pop_back@?$deque@HV?$allocator@H@std@@@std@@QAEXXZ 00413600 f i game_manager.obj
 0001:00012700       ??0?$_Deque_val@HV?$allocator@H@std@@@std@@IAE@V?$allocator@H@1@@Z 00413700 f i game_manager.obj
 0001:00012770       ??0?$allocator@H@std@@QAE@ABV01@@Z 00413770 f i game_manager.obj
 0001:000127a0       ?deallocate@?$allocator@PAH@std@@QAEXPAPAHI@Z 004137a0 f i game_manager.obj
 0001:000127f0       ?destroy@?$allocator@PAH@std@@QAEXPAPAH@Z 004137f0 f i game_manager.obj
 0001:00012840       ??0length_error@std@@QAE@ABV01@@Z 00413840 f i game_manager.obj
 0001:000128a0       ?max_size@?$basic_string@_WU?$char_traits@_W@std@@V?$allocator@_W@2@@std@@QBEIXZ 004138a0 f i game_manager.obj
 0001:00012910       ?_Copy@?$basic_string@_WU?$char_traits@_W@std@@V?$allocator@_W@2@@std@@IAEXII@Z 00413910 f i game_manager.obj
 0001:00012ad0       ?_Inside@?$basic_string@_WU?$char_traits@_W@std@@V?$allocator@_W@2@@std@@IAE_NPB_W@Z 00413ad0 f i game_manager.obj
 0001:00012b40       ?destroy@?$allocator@H@std@@QAEXPAH@Z 00413b40 f i game_manager.obj
 0001:00012b90       ?_Isnil@?$_Tree@V?$_Tmap_traits@HV?$ptr@VProcess@Pegas@@@Pegas@@U?$less@H@std@@V?$allocator@U?$pair@$$CBHV?$ptr@VProcess@Pegas@@@Pegas@@@std@@@4@$0A@@std@@@std@@KAAADPAU_Node@?$_Tree_nod@V?$_Tmap_traits@HV?$ptr@VProcess@Pegas@@@Pegas@@U?$less@H@std@@V?$allocator@U?$pair@$$CBHV?$ptr@VProcess@Pegas@@@Pegas@@@std@@@4@$0A@@std@@@2@@Z 00413b90 f i game_manager.obj
 0001:00012bc0       ?_Make_iter@?$_Tree@V?$_Tmap_traits@HV?$ptr@VProcess@Pegas@@@Pegas@@U?$less@H@std@@V?$allocator@U?$pair@$$CBHV?$ptr@VProcess@Pegas@@@Pegas@@@std@@@4@$0A@@std@@@std@@QBE?AViterator@12@Vconst_iterator@12@@Z 00413bc0 f i game_manager.obj
 0001:00012ca0       ?erase@?$_Tree@V?$_Tmap_traits@HV?$ptr@VProcess@Pegas@@@Pegas@@U?$less@H@std@@V?$allocator@U?$pair@$$CBHV?$ptr@VProcess@Pegas@@@Pegas@@@std@@@4@$0A@@std@@@std@@QAE?AViterator@12@Vconst_iterator@12@@Z 00413ca0 f i game_manager.obj
 0001:000134f0       ?clear@?$_Tree@V?$_Tmap_traits@HV?$ptr@VProcess@Pegas@@@Pegas@@U?$less@H@std@@V?$allocator@U?$pair@$$CBHV?$ptr@VProcess@Pegas@@@Pegas@@@std@@@4@$0A@@std@@@std@@QAEXXZ 004144f0 f i game_manager.obj
 0001:00013590       ?_Lmost@?$_Tree@V?$_Tmap_traits@HV?$ptr@VProcess@Pegas@@@Pegas@@U?$less@H@std@@V?$allocator@U?$pair@$$CBHV?$ptr@VProcess@Pegas@@@Pegas@@@std@@@4@$0A@@std@@@std@@IBEAAPAU_Node@?$_Tree_nod@V?$_Tmap_traits@HV?$ptr@VProcess@Pegas@@@Pegas@@U?$less@H@std@@V?$allocator@U?$pair@$$CBHV?$ptr@VProcess@Pegas@@@Pegas@@@std@@@4@$0A@@std@@@2@XZ 00414590 f i game_manager.obj
 0001:000135e0       ?_Rmost@?$_Tree@V?$_Tmap_traits@HV?$ptr@VProcess@Pegas@@@Pegas@@U?$less@H@std@@V?$allocator@U?$pair@$$CBHV?$ptr@VProcess@Pegas@@@Pegas@@@std@@@4@$0A@@std@@@std@@IBEAAPAU_Node@?$_Tree_nod@V?$_Tmap_traits@HV?$ptr@VProcess@Pegas@@@Pegas@@U?$less@H@std@@V?$allocator@U?$pair@$$CBHV?$ptr@VProcess@Pegas@@@Pegas@@@std@@@4@$0A@@std@@@2@XZ 004145e0 f i game_manager.obj
 0001:00013630       ?_Root@?$_Tree@V?$_Tmap_traits@HV?$ptr@VProcess@Pegas@@@Pegas@@U?$less@H@std@@V?$allocator@U?$pair@$$CBHV?$ptr@VProcess@Pegas@@@Pegas@@@std@@@4@$0A@@std@@@std@@IBEAAPAU_Node@?$_Tree_nod@V?$_Tmap_traits@HV?$ptr@VProcess@Pegas@@@Pegas@@U?$less@H@std@@V?$allocator@U?$pair@$$CBHV?$ptr@VProcess@Pegas@@@Pegas@@@std@@@4@$0A@@std@@@2@XZ 00414630 f i game_manager.obj
 0001:00013680       ?_Buynode@?$_Tree@V?$_Tmap_traits@HV?$ptr@VProcess@Pegas@@@Pegas@@U?$less@H@std@@V?$allocator@U?$pair@$$CBHV?$ptr@VProcess@Pegas@@@Pegas@@@std@@@4@$0A@@std@@@std@@IAEPAU_Node@?$_Tree_nod@V?$_Tmap_traits@HV?$ptr@VProcess@Pegas@@@Pegas@@U?$less@H@std@@V?$allocator@U?$pair@$$CBHV?$ptr@VProcess@Pegas@@@Pegas@@@std@@@4@$0A@@std@@@2@XZ 00414680 f i game_manager.obj
 0001:00013850       ??0?$_Tree_ptr@V?$_Tmap_traits@HV?$ptr@VProcess@Pegas@@@Pegas@@U?$less@H@std@@V?$allocator@U?$pair@$$CBHV?$ptr@VProcess@Pegas@@@Pegas@@@std@@@4@$0A@@std@@@std@@QAE@ABU?$less@H@1@V?$allocator@U?$pair@$$CBHV?$ptr@VProcess@Pegas@@@Pegas@@@std@@@1@@Z 00414850 f i game_manager.obj
 0001:000138c0       ?_Orphan_off@?$deque@HV?$allocator@H@std@@@std@@IBEXI@Z 004148c0 f i game_manager.obj
 0001:000139f0       ??0?$_Deque_map@HV?$allocator@H@std@@@std@@IAE@V?$allocator@H@1@@Z 004149f0 f i game_manager.obj
 0001:00013a60       ??0iterator@?$_Tree@V?$_Tmap_traits@HV?$ptr@VProcess@Pegas@@@Pegas@@U?$less@H@std@@V?$allocator@U?$pair@$$CBHV?$ptr@VProcess@Pegas@@@Pegas@@@std@@@4@$0A@@std@@@std@@QAE@PAU_Node@?$_Tree_nod@V?$_Tmap_traits@HV?$ptr@VProcess@Pegas@@@Pegas@@U?$less@H@std@@V?$allocator@U?$pair@$$CBHV?$ptr@VProcess@Pegas@@@Pegas@@@std@@@4@$0A@@std@@@2@PBV12@@Z 00414a60 f i game_manager.obj
 0001:00013ab0       ??Econst_iterator@?$_Tree@V?$_Tmap_traits@HV?$ptr@VProcess@Pegas@@@Pegas@@U?$less@H@std@@V?$allocator@U?$pair@$$CBHV?$ptr@VProcess@Pegas@@@Pegas@@@std@@@4@$0A@@std@@@std@@QAE?AV012@H@Z 00414ab0 f i game_manager.obj
 0001:00013b90       ??8const_iterator@?$_Tree@V?$_Tmap_traits@HV?$ptr@VProcess@Pegas@@@Pegas@@U?$less@H@std@@V?$allocator@U?$pair@$$CBHV?$ptr@VProcess@Pegas@@@Pegas@@@std@@@4@$0A@@std@@@std@@QBE_NABV012@@Z 00414b90 f i game_manager.obj
 0001:00013c50       ??9const_iterator@?$_Tree@V?$_Tmap_traits@HV?$ptr@VProcess@Pegas@@@Pegas@@U?$less@H@std@@V?$allocator@U?$pair@$$CBHV?$ptr@VProcess@Pegas@@@Pegas@@@std@@@4@$0A@@std@@@std@@QBE_NABV012@@Z 00414c50 f i game_manager.obj
 0001:00013ca0       ??0iterator@?$_Tree@V?$_Tmap_traits@HV?$ptr@VProcess@Pegas@@@Pegas@@U?$less@H@std@@V?$allocator@U?$pair@$$CBHV?$ptr@VProcess@Pegas@@@Pegas@@@std@@@4@$0A@@std@@@std@@QAE@ABV012@@Z 00414ca0 f i game_manager.obj
 0001:00013cf0       ?allocate@?$allocator@_W@std@@QAEPA_WI@Z 00414cf0 f i game_manager.obj
 0001:00013d40       ?max_size@?$allocator@_W@std@@QBEIXZ 00414d40 f i game_manager.obj
 0001:00013da0       ??0?$_Container_base_aux_alloc_empty@V?$allocator@H@std@@@std@@IAE@V?$allocator@H@1@@Z 00414da0 f i game_manager.obj
 0001:00013df0       ?_Color@?$_Tree@V?$_Tmap_traits@HV?$ptr@VProcess@Pegas@@@Pegas@@U?$less@H@std@@V?$allocator@U?$pair@$$CBHV?$ptr@VProcess@Pegas@@@Pegas@@@std@@@4@$0A@@std@@@std@@KAAADPAU_Node@?$_Tree_nod@V?$_Tmap_traits@HV?$ptr@VProcess@Pegas@@@Pegas@@U?$less@H@std@@V?$allocator@U?$pair@$$CBHV?$ptr@VProcess@Pegas@@@Pegas@@@std@@@4@$0A@@std@@@2@@Z 00414df0 f i game_manager.obj
 0001:00013e20       ?_Erase@?$_Tree@V?$_Tmap_traits@HV?$ptr@VProcess@Pegas@@@Pegas@@U?$less@H@std@@V?$allocator@U?$pair@$$CBHV?$ptr@VProcess@Pegas@@@Pegas@@@std@@@4@$0A@@std@@@std@@IAEXPAU_Node@?$_Tree_nod@V?$_Tmap_traits@HV?$ptr@VProcess@Pegas@@@Pegas@@U?$less@H@std@@V?$allocator@U?$pair@$$CBHV?$ptr@VProcess@Pegas@@@Pegas@@@std@@@4@$0A@@std@@@2@@Z 00414e20 f i game_manager.obj
 0001:00013ed0       ?_Lrotate@?$_Tree@V?$_Tmap_traits@HV?$ptr@VProcess@Pegas@@@Pegas@@U?$less@H@std@@V?$allocator@U?$pair@$$CBHV?$ptr@VProcess@Pegas@@@Pegas@@@std@@@4@$0A@@std@@@std@@IAEXPAU_Node@?$_Tree_nod@V?$_Tmap_traits@HV?$ptr@VProcess@Pegas@@@Pegas@@U?$less@H@std@@V?$allocator@U?$pair@$$CBHV?$ptr@VProcess@Pegas@@@Pegas@@@std@@@4@$0A@@std@@@2@@Z 00414ed0 f i game_manager.obj
 0001:00014030       ?_Max@?$_Tree@V?$_Tmap_traits@HV?$ptr@VProcess@Pegas@@@Pegas@@U?$less@H@std@@V?$allocator@U?$pair@$$CBHV?$ptr@VProcess@Pegas@@@Pegas@@@std@@@4@$0A@@std@@@std@@KAPAU_Node@?$_Tree_nod@V?$_Tmap_traits@HV?$ptr@VProcess@Pegas@@@Pegas@@U?$less@H@std@@V?$allocator@U?$pair@$$CBHV?$ptr@VProcess@Pegas@@@Pegas@@@std@@@4@$0A@@std@@@2@PAU342@@Z 00415030 f i game_manager.obj
 0001:000140a0       ?_Min@?$_Tree@V?$_Tmap_traits@HV?$ptr@VProcess@Pegas@@@Pegas@@U?$less@H@std@@V?$allocator@U?$pair@$$CBHV?$ptr@VProcess@Pegas@@@Pegas@@@std@@@4@$0A@@std@@@std@@KAPAU_Node@?$_Tree_nod@V?$_Tmap_traits@HV?$ptr@VProcess@Pegas@@@Pegas@@U?$less@H@std@@V?$allocator@U?$pair@$$CBHV?$ptr@VProcess@Pegas@@@Pegas@@@std@@@4@$0A@@std@@@2@PAU342@@Z 004150a0 f i game_manager.obj
 0001:00014110       ?_Rrotate@?$_Tree@V?$_Tmap_traits@HV?$ptr@VProcess@Pegas@@@Pegas@@U?$less@H@std@@V?$allocator@U?$pair@$$CBHV?$ptr@VProcess@Pegas@@@Pegas@@@std@@@4@$0A@@std@@@std@@IAEXPAU_Node@?$_Tree_nod@V?$_Tmap_traits@HV?$ptr@VProcess@Pegas@@@Pegas@@U?$less@H@std@@V?$allocator@U?$pair@$$CBHV?$ptr@VProcess@Pegas@@@Pegas@@@std@@@4@$0A@@std@@@2@@Z 00415110 f i game_manager.obj
 0001:00014270       ?_Orphan_ptr@?$_Tree@V?$_Tmap_traits@HV?$ptr@VProcess@Pegas@@@Pegas@@U?$less@H@std@@V?$allocator@U?$pair@$$CBHV?$ptr@VProcess@Pegas@@@Pegas@@@std@@@4@$0A@@std@@@std@@IBEXAAV12@PAU_Node@?$_Tree_nod@V?$_Tmap_traits@HV?$ptr@VProcess@Pegas@@@Pegas@@U?$less@H@std@@V?$allocator@U?$pair@$$CBHV?$ptr@VProcess@Pegas@@@Pegas@@@std@@@4@$0A@@std@@@2@@Z 00415270 f i game_manager.obj
 0001:00014340       ??0?$_Tree_nod@V?$_Tmap_traits@HV?$ptr@VProcess@Pegas@@@Pegas@@U?$less@H@std@@V?$allocator@U?$pair@$$CBHV?$ptr@VProcess@Pegas@@@Pegas@@@std@@@4@$0A@@std@@@std@@IAE@ABU?$less@H@1@V?$allocator@U?$pair@$$CBHV?$ptr@VProcess@Pegas@@@Pegas@@@std@@@1@@Z 00415340 f i game_manager.obj
 0001:000143b0       ?allocate@?$allocator@U_Node@?$_Tree_nod@V?$_Tmap_traits@HV?$ptr@VProcess@Pegas@@@Pegas@@U?$less@H@std@@V?$allocator@U?$pair@$$CBHV?$ptr@VProcess@Pegas@@@Pegas@@@std@@@4@$0A@@std@@@std@@@std@@QAEPAU_Node@?$_Tree_nod@V?$_Tmap_traits@HV?$ptr@VProcess@Pegas@@@Pegas@@U?$less@H@std@@V?$allocator@U?$pair@$$CBHV?$ptr@VProcess@Pegas@@@Pegas@@@std@@@4@$0A@@std@@@2@I@Z 004153b0 f i game_manager.obj
 0001:00014400       ?destroy@?$allocator@U_Node@?$_Tree_nod@V?$_Tmap_traits@HV?$ptr@VProcess@Pegas@@@Pegas@@U?$less@H@std@@V?$allocator@U?$pair@$$CBHV?$ptr@VProcess@Pegas@@@Pegas@@@std@@@4@$0A@@std@@@std@@@std@@QAEXPAU_Node@?$_Tree_nod@V?$_Tmap_traits@HV?$ptr@VProcess@Pegas@@@Pegas@@U?$less@H@std@@V?$allocator@U?$pair@$$CBHV?$ptr@VProcess@Pegas@@@Pegas@@@std@@@4@$0A@@std@@@2@@Z 00415400 f i game_manager.obj
 0001:00014450       ?construct@?$allocator@PAU_Node@?$_Tree_nod@V?$_Tmap_traits@HV?$ptr@VProcess@Pegas@@@Pegas@@U?$less@H@std@@V?$allocator@U?$pair@$$CBHV?$ptr@VProcess@Pegas@@@Pegas@@@std@@@4@$0A@@std@@@std@@@std@@QAEXPAPAU_Node@?$_Tree_nod@V?$_Tmap_traits@HV?$ptr@VProcess@Pegas@@@Pegas@@U?$less@H@std@@V?$allocator@U?$pair@$$CBHV?$ptr@VProcess@Pegas@@@Pegas@@@std@@@4@$0A@@std@@@2@ABQAU342@@Z 00415450 f i game_manager.obj
 0001:000144a0       ??0const_iterator@?$_Tree@V?$_Tmap_traits@HV?$ptr@VProcess@Pegas@@@Pegas@@U?$less@H@std@@V?$allocator@U?$pair@$$CBHV?$ptr@VProcess@Pegas@@@Pegas@@@std@@@4@$0A@@std@@@std@@QAE@PAU_Node@?$_Tree_nod@V?$_Tmap_traits@HV?$ptr@VProcess@Pegas@@@Pegas@@U?$less@H@std@@V?$allocator@U?$pair@$$CBHV?$ptr@VProcess@Pegas@@@Pegas@@@std@@@4@$0A@@std@@@2@PBV12@@Z 004154a0 f i game_manager.obj
 0001:00014540       ??Econst_iterator@?$_Tree@V?$_Tmap_traits@HV?$ptr@VProcess@Pegas@@@Pegas@@U?$less@H@std@@V?$allocator@U?$pair@$$CBHV?$ptr@VProcess@Pegas@@@Pegas@@@std@@@4@$0A@@std@@@std@@QAEAAV012@XZ 00415540 f i game_manager.obj
 0001:00014590       ?_Mynode@const_iterator@?$_Tree@V?$_Tmap_traits@HV?$ptr@VProcess@Pegas@@@Pegas@@U?$less@H@std@@V?$allocator@U?$pair@$$CBHV?$ptr@VProcess@Pegas@@@Pegas@@@std@@@4@$0A@@std@@@std@@QBEPAU_Node@?$_Tree_nod@V?$_Tmap_traits@HV?$ptr@VProcess@Pegas@@@Pegas@@U?$less@H@std@@V?$allocator@U?$pair@$$CBHV?$ptr@VProcess@Pegas@@@Pegas@@@std@@@4@$0A@@std@@@3@XZ 00415590 f i game_manager.obj
 0001:000145c0       ??0?$_Bidit@U?$pair@$$CBHV?$ptr@VProcess@Pegas@@@Pegas@@@std@@HPBU12@ABU12@@std@@QAE@XZ 004155c0 f i game_manager.obj
 0001:00014610       ??0?$_Iterator_with_base@Ubidirectional_iterator_tag@std@@U?$pair@$$CBHV?$ptr@VProcess@Pegas@@@Pegas@@@2@HPBU32@ABU32@V_Iterator_base@2@@std@@QAE@XZ 00415610 f i game_manager.obj
 0001:00014660       ??0?$_Tmap_traits@HV?$ptr@VProcess@Pegas@@@Pegas@@U?$less@H@std@@V?$allocator@U?$pair@$$CBHV?$ptr@VProcess@Pegas@@@Pegas@@@std@@@4@$0A@@std@@QAE@U?$less@H@1@V?$allocator@U?$pair@$$CBHV?$ptr@VProcess@Pegas@@@Pegas@@@std@@@1@@Z 00415660 f i game_manager.obj
 0001:000146c0       ?_Inc@const_iterator@?$_Tree@V?$_Tmap_traits@HV?$ptr@VProcess@Pegas@@@Pegas@@U?$less@H@std@@V?$allocator@U?$pair@$$CBHV?$ptr@VProcess@Pegas@@@Pegas@@@std@@@4@$0A@@std@@@std@@QAEXXZ 004156c0 f i game_manager.obj
 0001:00014820       ??0?$_Container_base_aux_alloc_empty@V?$allocator@U?$pair@$$CBHV?$ptr@VProcess@Pegas@@@Pegas@@@std@@@std@@@std@@IAE@V?$allocator@U?$pair@$$CBHV?$ptr@VProcess@Pegas@@@Pegas@@@std@@@1@@Z 00415820 f i game_manager.obj
 0001:00014870       ??$copy_s@U?$char_traits@_W@std@@@_Traits_helper@std@@YAPA_WPA_WIPB_WI@Z 00415870 f i game_manager.obj
 0001:000148d0       ??$move_s@U?$char_traits@_W@std@@@_Traits_helper@std@@YAPA_WPA_WIPB_WI@Z 004158d0 f i game_manager.obj
 0001:00014930       ??$_Debug_pointer@_W@std@@YAXPB_W0I@Z 00415930 f i game_manager.obj
 0001:00014980       ??$_Destroy@PAU_Node@?$_Tree_nod@V?$_Tmap_traits@HV?$ptr@VProcess@Pegas@@@Pegas@@U?$less@H@std@@V?$allocator@U?$pair@$$CBHV?$ptr@VProcess@Pegas@@@Pegas@@@std@@@4@$0A@@std@@@std@@@std@@YAXPAPAU_Node@?$_Tree_nod@V?$_Tmap_traits@HV?$ptr@VProcess@Pegas@@@Pegas@@U?$less@H@std@@V?$allocator@U?$pair@$$CBHV?$ptr@VProcess@Pegas@@@Pegas@@@std@@@4@$0A@@std@@@0@@Z 00415980 f i game_manager.obj
 0001:000149b0       ??$_Destroy@PAH@std@@YAXPAPAH@Z 004159b0 f i game_manager.obj
 0001:000149e0       ??$swap@D@std@@YAXAAD0@Z   004159e0 f i game_manager.obj
 0001:00014a30       ??$_Destroy@H@std@@YAXPAH@Z 00415a30 f i game_manager.obj
 0001:00014a60       ??$?0U?$pair@$$CBHV?$ptr@VProcess@Pegas@@@Pegas@@@std@@@?$allocator@PAU_Node@?$_Tree_nod@V?$_Tmap_traits@HV?$ptr@VProcess@Pegas@@@Pegas@@U?$less@H@std@@V?$allocator@U?$pair@$$CBHV?$ptr@VProcess@Pegas@@@Pegas@@@std@@@4@$0A@@std@@@std@@@std@@QAE@ABV?$allocator@U?$pair@$$CBHV?$ptr@VProcess@Pegas@@@Pegas@@@std@@@1@@Z 00415a60 f i game_manager.obj
 0001:00014a90       ??$?0H@?$allocator@PAH@std@@QAE@ABV?$allocator@H@1@@Z 00415a90 f i game_manager.obj
 0001:00014ac0       ??$_Allocate@_W@std@@YAPA_WIPA_W@Z 00415ac0 f i game_manager.obj
 0001:00014b40       ??$?0U?$pair@$$CBHV?$ptr@VProcess@Pegas@@@Pegas@@@std@@@?$allocator@U_Node@?$_Tree_nod@V?$_Tmap_traits@HV?$ptr@VProcess@Pegas@@@Pegas@@U?$less@H@std@@V?$allocator@U?$pair@$$CBHV?$ptr@VProcess@Pegas@@@Pegas@@@std@@@4@$0A@@std@@@std@@@std@@QAE@ABV?$allocator@U?$pair@$$CBHV?$ptr@VProcess@Pegas@@@Pegas@@@std@@@1@@Z 00415b40 f i game_manager.obj
 0001:00014b70       ??$_Allocate@U_Node@?$_Tree_nod@V?$_Tmap_traits@HV?$ptr@VProcess@Pegas@@@Pegas@@U?$less@H@std@@V?$allocator@U?$pair@$$CBHV?$ptr@VProcess@Pegas@@@Pegas@@@std@@@4@$0A@@std@@@std@@@std@@YAPAU_Node@?$_Tree_nod@V?$_Tmap_traits@HV?$ptr@VProcess@Pegas@@@Pegas@@U?$less@H@std@@V?$allocator@U?$pair@$$CBHV?$ptr@VProcess@Pegas@@@Pegas@@@std@@@4@$0A@@std@@@0@IPAU120@@Z 00415b70 f i game_manager.obj
 0001:00014bf0       ??$_Destroy@U_Node@?$_Tree_nod@V?$_Tmap_traits@HV?$ptr@VProcess@Pegas@@@Pegas@@U?$less@H@std@@V?$allocator@U?$pair@$$CBHV?$ptr@VProcess@Pegas@@@Pegas@@@std@@@4@$0A@@std@@@std@@@std@@YAXPAU_Node@?$_Tree_nod@V?$_Tmap_traits@HV?$ptr@VProcess@Pegas@@@Pegas@@U?$less@H@std@@V?$allocator@U?$pair@$$CBHV?$ptr@VProcess@Pegas@@@Pegas@@@std@@@4@$0A@@std@@@0@@Z 00415bf0 f i game_manager.obj
 0001:00014c30       ??$_Construct@PAU_Node@?$_Tree_nod@V?$_Tmap_traits@HV?$ptr@VProcess@Pegas@@@Pegas@@U?$less@H@std@@V?$allocator@U?$pair@$$CBHV?$ptr@VProcess@Pegas@@@Pegas@@@std@@@4@$0A@@std@@@std@@PAU123@@std@@YAXPAPAU_Node@?$_Tree_nod@V?$_Tmap_traits@HV?$ptr@VProcess@Pegas@@@Pegas@@U?$less@H@std@@V?$allocator@U?$pair@$$CBHV?$ptr@VProcess@Pegas@@@Pegas@@@std@@@4@$0A@@std@@@0@ABQAU120@@Z 00415c30 f i game_manager.obj
 0001:00014cb0       ??_G_Node@?$_Tree_nod@V?$_Tmap_traits@HV?$ptr@VProcess@Pegas@@@Pegas@@U?$less@H@std@@V?$allocator@U?$pair@$$CBHV?$ptr@VProcess@Pegas@@@Pegas@@@std@@@4@$0A@@std@@@std@@QAEPAXI@Z 00415cb0 f i game_manager.obj
 0001:00014d10       ??1_Node@?$_Tree_nod@V?$_Tmap_traits@HV?$ptr@VProcess@Pegas@@@Pegas@@U?$less@H@std@@V?$allocator@U?$pair@$$CBHV?$ptr@VProcess@Pegas@@@Pegas@@@std@@@4@$0A@@std@@@std@@QAE@XZ 00415d10 f i game_manager.obj
 0001:00014d60       ??1?$pair@$$CBHV?$ptr@VProcess@Pegas@@@Pegas@@@std@@QAE@XZ 00415d60 f i game_manager.obj
 0001:00014db0       ??1?$ptr@VProcess@Pegas@@@Pegas@@QAE@XZ 00415db0 f i game_manager.obj
 0001:00014df0       ?release@?$ptr@VProcess@Pegas@@@Pegas@@AAEXXZ 00415df0 f i game_manager.obj
 0001:00014ed0       ??1?$ptr@UEvent@Pegas@@@Pegas@@QAE@XZ 00415ed0 f i game_manager.obj
 0001:00014f10       ?release@?$ptr@UEvent@Pegas@@@Pegas@@AAEXXZ 00415f10 f i game_manager.obj
 0001:00014ff0       ??$_Char_traits_cat@U?$char_traits@_W@std@@@std@@YA?AU_Secure_char_traits_tag@0@XZ 00415ff0 f i game_manager.obj
 0001:00015050       ??$copy_s@U?$char_traits@_W@std@@@_Traits_helper@std@@YAPA_WPA_WIPB_WIU_Secure_char_traits_tag@1@@Z 00416050 f i game_manager.obj
 0001:000150a0       ?_Copy_s@?$char_traits@_W@std@@SAPA_WPA_WIPB_WI@Z 004160a0 f i game_manager.obj
 0001:000150f0       _wmemcpy_s                 004160f0 f i game_manager.obj
 0001:00015140       ??$move_s@U?$char_traits@_W@std@@@_Traits_helper@std@@YAPA_WPA_WIPB_WIU_Secure_char_traits_tag@1@@Z 00416140 f i game_manager.obj
 0001:00015190       ?_Move_s@?$char_traits@_W@std@@SAPA_WPA_WIPB_WI@Z 00416190 f i game_manager.obj
 0001:000151e0       _wmemmove_s                004161e0 f i game_manager.obj
 0001:00015230       ??_EBaseScreenLayer@Pegas@@WDA@AEPAXI@Z 00416230 f i game_manager.obj
 0001:00015240       ??_EBaseScreenLayer@Pegas@@WDE@AEPAXI@Z 00416240 f i game_manager.obj
 0001:00015250       ??0Asteroid@Pegas@@QAE@PAVCollisionManager@1@ABVVector3@1@1@Z 00416250 f   game_objects.obj
 0001:000153a0       ?getType@Asteroid@Pegas@@UAE?AV?$basic_string@DU?$char_traits@D@std@@V?$allocator@D@2@@std@@XZ 004163a0 f i game_objects.obj
 0001:00015410       ?getPosition@Asteroid@Pegas@@UAE?AVVector3@2@XZ 00416410 f i game_objects.obj
 0001:00015460       ?getListenerName@Asteroid@Pegas@@UAE?AV?$basic_string@DU?$char_traits@D@std@@V?$allocator@D@2@@std@@XZ 00416460 f i game_objects.obj
 0001:000154d0       ??_EAsteroid@Pegas@@UAEPAXI@Z 004164d0 f i game_objects.obj
 0001:000154d0       ??_GAsteroid@Pegas@@UAEPAXI@Z 004164d0 f i game_objects.obj
 0001:00015530       ??0IGameObject@Pegas@@QAE@XZ 00416530 f i game_objects.obj
 0001:00015570       ??1Asteroid@Pegas@@UAE@XZ  00416570 f i game_objects.obj
 0001:00015610       ?generatePoints@Asteroid@Pegas@@IAEXHMAAV?$vector@VVector3@Pegas@@V?$allocator@VVector3@Pegas@@@std@@@std@@@Z 00416610 f   game_objects.obj
 0001:00015790       ?transformPoints@Asteroid@Pegas@@IAEXXZ 00416790 f   game_objects.obj
 0001:00015950       ?start@Asteroid@Pegas@@MAEXHPAVProcessManager@2@@Z 00416950 f   game_objects.obj
 0001:00015b20       ??1?$_Vector_iterator@VVector3@Pegas@@V?$allocator@VVector3@Pegas@@@std@@@std@@QAE@XZ 00416b20 f i game_objects.obj
 0001:00015b60       ?update@Asteroid@Pegas@@UAEXH@Z 00416b60 f   game_objects.obj
 0001:00015c60       ?terminate@Asteroid@Pegas@@UAEXXZ 00416c60 f   game_objects.obj
 0001:00015cf0       ?handleEvent@Asteroid@Pegas@@UAEXV?$ptr@UEvent@Pegas@@@2@@Z 00416cf0 f   game_objects.obj
 0001:00015e40       ?onCollisionEnter@Asteroid@Pegas@@UAEXPAVIGameObject@2@@Z 00416e40 f   game_objects.obj
 0001:00016000       ?onDraw@Asteroid@Pegas@@UAEXAAVGrafManager@2@@Z 00417000 f   game_objects.obj
 0001:00016190       ?createShatters@Asteroid@Pegas@@IAEXXZ 00417190 f   game_objects.obj
 0001:00016440       ??0Event_Actor_CreateShatter@Pegas@@QAE@ABVVector3@1@0@Z 00417440 f i game_objects.obj
 0001:00016510       ?getType@Event_Actor_CreateShatter@Pegas@@UBE?AV?$basic_string@DU?$char_traits@D@std@@V?$allocator@D@2@@std@@XZ 00417510 f i game_objects.obj
 0001:00016580       ??_EEvent_Actor_CreateShatter@Pegas@@UAEPAXI@Z 00417580 f i game_objects.obj
 0001:00016580       ??_GEvent_Actor_CreateShatter@Pegas@@UAEPAXI@Z 00417580 f i game_objects.obj
 0001:000165e0       ??1Event_Actor_CreateShatter@Pegas@@UAE@XZ 004175e0 f i game_objects.obj
 0001:00016620       ??0Shatter@Pegas@@QAE@PAVCollisionManager@1@ABVVector3@1@1@Z 00417620 f   game_objects.obj
 0001:00016690       ?getType@Shatter@Pegas@@UAE?AV?$basic_string@DU?$char_traits@D@std@@V?$allocator@D@2@@std@@XZ 00417690 f i game_objects.obj
 0001:00016700       ?getListenerName@Shatter@Pegas@@UAE?AV?$basic_string@DU?$char_traits@D@std@@V?$allocator@D@2@@std@@XZ 00417700 f i game_objects.obj
 0001:00016770       ??_GShatter@Pegas@@UAEPAXI@Z 00417770 f i game_objects.obj
 0001:00016770       ??_EShatter@Pegas@@UAEPAXI@Z 00417770 f i game_objects.obj
 0001:000167d0       ??1Shatter@Pegas@@UAE@XZ   004177d0 f i game_objects.obj
 0001:00016810       ?start@Shatter@Pegas@@MAEXHPAVProcessManager@2@@Z 00417810 f   game_objects.obj
 0001:000169e0       ?onCollisionEnter@Shatter@Pegas@@UAEXPAVIGameObject@2@@Z 004179e0 f   game_objects.obj
 0001:00016c60       ??0Event_Actor_CreateExplosion@Pegas@@QAE@ABVVector3@1@@Z 00417c60 f i game_objects.obj
 0001:00016d10       ?getType@Event_Actor_CreateExplosion@Pegas@@UBE?AV?$basic_string@DU?$char_traits@D@std@@V?$allocator@D@2@@std@@XZ 00417d10 f i game_objects.obj
 0001:00016d80       ??_GEvent_Actor_CreateExplosion@Pegas@@UAEPAXI@Z 00417d80 f i game_objects.obj
 0001:00016d80       ??_EEvent_Actor_CreateExplosion@Pegas@@UAEPAXI@Z 00417d80 f i game_objects.obj
 0001:00016de0       ??1Event_Actor_CreateExplosion@Pegas@@UAE@XZ 00417de0 f i game_objects.obj
 0001:00016e20       ??0Bullet@Pegas@@QAE@PAVCollisionManager@1@ABVVector3@1@1@Z 00417e20 f   game_objects.obj
 0001:00016f10       ?getType@Bullet@Pegas@@UAE?AV?$basic_string@DU?$char_traits@D@std@@V?$allocator@D@2@@std@@XZ 00417f10 f i game_objects.obj
 0001:00016f80       ?getPosition@Bullet@Pegas@@UAE?AVVector3@2@XZ 00417f80 f i game_objects.obj
 0001:00016fd0       ??_EBullet@Pegas@@UAEPAXI@Z 00417fd0 f i game_objects.obj
 0001:00016fd0       ??_GBullet@Pegas@@UAEPAXI@Z 00417fd0 f i game_objects.obj
 0001:00017030       ??1Bullet@Pegas@@UAE@XZ    00418030 f i game_objects.obj
 0001:00017070       ?onCollisionEnter@Bullet@Pegas@@UAEXPAVIGameObject@2@@Z 00418070 f   game_objects.obj
 0001:000171c0       ?onDraw@Bullet@Pegas@@UAEXAAVGrafManager@2@@Z 004181c0 f   game_objects.obj
 0001:000172c0       ?start@Bullet@Pegas@@MAEXHPAVProcessManager@2@@Z 004182c0 f   game_objects.obj
 0001:00017330       ?update@Bullet@Pegas@@UAEXH@Z 00418330 f   game_objects.obj
 0001:00017430       ?terminate@Bullet@Pegas@@UAEXXZ 00418430 f   game_objects.obj
 0001:00017490       ??0Ship@Pegas@@QAE@PAVCollisionManager@1@ABVVector3@1@1@Z 00418490 f   game_objects.obj
 0001:000176a0       ?getListenerName@Ship@Pegas@@UAE?AV?$basic_string@DU?$char_traits@D@std@@V?$allocator@D@2@@std@@XZ 004186a0 f i game_objects.obj
 0001:00017710       ?getType@Ship@Pegas@@UAE?AV?$basic_string@DU?$char_traits@D@std@@V?$allocator@D@2@@std@@XZ 00418710 f i game_objects.obj
 0001:00017780       ?getPosition@Ship@Pegas@@UAE?AVVector3@2@XZ 00418780 f i game_objects.obj
 0001:000177d0       ?acos@@YAMM@Z              004187d0 f i game_objects.obj
 0001:00017820       _acosf                     00418820 f i game_objects.obj
 0001:00017870       ??_EShip@Pegas@@UAEPAXI@Z  00418870 f i game_objects.obj
 0001:00017870       ??_GShip@Pegas@@UAEPAXI@Z  00418870 f i game_objects.obj
 0001:000178d0       ??1Ship@Pegas@@UAE@XZ      004188d0 f i game_objects.obj
 0001:000179a0       ?transformPoints@Ship@Pegas@@IAEXXZ 004189a0 f   game_objects.obj
 0001:00017b90       ?start@Ship@Pegas@@MAEXHPAVProcessManager@2@@Z 00418b90 f   game_objects.obj
 0001:00018400       ?update@Ship@Pegas@@UAEXH@Z 00419400 f   game_objects.obj
 0001:00018760       ??0Event_Actor_CreateBullet@Pegas@@QAE@ABVVector3@1@0@Z 00419760 f i game_objects.obj
 0001:00018830       ?getType@Event_Actor_CreateBullet@Pegas@@UBE?AV?$basic_string@DU?$char_traits@D@std@@V?$allocator@D@2@@std@@XZ 00419830 f i game_objects.obj
 0001:000188a0       ??_GEvent_Actor_CreateBullet@Pegas@@UAEPAXI@Z 004198a0 f i game_objects.obj
 0001:000188a0       ??_EEvent_Actor_CreateBullet@Pegas@@UAEPAXI@Z 004198a0 f i game_objects.obj
 0001:00018900       ??1Event_Actor_CreateBullet@Pegas@@UAE@XZ 00419900 f i game_objects.obj
 0001:00018940       ?terminate@Ship@Pegas@@UAEXXZ 00419940 f   game_objects.obj
 0001:000189d0       ?handleEvent@Ship@Pegas@@UAEXV?$ptr@UEvent@Pegas@@@2@@Z 004199d0 f   game_objects.obj
 0001:00019300       ?onCollisionEnter@Ship@Pegas@@UAEXPAVIGameObject@2@@Z 0041a300 f   game_objects.obj
 0001:00019660       ?onDraw@Ship@Pegas@@UAEXAAVGrafManager@2@@Z 0041a660 f   game_objects.obj
 0001:000199b0       ??1?$_Vector_iterator@U?$pair@HH@std@@V?$allocator@U?$pair@HH@std@@@2@@std@@QAE@XZ 0041a9b0 f i game_objects.obj
 0001:000199f0       ??1?$_Vector_const_iterator@U?$pair@HH@std@@V?$allocator@U?$pair@HH@std@@@2@@std@@QAE@XZ 0041a9f0 f i game_objects.obj
 0001:00019a30       ??1?$_Ranit@U?$pair@HH@std@@HPBU12@ABU12@@std@@QAE@XZ 0041aa30 f i game_objects.obj
 0001:00019a70       ??1?$_Iterator_with_base@Urandom_access_iterator_tag@std@@U?$pair@HH@2@HPBU32@ABU32@V_Iterator_base@2@@std@@QAE@XZ 0041aa70 f i game_objects.obj
 0001:00019ab0       ??0Explosion@Pegas@@QAE@ABVVector3@1@@Z 0041aab0 f   game_objects.obj
 0001:00019b90       ?getType@Explosion@Pegas@@UAE?AV?$basic_string@DU?$char_traits@D@std@@V?$allocator@D@2@@std@@XZ 0041ab90 f i game_objects.obj
 0001:00019c00       ?onCollisionEnter@Explosion@Pegas@@UAEXPAVIGameObject@2@@Z 0041ac00 f i game_objects.obj
 0001:00019c30       ?getPosition@Explosion@Pegas@@UAE?AVVector3@2@XZ 0041ac30 f i game_objects.obj
 0001:00019c80       ??_GExplosion@Pegas@@UAEPAXI@Z 0041ac80 f i game_objects.obj
 0001:00019c80       ??_EExplosion@Pegas@@UAEPAXI@Z 0041ac80 f i game_objects.obj
 0001:00019ce0       ??1Explosion@Pegas@@UAE@XZ 0041ace0 f i game_objects.obj
 0001:00019d80       ?start@Explosion@Pegas@@MAEXHPAVProcessManager@2@@Z 0041ad80 f   game_objects.obj
 0001:00019f20       ?update@Explosion@Pegas@@UAEXH@Z 0041af20 f   game_objects.obj
 0001:0001a150       ?onDraw@Explosion@Pegas@@UAEXAAVGrafManager@2@@Z 0041b150 f   game_objects.obj
 0001:0001a270       ??0?$vector@VVector3@Pegas@@V?$allocator@VVector3@Pegas@@@std@@@std@@QAE@XZ 0041b270 f i game_objects.obj
 0001:0001a310       ?reserve@?$vector@VVector3@Pegas@@V?$allocator@VVector3@Pegas@@@std@@@std@@QAEXI@Z 0041b310 f i game_objects.obj
 0001:0001a4c0       ?begin@?$vector@VVector3@Pegas@@V?$allocator@VVector3@Pegas@@@std@@@std@@QAE?AV?$_Vector_iterator@VVector3@Pegas@@V?$allocator@VVector3@Pegas@@@std@@@2@XZ 0041b4c0 f i game_objects.obj
 0001:0001a530       ?end@?$vector@VVector3@Pegas@@V?$allocator@VVector3@Pegas@@@std@@@std@@QAE?AV?$_Vector_iterator@VVector3@Pegas@@V?$allocator@VVector3@Pegas@@@std@@@2@XZ 0041b530 f i game_objects.obj
 0001:0001a5a0       ??A?$vector@VVector3@Pegas@@V?$allocator@VVector3@Pegas@@@std@@@std@@QAEAAVVector3@Pegas@@I@Z 0041b5a0 f i game_objects.obj
 0001:0001a6a0       ?push_back@?$vector@VVector3@Pegas@@V?$allocator@VVector3@Pegas@@@std@@@std@@QAEXABVVector3@Pegas@@@Z 0041b6a0 f i game_objects.obj
 0001:0001a7d0       ??0?$vector@U?$pair@HH@std@@V?$allocator@U?$pair@HH@std@@@2@@std@@QAE@XZ 0041b7d0 f i game_objects.obj
 0001:0001a870       ??1?$vector@U?$pair@HH@std@@V?$allocator@U?$pair@HH@std@@@2@@std@@QAE@XZ 0041b870 f i game_objects.obj
 0001:0001a8f0       ?begin@?$vector@U?$pair@HH@std@@V?$allocator@U?$pair@HH@std@@@2@@std@@QAE?AV?$_Vector_iterator@U?$pair@HH@std@@V?$allocator@U?$pair@HH@std@@@2@@2@XZ 0041b8f0 f i game_objects.obj
 0001:0001a960       ?end@?$vector@U?$pair@HH@std@@V?$allocator@U?$pair@HH@std@@@2@@std@@QAE?AV?$_Vector_iterator@U?$pair@HH@std@@V?$allocator@U?$pair@HH@std@@@2@@2@XZ 0041b960 f i game_objects.obj
 0001:0001a9d0       ?push_back@?$vector@U?$pair@HH@std@@V?$allocator@U?$pair@HH@std@@@2@@std@@QAEXABU?$pair@HH@2@@Z 0041b9d0 f i game_objects.obj
 0001:0001ab00       ??H?$_Vector_iterator@VVector3@Pegas@@V?$allocator@VVector3@Pegas@@@std@@@std@@QBE?AV01@H@Z 0041bb00 f i game_objects.obj
 0001:0001abe0       ??C?$_Vector_iterator@U?$pair@HH@std@@V?$allocator@U?$pair@HH@std@@@2@@std@@QBEPAU?$pair@HH@1@XZ 0041bbe0 f i game_objects.obj
 0001:0001ac20       ??E?$_Vector_iterator@U?$pair@HH@std@@V?$allocator@U?$pair@HH@std@@@2@@std@@QAEAAV01@XZ 0041bc20 f i game_objects.obj
 0001:0001ac70       ??9?$_Vector_const_iterator@U?$pair@HH@std@@V?$allocator@U?$pair@HH@std@@@2@@std@@QBE_NABV01@@Z 0041bc70 f i game_objects.obj
 0001:0001acc0       ??1?$_Vector_val@U?$pair@HH@std@@V?$allocator@U?$pair@HH@std@@@2@@std@@QAE@XZ 0041bcc0 f i game_objects.obj
 0001:0001ad00       ??0?$_Vector_const_iterator@U?$pair@HH@std@@V?$allocator@U?$pair@HH@std@@@2@@std@@QAE@ABV01@@Z 0041bd00 f i game_objects.obj
 0001:0001ad60       ??0?$_Vector_iterator@VVector3@Pegas@@V?$allocator@VVector3@Pegas@@@std@@@std@@QAE@ABV01@@Z 0041bd60 f i game_objects.obj
 0001:0001adb0       ??0?$_Ranit@U?$pair@HH@std@@HPBU12@ABU12@@std@@QAE@ABU01@@Z 0041bdb0 f i game_objects.obj
 0001:0001ae00       ??0?$_Iterator_with_base@Urandom_access_iterator_tag@std@@U?$pair@HH@2@HPBU32@ABU32@V_Iterator_base@2@@std@@QAE@ABU01@@Z 0041be00 f i game_objects.obj
 0001:0001ae50       ??0?$allocator@U?$pair@HH@std@@@std@@QAE@XZ 0041be50 f i game_objects.obj
 0001:0001ae80       ?capacity@?$vector@VVector3@Pegas@@V?$allocator@VVector3@Pegas@@@std@@@std@@QBEIXZ 0041be80 f i game_objects.obj
 0001:0001aee0       ?insert@?$vector@VVector3@Pegas@@V?$allocator@VVector3@Pegas@@@std@@@std@@QAE?AV?$_Vector_iterator@VVector3@Pegas@@V?$allocator@VVector3@Pegas@@@std@@@2@V?$_Vector_const_iterator@VVector3@Pegas@@V?$allocator@VVector3@Pegas@@@std@@@2@ABVVector3@Pegas@@@Z 0041bee0 f i game_objects.obj
 0001:0001b070       ?_Ufill@?$vector@VVector3@Pegas@@V?$allocator@VVector3@Pegas@@@std@@@std@@IAEPAVVector3@Pegas@@PAV34@IABV34@@Z 0041c070 f i game_objects.obj
 0001:0001b0d0       ?_Orphan_range@?$vector@VVector3@Pegas@@V?$allocator@VVector3@Pegas@@@std@@@std@@IBEXPAVVector3@Pegas@@0@Z 0041c0d0 f i game_objects.obj
 0001:0001b1a0       ??0?$allocator@VVector3@Pegas@@@std@@QAE@XZ 0041c1a0 f i game_objects.obj
 0001:0001b1d0       ?capacity@?$vector@U?$pair@HH@std@@V?$allocator@U?$pair@HH@std@@@2@@std@@QBEIXZ 0041c1d0 f i game_objects.obj
 0001:0001b230       ?size@?$vector@U?$pair@HH@std@@V?$allocator@U?$pair@HH@std@@@2@@std@@QBEIXZ 0041c230 f i game_objects.obj
 0001:0001b270       ?insert@?$vector@U?$pair@HH@std@@V?$allocator@U?$pair@HH@std@@@2@@std@@QAE?AV?$_Vector_iterator@U?$pair@HH@std@@V?$allocator@U?$pair@HH@std@@@2@@2@V?$_Vector_const_iterator@U?$pair@HH@std@@V?$allocator@U?$pair@HH@std@@@2@@2@ABU?$pair@HH@2@@Z 0041c270 f i game_objects.obj
 0001:0001b400       ?_Buy@?$vector@U?$pair@HH@std@@V?$allocator@U?$pair@HH@std@@@2@@std@@IAE_NI@Z 0041c400 f i game_objects.obj
 0001:0001b4b0       ?_Tidy@?$vector@U?$pair@HH@std@@V?$allocator@U?$pair@HH@std@@@2@@std@@IAEXXZ 0041c4b0 f i game_objects.obj
 0001:0001b550       ?_Ufill@?$vector@U?$pair@HH@std@@V?$allocator@U?$pair@HH@std@@@2@@std@@IAEPAU?$pair@HH@2@PAU32@IABU32@@Z 0041c550 f i game_objects.obj
 0001:0001b5b0       ?_Orphan_range@?$vector@U?$pair@HH@std@@V?$allocator@U?$pair@HH@std@@@2@@std@@IBEXPAU?$pair@HH@2@0@Z 0041c5b0 f i game_objects.obj
 0001:0001b680       ??0?$_Vector_val@U?$pair@HH@std@@V?$allocator@U?$pair@HH@std@@@2@@std@@IAE@V?$allocator@U?$pair@HH@std@@@1@@Z 0041c680 f i game_objects.obj
 0001:0001b6f0       ??0?$_Vector_iterator@VVector3@Pegas@@V?$allocator@VVector3@Pegas@@@std@@@std@@QAE@PAVVector3@Pegas@@PBV_Container_base_secure@1@@Z 0041c6f0 f i game_objects.obj
 0001:0001b740       ??Y?$_Vector_iterator@VVector3@Pegas@@V?$allocator@VVector3@Pegas@@@std@@@std@@QAEAAV01@H@Z 0041c740 f i game_objects.obj
 0001:0001b790       ??0?$_Vector_iterator@U?$pair@HH@std@@V?$allocator@U?$pair@HH@std@@@2@@std@@QAE@PAU?$pair@HH@1@PBV_Container_base_secure@1@@Z 0041c790 f i game_objects.obj
 0001:0001b7e0       ??D?$_Vector_iterator@U?$pair@HH@std@@V?$allocator@U?$pair@HH@std@@@2@@std@@QBEAAU?$pair@HH@1@XZ 0041c7e0 f i game_objects.obj
 0001:0001b820       ??E?$_Vector_const_iterator@U?$pair@HH@std@@V?$allocator@U?$pair@HH@std@@@2@@std@@QAEAAV01@XZ 0041c820 f i game_objects.obj
 0001:0001b940       ?_Getmycont@_Iterator_base@std@@QBEPBV_Container_base_secure@2@XZ 0041c940 f i game_objects.obj
 0001:0001b970       ?_Has_container@_Iterator_base@std@@QBE_NXZ 0041c970 f i game_objects.obj
 0001:0001b9b0       ??8?$_Vector_const_iterator@U?$pair@HH@std@@V?$allocator@U?$pair@HH@std@@@2@@std@@QBE_NABV01@@Z 0041c9b0 f i game_objects.obj
 0001:0001ba10       ?deallocate@?$allocator@U?$pair@HH@std@@@std@@QAEXPAU?$pair@HH@2@I@Z 0041ca10 f i game_objects.obj
 0001:0001ba60       ?allocate@?$allocator@U?$pair@HH@std@@@std@@QAEPAU?$pair@HH@2@I@Z 0041ca60 f i game_objects.obj
 0001:0001bab0       ?_Insert_n@?$vector@VVector3@Pegas@@V?$allocator@VVector3@Pegas@@@std@@@std@@IAEXV?$_Vector_const_iterator@VVector3@Pegas@@V?$allocator@VVector3@Pegas@@@std@@@2@IABVVector3@Pegas@@@Z 0041cab0 f i game_objects.obj
 0001:0001bf10       ??Y?$_Vector_const_iterator@VVector3@Pegas@@V?$allocator@VVector3@Pegas@@@std@@@std@@QAEAAV01@H@Z 0041cf10 f i game_objects.obj
 0001:0001c030       ??G?$_Vector_const_iterator@VVector3@Pegas@@V?$allocator@VVector3@Pegas@@@std@@@std@@QBEHABV01@@Z 0041d030 f i game_objects.obj
 0001:0001c090       ?max_size@?$vector@U?$pair@HH@std@@V?$allocator@U?$pair@HH@std@@@2@@std@@QBEIXZ 0041d090 f i game_objects.obj
 0001:0001c0e0       ?_Destroy@?$vector@U?$pair@HH@std@@V?$allocator@U?$pair@HH@std@@@2@@std@@IAEXPAU?$pair@HH@2@0@Z 0041d0e0 f i game_objects.obj
 0001:0001c130       ?_Insert_n@?$vector@U?$pair@HH@std@@V?$allocator@U?$pair@HH@std@@@2@@std@@IAEXV?$_Vector_const_iterator@U?$pair@HH@std@@V?$allocator@U?$pair@HH@std@@@2@@2@IABU?$pair@HH@2@@Z 0041d130 f i game_objects.obj
 0001:0001c580       ?_Xlen@?$vector@U?$pair@HH@std@@V?$allocator@U?$pair@HH@std@@@2@@std@@KAXXZ 0041d580 f i game_objects.obj
 0001:0001c630       ??H?$_Vector_iterator@U?$pair@HH@std@@V?$allocator@U?$pair@HH@std@@@2@@std@@QBE?AV01@H@Z 0041d630 f i game_objects.obj
 0001:0001c710       ??0?$_Vector_const_iterator@U?$pair@HH@std@@V?$allocator@U?$pair@HH@std@@@2@@std@@QAE@PAU?$pair@HH@1@PBV_Container_base_secure@1@@Z 0041d710 f i game_objects.obj
 0001:0001c800       ??D?$_Vector_const_iterator@U?$pair@HH@std@@V?$allocator@U?$pair@HH@std@@@2@@std@@QBEABU?$pair@HH@1@XZ 0041d800 f i game_objects.obj
 0001:0001c8c0       ??G?$_Vector_const_iterator@U?$pair@HH@std@@V?$allocator@U?$pair@HH@std@@@2@@std@@QBEHABV01@@Z 0041d8c0 f i game_objects.obj
 0001:0001c920       ?_Compat@?$_Vector_const_iterator@U?$pair@HH@std@@V?$allocator@U?$pair@HH@std@@@2@@std@@QBEXABV12@@Z 0041d920 f i game_objects.obj
 0001:0001c9d0       ??0?$_Vector_iterator@U?$pair@HH@std@@V?$allocator@U?$pair@HH@std@@@2@@std@@QAE@ABV01@@Z 0041d9d0 f i game_objects.obj
 0001:0001ca20       ??0?$_Ranit@U?$pair@HH@std@@HPBU12@ABU12@@std@@QAE@XZ 0041da20 f i game_objects.obj
 0001:0001ca70       ??0?$_Iterator_with_base@Urandom_access_iterator_tag@std@@U?$pair@HH@2@HPBU32@ABU32@V_Iterator_base@2@@std@@QAE@XZ 0041da70 f i game_objects.obj
 0001:0001cac0       ??Y?$_Vector_iterator@U?$pair@HH@std@@V?$allocator@U?$pair@HH@std@@@2@@std@@QAEAAV01@H@Z 0041dac0 f i game_objects.obj
 0001:0001cb10       ??Y?$_Vector_const_iterator@U?$pair@HH@std@@V?$allocator@U?$pair@HH@std@@@2@@std@@QAEAAV01@H@Z 0041db10 f i game_objects.obj
 0001:0001cc30       ??$insert@V?$_Vector_iterator@VVector3@Pegas@@V?$allocator@VVector3@Pegas@@@std@@@std@@@?$vector@VVector3@Pegas@@V?$allocator@VVector3@Pegas@@@std@@@std@@QAEXV?$_Vector_const_iterator@VVector3@Pegas@@V?$allocator@VVector3@Pegas@@@std@@@1@V?$_Vector_iterator@VVector3@Pegas@@V?$allocator@VVector3@Pegas@@@std@@@1@1@Z 0041dc30 f i game_objects.obj
 0001:0001cd60       ??$cast@UEvent_Actor_SetPosition@Pegas@@@Event@Pegas@@QAEPAUEvent_Actor_SetPosition@1@XZ 0041dd60 f i game_objects.obj
 0001:0001cd90       ??$?0UEvent_Actor_CreateShatter@Pegas@@@?$ptr@UEvent@Pegas@@@Pegas@@QAE@PAUEvent_Actor_CreateShatter@1@PAUCounter@1@@Z 0041dd90 f i game_objects.obj
 0001:0001ce90       ??$?0UEvent_Actor_CreateExplosion@Pegas@@@?$ptr@UEvent@Pegas@@@Pegas@@QAE@PAUEvent_Actor_CreateExplosion@1@PAUCounter@1@@Z 0041de90 f i game_objects.obj
 0001:0001cf90       ??$?0V?$_Vector_iterator@VVector3@Pegas@@V?$allocator@VVector3@Pegas@@@std@@@std@@@?$vector@VVector3@Pegas@@V?$allocator@VVector3@Pegas@@@std@@@std@@QAE@V?$_Vector_iterator@VVector3@Pegas@@V?$allocator@VVector3@Pegas@@@std@@@1@0@Z 0041df90 f i game_objects.obj
 0001:0001d0a0       ??$make_pair@HH@std@@YA?AU?$pair@HH@0@HH@Z 0041e0a0 f i game_objects.obj
 0001:0001d0f0       ??$?0UEvent_Actor_CreateBullet@Pegas@@@?$ptr@UEvent@Pegas@@@Pegas@@QAE@PAUEvent_Actor_CreateBullet@1@PAUCounter@1@@Z 0041e0f0 f i game_objects.obj
 0001:0001d1f0       ??$_Umove@V?$_Vector_iterator@VVector3@Pegas@@V?$allocator@VVector3@Pegas@@@std@@@std@@@?$vector@VVector3@Pegas@@V?$allocator@VVector3@Pegas@@@std@@@std@@IAEPAVVector3@Pegas@@V?$_Vector_iterator@VVector3@Pegas@@V?$allocator@VVector3@Pegas@@@std@@@1@0PAV23@@Z 0041e1f0 f i game_objects.obj
 0001:0001d2f0       ??$unchecked_uninitialized_fill_n@PAVVector3@Pegas@@IV12@V?$allocator@VVector3@Pegas@@@std@@@stdext@@YAXPAVVector3@Pegas@@IABV12@AAV?$allocator@VVector3@Pegas@@@std@@@Z 0041e2f0 f i game_objects.obj
 0001:0001d370       ??$unchecked_uninitialized_fill_n@PAU?$pair@HH@std@@IU12@V?$allocator@U?$pair@HH@std@@@2@@stdext@@YAXPAU?$pair@HH@std@@IABU12@AAV?$allocator@U?$pair@HH@std@@@2@@Z 0041e370 f i game_objects.obj
 0001:0001d3f0       ??$_Allocate@U?$pair@HH@std@@@std@@YAPAU?$pair@HH@0@IPAU10@@Z 0041e3f0 f i game_objects.obj
 0001:0001d470       ??$_Umove@PAVVector3@Pegas@@@?$vector@VVector3@Pegas@@V?$allocator@VVector3@Pegas@@@std@@@std@@IAEPAVVector3@Pegas@@PAV23@00@Z 0041e470 f i game_objects.obj
 0001:0001d4d0       ??$fill@PAVVector3@Pegas@@V12@@std@@YAXPAVVector3@Pegas@@0ABV12@@Z 0041e4d0 f i game_objects.obj
 0001:0001d530       ??$_Unchecked_move_backward@PAVVector3@Pegas@@PAV12@@stdext@@YAPAVVector3@Pegas@@PAV12@00@Z 0041e530 f i game_objects.obj
 0001:0001d5d0       ??$_Destroy_range@V?$allocator@U?$pair@HH@std@@@std@@@std@@YAXPAU?$pair@HH@0@0AAV?$allocator@U?$pair@HH@std@@@0@@Z 0041e5d0 f i game_objects.obj
 0001:0001d640       ??$_Umove@PAU?$pair@HH@std@@@?$vector@U?$pair@HH@std@@V?$allocator@U?$pair@HH@std@@@2@@std@@IAEPAU?$pair@HH@1@PAU21@00@Z 0041e640 f i game_objects.obj
 0001:0001d6a0       ??$fill@PAU?$pair@HH@std@@U12@@std@@YAXPAU?$pair@HH@0@0ABU10@@Z 0041e6a0 f i game_objects.obj
 0001:0001d700       ??$_Unchecked_move_backward@PAU?$pair@HH@std@@PAU12@@stdext@@YAPAU?$pair@HH@std@@PAU12@00@Z 0041e700 f i game_objects.obj
 0001:0001d7a0       ??0?$pair@HH@std@@QAE@ABH0@Z 0041e7a0 f i game_objects.obj
 0001:0001d7f0       ??$_Iter_cat@V?$_Vector_iterator@VVector3@Pegas@@V?$allocator@VVector3@Pegas@@@std@@@std@@@std@@YA?AUrandom_access_iterator_tag@0@ABV?$_Vector_iterator@VVector3@Pegas@@V?$allocator@VVector3@Pegas@@@std@@@0@@Z 0041e7f0 f i game_objects.obj
 0001:0001d850       ??$_Insert@V?$_Vector_iterator@VVector3@Pegas@@V?$allocator@VVector3@Pegas@@@std@@@std@@@?$vector@VVector3@Pegas@@V?$allocator@VVector3@Pegas@@@std@@@std@@QAEXV?$_Vector_const_iterator@VVector3@Pegas@@V?$allocator@VVector3@Pegas@@@std@@@1@V?$_Vector_iterator@VVector3@Pegas@@V?$allocator@VVector3@Pegas@@@std@@@1@1Uforward_iterator_tag@1@@Z 0041e850 f i game_objects.obj
 0001:0001dcf0       ??$_Construct@V?$_Vector_iterator@VVector3@Pegas@@V?$allocator@VVector3@Pegas@@@std@@@std@@@?$vector@VVector3@Pegas@@V?$allocator@VVector3@Pegas@@@std@@@std@@QAEXV?$_Vector_iterator@VVector3@Pegas@@V?$allocator@VVector3@Pegas@@@std@@@1@0Uinput_iterator_tag@1@@Z 0041ecf0 f i game_objects.obj
 0001:0001de60       ??$_Unchecked_uninitialized_move@V?$_Vector_iterator@VVector3@Pegas@@V?$allocator@VVector3@Pegas@@@std@@@std@@PAVVector3@Pegas@@V?$allocator@VVector3@Pegas@@@2@@stdext@@YAPAVVector3@Pegas@@V?$_Vector_iterator@VVector3@Pegas@@V?$allocator@VVector3@Pegas@@@std@@@std@@0PAV12@AAV?$allocator@VVector3@Pegas@@@4@@Z 0041ee60 f i game_objects.obj
 0001:0001df80       ??$_Uninit_fill_n@PAVVector3@Pegas@@IV12@V?$allocator@VVector3@Pegas@@@std@@@std@@YAXPAVVector3@Pegas@@IABV12@AAV?$allocator@VVector3@Pegas@@@0@U_Nonscalar_ptr_iterator_tag@0@U_Range_checked_iterator_tag@0@@Z 0041ef80 f i game_objects.obj
 0001:0001e060       ??$_Ptr_cat@PAU?$pair@HH@std@@PAU12@@std@@YA?AU_Nonscalar_ptr_iterator_tag@0@AAPAU?$pair@HH@0@0@Z 0041f060 f i game_objects.obj
 0001:0001e0c0       ??$_Uninit_fill_n@PAU?$pair@HH@std@@IU12@V?$allocator@U?$pair@HH@std@@@2@@std@@YAXPAU?$pair@HH@0@IABU10@AAV?$allocator@U?$pair@HH@std@@@0@U_Nonscalar_ptr_iterator_tag@0@U_Range_checked_iterator_tag@0@@Z 0041f0c0 f i game_objects.obj
 0001:0001e1a0       ??$_Unchecked_uninitialized_move@PAVVector3@Pegas@@PAV12@V?$allocator@VVector3@Pegas@@@std@@@stdext@@YAPAVVector3@Pegas@@PAV12@00AAV?$allocator@VVector3@Pegas@@@std@@@Z 0041f1a0 f i game_objects.obj
 0001:0001e230       ??$_Checked_base@PAVVector3@Pegas@@@std@@YAPAVVector3@Pegas@@AAPAV12@@Z 0041f230 f i game_objects.obj
 0001:0001e2b0       ??$_Fill@PAVVector3@Pegas@@V12@@std@@YAXPAVVector3@Pegas@@0ABV12@@Z 0041f2b0 f i game_objects.obj
 0001:0001e330       ??$_Iter_random@PAVVector3@Pegas@@PAV12@@std@@YA?AUrandom_access_iterator_tag@0@ABQAVVector3@Pegas@@0@Z 0041f330 f i game_objects.obj
 0001:0001e390       ??$_Move_cat@PAVVector3@Pegas@@@std@@YA?AU_Undefined_move_tag@0@ABQAVVector3@Pegas@@@Z 0041f390 f i game_objects.obj
 0001:0001e3f0       ??$_Move_backward_opt@PAVVector3@Pegas@@PAV12@Urandom_access_iterator_tag@std@@U_Undefined_move_tag@4@@std@@YAPAVVector3@Pegas@@PAV12@00Urandom_access_iterator_tag@0@U_Undefined_move_tag@0@U_Range_checked_iterator_tag@0@@Z 0041f3f0 f i game_objects.obj
 0001:0001e470       ??$_Destroy_range@V?$allocator@U?$pair@HH@std@@@std@@@std@@YAXPAU?$pair@HH@0@0AAV?$allocator@U?$pair@HH@std@@@0@U_Nonscalar_ptr_iterator_tag@0@@Z 0041f470 f i game_objects.obj
 0001:0001e4d0       ??$_Unchecked_uninitialized_move@PAU?$pair@HH@std@@PAU12@V?$allocator@U?$pair@HH@std@@@2@@stdext@@YAPAU?$pair@HH@std@@PAU12@00AAV?$allocator@U?$pair@HH@std@@@2@@Z 0041f4d0 f i game_objects.obj
 0001:0001e560       ??$_Checked_base@PAU?$pair@HH@std@@@std@@YAPAU?$pair@HH@0@AAPAU10@@Z 0041f560 f i game_objects.obj
 0001:0001e5e0       ??$_Fill@PAU?$pair@HH@std@@U12@@std@@YAXPAU?$pair@HH@0@0ABU10@@Z 0041f5e0 f i game_objects.obj
 0001:0001e660       ??$_Iter_random@PAU?$pair@HH@std@@PAU12@@std@@YA?AUrandom_access_iterator_tag@0@ABQAU?$pair@HH@0@0@Z 0041f660 f i game_objects.obj
 0001:0001e6c0       ??$_Move_cat@PAU?$pair@HH@std@@@std@@YA?AU_Undefined_move_tag@0@ABQAU?$pair@HH@0@@Z 0041f6c0 f i game_objects.obj
 0001:0001e720       ??$_Move_backward_opt@PAU?$pair@HH@std@@PAU12@Urandom_access_iterator_tag@2@U_Undefined_move_tag@2@@std@@YAPAU?$pair@HH@0@PAU10@00Urandom_access_iterator_tag@0@U_Undefined_move_tag@0@U_Range_checked_iterator_tag@0@@Z 0041f720 f i game_objects.obj
 0001:0001e7a0       ?destroy@?$allocator@U?$pair@HH@std@@@std@@QAEXPAU?$pair@HH@2@@Z 0041f7a0 f i game_objects.obj
 0001:0001e7f0       ?_Reverse@?$vector@VVector3@Pegas@@V?$allocator@VVector3@Pegas@@@std@@@std@@QAEXPAVVector3@Pegas@@0@Z 0041f7f0 f i game_objects.obj
 0001:0001e8c0       ??$_Debug_range@V?$_Vector_iterator@VVector3@Pegas@@V?$allocator@VVector3@Pegas@@@std@@@std@@@std@@YAXV?$_Vector_iterator@VVector3@Pegas@@V?$allocator@VVector3@Pegas@@@std@@@0@0PB_WI@Z 0041f8c0 f i game_objects.obj
 0001:0001e9b0       ??$_Distance@V?$_Vector_iterator@VVector3@Pegas@@V?$allocator@VVector3@Pegas@@@std@@@std@@I@std@@YAXV?$_Vector_iterator@VVector3@Pegas@@V?$allocator@VVector3@Pegas@@@std@@@0@0AAI@Z 0041f9b0 f i game_objects.obj
 0001:0001eaa0       ??$_Ucopy@V?$_Vector_iterator@VVector3@Pegas@@V?$allocator@VVector3@Pegas@@@std@@@std@@@?$vector@VVector3@Pegas@@V?$allocator@VVector3@Pegas@@@std@@@std@@IAEPAVVector3@Pegas@@V?$_Vector_iterator@VVector3@Pegas@@V?$allocator@VVector3@Pegas@@@std@@@1@0PAV23@@Z 0041faa0 f i game_objects.obj
 0001:0001eba0       ??$_Checked_base@V?$_Vector_iterator@VVector3@Pegas@@V?$allocator@VVector3@Pegas@@@std@@@std@@@std@@YA?AV?$_Vector_iterator@VVector3@Pegas@@V?$allocator@VVector3@Pegas@@@std@@@0@AAV10@@Z 0041fba0 f i game_objects.obj
 0001:0001ec40       ??$_Uninit_move@V?$_Vector_iterator@VVector3@Pegas@@V?$allocator@VVector3@Pegas@@@std@@@std@@PAVVector3@Pegas@@V?$allocator@VVector3@Pegas@@@2@U_Undefined_move_tag@2@@std@@YAPAVVector3@Pegas@@V?$_Vector_iterator@VVector3@Pegas@@V?$allocator@VVector3@Pegas@@@std@@@0@0PAV12@AAV?$allocator@VVector3@Pegas@@@0@U_Undefined_move_tag@0@U_Range_checked_iterator_tag@0@@Z 0041fc40 f i game_objects.obj
 0001:0001ed30       ??$_Uninit_move@PAVVector3@Pegas@@PAV12@V?$allocator@VVector3@Pegas@@@std@@U_Undefined_move_tag@4@@std@@YAPAVVector3@Pegas@@PAV12@00AAV?$allocator@VVector3@Pegas@@@0@U_Undefined_move_tag@0@U_Range_checked_iterator_tag@0@@Z 0041fd30 f i game_objects.obj
 0001:0001ed80       ??$_Checked_base@PAVVector3@Pegas@@@std@@YAPAVVector3@Pegas@@AAPAV12@U_Unchanged_checked_iterator_base_type_tag@0@@Z 0041fd80 f i game_objects.obj
 0001:0001edb0       ??$_Debug_range@PAVVector3@Pegas@@@std@@YAXPAVVector3@Pegas@@0PB_WI@Z 0041fdb0 f i game_objects.obj
 0001:0001ee20       ??$_Copy_backward_opt@PAVVector3@Pegas@@PAV12@@std@@YAPAVVector3@Pegas@@PAV12@00Urandom_access_iterator_tag@0@U_Nonscalar_ptr_iterator_tag@0@U_Range_checked_iterator_tag@0@@Z 0041fe20 f i game_objects.obj
 0001:0001eec0       ??$_Uninit_move@PAU?$pair@HH@std@@PAU12@V?$allocator@U?$pair@HH@std@@@2@U_Undefined_move_tag@2@@std@@YAPAU?$pair@HH@0@PAU10@00AAV?$allocator@U?$pair@HH@std@@@0@U_Undefined_move_tag@0@U_Range_checked_iterator_tag@0@@Z 0041fec0 f i game_objects.obj
 0001:0001ef10       ??$_Checked_base@PAU?$pair@HH@std@@@std@@YAPAU?$pair@HH@0@AAPAU10@U_Unchanged_checked_iterator_base_type_tag@0@@Z 0041ff10 f i game_objects.obj
 0001:0001ef40       ??$_Debug_range@PAU?$pair@HH@std@@@std@@YAXPAU?$pair@HH@0@0PB_WI@Z 0041ff40 f i game_objects.obj
 0001:0001efb0       ??$_Copy_backward_opt@PAU?$pair@HH@std@@PAU12@@std@@YAPAU?$pair@HH@0@PAU10@00Urandom_access_iterator_tag@0@U_Nonscalar_ptr_iterator_tag@0@U_Range_checked_iterator_tag@0@@Z 0041ffb0 f i game_objects.obj
 0001:0001f040       ??$_Destroy@U?$pair@HH@std@@@std@@YAXPAU?$pair@HH@0@@Z 00420040 f i game_objects.obj
 0001:0001f070       ??$_Debug_range2@V?$_Vector_iterator@VVector3@Pegas@@V?$allocator@VVector3@Pegas@@@std@@@std@@@std@@YAXV?$_Vector_iterator@VVector3@Pegas@@V?$allocator@VVector3@Pegas@@@std@@@0@0PB_WIUrandom_access_iterator_tag@0@@Z 00420070 f i game_objects.obj
 0001:0001f160       ??$_Distance2@V?$_Vector_iterator@VVector3@Pegas@@V?$allocator@VVector3@Pegas@@@std@@@std@@I@std@@YAXV?$_Vector_iterator@VVector3@Pegas@@V?$allocator@VVector3@Pegas@@@std@@@0@0AAIUrandom_access_iterator_tag@0@@Z 00420160 f i game_objects.obj
 0001:0001f240       ??$unchecked_uninitialized_copy@V?$_Vector_iterator@VVector3@Pegas@@V?$allocator@VVector3@Pegas@@@std@@@std@@PAVVector3@Pegas@@V?$allocator@VVector3@Pegas@@@2@@stdext@@YAPAVVector3@Pegas@@V?$_Vector_iterator@VVector3@Pegas@@V?$allocator@VVector3@Pegas@@@std@@@std@@0PAV12@AAV?$allocator@VVector3@Pegas@@@4@@Z 00420240 f i game_objects.obj
 0001:0001f370       ??$_Checked_base@V?$_Vector_iterator@VVector3@Pegas@@V?$allocator@VVector3@Pegas@@@std@@@std@@@std@@YA?AV?$_Vector_iterator@VVector3@Pegas@@V?$allocator@VVector3@Pegas@@@std@@@0@AAV10@U_Unchanged_checked_iterator_base_type_tag@0@@Z 00420370 f i game_objects.obj
 0001:0001f3d0       ??$unchecked_uninitialized_copy@PAVVector3@Pegas@@PAV12@V?$allocator@VVector3@Pegas@@@std@@@stdext@@YAPAVVector3@Pegas@@PAV12@00AAV?$allocator@VVector3@Pegas@@@std@@@Z 004203d0 f i game_objects.obj
 0001:0001f460       ??$_Iter_cat@PAVVector3@Pegas@@@std@@YA?AUrandom_access_iterator_tag@0@ABQAVVector3@Pegas@@@Z 00420460 f i game_objects.obj
 0001:0001f4c0       ??$_Debug_range2@PAVVector3@Pegas@@@std@@YAXPAVVector3@Pegas@@0PB_WIUrandom_access_iterator_tag@0@@Z 004204c0 f i game_objects.obj
 0001:0001f540       ??$_Copy_backward_opt@PAVVector3@Pegas@@PAV12@Uforward_iterator_tag@std@@@std@@YAPAVVector3@Pegas@@PAV12@00Uforward_iterator_tag@0@U_Nonscalar_ptr_iterator_tag@0@U_Range_checked_iterator_tag@0@@Z 00420540 f i game_objects.obj
 0001:0001f5d0       ??$unchecked_uninitialized_copy@PAU?$pair@HH@std@@PAU12@V?$allocator@U?$pair@HH@std@@@2@@stdext@@YAPAU?$pair@HH@std@@PAU12@00AAV?$allocator@U?$pair@HH@std@@@2@@Z 004205d0 f i game_objects.obj
 0001:0001f660       ??$_Iter_cat@PAU?$pair@HH@std@@@std@@YA?AUrandom_access_iterator_tag@0@ABQAU?$pair@HH@0@@Z 00420660 f i game_objects.obj
 0001:0001f6c0       ??$_Debug_range2@PAU?$pair@HH@std@@@std@@YAXPAU?$pair@HH@0@0PB_WIUrandom_access_iterator_tag@0@@Z 004206c0 f i game_objects.obj
 0001:0001f740       ??$_Copy_backward_opt@PAU?$pair@HH@std@@PAU12@Uforward_iterator_tag@2@@std@@YAPAU?$pair@HH@0@PAU10@00Uforward_iterator_tag@0@U_Nonscalar_ptr_iterator_tag@0@U_Range_checked_iterator_tag@0@@Z 00420740 f i game_objects.obj
 0001:0001f7c0       ??G?$_Vector_iterator@VVector3@Pegas@@V?$allocator@VVector3@Pegas@@@std@@@std@@QBEHABV?$_Vector_const_iterator@VVector3@Pegas@@V?$allocator@VVector3@Pegas@@@std@@@1@@Z 004207c0 f i game_objects.obj
 0001:0001f810       ??$_Debug_pointer@V?$_Vector_iterator@VVector3@Pegas@@V?$allocator@VVector3@Pegas@@@std@@@std@@@std@@YAXAAV?$_Vector_iterator@VVector3@Pegas@@V?$allocator@VVector3@Pegas@@@std@@@0@PB_WI@Z 00420810 f i game_objects.obj
 0001:0001f840       ??$_Ptr_cat@V?$_Vector_iterator@VVector3@Pegas@@V?$allocator@VVector3@Pegas@@@std@@@std@@PAVVector3@Pegas@@@std@@YA?AU_Nonscalar_ptr_iterator_tag@0@AAV?$_Vector_iterator@VVector3@Pegas@@V?$allocator@VVector3@Pegas@@@std@@@0@AAPAVVector3@Pegas@@@Z 00420840 f i game_objects.obj
 0001:0001f8a0       ??$_Uninit_copy@V?$_Vector_iterator@VVector3@Pegas@@V?$allocator@VVector3@Pegas@@@std@@@std@@PAVVector3@Pegas@@V?$allocator@VVector3@Pegas@@@2@@std@@YAPAVVector3@Pegas@@V?$_Vector_iterator@VVector3@Pegas@@V?$allocator@VVector3@Pegas@@@std@@@0@0PAV12@AAV?$allocator@VVector3@Pegas@@@0@U_Nonscalar_ptr_iterator_tag@0@U_Range_checked_iterator_tag@0@@Z 004208a0 f i game_objects.obj
 0001:0001fa40       ??$_Uninit_copy@PAVVector3@Pegas@@PAV12@V?$allocator@VVector3@Pegas@@@std@@@std@@YAPAVVector3@Pegas@@PAV12@00AAV?$allocator@VVector3@Pegas@@@0@U_Nonscalar_ptr_iterator_tag@0@U_Range_checked_iterator_tag@0@@Z 00420a40 f i game_objects.obj
 0001:0001fb50       ??$_Uninit_copy@PAU?$pair@HH@std@@PAU12@V?$allocator@U?$pair@HH@std@@@2@@std@@YAPAU?$pair@HH@0@PAU10@00AAV?$allocator@U?$pair@HH@std@@@0@U_Nonscalar_ptr_iterator_tag@0@U_Range_checked_iterator_tag@0@@Z 00420b50 f i game_objects.obj
 0001:0001fc60       ??$_Debug_pointer@U?$pair@HH@std@@@std@@YAXPAU?$pair@HH@0@PB_WI@Z 00420c60 f i game_objects.obj
 0001:0001fcb0       ??D?$_Vector_iterator@VVector3@Pegas@@V?$allocator@VVector3@Pegas@@@std@@@std@@QBEAAVVector3@Pegas@@XZ 00420cb0 f i game_objects.obj
 0001:0001fcf0       ??E?$_Vector_iterator@VVector3@Pegas@@V?$allocator@VVector3@Pegas@@@std@@@std@@QAEAAV01@XZ 00420cf0 f i game_objects.obj
 0001:0001fd40       ??_EShatter@Pegas@@WBM@AEPAXI@Z 00420d40 f i game_objects.obj
 0001:0001fd50       ??_EAsteroid@Pegas@@WBM@AEPAXI@Z 00420d50 f i game_objects.obj
 0001:0001fd60       ??_EShip@Pegas@@WBI@AEPAXI@Z 00420d60 f i game_objects.obj
 0001:0001fd70       ?dotProduct@Vector3@Pegas@@QAEMABV12@@Z 00420d70 f i game_objects.obj
 0001:0001fdd0       ??0Matrix4x4@Pegas@@QAE@XZ 00420dd0 f i game_objects.obj
 0001:0001fe20       ?identity@Matrix4x4@Pegas@@QAEAAV12@XZ 00420e20 f i game_objects.obj
 0001:0001fe90       ?translate@Matrix4x4@Pegas@@QAEAAV12@MMM@Z 00420e90 f i game_objects.obj
 0001:0001fee0       ?rotateZ@Matrix4x4@Pegas@@QAEAAV12@M@Z 00420ee0 f i game_objects.obj
 0001:0001ff80       ??DPegas@@YA?AVMatrix4x4@0@ABV10@0@Z 00420f80 f i game_objects.obj
 0001:00020380       ??0Matrix4x4@Pegas@@QAE@ABV01@@Z 00421380 f i game_objects.obj
 0001:000203d0       ??DPegas@@YA?AVVector3@0@ABV10@ABVMatrix4x4@0@@Z 004213d0 f i game_objects.obj
 0001:000204f0       ??1Process@Pegas@@UAE@XZ   004214f0 f i game_objects.obj
 0001:00020540       ??_EProcess@Pegas@@UAEPAXI@Z 00421540 f i game_objects.obj
 0001:00020540       ??_GProcess@Pegas@@UAEPAXI@Z 00421540 f i game_objects.obj
 0001:000205a0       ??1?$vector@VVector3@Pegas@@V?$allocator@VVector3@Pegas@@@std@@@std@@QAE@XZ 004215a0 f i game_objects.obj
 0001:00020620       ??1?$_Vector_val@VVector3@Pegas@@V?$allocator@VVector3@Pegas@@@std@@@std@@QAE@XZ 00421620 f i game_objects.obj
 0001:00020660       ??1?$_Vector_const_iterator@VVector3@Pegas@@V?$allocator@VVector3@Pegas@@@std@@@std@@QAE@XZ 00421660 f i game_objects.obj
 0001:000206a0       ??1?$_Ranit@VVector3@Pegas@@HPBV12@ABV12@@std@@QAE@XZ 004216a0 f i game_objects.obj
 0001:000206e0       ??1?$_Iterator_with_base@Urandom_access_iterator_tag@std@@VVector3@Pegas@@HPBV34@ABV34@V_Iterator_base@2@@std@@QAE@XZ 004216e0 f i game_objects.obj
 0001:00020720       ?size@?$vector@VVector3@Pegas@@V?$allocator@VVector3@Pegas@@@std@@@std@@QBEIXZ 00421720 f i game_objects.obj
 0001:00020760       ?_Buy@?$vector@VVector3@Pegas@@V?$allocator@VVector3@Pegas@@@std@@@std@@IAE_NI@Z 00421760 f i game_objects.obj
 0001:00020810       ?_Tidy@?$vector@VVector3@Pegas@@V?$allocator@VVector3@Pegas@@@std@@@std@@IAEXXZ 00421810 f i game_objects.obj
 0001:000208c0       ??0?$_Vector_val@VVector3@Pegas@@V?$allocator@VVector3@Pegas@@@std@@@std@@IAE@V?$allocator@VVector3@Pegas@@@1@@Z 004218c0 f i game_objects.obj
 0001:00020930       ??1?$_Container_base_aux_alloc_empty@V?$allocator@VVector3@Pegas@@@std@@@std@@IAE@XZ 00421930 f i game_objects.obj
 0001:00020970       ??0?$allocator@VVector3@Pegas@@@std@@QAE@ABV01@@Z 00421970 f i game_objects.obj
 0001:000209a0       ?max_size@?$vector@VVector3@Pegas@@V?$allocator@VVector3@Pegas@@@std@@@std@@QBEIXZ 004219a0 f i game_objects.obj
 0001:000209f0       ?_Destroy@?$vector@VVector3@Pegas@@V?$allocator@VVector3@Pegas@@@std@@@std@@IAEXPAVVector3@Pegas@@0@Z 004219f0 f i game_objects.obj
 0001:00020a40       ?_Xlen@?$vector@VVector3@Pegas@@V?$allocator@VVector3@Pegas@@@std@@@std@@KAXXZ 00421a40 f i game_objects.obj
 0001:00020af0       ??0?$_Container_base_aux_alloc_empty@V?$allocator@VVector3@Pegas@@@std@@@std@@IAE@V?$allocator@VVector3@Pegas@@@1@@Z 00421af0 f i game_objects.obj
 0001:00020b40       ?deallocate@?$allocator@VVector3@Pegas@@@std@@QAEXPAVVector3@Pegas@@I@Z 00421b40 f i game_objects.obj
 0001:00020b90       ?allocate@?$allocator@VVector3@Pegas@@@std@@QAEPAVVector3@Pegas@@I@Z 00421b90 f i game_objects.obj
 0001:00020be0       ??0?$_Vector_const_iterator@VVector3@Pegas@@V?$allocator@VVector3@Pegas@@@std@@@std@@QAE@PAVVector3@Pegas@@PBV_Container_base_secure@1@@Z 00421be0 f i game_objects.obj
 0001:00020cd0       ??0?$_Ranit@VVector3@Pegas@@HPBV12@ABV12@@std@@QAE@XZ 00421cd0 f i game_objects.obj
 0001:00020d20       ??0?$_Iterator_with_base@Urandom_access_iterator_tag@std@@VVector3@Pegas@@HPBV34@ABV34@V_Iterator_base@2@@std@@QAE@XZ 00421d20 f i game_objects.obj
 0001:00020d70       ?max_size@?$allocator@VVector3@Pegas@@@std@@QBEIXZ 00421d70 f i game_objects.obj
 0001:00020dd0       ??$_Destroy_range@V?$allocator@VVector3@Pegas@@@std@@@std@@YAXPAVVector3@Pegas@@0AAV?$allocator@VVector3@Pegas@@@0@@Z 00421dd0 f i game_objects.obj
 0001:00020e40       ??$_Allocate@VVector3@Pegas@@@std@@YAPAVVector3@Pegas@@IPAV12@@Z 00421e40 f i game_objects.obj
 0001:00020ec0       ??0?$_Vector_const_iterator@VVector3@Pegas@@V?$allocator@VVector3@Pegas@@@std@@@std@@QAE@ABV01@@Z 00421ec0 f i game_objects.obj
 0001:00020f20       ??0?$_Ranit@VVector3@Pegas@@HPBV12@ABV12@@std@@QAE@ABU01@@Z 00421f20 f i game_objects.obj
 0001:00020f70       ??0?$_Iterator_with_base@Urandom_access_iterator_tag@std@@VVector3@Pegas@@HPBV34@ABV34@V_Iterator_base@2@@std@@QAE@ABU01@@Z 00421f70 f i game_objects.obj
 0001:00020fc0       ??$_Ptr_cat@PAVVector3@Pegas@@PAV12@@std@@YA?AU_Nonscalar_ptr_iterator_tag@0@AAPAVVector3@Pegas@@0@Z 00421fc0 f i game_objects.obj
 0001:00021020       ??$_Destroy_range@V?$allocator@VVector3@Pegas@@@std@@@std@@YAXPAVVector3@Pegas@@0AAV?$allocator@VVector3@Pegas@@@0@U_Nonscalar_ptr_iterator_tag@0@@Z 00422020 f i game_objects.obj
 0001:00021080       ?destroy@?$allocator@VVector3@Pegas@@@std@@QAEXPAVVector3@Pegas@@@Z 00422080 f i game_objects.obj
 0001:000210d0       ??$_Destroy@VVector3@Pegas@@@std@@YAXPAVVector3@Pegas@@@Z 004220d0 f i game_objects.obj
 0001:00021100       ?construct@?$allocator@VVector3@Pegas@@@std@@QAEXPAVVector3@Pegas@@ABV34@@Z 00422100 f i game_objects.obj
 0001:00021150       ??D?$_Vector_const_iterator@VVector3@Pegas@@V?$allocator@VVector3@Pegas@@@std@@@std@@QBEABVVector3@Pegas@@XZ 00422150 f i game_objects.obj
 0001:00021210       ??E?$_Vector_const_iterator@VVector3@Pegas@@V?$allocator@VVector3@Pegas@@@std@@@std@@QAEAAV01@XZ 00422210 f i game_objects.obj
 0001:00021330       ??9?$_Vector_const_iterator@VVector3@Pegas@@V?$allocator@VVector3@Pegas@@@std@@@std@@QBE_NABV01@@Z 00422330 f i game_objects.obj
 0001:00021380       ??8?$_Vector_const_iterator@VVector3@Pegas@@V?$allocator@VVector3@Pegas@@@std@@@std@@QBE_NABV01@@Z 00422380 f i game_objects.obj
 0001:000213e0       ?_Compat@?$_Vector_const_iterator@VVector3@Pegas@@V?$allocator@VVector3@Pegas@@@std@@@std@@QBEXABV12@@Z 004223e0 f i game_objects.obj
 0001:00021490       ??$_Debug_pointer@VVector3@Pegas@@@std@@YAXPAVVector3@Pegas@@PB_WI@Z 00422490 f i game_objects.obj
 0001:000214e0       ??$_Construct@VVector3@Pegas@@V12@@std@@YAXPAVVector3@Pegas@@ABV12@@Z 004224e0 f i game_objects.obj
 0001:000215a0       ??M?$_Vector_const_iterator@VVector3@Pegas@@V?$allocator@VVector3@Pegas@@@std@@@std@@QBE_NABV01@@Z 004225a0 f i game_objects.obj
 0001:00021600       _wWinMain@16               00422600 f   asteroids.obj
 0001:000217e0       ??1GameApplication@Pegas@@UAE@XZ 004227e0 f i asteroids.obj
 0001:00021820       ?MyRegisterClass@@YAGPAUHINSTANCE__@@@Z 00422820 f   asteroids.obj
 0001:00021920       ?InitInstance@@YAHPAUHINSTANCE__@@H@Z 00422920 f   asteroids.obj
 0001:00021ab0       ?WndProc@@YGJPAUHWND__@@IIJ@Z 00422ab0 f   asteroids.obj
 0001:00021db0       ?About@@YGHPAUHWND__@@IIJ@Z 00422db0 f   asteroids.obj
 0001:00021e60       ?getInstance@?$Singleton@VBaseGameApplication@Pegas@@@Pegas@@SAAAVBaseGameApplication@2@XZ 00422e60 f i asteroids.obj
 0001:00021eb0       ??1BaseGameApplication@Pegas@@UAE@XZ 00422eb0 f i asteroids.obj
 0001:00022040       ??1EventManager@Pegas@@UAE@XZ 00423040 f i asteroids.obj
 0001:000220f0       ??_EEventManager@Pegas@@UAEPAXI@Z 004230f0 f i asteroids.obj
 0001:000220f0       ??_GEventManager@Pegas@@UAEPAXI@Z 004230f0 f i asteroids.obj
 0001:00022150       ??1?$queue@V?$ptr@UEvent@Pegas@@@Pegas@@V?$deque@V?$ptr@UEvent@Pegas@@@Pegas@@V?$allocator@V?$ptr@UEvent@Pegas@@@Pegas@@@std@@@std@@@std@@QAE@XZ 00423150 f i asteroids.obj
 0001:00022190       ??1?$map@V?$basic_string@DU?$char_traits@D@std@@V?$allocator@D@2@@std@@V?$ptr@V?$set@PAVIEventListener@Pegas@@U?$less@PAVIEventListener@Pegas@@@std@@V?$allocator@PAVIEventListener@Pegas@@@4@@std@@@Pegas@@U?$less@V?$basic_string@DU?$char_traits@D@std@@V?$allocator@D@2@@std@@@2@V?$allocator@U?$pair@$$CBV?$basic_string@DU?$char_traits@D@std@@V?$allocator@D@2@@std@@V?$ptr@V?$set@PAVIEventListener@Pegas@@U?$less@PAVIEventListener@Pegas@@@std@@V?$allocator@PAVIEventListener@Pegas@@@4@@std@@@Pegas@@@std@@@2@@std@@QAE@XZ 00423190 f i asteroids.obj
 0001:000221d0       ??1WindowsOSUtils@Pegas@@UAE@XZ 004231d0 f i asteroids.obj
 0001:00022220       ??1OSUtils@Pegas@@UAE@XZ   00423220 f i asteroids.obj
 0001:00022270       ??_GOSUtils@Pegas@@UAEPAXI@Z 00423270 f i asteroids.obj
 0001:00022270       ??_EOSUtils@Pegas@@UAEPAXI@Z 00423270 f i asteroids.obj
 0001:000222d0       ??_GWindowsOSUtils@Pegas@@UAEPAXI@Z 004232d0 f i asteroids.obj
 0001:000222d0       ??_EWindowsOSUtils@Pegas@@UAEPAXI@Z 004232d0 f i asteroids.obj
 0001:00022330       ??1WinMMSoundManager@Pegas@@UAE@XZ 00423330 f i asteroids.obj
 0001:00022380       ??1SoundManager@Pegas@@UAE@XZ 00423380 f i asteroids.obj
 0001:000223d0       ??_GSoundManager@Pegas@@UAEPAXI@Z 004233d0 f i asteroids.obj
 0001:000223d0       ??_ESoundManager@Pegas@@UAEPAXI@Z 004233d0 f i asteroids.obj
 0001:00022430       ??_EWinMMSoundManager@Pegas@@UAEPAXI@Z 00423430 f i asteroids.obj
 0001:00022430       ??_GWinMMSoundManager@Pegas@@UAEPAXI@Z 00423430 f i asteroids.obj
 0001:00022490       ??1OGLGrafManager@Pegas@@UAE@XZ 00423490 f i asteroids.obj
 0001:00022520       ??1GrafManager@Pegas@@UAE@XZ 00423520 f i asteroids.obj
 0001:000225b0       ?render@GrafManager@Pegas@@UAEXXZ 004235b0 f i asteroids.obj
 0001:000225e0       ??_GGrafManager@Pegas@@UAEPAXI@Z 004235e0 f i asteroids.obj
 0001:000225e0       ??_EGrafManager@Pegas@@UAEPAXI@Z 004235e0 f i asteroids.obj
 0001:00022640       ??1EllipseTexture@Pegas@@UAE@XZ 00423640 f i asteroids.obj
 0001:00022690       ?create@EllipseTexture@Pegas@@UAEXABUIntResourceCode@2@@Z 00423690 f i asteroids.obj
 0001:000226c0       ??_EEllipseTexture@Pegas@@UAEPAXI@Z 004236c0 f i asteroids.obj
 0001:000226c0       ??_GEllipseTexture@Pegas@@UAEPAXI@Z 004236c0 f i asteroids.obj
 0001:00022720       ?activate@BaseGameApplication@Pegas@@QAEX_N@Z 00423720 f i asteroids.obj
 0001:00022760       ?getListenerName@BaseGameApplication@Pegas@@UAE?AV?$basic_string@DU?$char_traits@D@std@@V?$allocator@D@2@@std@@XZ 00423760 f i asteroids.obj
 0001:000227d0       ??1?$set@PAVIKeyboardController@Pegas@@U?$less@PAVIKeyboardController@Pegas@@@std@@V?$allocator@PAVIKeyboardController@Pegas@@@4@@std@@QAE@XZ 004237d0 f i asteroids.obj
 0001:00022810       ??1?$set@PAVIMouseController@Pegas@@U?$less@PAVIMouseController@Pegas@@@std@@V?$allocator@PAVIMouseController@Pegas@@@4@@std@@QAE@XZ 00423810 f i asteroids.obj
 0001:00022850       ??1?$map@HV?$ptr@VIGameState@Pegas@@@Pegas@@U?$less@H@std@@V?$allocator@U?$pair@$$CBHV?$ptr@VIGameState@Pegas@@@Pegas@@@std@@@4@@std@@QAE@XZ 00423850 f i asteroids.obj
 0001:00022890       ??1?$stack@V?$ptr@VIGameState@Pegas@@@Pegas@@V?$deque@V?$ptr@VIGameState@Pegas@@@Pegas@@V?$allocator@V?$ptr@VIGameState@Pegas@@@Pegas@@@std@@@std@@@std@@QAE@XZ 00423890 f i asteroids.obj
 0001:000228d0       ??1?$Singleton@VOSUtils@Pegas@@@Pegas@@QAE@XZ 004238d0 f i asteroids.obj
 0001:00022930       ??1?$Singleton@VGrafManager@Pegas@@@Pegas@@QAE@XZ 00423930 f i asteroids.obj
 0001:00022990       ??1?$list@PAVIDrawable@Pegas@@V?$allocator@PAVIDrawable@Pegas@@@std@@@std@@QAE@XZ 00423990 f i asteroids.obj
 0001:00022a10       ??1?$Singleton@VSoundManager@Pegas@@@Pegas@@QAE@XZ 00423a10 f i asteroids.obj
 0001:00022a70       ??1?$Singleton@VEventManager@Pegas@@@Pegas@@QAE@XZ 00423a70 f i asteroids.obj
 0001:00022ad0       ??1?$deque@V?$ptr@UEvent@Pegas@@@Pegas@@V?$allocator@V?$ptr@UEvent@Pegas@@@Pegas@@@std@@@std@@QAE@XZ 00423ad0 f i asteroids.obj
 0001:00022b50       ??1?$_Tree@V?$_Tmap_traits@V?$basic_string@DU?$char_traits@D@std@@V?$allocator@D@2@@std@@V?$ptr@V?$set@PAVIEventListener@Pegas@@U?$less@PAVIEventListener@Pegas@@@std@@V?$allocator@PAVIEventListener@Pegas@@@4@@std@@@Pegas@@U?$less@V?$basic_string@DU?$char_traits@D@std@@V?$allocator@D@2@@std@@@2@V?$allocator@U?$pair@$$CBV?$basic_string@DU?$char_traits@D@std@@V?$allocator@D@2@@std@@V?$ptr@V?$set@PAVIEventListener@Pegas@@U?$less@PAVIEventListener@Pegas@@@std@@V?$allocator@PAVIEventListener@Pegas@@@4@@std@@@Pegas@@@std@@@2@$0A@@std@@@std@@QAE@XZ 00423b50 f i asteroids.obj
 0001:00022bd0       ??1?$Singleton@VBaseGameApplication@Pegas@@@Pegas@@QAE@XZ 00423bd0 f i asteroids.obj
 0001:00022c30       ??1?$_Tree@V?$_Tset_traits@PAVIKeyboardController@Pegas@@U?$less@PAVIKeyboardController@Pegas@@@std@@V?$allocator@PAVIKeyboardController@Pegas@@@4@$0A@@std@@@std@@QAE@XZ 00423c30 f i asteroids.obj
 0001:00022cb0       ??1?$_Tree@V?$_Tset_traits@PAVIMouseController@Pegas@@U?$less@PAVIMouseController@Pegas@@@std@@V?$allocator@PAVIMouseController@Pegas@@@4@$0A@@std@@@std@@QAE@XZ 00423cb0 f i asteroids.obj
 0001:00022d30       ??1?$_Tree@V?$_Tmap_traits@HV?$ptr@VIGameState@Pegas@@@Pegas@@U?$less@H@std@@V?$allocator@U?$pair@$$CBHV?$ptr@VIGameState@Pegas@@@Pegas@@@std@@@4@$0A@@std@@@std@@QAE@XZ 00423d30 f i asteroids.obj
 0001:00022db0       ??1?$deque@V?$ptr@VIGameState@Pegas@@@Pegas@@V?$allocator@V?$ptr@VIGameState@Pegas@@@Pegas@@@std@@@std@@QAE@XZ 00423db0 f i asteroids.obj
 0001:00022e30       ??1?$list@V?$ptr@VFile@Pegas@@@Pegas@@V?$allocator@V?$ptr@VFile@Pegas@@@Pegas@@@std@@@std@@QAE@XZ 00423e30 f i asteroids.obj
 0001:00022eb0       ??1?$ResourceManager@VStringResource@Pegas@@UIntResourceCode@2@@Pegas@@UAE@XZ 00423eb0 f i asteroids.obj
 0001:00022f50       ??1?$ResourceManager@VTextureResource@Pegas@@UIntResourceCode@2@@Pegas@@UAE@XZ 00423f50 f i asteroids.obj
 0001:00022ff0       ??1?$ResourceManager@VFontResource@Pegas@@UFontResourceCode@2@@Pegas@@UAE@XZ 00423ff0 f i asteroids.obj
 0001:00023090       ??1?$ResourceManager@VSoundResource@Pegas@@UIntResourceCode@2@@Pegas@@UAE@XZ 00424090 f i asteroids.obj
 0001:00023130       ??1?$_List_val@PAVIDrawable@Pegas@@V?$allocator@PAVIDrawable@Pegas@@@std@@@std@@QAE@XZ 00424130 f i asteroids.obj
 0001:00023170       ??1?$_Deque_val@V?$ptr@UEvent@Pegas@@@Pegas@@V?$allocator@V?$ptr@UEvent@Pegas@@@Pegas@@@std@@@std@@QAE@XZ 00424170 f i asteroids.obj
 0001:000231b0       ??1?$_Tree_val@V?$_Tmap_traits@V?$basic_string@DU?$char_traits@D@std@@V?$allocator@D@2@@std@@V?$ptr@V?$set@PAVIEventListener@Pegas@@U?$less@PAVIEventListener@Pegas@@@std@@V?$allocator@PAVIEventListener@Pegas@@@4@@std@@@Pegas@@U?$less@V?$basic_string@DU?$char_traits@D@std@@V?$allocator@D@2@@std@@@2@V?$allocator@U?$pair@$$CBV?$basic_string@DU?$char_traits@D@std@@V?$allocator@D@2@@std@@V?$ptr@V?$set@PAVIEventListener@Pegas@@U?$less@PAVIEventListener@Pegas@@@std@@V?$allocator@PAVIEventListener@Pegas@@@4@@std@@@Pegas@@@std@@@2@$0A@@std@@@std@@QAE@XZ 004241b0 f i asteroids.obj
 0001:000231f0       ??1?$_Tree_val@V?$_Tset_traits@PAVIKeyboardController@Pegas@@U?$less@PAVIKeyboardController@Pegas@@@std@@V?$allocator@PAVIKeyboardController@Pegas@@@4@$0A@@std@@@std@@QAE@XZ 004241f0 f i asteroids.obj
 0001:00023230       ??1?$_Tree_val@V?$_Tset_traits@PAVIMouseController@Pegas@@U?$less@PAVIMouseController@Pegas@@@std@@V?$allocator@PAVIMouseController@Pegas@@@4@$0A@@std@@@std@@QAE@XZ 00424230 f i asteroids.obj
 0001:00023270       ??1?$_Tree_val@V?$_Tmap_traits@HV?$ptr@VIGameState@Pegas@@@Pegas@@U?$less@H@std@@V?$allocator@U?$pair@$$CBHV?$ptr@VIGameState@Pegas@@@Pegas@@@std@@@4@$0A@@std@@@std@@QAE@XZ 00424270 f i asteroids.obj
 0001:000232b0       ??1?$_Deque_val@V?$ptr@VIGameState@Pegas@@@Pegas@@V?$allocator@V?$ptr@VIGameState@Pegas@@@Pegas@@@std@@@std@@QAE@XZ 004242b0 f i asteroids.obj
 0001:000232f0       ??1?$_List_val@V?$ptr@VFile@Pegas@@@Pegas@@V?$allocator@V?$ptr@VFile@Pegas@@@Pegas@@@std@@@std@@QAE@XZ 004242f0 f i asteroids.obj
 0001:00023330       ??_G?$ResourceManager@VStringResource@Pegas@@UIntResourceCode@2@@Pegas@@UAEPAXI@Z 00424330 f i asteroids.obj
 0001:00023330       ??_E?$ResourceManager@VStringResource@Pegas@@UIntResourceCode@2@@Pegas@@UAEPAXI@Z 00424330 f i asteroids.obj
 0001:00023390       ??1?$map@HPAVStringResource@Pegas@@U?$less@H@std@@V?$allocator@U?$pair@$$CBHPAVStringResource@Pegas@@@std@@@4@@std@@QAE@XZ 00424390 f i asteroids.obj
 0001:000233d0       ??_G?$ResourceManager@VTextureResource@Pegas@@UIntResourceCode@2@@Pegas@@UAEPAXI@Z 004243d0 f i asteroids.obj
 0001:000233d0       ??_E?$ResourceManager@VTextureResource@Pegas@@UIntResourceCode@2@@Pegas@@UAEPAXI@Z 004243d0 f i asteroids.obj
 0001:00023430       ??1?$map@HPAVTextureResource@Pegas@@U?$less@H@std@@V?$allocator@U?$pair@$$CBHPAVTextureResource@Pegas@@@std@@@4@@std@@QAE@XZ 00424430 f i asteroids.obj
 0001:00023470       ??_E?$ResourceManager@VFontResource@Pegas@@UFontResourceCode@2@@Pegas@@UAEPAXI@Z 00424470 f i asteroids.obj
 0001:00023470       ??_G?$ResourceManager@VFontResource@Pegas@@UFontResourceCode@2@@Pegas@@UAEPAXI@Z 00424470 f i asteroids.obj
 0001:000234d0       ??1?$map@HPAVFontResource@Pegas@@U?$less@H@std@@V?$allocator@U?$pair@$$CBHPAVFontResource@Pegas@@@std@@@4@@std@@QAE@XZ 004244d0 f i asteroids.obj
 0001:00023510       ??_E?$ResourceManager@VSoundResource@Pegas@@UIntResourceCode@2@@Pegas@@UAEPAXI@Z 00424510 f i asteroids.obj
 0001:00023510       ??_G?$ResourceManager@VSoundResource@Pegas@@UIntResourceCode@2@@Pegas@@UAEPAXI@Z 00424510 f i asteroids.obj
 0001:00023570       ??1?$map@HPAVSoundResource@Pegas@@U?$less@H@std@@V?$allocator@U?$pair@$$CBHPAVSoundResource@Pegas@@@std@@@4@@std@@QAE@XZ 00424570 f i asteroids.obj
 0001:000235b0       ??1?$_List_ptr@PAVIDrawable@Pegas@@V?$allocator@PAVIDrawable@Pegas@@@std@@@std@@QAE@XZ 004245b0 f i asteroids.obj
 0001:000235f0       ??1?$_Deque_map@V?$ptr@UEvent@Pegas@@@Pegas@@V?$allocator@V?$ptr@UEvent@Pegas@@@Pegas@@@std@@@std@@QAE@XZ 004245f0 f i asteroids.obj
 0001:00023630       ??1?$_Tree_ptr@V?$_Tmap_traits@V?$basic_string@DU?$char_traits@D@std@@V?$allocator@D@2@@std@@V?$ptr@V?$set@PAVIEventListener@Pegas@@U?$less@PAVIEventListener@Pegas@@@std@@V?$allocator@PAVIEventListener@Pegas@@@4@@std@@@Pegas@@U?$less@V?$basic_string@DU?$char_traits@D@std@@V?$allocator@D@2@@std@@@2@V?$allocator@U?$pair@$$CBV?$basic_string@DU?$char_traits@D@std@@V?$allocator@D@2@@std@@V?$ptr@V?$set@PAVIEventListener@Pegas@@U?$less@PAVIEventListener@Pegas@@@std@@V?$allocator@PAVIEventListener@Pegas@@@4@@std@@@Pegas@@@std@@@2@$0A@@std@@@std@@QAE@XZ 00424630 f i asteroids.obj
 0001:00023670       ??1?$_Tree_ptr@V?$_Tset_traits@PAVIKeyboardController@Pegas@@U?$less@PAVIKeyboardController@Pegas@@@std@@V?$allocator@PAVIKeyboardController@Pegas@@@4@$0A@@std@@@std@@QAE@XZ 00424670 f i asteroids.obj
 0001:000236b0       ??1?$_Tree_ptr@V?$_Tset_traits@PAVIMouseController@Pegas@@U?$less@PAVIMouseController@Pegas@@@std@@V?$allocator@PAVIMouseController@Pegas@@@4@$0A@@std@@@std@@QAE@XZ 004246b0 f i asteroids.obj
 0001:000236f0       ??1?$_Tree_ptr@V?$_Tmap_traits@HV?$ptr@VIGameState@Pegas@@@Pegas@@U?$less@H@std@@V?$allocator@U?$pair@$$CBHV?$ptr@VIGameState@Pegas@@@Pegas@@@std@@@4@$0A@@std@@@std@@QAE@XZ 004246f0 f i asteroids.obj
 0001:00023730       ??1?$_Deque_map@V?$ptr@VIGameState@Pegas@@@Pegas@@V?$allocator@V?$ptr@VIGameState@Pegas@@@Pegas@@@std@@@std@@QAE@XZ 00424730 f i asteroids.obj
 0001:00023770       ??1?$_List_ptr@V?$ptr@VFile@Pegas@@@Pegas@@V?$allocator@V?$ptr@VFile@Pegas@@@Pegas@@@std@@@std@@QAE@XZ 00424770 f i asteroids.obj
 0001:000237b0       ??1?$_List_nod@PAVIDrawable@Pegas@@V?$allocator@PAVIDrawable@Pegas@@@std@@@std@@QAE@XZ 004247b0 f i asteroids.obj
 0001:000237f0       ??1?$_Tree_nod@V?$_Tmap_traits@V?$basic_string@DU?$char_traits@D@std@@V?$allocator@D@2@@std@@V?$ptr@V?$set@PAVIEventListener@Pegas@@U?$less@PAVIEventListener@Pegas@@@std@@V?$allocator@PAVIEventListener@Pegas@@@4@@std@@@Pegas@@U?$less@V?$basic_string@DU?$char_traits@D@std@@V?$allocator@D@2@@std@@@2@V?$allocator@U?$pair@$$CBV?$basic_string@DU?$char_traits@D@std@@V?$allocator@D@2@@std@@V?$ptr@V?$set@PAVIEventListener@Pegas@@U?$less@PAVIEventListener@Pegas@@@std@@V?$allocator@PAVIEventListener@Pegas@@@4@@std@@@Pegas@@@std@@@2@$0A@@std@@@std@@QAE@XZ 004247f0 f i asteroids.obj
 0001:00023830       ??1?$_Tree_nod@V?$_Tset_traits@PAVIKeyboardController@Pegas@@U?$less@PAVIKeyboardController@Pegas@@@std@@V?$allocator@PAVIKeyboardController@Pegas@@@4@$0A@@std@@@std@@QAE@XZ 00424830 f i asteroids.obj
 0001:00023870       ??1?$_Tree_nod@V?$_Tset_traits@PAVIMouseController@Pegas@@U?$less@PAVIMouseController@Pegas@@@std@@V?$allocator@PAVIMouseController@Pegas@@@4@$0A@@std@@@std@@QAE@XZ 00424870 f i asteroids.obj
 0001:000238b0       ??1?$_Tree_nod@V?$_Tmap_traits@HV?$ptr@VIGameState@Pegas@@@Pegas@@U?$less@H@std@@V?$allocator@U?$pair@$$CBHV?$ptr@VIGameState@Pegas@@@Pegas@@@std@@@4@$0A@@std@@@std@@QAE@XZ 004248b0 f i asteroids.obj
 0001:000238f0       ??1?$_List_nod@V?$ptr@VFile@Pegas@@@Pegas@@V?$allocator@V?$ptr@VFile@Pegas@@@Pegas@@@std@@@std@@QAE@XZ 004248f0 f i asteroids.obj
 0001:00023930       ??1?$_Tmap_traits@V?$basic_string@DU?$char_traits@D@std@@V?$allocator@D@2@@std@@V?$ptr@V?$set@PAVIEventListener@Pegas@@U?$less@PAVIEventListener@Pegas@@@std@@V?$allocator@PAVIEventListener@Pegas@@@4@@std@@@Pegas@@U?$less@V?$basic_string@DU?$char_traits@D@std@@V?$allocator@D@2@@std@@@2@V?$allocator@U?$pair@$$CBV?$basic_string@DU?$char_traits@D@std@@V?$allocator@D@2@@std@@V?$ptr@V?$set@PAVIEventListener@Pegas@@U?$less@PAVIEventListener@Pegas@@@std@@V?$allocator@PAVIEventListener@Pegas@@@4@@std@@@Pegas@@@std@@@2@$0A@@std@@QAE@XZ 00424930 f i asteroids.obj
 0001:00023970       ??1?$_Tset_traits@PAVIKeyboardController@Pegas@@U?$less@PAVIKeyboardController@Pegas@@@std@@V?$allocator@PAVIKeyboardController@Pegas@@@4@$0A@@std@@QAE@XZ 00424970 f i asteroids.obj
 0001:000239b0       ??1?$_Tset_traits@PAVIMouseController@Pegas@@U?$less@PAVIMouseController@Pegas@@@std@@V?$allocator@PAVIMouseController@Pegas@@@4@$0A@@std@@QAE@XZ 004249b0 f i asteroids.obj
 0001:000239f0       ??1?$_Tmap_traits@HV?$ptr@VIGameState@Pegas@@@Pegas@@U?$less@H@std@@V?$allocator@U?$pair@$$CBHV?$ptr@VIGameState@Pegas@@@Pegas@@@std@@@4@$0A@@std@@QAE@XZ 004249f0 f i asteroids.obj
 0001:00023a30       ?_Tidy@?$list@PAVIDrawable@Pegas@@V?$allocator@PAVIDrawable@Pegas@@@std@@@std@@IAEXXZ 00424a30 f i asteroids.obj
 0001:00023ad0       ??1?$_Container_base_aux_alloc_empty@V?$allocator@PAVIDrawable@Pegas@@@std@@@std@@IAE@XZ 00424ad0 f i asteroids.obj
 0001:00023b10       ?_Tidy@?$deque@V?$ptr@UEvent@Pegas@@@Pegas@@V?$allocator@V?$ptr@UEvent@Pegas@@@Pegas@@@std@@@std@@IAEXXZ 00424b10 f i asteroids.obj
 0001:00023c00       ??1?$_Container_base_aux_alloc_empty@V?$allocator@V?$ptr@UEvent@Pegas@@@Pegas@@@std@@@std@@IAE@XZ 00424c00 f i asteroids.obj
 0001:00023c40       ?_Tidy@?$_Tree@V?$_Tmap_traits@V?$basic_string@DU?$char_traits@D@std@@V?$allocator@D@2@@std@@V?$ptr@V?$set@PAVIEventListener@Pegas@@U?$less@PAVIEventListener@Pegas@@@std@@V?$allocator@PAVIEventListener@Pegas@@@4@@std@@@Pegas@@U?$less@V?$basic_string@DU?$char_traits@D@std@@V?$allocator@D@2@@std@@@2@V?$allocator@U?$pair@$$CBV?$basic_string@DU?$char_traits@D@std@@V?$allocator@D@2@@std@@V?$ptr@V?$set@PAVIEventListener@Pegas@@U?$less@PAVIEventListener@Pegas@@@std@@V?$allocator@PAVIEventListener@Pegas@@@4@@std@@@Pegas@@@std@@@2@$0A@@std@@@std@@IAEXXZ 00424c40 f i asteroids.obj
 0001:00023e00       ??1?$_Container_base_aux_alloc_empty@V?$allocator@U?$pair@$$CBV?$basic_string@DU?$char_traits@D@std@@V?$allocator@D@2@@std@@V?$ptr@V?$set@PAVIEventListener@Pegas@@U?$less@PAVIEventListener@Pegas@@@std@@V?$allocator@PAVIEventListener@Pegas@@@4@@std@@@Pegas@@@std@@@std@@@std@@IAE@XZ 00424e00 f i asteroids.obj
 0001:00023e40       ?_Tidy@?$_Tree@V?$_Tset_traits@PAVIKeyboardController@Pegas@@U?$less@PAVIKeyboardController@Pegas@@@std@@V?$allocator@PAVIKeyboardController@Pegas@@@4@$0A@@std@@@std@@IAEXXZ 00424e40 f i asteroids.obj
 0001:00024000       ??1?$_Container_base_aux_alloc_empty@V?$allocator@PAVIKeyboardController@Pegas@@@std@@@std@@IAE@XZ 00425000 f i asteroids.obj
 0001:00024040       ?_Tidy@?$_Tree@V?$_Tset_traits@PAVIMouseController@Pegas@@U?$less@PAVIMouseController@Pegas@@@std@@V?$allocator@PAVIMouseController@Pegas@@@4@$0A@@std@@@std@@IAEXXZ 00425040 f i asteroids.obj
 0001:00024200       ??1?$_Container_base_aux_alloc_empty@V?$allocator@PAVIMouseController@Pegas@@@std@@@std@@IAE@XZ 00425200 f i asteroids.obj
 0001:00024240       ?_Tidy@?$_Tree@V?$_Tmap_traits@HV?$ptr@VIGameState@Pegas@@@Pegas@@U?$less@H@std@@V?$allocator@U?$pair@$$CBHV?$ptr@VIGameState@Pegas@@@Pegas@@@std@@@4@$0A@@std@@@std@@IAEXXZ 00425240 f i asteroids.obj
 0001:00024400       ??1?$_Container_base_aux_alloc_empty@V?$allocator@U?$pair@$$CBHV?$ptr@VIGameState@Pegas@@@Pegas@@@std@@@std@@@std@@IAE@XZ 00425400 f i asteroids.obj
 0001:00024440       ?_Tidy@?$deque@V?$ptr@VIGameState@Pegas@@@Pegas@@V?$allocator@V?$ptr@VIGameState@Pegas@@@Pegas@@@std@@@std@@IAEXXZ 00425440 f i asteroids.obj
 0001:00024530       ??1?$_Container_base_aux_alloc_empty@V?$allocator@V?$ptr@VIGameState@Pegas@@@Pegas@@@std@@@std@@IAE@XZ 00425530 f i asteroids.obj
 0001:00024570       ?_Tidy@?$list@V?$ptr@VFile@Pegas@@@Pegas@@V?$allocator@V?$ptr@VFile@Pegas@@@Pegas@@@std@@@std@@IAEXXZ 00425570 f i asteroids.obj
 0001:00024610       ??1?$_Container_base_aux_alloc_empty@V?$allocator@V?$ptr@VFile@Pegas@@@Pegas@@@std@@@std@@IAE@XZ 00425610 f i asteroids.obj
 0001:00024650       ??1?$Singleton@V?$ResourceManager@VStringResource@Pegas@@UIntResourceCode@2@@Pegas@@@Pegas@@QAE@XZ 00425650 f i asteroids.obj
 0001:000246b0       ??1?$_Tree@V?$_Tmap_traits@HPAVStringResource@Pegas@@U?$less@H@std@@V?$allocator@U?$pair@$$CBHPAVStringResource@Pegas@@@std@@@4@$0A@@std@@@std@@QAE@XZ 004256b0 f i asteroids.obj
 0001:00024730       ??1?$Singleton@V?$ResourceManager@VTextureResource@Pegas@@UIntResourceCode@2@@Pegas@@@Pegas@@QAE@XZ 00425730 f i asteroids.obj
 0001:00024790       ??1?$_Tree@V?$_Tmap_traits@HPAVTextureResource@Pegas@@U?$less@H@std@@V?$allocator@U?$pair@$$CBHPAVTextureResource@Pegas@@@std@@@4@$0A@@std@@@std@@QAE@XZ 00425790 f i asteroids.obj
 0001:00024810       ??1?$Singleton@V?$ResourceManager@VFontResource@Pegas@@UFontResourceCode@2@@Pegas@@@Pegas@@QAE@XZ 00425810 f i asteroids.obj
 0001:00024870       ??1?$_Tree@V?$_Tmap_traits@HPAVFontResource@Pegas@@U?$less@H@std@@V?$allocator@U?$pair@$$CBHPAVFontResource@Pegas@@@std@@@4@$0A@@std@@@std@@QAE@XZ 00425870 f i asteroids.obj
 0001:000248f0       ??1?$Singleton@V?$ResourceManager@VSoundResource@Pegas@@UIntResourceCode@2@@Pegas@@@Pegas@@QAE@XZ 004258f0 f i asteroids.obj
 0001:00024950       ??1?$_Tree@V?$_Tmap_traits@HPAVSoundResource@Pegas@@U?$less@H@std@@V?$allocator@U?$pair@$$CBHPAVSoundResource@Pegas@@@std@@@4@$0A@@std@@@std@@QAE@XZ 00425950 f i asteroids.obj
 0001:000249d0       ??1iterator@?$_Tree@V?$_Tmap_traits@V?$basic_string@DU?$char_traits@D@std@@V?$allocator@D@2@@std@@V?$ptr@V?$set@PAVIEventListener@Pegas@@U?$less@PAVIEventListener@Pegas@@@std@@V?$allocator@PAVIEventListener@Pegas@@@4@@std@@@Pegas@@U?$less@V?$basic_string@DU?$char_traits@D@std@@V?$allocator@D@2@@std@@@2@V?$allocator@U?$pair@$$CBV?$basic_string@DU?$char_traits@D@std@@V?$allocator@D@2@@std@@V?$ptr@V?$set@PAVIEventListener@Pegas@@U?$less@PAVIEventListener@Pegas@@@std@@V?$allocator@PAVIEventListener@Pegas@@@4@@std@@@Pegas@@@std@@@2@$0A@@std@@@std@@QAE@XZ 004259d0 f i asteroids.obj
 0001:00024a10       ??0const_iterator@?$_Tree@V?$_Tmap_traits@V?$basic_string@DU?$char_traits@D@std@@V?$allocator@D@2@@std@@V?$ptr@V?$set@PAVIEventListener@Pegas@@U?$less@PAVIEventListener@Pegas@@@std@@V?$allocator@PAVIEventListener@Pegas@@@4@@std@@@Pegas@@U?$less@V?$basic_string@DU?$char_traits@D@std@@V?$allocator@D@2@@std@@@2@V?$allocator@U?$pair@$$CBV?$basic_string@DU?$char_traits@D@std@@V?$allocator@D@2@@std@@V?$ptr@V?$set@PAVIEventListener@Pegas@@U?$less@PAVIEventListener@Pegas@@@std@@V?$allocator@PAVIEventListener@Pegas@@@4@@std@@@Pegas@@@std@@@2@$0A@@std@@@std@@QAE@ABV012@@Z 00425a10 f i asteroids.obj
 0001:00024a70       ??1const_iterator@?$_Tree@V?$_Tmap_traits@V?$basic_string@DU?$char_traits@D@std@@V?$allocator@D@2@@std@@V?$ptr@V?$set@PAVIEventListener@Pegas@@U?$less@PAVIEventListener@Pegas@@@std@@V?$allocator@PAVIEventListener@Pegas@@@4@@std@@@Pegas@@U?$less@V?$basic_string@DU?$char_traits@D@std@@V?$allocator@D@2@@std@@@2@V?$allocator@U?$pair@$$CBV?$basic_string@DU?$char_traits@D@std@@V?$allocator@D@2@@std@@V?$ptr@V?$set@PAVIEventListener@Pegas@@U?$less@PAVIEventListener@Pegas@@@std@@V?$allocator@PAVIEventListener@Pegas@@@4@@std@@@Pegas@@@std@@@2@$0A@@std@@@std@@QAE@XZ 00425a70 f i asteroids.obj
 0001:00024ab0       ??1iterator@?$_Tree@V?$_Tset_traits@PAVIKeyboardController@Pegas@@U?$less@PAVIKeyboardController@Pegas@@@std@@V?$allocator@PAVIKeyboardController@Pegas@@@4@$0A@@std@@@std@@QAE@XZ 00425ab0 f i asteroids.obj
 0001:00024af0       ??0const_iterator@?$_Tree@V?$_Tset_traits@PAVIKeyboardController@Pegas@@U?$less@PAVIKeyboardController@Pegas@@@std@@V?$allocator@PAVIKeyboardController@Pegas@@@4@$0A@@std@@@std@@QAE@ABV012@@Z 00425af0 f i asteroids.obj
 0001:00024b50       ??1const_iterator@?$_Tree@V?$_Tset_traits@PAVIKeyboardController@Pegas@@U?$less@PAVIKeyboardController@Pegas@@@std@@V?$allocator@PAVIKeyboardController@Pegas@@@4@$0A@@std@@@std@@QAE@XZ 00425b50 f i asteroids.obj
 0001:00024b90       ??1iterator@?$_Tree@V?$_Tset_traits@PAVIMouseController@Pegas@@U?$less@PAVIMouseController@Pegas@@@std@@V?$allocator@PAVIMouseController@Pegas@@@4@$0A@@std@@@std@@QAE@XZ 00425b90 f i asteroids.obj
 0001:00024bd0       ??0const_iterator@?$_Tree@V?$_Tset_traits@PAVIMouseController@Pegas@@U?$less@PAVIMouseController@Pegas@@@std@@V?$allocator@PAVIMouseController@Pegas@@@4@$0A@@std@@@std@@QAE@ABV012@@Z 00425bd0 f i asteroids.obj
 0001:00024c30       ??1const_iterator@?$_Tree@V?$_Tset_traits@PAVIMouseController@Pegas@@U?$less@PAVIMouseController@Pegas@@@std@@V?$allocator@PAVIMouseController@Pegas@@@4@$0A@@std@@@std@@QAE@XZ 00425c30 f i asteroids.obj
 0001:00024c70       ??1iterator@?$_Tree@V?$_Tmap_traits@HV?$ptr@VIGameState@Pegas@@@Pegas@@U?$less@H@std@@V?$allocator@U?$pair@$$CBHV?$ptr@VIGameState@Pegas@@@Pegas@@@std@@@4@$0A@@std@@@std@@QAE@XZ 00425c70 f i asteroids.obj
 0001:00024cb0       ??0const_iterator@?$_Tree@V?$_Tmap_traits@HV?$ptr@VIGameState@Pegas@@@Pegas@@U?$less@H@std@@V?$allocator@U?$pair@$$CBHV?$ptr@VIGameState@Pegas@@@Pegas@@@std@@@4@$0A@@std@@@std@@QAE@ABV012@@Z 00425cb0 f i asteroids.obj
 0001:00024d10       ??1const_iterator@?$_Tree@V?$_Tmap_traits@HV?$ptr@VIGameState@Pegas@@@Pegas@@U?$less@H@std@@V?$allocator@U?$pair@$$CBHV?$ptr@VIGameState@Pegas@@@Pegas@@@std@@@4@$0A@@std@@@std@@QAE@XZ 00425d10 f i asteroids.obj
 0001:00024d50       ??1?$_Tree_val@V?$_Tmap_traits@HPAVStringResource@Pegas@@U?$less@H@std@@V?$allocator@U?$pair@$$CBHPAVStringResource@Pegas@@@std@@@4@$0A@@std@@@std@@QAE@XZ 00425d50 f i asteroids.obj
 0001:00024d90       ??1?$_Tree_val@V?$_Tmap_traits@HPAVTextureResource@Pegas@@U?$less@H@std@@V?$allocator@U?$pair@$$CBHPAVTextureResource@Pegas@@@std@@@4@$0A@@std@@@std@@QAE@XZ 00425d90 f i asteroids.obj
 0001:00024dd0       ??1?$_Tree_val@V?$_Tmap_traits@HPAVFontResource@Pegas@@U?$less@H@std@@V?$allocator@U?$pair@$$CBHPAVFontResource@Pegas@@@std@@@4@$0A@@std@@@std@@QAE@XZ 00425dd0 f i asteroids.obj
 0001:00024e10       ??1?$_Tree_val@V?$_Tmap_traits@HPAVSoundResource@Pegas@@U?$less@H@std@@V?$allocator@U?$pair@$$CBHPAVSoundResource@Pegas@@@std@@@4@$0A@@std@@@std@@QAE@XZ 00425e10 f i asteroids.obj
 0001:00024e50       ??0?$_Bidit@U?$pair@$$CBV?$basic_string@DU?$char_traits@D@std@@V?$allocator@D@2@@std@@V?$ptr@V?$set@PAVIEventListener@Pegas@@U?$less@PAVIEventListener@Pegas@@@std@@V?$allocator@PAVIEventListener@Pegas@@@4@@std@@@Pegas@@@std@@HPBU12@ABU12@@std@@QAE@ABU01@@Z 00425e50 f i asteroids.obj
 0001:00024ea0       ??1?$_Bidit@U?$pair@$$CBV?$basic_string@DU?$char_traits@D@std@@V?$allocator@D@2@@std@@V?$ptr@V?$set@PAVIEventListener@Pegas@@U?$less@PAVIEventListener@Pegas@@@std@@V?$allocator@PAVIEventListener@Pegas@@@4@@std@@@Pegas@@@std@@HPBU12@ABU12@@std@@QAE@XZ 00425ea0 f i asteroids.obj
 0001:00024ee0       ??0?$_Bidit@PAVIKeyboardController@Pegas@@HPBQAV12@ABQAV12@@std@@QAE@ABU01@@Z 00425ee0 f i asteroids.obj
 0001:00024f30       ??1?$_Bidit@PAVIKeyboardController@Pegas@@HPBQAV12@ABQAV12@@std@@QAE@XZ 00425f30 f i asteroids.obj
 0001:00024f70       ??0?$_Bidit@PAVIMouseController@Pegas@@HPBQAV12@ABQAV12@@std@@QAE@ABU01@@Z 00425f70 f i asteroids.obj
 0001:00024fc0       ??1?$_Bidit@PAVIMouseController@Pegas@@HPBQAV12@ABQAV12@@std@@QAE@XZ 00425fc0 f i asteroids.obj
 0001:00025000       ??0?$_Bidit@U?$pair@$$CBHV?$ptr@VIGameState@Pegas@@@Pegas@@@std@@HPBU12@ABU12@@std@@QAE@ABU01@@Z 00426000 f i asteroids.obj
 0001:00025050       ??1?$_Bidit@U?$pair@$$CBHV?$ptr@VIGameState@Pegas@@@Pegas@@@std@@HPBU12@ABU12@@std@@QAE@XZ 00426050 f i asteroids.obj
 0001:00025090       ??1?$_Tree_ptr@V?$_Tmap_traits@HPAVStringResource@Pegas@@U?$less@H@std@@V?$allocator@U?$pair@$$CBHPAVStringResource@Pegas@@@std@@@4@$0A@@std@@@std@@QAE@XZ 00426090 f i asteroids.obj
 0001:000250d0       ??1?$_Tree_ptr@V?$_Tmap_traits@HPAVTextureResource@Pegas@@U?$less@H@std@@V?$allocator@U?$pair@$$CBHPAVTextureResource@Pegas@@@std@@@4@$0A@@std@@@std@@QAE@XZ 004260d0 f i asteroids.obj
 0001:00025110       ??1?$_Tree_ptr@V?$_Tmap_traits@HPAVFontResource@Pegas@@U?$less@H@std@@V?$allocator@U?$pair@$$CBHPAVFontResource@Pegas@@@std@@@4@$0A@@std@@@std@@QAE@XZ 00426110 f i asteroids.obj
 0001:00025150       ??1?$_Tree_ptr@V?$_Tmap_traits@HPAVSoundResource@Pegas@@U?$less@H@std@@V?$allocator@U?$pair@$$CBHPAVSoundResource@Pegas@@@std@@@4@$0A@@std@@@std@@QAE@XZ 00426150 f i asteroids.obj
 0001:00025190       ??0?$_Iterator_with_base@Ubidirectional_iterator_tag@std@@U?$pair@$$CBV?$basic_string@DU?$char_traits@D@std@@V?$allocator@D@2@@std@@V?$ptr@V?$set@PAVIEventListener@Pegas@@U?$less@PAVIEventListener@Pegas@@@std@@V?$allocator@PAVIEventListener@Pegas@@@4@@std@@@Pegas@@@2@HPBU32@ABU32@V_Iterator_base@2@@std@@QAE@ABU01@@Z 00426190 f i asteroids.obj
 0001:000251e0       ??1?$_Iterator_with_base@Ubidirectional_iterator_tag@std@@U?$pair@$$CBV?$basic_string@DU?$char_traits@D@std@@V?$allocator@D@2@@std@@V?$ptr@V?$set@PAVIEventListener@Pegas@@U?$less@PAVIEventListener@Pegas@@@std@@V?$allocator@PAVIEventListener@Pegas@@@4@@std@@@Pegas@@@2@HPBU32@ABU32@V_Iterator_base@2@@std@@QAE@XZ 004261e0 f i asteroids.obj
 0001:00025220       ??0?$_Iterator_with_base@Ubidirectional_iterator_tag@std@@PAVIKeyboardController@Pegas@@HPBQAV34@ABQAV34@V_Iterator_base@2@@std@@QAE@ABU01@@Z 00426220 f i asteroids.obj
 0001:00025270       ??1?$_Iterator_with_base@Ubidirectional_iterator_tag@std@@PAVIKeyboardController@Pegas@@HPBQAV34@ABQAV34@V_Iterator_base@2@@std@@QAE@XZ 00426270 f i asteroids.obj
 0001:000252b0       ??0?$_Iterator_with_base@Ubidirectional_iterator_tag@std@@PAVIMouseController@Pegas@@HPBQAV34@ABQAV34@V_Iterator_base@2@@std@@QAE@ABU01@@Z 004262b0 f i asteroids.obj
 0001:00025300       ??1?$_Iterator_with_base@Ubidirectional_iterator_tag@std@@PAVIMouseController@Pegas@@HPBQAV34@ABQAV34@V_Iterator_base@2@@std@@QAE@XZ 00426300 f i asteroids.obj
 0001:00025340       ??0?$_Iterator_with_base@Ubidirectional_iterator_tag@std@@U?$pair@$$CBHV?$ptr@VIGameState@Pegas@@@Pegas@@@2@HPBU32@ABU32@V_Iterator_base@2@@std@@QAE@ABU01@@Z 00426340 f i asteroids.obj
 0001:00025390       ??1?$_Iterator_with_base@Ubidirectional_iterator_tag@std@@U?$pair@$$CBHV?$ptr@VIGameState@Pegas@@@Pegas@@@2@HPBU32@ABU32@V_Iterator_base@2@@std@@QAE@XZ 00426390 f i asteroids.obj
 0001:000253d0       ??1?$_Tree_nod@V?$_Tmap_traits@HPAVStringResource@Pegas@@U?$less@H@std@@V?$allocator@U?$pair@$$CBHPAVStringResource@Pegas@@@std@@@4@$0A@@std@@@std@@QAE@XZ 004263d0 f i asteroids.obj
 0001:00025410       ??1?$_Tree_nod@V?$_Tmap_traits@HPAVTextureResource@Pegas@@U?$less@H@std@@V?$allocator@U?$pair@$$CBHPAVTextureResource@Pegas@@@std@@@4@$0A@@std@@@std@@QAE@XZ 00426410 f i asteroids.obj
 0001:00025450       ??1?$_Tree_nod@V?$_Tmap_traits@HPAVFontResource@Pegas@@U?$less@H@std@@V?$allocator@U?$pair@$$CBHPAVFontResource@Pegas@@@std@@@4@$0A@@std@@@std@@QAE@XZ 00426450 f i asteroids.obj
 0001:00025490       ??1?$_Tree_nod@V?$_Tmap_traits@HPAVSoundResource@Pegas@@U?$less@H@std@@V?$allocator@U?$pair@$$CBHPAVSoundResource@Pegas@@@std@@@4@$0A@@std@@@std@@QAE@XZ 00426490 f i asteroids.obj
 0001:000254d0       ??1?$_Tmap_traits@HPAVStringResource@Pegas@@U?$less@H@std@@V?$allocator@U?$pair@$$CBHPAVStringResource@Pegas@@@std@@@4@$0A@@std@@QAE@XZ 004264d0 f i asteroids.obj
 0001:00025510       ??1?$_Tmap_traits@HPAVTextureResource@Pegas@@U?$less@H@std@@V?$allocator@U?$pair@$$CBHPAVTextureResource@Pegas@@@std@@@4@$0A@@std@@QAE@XZ 00426510 f i asteroids.obj
 0001:00025550       ??1?$_Tmap_traits@HPAVFontResource@Pegas@@U?$less@H@std@@V?$allocator@U?$pair@$$CBHPAVFontResource@Pegas@@@std@@@4@$0A@@std@@QAE@XZ 00426550 f i asteroids.obj
 0001:00025590       ??1?$_Tmap_traits@HPAVSoundResource@Pegas@@U?$less@H@std@@V?$allocator@U?$pair@$$CBHPAVSoundResource@Pegas@@@std@@@4@$0A@@std@@QAE@XZ 00426590 f i asteroids.obj
 0001:000255d0       ?_Nextnode@?$list@PAVIDrawable@Pegas@@V?$allocator@PAVIDrawable@Pegas@@@std@@@std@@KAAAPAU_Node@?$_List_nod@PAVIDrawable@Pegas@@V?$allocator@PAVIDrawable@Pegas@@@std@@@2@PAU342@@Z 004265d0 f i asteroids.obj
 0001:00025600       ?_Prevnode@?$list@PAVIDrawable@Pegas@@V?$allocator@PAVIDrawable@Pegas@@@std@@@std@@KAAAPAU_Node@?$_List_nod@PAVIDrawable@Pegas@@V?$allocator@PAVIDrawable@Pegas@@@std@@@2@PAU342@@Z 00426600 f i asteroids.obj
 0001:00025630       ?clear@?$list@PAVIDrawable@Pegas@@V?$allocator@PAVIDrawable@Pegas@@@std@@@std@@QAEXXZ 00426630 f i asteroids.obj
 0001:00025710       ?deallocate@?$allocator@U_Node@?$_List_nod@PAVIDrawable@Pegas@@V?$allocator@PAVIDrawable@Pegas@@@std@@@std@@@std@@QAEXPAU_Node@?$_List_nod@PAVIDrawable@Pegas@@V?$allocator@PAVIDrawable@Pegas@@@std@@@2@I@Z 00426710 f i asteroids.obj
 0001:00025760       ?destroy@?$allocator@PAU_Node@?$_List_nod@PAVIDrawable@Pegas@@V?$allocator@PAVIDrawable@Pegas@@@std@@@std@@@std@@QAEXPAPAU_Node@?$_List_nod@PAVIDrawable@Pegas@@V?$allocator@PAVIDrawable@Pegas@@@std@@@2@@Z 00426760 f i asteroids.obj
 0001:000257b0       ?empty@?$deque@V?$ptr@UEvent@Pegas@@@Pegas@@V?$allocator@V?$ptr@UEvent@Pegas@@@Pegas@@@std@@@std@@QBE_NXZ 004267b0 f i asteroids.obj
 0001:000257f0       ?pop_back@?$deque@V?$ptr@UEvent@Pegas@@@Pegas@@V?$allocator@V?$ptr@UEvent@Pegas@@@Pegas@@@std@@@std@@QAEXXZ 004267f0 f i asteroids.obj
 0001:000258f0       ?deallocate@?$allocator@V?$ptr@UEvent@Pegas@@@Pegas@@@std@@QAEXPAV?$ptr@UEvent@Pegas@@@Pegas@@I@Z 004268f0 f i asteroids.obj
 0001:00025940       ?deallocate@?$allocator@PAV?$ptr@UEvent@Pegas@@@Pegas@@@std@@QAEXPAPAV?$ptr@UEvent@Pegas@@@Pegas@@I@Z 00426940 f i asteroids.obj
 0001:00025990       ?destroy@?$allocator@PAV?$ptr@UEvent@Pegas@@@Pegas@@@std@@QAEXPAPAV?$ptr@UEvent@Pegas@@@Pegas@@@Z 00426990 f i asteroids.obj
 0001:000259e0       ?_Left@?$_Tree@V?$_Tmap_traits@V?$basic_string@DU?$char_traits@D@std@@V?$allocator@D@2@@std@@V?$ptr@V?$set@PAVIEventListener@Pegas@@U?$less@PAVIEventListener@Pegas@@@std@@V?$allocator@PAVIEventListener@Pegas@@@4@@std@@@Pegas@@U?$less@V?$basic_string@DU?$char_traits@D@std@@V?$allocator@D@2@@std@@@2@V?$allocator@U?$pair@$$CBV?$basic_string@DU?$char_traits@D@std@@V?$allocator@D@2@@std@@V?$ptr@V?$set@PAVIEventListener@Pegas@@U?$less@PAVIEventListener@Pegas@@@std@@V?$allocator@PAVIEventListener@Pegas@@@4@@std@@@Pegas@@@std@@@2@$0A@@std@@@std@@KAAAPAU_Node@?$_Tree_nod@V?$_Tmap_traits@V?$basic_string@DU?$char_traits@D@std@@V?$allocator@D@2@@std@@V?$ptr@V?$set@PAVIEventListener@Pegas@@U?$less@PAVIEventListener@Pegas@@@std@@V?$allocator@PAVIEventListener@Pegas@@@4@@std@@@Pegas@@U?$less@V?$basic_string@DU?$char_traits@D@std@@V?$allocator@D@2@@std@@@2@V?$allocator@U?$pair@$$CBV?$basic_string@DU?$char_traits@D@std@@V?$allocator@D@2@@std@@V?$ptr@V?$set@PAVIEventListener@Pegas@@U?$less@PAVIEventListener@Pegas@@@std@@V?$allocator@PAVIEventListener@Pegas@@@4@@std@@@Pegas@@@std@@@2@$0A@@std@@@2@PAU342@@Z 004269e0 f i asteroids.obj
 0001:00025a10       ?_Parent@?$_Tree@V?$_Tmap_traits@V?$basic_string@DU?$char_traits@D@std@@V?$allocator@D@2@@std@@V?$ptr@V?$set@PAVIEventListener@Pegas@@U?$less@PAVIEventListener@Pegas@@@std@@V?$allocator@PAVIEventListener@Pegas@@@4@@std@@@Pegas@@U?$less@V?$basic_string@DU?$char_traits@D@std@@V?$allocator@D@2@@std@@@2@V?$allocator@U?$pair@$$CBV?$basic_string@DU?$char_traits@D@std@@V?$allocator@D@2@@std@@V?$ptr@V?$set@PAVIEventListener@Pegas@@U?$less@PAVIEventListener@Pegas@@@std@@V?$allocator@PAVIEventListener@Pegas@@@4@@std@@@Pegas@@@std@@@2@$0A@@std@@@std@@KAAAPAU_Node@?$_Tree_nod@V?$_Tmap_traits@V?$basic_string@DU?$char_traits@D@std@@V?$allocator@D@2@@std@@V?$ptr@V?$set@PAVIEventListener@Pegas@@U?$less@PAVIEventListener@Pegas@@@std@@V?$allocator@PAVIEventListener@Pegas@@@4@@std@@@Pegas@@U?$less@V?$basic_string@DU?$char_traits@D@std@@V?$allocator@D@2@@std@@@2@V?$allocator@U?$pair@$$CBV?$basic_string@DU?$char_traits@D@std@@V?$allocator@D@2@@std@@V?$ptr@V?$set@PAVIEventListener@Pegas@@U?$less@PAVIEventListener@Pegas@@@std@@V?$allocator@PAVIEventListener@Pegas@@@4@@std@@@Pegas@@@std@@@2@$0A@@std@@@2@PAU342@@Z 00426a10 f i asteroids.obj
 0001:00025a40       ?_Right@?$_Tree@V?$_Tmap_traits@V?$basic_string@DU?$char_traits@D@std@@V?$allocator@D@2@@std@@V?$ptr@V?$set@PAVIEventListener@Pegas@@U?$less@PAVIEventListener@Pegas@@@std@@V?$allocator@PAVIEventListener@Pegas@@@4@@std@@@Pegas@@U?$less@V?$basic_string@DU?$char_traits@D@std@@V?$allocator@D@2@@std@@@2@V?$allocator@U?$pair@$$CBV?$basic_string@DU?$char_traits@D@std@@V?$allocator@D@2@@std@@V?$ptr@V?$set@PAVIEventListener@Pegas@@U?$less@PAVIEventListener@Pegas@@@std@@V?$allocator@PAVIEventListener@Pegas@@@4@@std@@@Pegas@@@std@@@2@$0A@@std@@@std@@KAAAPAU_Node@?$_Tree_nod@V?$_Tmap_traits@V?$basic_string@DU?$char_traits@D@std@@V?$allocator@D@2@@std@@V?$ptr@V?$set@PAVIEventListener@Pegas@@U?$less@PAVIEventListener@Pegas@@@std@@V?$allocator@PAVIEventListener@Pegas@@@4@@std@@@Pegas@@U?$less@V?$basic_string@DU?$char_traits@D@std@@V?$allocator@D@2@@std@@@2@V?$allocator@U?$pair@$$CBV?$basic_string@DU?$char_traits@D@std@@V?$allocator@D@2@@std@@V?$ptr@V?$set@PAVIEventListener@Pegas@@U?$less@PAVIEventListener@Pegas@@@std@@V?$allocator@PAVIEventListener@Pegas@@@4@@std@@@Pegas@@@std@@@2@$0A@@std@@@2@PAU342@@Z 00426a40 f i asteroids.obj
 0001:00025a70       ?begin@?$_Tree@V?$_Tmap_traits@V?$basic_string@DU?$char_traits@D@std@@V?$allocator@D@2@@std@@V?$ptr@V?$set@PAVIEventListener@Pegas@@U?$less@PAVIEventListener@Pegas@@@std@@V?$allocator@PAVIEventListener@Pegas@@@4@@std@@@Pegas@@U?$less@V?$basic_string@DU?$char_traits@D@std@@V?$allocator@D@2@@std@@@2@V?$allocator@U?$pair@$$CBV?$basic_string@DU?$char_traits@D@std@@V?$allocator@D@2@@std@@V?$ptr@V?$set@PAVIEventListener@Pegas@@U?$less@PAVIEventListener@Pegas@@@std@@V?$allocator@PAVIEventListener@Pegas@@@4@@std@@@Pegas@@@std@@@2@$0A@@std@@@std@@QAE?AViterator@12@XZ 00426a70 f i asteroids.obj
 0001:00025ae0       ?end@?$_Tree@V?$_Tmap_traits@V?$basic_string@DU?$char_traits@D@std@@V?$allocator@D@2@@std@@V?$ptr@V?$set@PAVIEventListener@Pegas@@U?$less@PAVIEventListener@Pegas@@@std@@V?$allocator@PAVIEventListener@Pegas@@@4@@std@@@Pegas@@U?$less@V?$basic_string@DU?$char_traits@D@std@@V?$allocator@D@2@@std@@@2@V?$allocator@U?$pair@$$CBV?$basic_string@DU?$char_traits@D@std@@V?$allocator@D@2@@std@@V?$ptr@V?$set@PAVIEventListener@Pegas@@U?$less@PAVIEventListener@Pegas@@@std@@V?$allocator@PAVIEventListener@Pegas@@@4@@std@@@Pegas@@@std@@@2@$0A@@std@@@std@@QAE?AViterator@12@XZ 00426ae0 f i asteroids.obj
 0001:00025b50       ?erase@?$_Tree@V?$_Tmap_traits@V?$basic_string@DU?$char_traits@D@std@@V?$allocator@D@2@@std@@V?$ptr@V?$set@PAVIEventListener@Pegas@@U?$less@PAVIEventListener@Pegas@@@std@@V?$allocator@PAVIEventListener@Pegas@@@4@@std@@@Pegas@@U?$less@V?$basic_string@DU?$char_traits@D@std@@V?$allocator@D@2@@std@@@2@V?$allocator@U?$pair@$$CBV?$basic_string@DU?$char_traits@D@std@@V?$allocator@D@2@@std@@V?$ptr@V?$set@PAVIEventListener@Pegas@@U?$less@PAVIEventListener@Pegas@@@std@@V?$allocator@PAVIEventListener@Pegas@@@4@@std@@@Pegas@@@std@@@2@$0A@@std@@@std@@QAE?AViterator@12@Vconst_iterator@12@0@Z 00426b50 f i asteroids.obj
 0001:00025de0       ?deallocate@?$allocator@U_Node@?$_Tree_nod@V?$_Tmap_traits@V?$basic_string@DU?$char_traits@D@std@@V?$allocator@D@2@@std@@V?$ptr@V?$set@PAVIEventListener@Pegas@@U?$less@PAVIEventListener@Pegas@@@std@@V?$allocator@PAVIEventListener@Pegas@@@4@@std@@@Pegas@@U?$less@V?$basic_string@DU?$char_traits@D@std@@V?$allocator@D@2@@std@@@2@V?$allocator@U?$pair@$$CBV?$basic_string@DU?$char_traits@D@std@@V?$allocator@D@2@@std@@V?$ptr@V?$set@PAVIEventListener@Pegas@@U?$less@PAVIEventListener@Pegas@@@std@@V?$allocator@PAVIEventListener@Pegas@@@4@@std@@@Pegas@@@std@@@2@$0A@@std@@@std@@@std@@QAEXPAU_Node@?$_Tree_nod@V?$_Tmap_traits@V?$basic_string@DU?$char_traits@D@std@@V?$allocator@D@2@@std@@V?$ptr@V?$set@PAVIEventListener@Pegas@@U?$less@PAVIEventListener@Pegas@@@std@@V?$allocator@PAVIEventListener@Pegas@@@4@@std@@@Pegas@@U?$less@V?$basic_string@DU?$char_traits@D@std@@V?$allocator@D@2@@std@@@2@V?$allocator@U?$pair@$$CBV?$basic_string@DU?$char_traits@D@std@@V?$allocator@D@2@@std@@V?$ptr@V?$set@PAVIEventListener@Pegas@@U?$less@PAVIEventListener@Pegas@@@std@@V?$allocator@PAVIEventListener@Pegas@@@4@@std@@@Pegas@@@std@@@2@$0A@@std@@@2@I@Z 00426de0 f i asteroids.obj
 0001:00025e30       ?destroy@?$allocator@PAU_Node@?$_Tree_nod@V?$_Tmap_traits@V?$basic_string@DU?$char_traits@D@std@@V?$allocator@D@2@@std@@V?$ptr@V?$set@PAVIEventListener@Pegas@@U?$less@PAVIEventListener@Pegas@@@std@@V?$allocator@PAVIEventListener@Pegas@@@4@@std@@@Pegas@@U?$less@V?$basic_string@DU?$char_traits@D@std@@V?$allocator@D@2@@std@@@2@V?$allocator@U?$pair@$$CBV?$basic_string@DU?$char_traits@D@std@@V?$allocator@D@2@@std@@V?$ptr@V?$set@PAVIEventListener@Pegas@@U?$less@PAVIEventListener@Pegas@@@std@@V?$allocator@PAVIEventListener@Pegas@@@4@@std@@@Pegas@@@std@@@2@$0A@@std@@@std@@@std@@QAEXPAPAU_Node@?$_Tree_nod@V?$_Tmap_traits@V?$basic_string@DU?$char_traits@D@std@@V?$allocator@D@2@@std@@V?$ptr@V?$set@PAVIEventListener@Pegas@@U?$less@PAVIEventListener@Pegas@@@std@@V?$allocator@PAVIEventListener@Pegas@@@4@@std@@@Pegas@@U?$less@V?$basic_string@DU?$char_traits@D@std@@V?$allocator@D@2@@std@@@2@V?$allocator@U?$pair@$$CBV?$basic_string@DU?$char_traits@D@std@@V?$allocator@D@2@@std@@V?$ptr@V?$set@PAVIEventListener@Pegas@@U?$less@PAVIEventListener@Pegas@@@std@@V?$allocator@PAVIEventListener@Pegas@@@4@@std@@@Pegas@@@std@@@2@$0A@@std@@@2@@Z 00426e30 f i asteroids.obj
 0001:00025e80       ?_Left@?$_Tree@V?$_Tset_traits@PAVIKeyboardController@Pegas@@U?$less@PAVIKeyboardController@Pegas@@@std@@V?$allocator@PAVIKeyboardController@Pegas@@@4@$0A@@std@@@std@@KAAAPAU_Node@?$_Tree_nod@V?$_Tset_traits@PAVIKeyboardController@Pegas@@U?$less@PAVIKeyboardController@Pegas@@@std@@V?$allocator@PAVIKeyboardController@Pegas@@@4@$0A@@std@@@2@PAU342@@Z 00426e80 f i asteroids.obj
 0001:00025eb0       ?_Parent@?$_Tree@V?$_Tset_traits@PAVIKeyboardController@Pegas@@U?$less@PAVIKeyboardController@Pegas@@@std@@V?$allocator@PAVIKeyboardController@Pegas@@@4@$0A@@std@@@std@@KAAAPAU_Node@?$_Tree_nod@V?$_Tset_traits@PAVIKeyboardController@Pegas@@U?$less@PAVIKeyboardController@Pegas@@@std@@V?$allocator@PAVIKeyboardController@Pegas@@@4@$0A@@std@@@2@PAU342@@Z 00426eb0 f i asteroids.obj
 0001:00025ee0       ?_Right@?$_Tree@V?$_Tset_traits@PAVIKeyboardController@Pegas@@U?$less@PAVIKeyboardController@Pegas@@@std@@V?$allocator@PAVIKeyboardController@Pegas@@@4@$0A@@std@@@std@@KAAAPAU_Node@?$_Tree_nod@V?$_Tset_traits@PAVIKeyboardController@Pegas@@U?$less@PAVIKeyboardController@Pegas@@@std@@V?$allocator@PAVIKeyboardController@Pegas@@@4@$0A@@std@@@2@PAU342@@Z 00426ee0 f i asteroids.obj
 0001:00025f10       ?begin@?$_Tree@V?$_Tset_traits@PAVIKeyboardController@Pegas@@U?$less@PAVIKeyboardController@Pegas@@@std@@V?$allocator@PAVIKeyboardController@Pegas@@@4@$0A@@std@@@std@@QAE?AViterator@12@XZ 00426f10 f i asteroids.obj
 0001:00025f80       ?end@?$_Tree@V?$_Tset_traits@PAVIKeyboardController@Pegas@@U?$less@PAVIKeyboardController@Pegas@@@std@@V?$allocator@PAVIKeyboardController@Pegas@@@4@$0A@@std@@@std@@QAE?AViterator@12@XZ 00426f80 f i asteroids.obj
 0001:00025ff0       ?erase@?$_Tree@V?$_Tset_traits@PAVIKeyboardController@Pegas@@U?$less@PAVIKeyboardController@Pegas@@@std@@V?$allocator@PAVIKeyboardController@Pegas@@@4@$0A@@std@@@std@@QAE?AViterator@12@Vconst_iterator@12@0@Z 00426ff0 f i asteroids.obj
 0001:00026280       ?deallocate@?$allocator@U_Node@?$_Tree_nod@V?$_Tset_traits@PAVIKeyboardController@Pegas@@U?$less@PAVIKeyboardController@Pegas@@@std@@V?$allocator@PAVIKeyboardController@Pegas@@@4@$0A@@std@@@std@@@std@@QAEXPAU_Node@?$_Tree_nod@V?$_Tset_traits@PAVIKeyboardController@Pegas@@U?$less@PAVIKeyboardController@Pegas@@@std@@V?$allocator@PAVIKeyboardController@Pegas@@@4@$0A@@std@@@2@I@Z 00427280 f i asteroids.obj
 0001:000262d0       ?destroy@?$allocator@PAU_Node@?$_Tree_nod@V?$_Tset_traits@PAVIKeyboardController@Pegas@@U?$less@PAVIKeyboardController@Pegas@@@std@@V?$allocator@PAVIKeyboardController@Pegas@@@4@$0A@@std@@@std@@@std@@QAEXPAPAU_Node@?$_Tree_nod@V?$_Tset_traits@PAVIKeyboardController@Pegas@@U?$less@PAVIKeyboardController@Pegas@@@std@@V?$allocator@PAVIKeyboardController@Pegas@@@4@$0A@@std@@@2@@Z 004272d0 f i asteroids.obj
 0001:00026320       ?_Left@?$_Tree@V?$_Tset_traits@PAVIMouseController@Pegas@@U?$less@PAVIMouseController@Pegas@@@std@@V?$allocator@PAVIMouseController@Pegas@@@4@$0A@@std@@@std@@KAAAPAU_Node@?$_Tree_nod@V?$_Tset_traits@PAVIMouseController@Pegas@@U?$less@PAVIMouseController@Pegas@@@std@@V?$allocator@PAVIMouseController@Pegas@@@4@$0A@@std@@@2@PAU342@@Z 00427320 f i asteroids.obj
 0001:00026350       ?_Parent@?$_Tree@V?$_Tset_traits@PAVIMouseController@Pegas@@U?$less@PAVIMouseController@Pegas@@@std@@V?$allocator@PAVIMouseController@Pegas@@@4@$0A@@std@@@std@@KAAAPAU_Node@?$_Tree_nod@V?$_Tset_traits@PAVIMouseController@Pegas@@U?$less@PAVIMouseController@Pegas@@@std@@V?$allocator@PAVIMouseController@Pegas@@@4@$0A@@std@@@2@PAU342@@Z 00427350 f i asteroids.obj
 0001:00026380       ?_Right@?$_Tree@V?$_Tset_traits@PAVIMouseController@Pegas@@U?$less@PAVIMouseController@Pegas@@@std@@V?$allocator@PAVIMouseController@Pegas@@@4@$0A@@std@@@std@@KAAAPAU_Node@?$_Tree_nod@V?$_Tset_traits@PAVIMouseController@Pegas@@U?$less@PAVIMouseController@Pegas@@@std@@V?$allocator@PAVIMouseController@Pegas@@@4@$0A@@std@@@2@PAU342@@Z 00427380 f i asteroids.obj
 0001:000263b0       ?begin@?$_Tree@V?$_Tset_traits@PAVIMouseController@Pegas@@U?$less@PAVIMouseController@Pegas@@@std@@V?$allocator@PAVIMouseController@Pegas@@@4@$0A@@std@@@std@@QAE?AViterator@12@XZ 004273b0 f i asteroids.obj
 0001:00026420       ?end@?$_Tree@V?$_Tset_traits@PAVIMouseController@Pegas@@U?$less@PAVIMouseController@Pegas@@@std@@V?$allocator@PAVIMouseController@Pegas@@@4@$0A@@std@@@std@@QAE?AViterator@12@XZ 00427420 f i asteroids.obj
 0001:00026490       ?erase@?$_Tree@V?$_Tset_traits@PAVIMouseController@Pegas@@U?$less@PAVIMouseController@Pegas@@@std@@V?$allocator@PAVIMouseController@Pegas@@@4@$0A@@std@@@std@@QAE?AViterator@12@Vconst_iterator@12@0@Z 00427490 f i asteroids.obj
 0001:00026720       ?deallocate@?$allocator@U_Node@?$_Tree_nod@V?$_Tset_traits@PAVIMouseController@Pegas@@U?$less@PAVIMouseController@Pegas@@@std@@V?$allocator@PAVIMouseController@Pegas@@@4@$0A@@std@@@std@@@std@@QAEXPAU_Node@?$_Tree_nod@V?$_Tset_traits@PAVIMouseController@Pegas@@U?$less@PAVIMouseController@Pegas@@@std@@V?$allocator@PAVIMouseController@Pegas@@@4@$0A@@std@@@2@I@Z 00427720 f i asteroids.obj
 0001:00026770       ?destroy@?$allocator@PAU_Node@?$_Tree_nod@V?$_Tset_traits@PAVIMouseController@Pegas@@U?$less@PAVIMouseController@Pegas@@@std@@V?$allocator@PAVIMouseController@Pegas@@@4@$0A@@std@@@std@@@std@@QAEXPAPAU_Node@?$_Tree_nod@V?$_Tset_traits@PAVIMouseController@Pegas@@U?$less@PAVIMouseController@Pegas@@@std@@V?$allocator@PAVIMouseController@Pegas@@@4@$0A@@std@@@2@@Z 00427770 f i asteroids.obj
 0001:000267c0       ?_Left@?$_Tree@V?$_Tmap_traits@HV?$ptr@VIGameState@Pegas@@@Pegas@@U?$less@H@std@@V?$allocator@U?$pair@$$CBHV?$ptr@VIGameState@Pegas@@@Pegas@@@std@@@4@$0A@@std@@@std@@KAAAPAU_Node@?$_Tree_nod@V?$_Tmap_traits@HV?$ptr@VIGameState@Pegas@@@Pegas@@U?$less@H@std@@V?$allocator@U?$pair@$$CBHV?$ptr@VIGameState@Pegas@@@Pegas@@@std@@@4@$0A@@std@@@2@PAU342@@Z 004277c0 f i asteroids.obj
 0001:000267f0       ?_Parent@?$_Tree@V?$_Tmap_traits@HV?$ptr@VIGameState@Pegas@@@Pegas@@U?$less@H@std@@V?$allocator@U?$pair@$$CBHV?$ptr@VIGameState@Pegas@@@Pegas@@@std@@@4@$0A@@std@@@std@@KAAAPAU_Node@?$_Tree_nod@V?$_Tmap_traits@HV?$ptr@VIGameState@Pegas@@@Pegas@@U?$less@H@std@@V?$allocator@U?$pair@$$CBHV?$ptr@VIGameState@Pegas@@@Pegas@@@std@@@4@$0A@@std@@@2@PAU342@@Z 004277f0 f i asteroids.obj
 0001:00026820       ?_Right@?$_Tree@V?$_Tmap_traits@HV?$ptr@VIGameState@Pegas@@@Pegas@@U?$less@H@std@@V?$allocator@U?$pair@$$CBHV?$ptr@VIGameState@Pegas@@@Pegas@@@std@@@4@$0A@@std@@@std@@KAAAPAU_Node@?$_Tree_nod@V?$_Tmap_traits@HV?$ptr@VIGameState@Pegas@@@Pegas@@U?$less@H@std@@V?$allocator@U?$pair@$$CBHV?$ptr@VIGameState@Pegas@@@Pegas@@@std@@@4@$0A@@std@@@2@PAU342@@Z 00427820 f i asteroids.obj
 0001:00026850       ?begin@?$_Tree@V?$_Tmap_traits@HV?$ptr@VIGameState@Pegas@@@Pegas@@U?$less@H@std@@V?$allocator@U?$pair@$$CBHV?$ptr@VIGameState@Pegas@@@Pegas@@@std@@@4@$0A@@std@@@std@@QAE?AViterator@12@XZ 00427850 f i asteroids.obj
 0001:000268c0       ?end@?$_Tree@V?$_Tmap_traits@HV?$ptr@VIGameState@Pegas@@@Pegas@@U?$less@H@std@@V?$allocator@U?$pair@$$CBHV?$ptr@VIGameState@Pegas@@@Pegas@@@std@@@4@$0A@@std@@@std@@QAE?AViterator@12@XZ 004278c0 f i asteroids.obj
 0001:00026930       ?erase@?$_Tree@V?$_Tmap_traits@HV?$ptr@VIGameState@Pegas@@@Pegas@@U?$less@H@std@@V?$allocator@U?$pair@$$CBHV?$ptr@VIGameState@Pegas@@@Pegas@@@std@@@4@$0A@@std@@@std@@QAE?AViterator@12@Vconst_iterator@12@0@Z 00427930 f i asteroids.obj
 0001:00026bc0       ?deallocate@?$allocator@U_Node@?$_Tree_nod@V?$_Tmap_traits@HV?$ptr@VIGameState@Pegas@@@Pegas@@U?$less@H@std@@V?$allocator@U?$pair@$$CBHV?$ptr@VIGameState@Pegas@@@Pegas@@@std@@@4@$0A@@std@@@std@@@std@@QAEXPAU_Node@?$_Tree_nod@V?$_Tmap_traits@HV?$ptr@VIGameState@Pegas@@@Pegas@@U?$less@H@std@@V?$allocator@U?$pair@$$CBHV?$ptr@VIGameState@Pegas@@@Pegas@@@std@@@4@$0A@@std@@@2@I@Z 00427bc0 f i asteroids.obj
 0001:00026c10       ?destroy@?$allocator@PAU_Node@?$_Tree_nod@V?$_Tmap_traits@HV?$ptr@VIGameState@Pegas@@@Pegas@@U?$less@H@std@@V?$allocator@U?$pair@$$CBHV?$ptr@VIGameState@Pegas@@@Pegas@@@std@@@4@$0A@@std@@@std@@@std@@QAEXPAPAU_Node@?$_Tree_nod@V?$_Tmap_traits@HV?$ptr@VIGameState@Pegas@@@Pegas@@U?$less@H@std@@V?$allocator@U?$pair@$$CBHV?$ptr@VIGameState@Pegas@@@Pegas@@@std@@@4@$0A@@std@@@2@@Z 00427c10 f i asteroids.obj
 0001:00026c60       ?empty@?$deque@V?$ptr@VIGameState@Pegas@@@Pegas@@V?$allocator@V?$ptr@VIGameState@Pegas@@@Pegas@@@std@@@std@@QBE_NXZ 00427c60 f i asteroids.obj
 0001:00026ca0       ?pop_back@?$deque@V?$ptr@VIGameState@Pegas@@@Pegas@@V?$allocator@V?$ptr@VIGameState@Pegas@@@Pegas@@@std@@@std@@QAEXXZ 00427ca0 f i asteroids.obj
 0001:00026da0       ?deallocate@?$allocator@V?$ptr@VIGameState@Pegas@@@Pegas@@@std@@QAEXPAV?$ptr@VIGameState@Pegas@@@Pegas@@I@Z 00427da0 f i asteroids.obj
 0001:00026df0       ?deallocate@?$allocator@PAV?$ptr@VIGameState@Pegas@@@Pegas@@@std@@QAEXPAPAV?$ptr@VIGameState@Pegas@@@Pegas@@I@Z 00427df0 f i asteroids.obj
 0001:00026e40       ?destroy@?$allocator@PAV?$ptr@VIGameState@Pegas@@@Pegas@@@std@@QAEXPAPAV?$ptr@VIGameState@Pegas@@@Pegas@@@Z 00427e40 f i asteroids.obj
 0001:00026e90       ?_Nextnode@?$list@V?$ptr@VFile@Pegas@@@Pegas@@V?$allocator@V?$ptr@VFile@Pegas@@@Pegas@@@std@@@std@@KAAAPAU_Node@?$_List_nod@V?$ptr@VFile@Pegas@@@Pegas@@V?$allocator@V?$ptr@VFile@Pegas@@@Pegas@@@std@@@2@PAU342@@Z 00427e90 f i asteroids.obj
 0001:00026ec0       ?_Prevnode@?$list@V?$ptr@VFile@Pegas@@@Pegas@@V?$allocator@V?$ptr@VFile@Pegas@@@Pegas@@@std@@@std@@KAAAPAU_Node@?$_List_nod@V?$ptr@VFile@Pegas@@@Pegas@@V?$allocator@V?$ptr@VFile@Pegas@@@Pegas@@@std@@@2@PAU342@@Z 00427ec0 f i asteroids.obj
 0001:00026ef0       ?clear@?$list@V?$ptr@VFile@Pegas@@@Pegas@@V?$allocator@V?$ptr@VFile@Pegas@@@Pegas@@@std@@@std@@QAEXXZ 00427ef0 f i asteroids.obj
 0001:00026fd0       ?deallocate@?$allocator@U_Node@?$_List_nod@V?$ptr@VFile@Pegas@@@Pegas@@V?$allocator@V?$ptr@VFile@Pegas@@@Pegas@@@std@@@std@@@std@@QAEXPAU_Node@?$_List_nod@V?$ptr@VFile@Pegas@@@Pegas@@V?$allocator@V?$ptr@VFile@Pegas@@@Pegas@@@std@@@2@I@Z 00427fd0 f i asteroids.obj
 0001:00027020       ?destroy@?$allocator@PAU_Node@?$_List_nod@V?$ptr@VFile@Pegas@@@Pegas@@V?$allocator@V?$ptr@VFile@Pegas@@@Pegas@@@std@@@std@@@std@@QAEXPAPAU_Node@?$_List_nod@V?$ptr@VFile@Pegas@@@Pegas@@V?$allocator@V?$ptr@VFile@Pegas@@@Pegas@@@std@@@2@@Z 00428020 f i asteroids.obj
 0001:00027070       ?_Tidy@?$_Tree@V?$_Tmap_traits@HPAVStringResource@Pegas@@U?$less@H@std@@V?$allocator@U?$pair@$$CBHPAVStringResource@Pegas@@@std@@@4@$0A@@std@@@std@@IAEXXZ 00428070 f i asteroids.obj
 0001:00027230       ??1?$_Container_base_aux_alloc_empty@V?$allocator@U?$pair@$$CBHPAVStringResource@Pegas@@@std@@@std@@@std@@IAE@XZ 00428230 f i asteroids.obj
 0001:00027270       ?_Tidy@?$_Tree@V?$_Tmap_traits@HPAVTextureResource@Pegas@@U?$less@H@std@@V?$allocator@U?$pair@$$CBHPAVTextureResource@Pegas@@@std@@@4@$0A@@std@@@std@@IAEXXZ 00428270 f i asteroids.obj
 0001:00027430       ??1?$_Container_base_aux_alloc_empty@V?$allocator@U?$pair@$$CBHPAVTextureResource@Pegas@@@std@@@std@@@std@@IAE@XZ 00428430 f i asteroids.obj
 0001:00027470       ?_Tidy@?$_Tree@V?$_Tmap_traits@HPAVFontResource@Pegas@@U?$less@H@std@@V?$allocator@U?$pair@$$CBHPAVFontResource@Pegas@@@std@@@4@$0A@@std@@@std@@IAEXXZ 00428470 f i asteroids.obj
 0001:00027630       ??1?$_Container_base_aux_alloc_empty@V?$allocator@U?$pair@$$CBHPAVFontResource@Pegas@@@std@@@std@@@std@@IAE@XZ 00428630 f i asteroids.obj
 0001:00027670       ?_Tidy@?$_Tree@V?$_Tmap_traits@HPAVSoundResource@Pegas@@U?$less@H@std@@V?$allocator@U?$pair@$$CBHPAVSoundResource@Pegas@@@std@@@4@$0A@@std@@@std@@IAEXXZ 00428670 f i asteroids.obj
 0001:00027830       ??1?$_Container_base_aux_alloc_empty@V?$allocator@U?$pair@$$CBHPAVSoundResource@Pegas@@@std@@@std@@@std@@IAE@XZ 00428830 f i asteroids.obj
 0001:00027870       ??1iterator@?$_Tree@V?$_Tmap_traits@HPAVStringResource@Pegas@@U?$less@H@std@@V?$allocator@U?$pair@$$CBHPAVStringResource@Pegas@@@std@@@4@$0A@@std@@@std@@QAE@XZ 00428870 f i asteroids.obj
 0001:000278b0       ??0const_iterator@?$_Tree@V?$_Tmap_traits@HPAVStringResource@Pegas@@U?$less@H@std@@V?$allocator@U?$pair@$$CBHPAVStringResource@Pegas@@@std@@@4@$0A@@std@@@std@@QAE@ABV012@@Z 004288b0 f i asteroids.obj
 0001:00027910       ??1const_iterator@?$_Tree@V?$_Tmap_traits@HPAVStringResource@Pegas@@U?$less@H@std@@V?$allocator@U?$pair@$$CBHPAVStringResource@Pegas@@@std@@@4@$0A@@std@@@std@@QAE@XZ 00428910 f i asteroids.obj
 0001:00027950       ??1iterator@?$_Tree@V?$_Tmap_traits@HPAVTextureResource@Pegas@@U?$less@H@std@@V?$allocator@U?$pair@$$CBHPAVTextureResource@Pegas@@@std@@@4@$0A@@std@@@std@@QAE@XZ 00428950 f i asteroids.obj
 0001:00027990       ??0const_iterator@?$_Tree@V?$_Tmap_traits@HPAVTextureResource@Pegas@@U?$less@H@std@@V?$allocator@U?$pair@$$CBHPAVTextureResource@Pegas@@@std@@@4@$0A@@std@@@std@@QAE@ABV012@@Z 00428990 f i asteroids.obj
 0001:000279f0       ??1const_iterator@?$_Tree@V?$_Tmap_traits@HPAVTextureResource@Pegas@@U?$less@H@std@@V?$allocator@U?$pair@$$CBHPAVTextureResource@Pegas@@@std@@@4@$0A@@std@@@std@@QAE@XZ 004289f0 f i asteroids.obj
 0001:00027a30       ??1iterator@?$_Tree@V?$_Tmap_traits@HPAVFontResource@Pegas@@U?$less@H@std@@V?$allocator@U?$pair@$$CBHPAVFontResource@Pegas@@@std@@@4@$0A@@std@@@std@@QAE@XZ 00428a30 f i asteroids.obj
 0001:00027a70       ??0const_iterator@?$_Tree@V?$_Tmap_traits@HPAVFontResource@Pegas@@U?$less@H@std@@V?$allocator@U?$pair@$$CBHPAVFontResource@Pegas@@@std@@@4@$0A@@std@@@std@@QAE@ABV012@@Z 00428a70 f i asteroids.obj
 0001:00027ad0       ??1const_iterator@?$_Tree@V?$_Tmap_traits@HPAVFontResource@Pegas@@U?$less@H@std@@V?$allocator@U?$pair@$$CBHPAVFontResource@Pegas@@@std@@@4@$0A@@std@@@std@@QAE@XZ 00428ad0 f i asteroids.obj
 0001:00027b10       ??1iterator@?$_Tree@V?$_Tmap_traits@HPAVSoundResource@Pegas@@U?$less@H@std@@V?$allocator@U?$pair@$$CBHPAVSoundResource@Pegas@@@std@@@4@$0A@@std@@@std@@QAE@XZ 00428b10 f i asteroids.obj
 0001:00027b50       ??0const_iterator@?$_Tree@V?$_Tmap_traits@HPAVSoundResource@Pegas@@U?$less@H@std@@V?$allocator@U?$pair@$$CBHPAVSoundResource@Pegas@@@std@@@4@$0A@@std@@@std@@QAE@ABV012@@Z 00428b50 f i asteroids.obj
 0001:00027bb0       ??1const_iterator@?$_Tree@V?$_Tmap_traits@HPAVSoundResource@Pegas@@U?$less@H@std@@V?$allocator@U?$pair@$$CBHPAVSoundResource@Pegas@@@std@@@4@$0A@@std@@@std@@QAE@XZ 00428bb0 f i asteroids.obj
 0001:00027bf0       ??0?$_Bidit@U?$pair@$$CBHPAVStringResource@Pegas@@@std@@HPBU12@ABU12@@std@@QAE@ABU01@@Z 00428bf0 f i asteroids.obj
 0001:00027c40       ??1?$_Bidit@U?$pair@$$CBHPAVStringResource@Pegas@@@std@@HPBU12@ABU12@@std@@QAE@XZ 00428c40 f i asteroids.obj
 0001:00027c80       ??0?$_Bidit@U?$pair@$$CBHPAVTextureResource@Pegas@@@std@@HPBU12@ABU12@@std@@QAE@ABU01@@Z 00428c80 f i asteroids.obj
 0001:00027cd0       ??1?$_Bidit@U?$pair@$$CBHPAVTextureResource@Pegas@@@std@@HPBU12@ABU12@@std@@QAE@XZ 00428cd0 f i asteroids.obj
 0001:00027d10       ??0?$_Bidit@U?$pair@$$CBHPAVFontResource@Pegas@@@std@@HPBU12@ABU12@@std@@QAE@ABU01@@Z 00428d10 f i asteroids.obj
 0001:00027d60       ??1?$_Bidit@U?$pair@$$CBHPAVFontResource@Pegas@@@std@@HPBU12@ABU12@@std@@QAE@XZ 00428d60 f i asteroids.obj
 0001:00027da0       ??0?$_Bidit@U?$pair@$$CBHPAVSoundResource@Pegas@@@std@@HPBU12@ABU12@@std@@QAE@ABU01@@Z 00428da0 f i asteroids.obj
 0001:00027df0       ??1?$_Bidit@U?$pair@$$CBHPAVSoundResource@Pegas@@@std@@HPBU12@ABU12@@std@@QAE@XZ 00428df0 f i asteroids.obj
 0001:00027e30       ??0?$_Iterator_with_base@Ubidirectional_iterator_tag@std@@U?$pair@$$CBHPAVStringResource@Pegas@@@2@HPBU32@ABU32@V_Iterator_base@2@@std@@QAE@ABU01@@Z 00428e30 f i asteroids.obj
 0001:00027e80       ??1?$_Iterator_with_base@Ubidirectional_iterator_tag@std@@U?$pair@$$CBHPAVStringResource@Pegas@@@2@HPBU32@ABU32@V_Iterator_base@2@@std@@QAE@XZ 00428e80 f i asteroids.obj
 0001:00027ec0       ??0?$_Iterator_with_base@Ubidirectional_iterator_tag@std@@U?$pair@$$CBHPAVTextureResource@Pegas@@@2@HPBU32@ABU32@V_Iterator_base@2@@std@@QAE@ABU01@@Z 00428ec0 f i asteroids.obj
 0001:00027f10       ??1?$_Iterator_with_base@Ubidirectional_iterator_tag@std@@U?$pair@$$CBHPAVTextureResource@Pegas@@@2@HPBU32@ABU32@V_Iterator_base@2@@std@@QAE@XZ 00428f10 f i asteroids.obj
 0001:00027f50       ??0?$_Iterator_with_base@Ubidirectional_iterator_tag@std@@U?$pair@$$CBHPAVFontResource@Pegas@@@2@HPBU32@ABU32@V_Iterator_base@2@@std@@QAE@ABU01@@Z 00428f50 f i asteroids.obj
 0001:00027fa0       ??1?$_Iterator_with_base@Ubidirectional_iterator_tag@std@@U?$pair@$$CBHPAVFontResource@Pegas@@@2@HPBU32@ABU32@V_Iterator_base@2@@std@@QAE@XZ 00428fa0 f i asteroids.obj
 0001:00027fe0       ??0?$_Iterator_with_base@Ubidirectional_iterator_tag@std@@U?$pair@$$CBHPAVSoundResource@Pegas@@@2@HPBU32@ABU32@V_Iterator_base@2@@std@@QAE@ABU01@@Z 00428fe0 f i asteroids.obj
 0001:00028030       ??1?$_Iterator_with_base@Ubidirectional_iterator_tag@std@@U?$pair@$$CBHPAVSoundResource@Pegas@@@2@HPBU32@ABU32@V_Iterator_base@2@@std@@QAE@XZ 00429030 f i asteroids.obj
 0001:00028070       ?_Orphan_ptr@?$list@PAVIDrawable@Pegas@@V?$allocator@PAVIDrawable@Pegas@@@std@@@std@@IBEXAAV12@PAU_Node@?$_List_nod@PAVIDrawable@Pegas@@V?$allocator@PAVIDrawable@Pegas@@@std@@@2@@Z 00429070 f i asteroids.obj
 0001:00028140       ?destroy@?$allocator@U_Node@?$_List_nod@PAVIDrawable@Pegas@@V?$allocator@PAVIDrawable@Pegas@@@std@@@std@@@std@@QAEXPAU_Node@?$_List_nod@PAVIDrawable@Pegas@@V?$allocator@PAVIDrawable@Pegas@@@std@@@2@@Z 00429140 f i asteroids.obj
 0001:00028190       ?_Orphan_off@?$deque@V?$ptr@UEvent@Pegas@@@Pegas@@V?$allocator@V?$ptr@UEvent@Pegas@@@Pegas@@@std@@@std@@IBEXI@Z 00429190 f i asteroids.obj
 0001:000282c0       ?destroy@?$allocator@V?$ptr@UEvent@Pegas@@@Pegas@@@std@@QAEXPAV?$ptr@UEvent@Pegas@@@Pegas@@@Z 004292c0 f i asteroids.obj
 0001:00028310       ?_Make_iter@?$_Tree@V?$_Tmap_traits@V?$basic_string@DU?$char_traits@D@std@@V?$allocator@D@2@@std@@V?$ptr@V?$set@PAVIEventListener@Pegas@@U?$less@PAVIEventListener@Pegas@@@std@@V?$allocator@PAVIEventListener@Pegas@@@4@@std@@@Pegas@@U?$less@V?$basic_string@DU?$char_traits@D@std@@V?$allocator@D@2@@std@@@2@V?$allocator@U?$pair@$$CBV?$basic_string@DU?$char_traits@D@std@@V?$allocator@D@2@@std@@V?$ptr@V?$set@PAVIEventListener@Pegas@@U?$less@PAVIEventListener@Pegas@@@std@@V?$allocator@PAVIEventListener@Pegas@@@4@@std@@@Pegas@@@std@@@2@$0A@@std@@@std@@QBE?AViterator@12@Vconst_iterator@12@@Z 00429310 f i asteroids.obj
 0001:000283f0       ?erase@?$_Tree@V?$_Tmap_traits@V?$basic_string@DU?$char_traits@D@std@@V?$allocator@D@2@@std@@V?$ptr@V?$set@PAVIEventListener@Pegas@@U?$less@PAVIEventListener@Pegas@@@std@@V?$allocator@PAVIEventListener@Pegas@@@4@@std@@@Pegas@@U?$less@V?$basic_string@DU?$char_traits@D@std@@V?$allocator@D@2@@std@@@2@V?$allocator@U?$pair@$$CBV?$basic_string@DU?$char_traits@D@std@@V?$allocator@D@2@@std@@V?$ptr@V?$set@PAVIEventListener@Pegas@@U?$less@PAVIEventListener@Pegas@@@std@@V?$allocator@PAVIEventListener@Pegas@@@4@@std@@@Pegas@@@std@@@2@$0A@@std@@@std@@QAE?AViterator@12@Vconst_iterator@12@@Z 004293f0 f i asteroids.obj
 0001:00028c40       ?_Isnil@?$_Tree@V?$_Tmap_traits@V?$basic_string@DU?$char_traits@D@std@@V?$allocator@D@2@@std@@V?$ptr@V?$set@PAVIEventListener@Pegas@@U?$less@PAVIEventListener@Pegas@@@std@@V?$allocator@PAVIEventListener@Pegas@@@4@@std@@@Pegas@@U?$less@V?$basic_string@DU?$char_traits@D@std@@V?$allocator@D@2@@std@@@2@V?$allocator@U?$pair@$$CBV?$basic_string@DU?$char_traits@D@std@@V?$allocator@D@2@@std@@V?$ptr@V?$set@PAVIEventListener@Pegas@@U?$less@PAVIEventListener@Pegas@@@std@@V?$allocator@PAVIEventListener@Pegas@@@4@@std@@@Pegas@@@std@@@2@$0A@@std@@@std@@KAAADPAU_Node@?$_Tree_nod@V?$_Tmap_traits@V?$basic_string@DU?$char_traits@D@std@@V?$allocator@D@2@@std@@V?$ptr@V?$set@PAVIEventListener@Pegas@@U?$less@PAVIEventListener@Pegas@@@std@@V?$allocator@PAVIEventListener@Pegas@@@4@@std@@@Pegas@@U?$less@V?$basic_string@DU?$char_traits@D@std@@V?$allocator@D@2@@std@@@2@V?$allocator@U?$pair@$$CBV?$basic_string@DU?$char_traits@D@std@@V?$allocator@D@2@@std@@V?$ptr@V?$set@PAVIEventListener@Pegas@@U?$less@PAVIEventListener@Pegas@@@std@@V?$allocator@PAVIEventListener@Pegas@@@4@@std@@@Pegas@@@std@@@2@$0A@@std@@@2@@Z 00429c40 f i asteroids.obj
 0001:00028c70       ?clear@?$_Tree@V?$_Tmap_traits@V?$basic_string@DU?$char_traits@D@std@@V?$allocator@D@2@@std@@V?$ptr@V?$set@PAVIEventListener@Pegas@@U?$less@PAVIEventListener@Pegas@@@std@@V?$allocator@PAVIEventListener@Pegas@@@4@@std@@@Pegas@@U?$less@V?$basic_string@DU?$char_traits@D@std@@V?$allocator@D@2@@std@@@2@V?$allocator@U?$pair@$$CBV?$basic_string@DU?$char_traits@D@std@@V?$allocator@D@2@@std@@V?$ptr@V?$set@PAVIEventListener@Pegas@@U?$less@PAVIEventListener@Pegas@@@std@@V?$allocator@PAVIEventListener@Pegas@@@4@@std@@@Pegas@@@std@@@2@$0A@@std@@@std@@QAEXXZ 00429c70 f i asteroids.obj
 0001:00028d10       ?_Lmost@?$_Tree@V?$_Tmap_traits@V?$basic_string@DU?$char_traits@D@std@@V?$allocator@D@2@@std@@V?$ptr@V?$set@PAVIEventListener@Pegas@@U?$less@PAVIEventListener@Pegas@@@std@@V?$allocator@PAVIEventListener@Pegas@@@4@@std@@@Pegas@@U?$less@V?$basic_string@DU?$char_traits@D@std@@V?$allocator@D@2@@std@@@2@V?$allocator@U?$pair@$$CBV?$basic_string@DU?$char_traits@D@std@@V?$allocator@D@2@@std@@V?$ptr@V?$set@PAVIEventListener@Pegas@@U?$less@PAVIEventListener@Pegas@@@std@@V?$allocator@PAVIEventListener@Pegas@@@4@@std@@@Pegas@@@std@@@2@$0A@@std@@@std@@IBEAAPAU_Node@?$_Tree_nod@V?$_Tmap_traits@V?$basic_string@DU?$char_traits@D@std@@V?$allocator@D@2@@std@@V?$ptr@V?$set@PAVIEventListener@Pegas@@U?$less@PAVIEventListener@Pegas@@@std@@V?$allocator@PAVIEventListener@Pegas@@@4@@std@@@Pegas@@U?$less@V?$basic_string@DU?$char_traits@D@std@@V?$allocator@D@2@@std@@@2@V?$allocator@U?$pair@$$CBV?$basic_string@DU?$char_traits@D@std@@V?$allocator@D@2@@std@@V?$ptr@V?$set@PAVIEventListener@Pegas@@U?$less@PAVIEventListener@Pegas@@@std@@V?$allocator@PAVIEventListener@Pegas@@@4@@std@@@Pegas@@@std@@@2@$0A@@std@@@2@XZ 00429d10 f i asteroids.obj
 0001:00028d60       ?_Rmost@?$_Tree@V?$_Tmap_traits@V?$basic_string@DU?$char_traits@D@std@@V?$allocator@D@2@@std@@V?$ptr@V?$set@PAVIEventListener@Pegas@@U?$less@PAVIEventListener@Pegas@@@std@@V?$allocator@PAVIEventListener@Pegas@@@4@@std@@@Pegas@@U?$less@V?$basic_string@DU?$char_traits@D@std@@V?$allocator@D@2@@std@@@2@V?$allocator@U?$pair@$$CBV?$basic_string@DU?$char_traits@D@std@@V?$allocator@D@2@@std@@V?$ptr@V?$set@PAVIEventListener@Pegas@@U?$less@PAVIEventListener@Pegas@@@std@@V?$allocator@PAVIEventListener@Pegas@@@4@@std@@@Pegas@@@std@@@2@$0A@@std@@@std@@IBEAAPAU_Node@?$_Tree_nod@V?$_Tmap_traits@V?$basic_string@DU?$char_traits@D@std@@V?$allocator@D@2@@std@@V?$ptr@V?$set@PAVIEventListener@Pegas@@U?$less@PAVIEventListener@Pegas@@@std@@V?$allocator@PAVIEventListener@Pegas@@@4@@std@@@Pegas@@U?$less@V?$basic_string@DU?$char_traits@D@std@@V?$allocator@D@2@@std@@@2@V?$allocator@U?$pair@$$CBV?$basic_string@DU?$char_traits@D@std@@V?$allocator@D@2@@std@@V?$ptr@V?$set@PAVIEventListener@Pegas@@U?$less@PAVIEventListener@Pegas@@@std@@V?$allocator@PAVIEventListener@Pegas@@@4@@std@@@Pegas@@@std@@@2@$0A@@std@@@2@XZ 00429d60 f i asteroids.obj
 0001:00028db0       ?_Root@?$_Tree@V?$_Tmap_traits@V?$basic_string@DU?$char_traits@D@std@@V?$allocator@D@2@@std@@V?$ptr@V?$set@PAVIEventListener@Pegas@@U?$less@PAVIEventListener@Pegas@@@std@@V?$allocator@PAVIEventListener@Pegas@@@4@@std@@@Pegas@@U?$less@V?$basic_string@DU?$char_traits@D@std@@V?$allocator@D@2@@std@@@2@V?$allocator@U?$pair@$$CBV?$basic_string@DU?$char_traits@D@std@@V?$allocator@D@2@@std@@V?$ptr@V?$set@PAVIEventListener@Pegas@@U?$less@PAVIEventListener@Pegas@@@std@@V?$allocator@PAVIEventListener@Pegas@@@4@@std@@@Pegas@@@std@@@2@$0A@@std@@@std@@IBEAAPAU_Node@?$_Tree_nod@V?$_Tmap_traits@V?$basic_string@DU?$char_traits@D@std@@V?$allocator@D@2@@std@@V?$ptr@V?$set@PAVIEventListener@Pegas@@U?$less@PAVIEventListener@Pegas@@@std@@V?$allocator@PAVIEventListener@Pegas@@@4@@std@@@Pegas@@U?$less@V?$basic_string@DU?$char_traits@D@std@@V?$allocator@D@2@@std@@@2@V?$allocator@U?$pair@$$CBV?$basic_string@DU?$char_traits@D@std@@V?$allocator@D@2@@std@@V?$ptr@V?$set@PAVIEventListener@Pegas@@U?$less@PAVIEventListener@Pegas@@@std@@V?$allocator@PAVIEventListener@Pegas@@@4@@std@@@Pegas@@@std@@@2@$0A@@std@@@2@XZ 00429db0 f i asteroids.obj
 0001:00028e00       ?_Make_iter@?$_Tree@V?$_Tset_traits@PAVIKeyboardController@Pegas@@U?$less@PAVIKeyboardController@Pegas@@@std@@V?$allocator@PAVIKeyboardController@Pegas@@@4@$0A@@std@@@std@@QBE?AViterator@12@Vconst_iterator@12@@Z 00429e00 f i asteroids.obj
 0001:00028ee0       ?erase@?$_Tree@V?$_Tset_traits@PAVIKeyboardController@Pegas@@U?$less@PAVIKeyboardController@Pegas@@@std@@V?$allocator@PAVIKeyboardController@Pegas@@@4@$0A@@std@@@std@@QAE?AViterator@12@Vconst_iterator@12@@Z 00429ee0 f i asteroids.obj
 0001:00029730       ?_Isnil@?$_Tree@V?$_Tset_traits@PAVIKeyboardController@Pegas@@U?$less@PAVIKeyboardController@Pegas@@@std@@V?$allocator@PAVIKeyboardController@Pegas@@@4@$0A@@std@@@std@@KAAADPAU_Node@?$_Tree_nod@V?$_Tset_traits@PAVIKeyboardController@Pegas@@U?$less@PAVIKeyboardController@Pegas@@@std@@V?$allocator@PAVIKeyboardController@Pegas@@@4@$0A@@std@@@2@@Z 0042a730 f i asteroids.obj
 0001:00029760       ?clear@?$_Tree@V?$_Tset_traits@PAVIKeyboardController@Pegas@@U?$less@PAVIKeyboardController@Pegas@@@std@@V?$allocator@PAVIKeyboardController@Pegas@@@4@$0A@@std@@@std@@QAEXXZ 0042a760 f i asteroids.obj
 0001:00029800       ?_Lmost@?$_Tree@V?$_Tset_traits@PAVIKeyboardController@Pegas@@U?$less@PAVIKeyboardController@Pegas@@@std@@V?$allocator@PAVIKeyboardController@Pegas@@@4@$0A@@std@@@std@@IBEAAPAU_Node@?$_Tree_nod@V?$_Tset_traits@PAVIKeyboardController@Pegas@@U?$less@PAVIKeyboardController@Pegas@@@std@@V?$allocator@PAVIKeyboardController@Pegas@@@4@$0A@@std@@@2@XZ 0042a800 f i asteroids.obj
 0001:00029850       ?_Rmost@?$_Tree@V?$_Tset_traits@PAVIKeyboardController@Pegas@@U?$less@PAVIKeyboardController@Pegas@@@std@@V?$allocator@PAVIKeyboardController@Pegas@@@4@$0A@@std@@@std@@IBEAAPAU_Node@?$_Tree_nod@V?$_Tset_traits@PAVIKeyboardController@Pegas@@U?$less@PAVIKeyboardController@Pegas@@@std@@V?$allocator@PAVIKeyboardController@Pegas@@@4@$0A@@std@@@2@XZ 0042a850 f i asteroids.obj
 0001:000298a0       ?_Root@?$_Tree@V?$_Tset_traits@PAVIKeyboardController@Pegas@@U?$less@PAVIKeyboardController@Pegas@@@std@@V?$allocator@PAVIKeyboardController@Pegas@@@4@$0A@@std@@@std@@IBEAAPAU_Node@?$_Tree_nod@V?$_Tset_traits@PAVIKeyboardController@Pegas@@U?$less@PAVIKeyboardController@Pegas@@@std@@V?$allocator@PAVIKeyboardController@Pegas@@@4@$0A@@std@@@2@XZ 0042a8a0 f i asteroids.obj
 0001:000298f0       ?_Make_iter@?$_Tree@V?$_Tset_traits@PAVIMouseController@Pegas@@U?$less@PAVIMouseController@Pegas@@@std@@V?$allocator@PAVIMouseController@Pegas@@@4@$0A@@std@@@std@@QBE?AViterator@12@Vconst_iterator@12@@Z 0042a8f0 f i asteroids.obj
 0001:000299d0       ?erase@?$_Tree@V?$_Tset_traits@PAVIMouseController@Pegas@@U?$less@PAVIMouseController@Pegas@@@std@@V?$allocator@PAVIMouseController@Pegas@@@4@$0A@@std@@@std@@QAE?AViterator@12@Vconst_iterator@12@@Z 0042a9d0 f i asteroids.obj
 0001:0002a220       ?_Isnil@?$_Tree@V?$_Tset_traits@PAVIMouseController@Pegas@@U?$less@PAVIMouseController@Pegas@@@std@@V?$allocator@PAVIMouseController@Pegas@@@4@$0A@@std@@@std@@KAAADPAU_Node@?$_Tree_nod@V?$_Tset_traits@PAVIMouseController@Pegas@@U?$less@PAVIMouseController@Pegas@@@std@@V?$allocator@PAVIMouseController@Pegas@@@4@$0A@@std@@@2@@Z 0042b220 f i asteroids.obj
 0001:0002a250       ?clear@?$_Tree@V?$_Tset_traits@PAVIMouseController@Pegas@@U?$less@PAVIMouseController@Pegas@@@std@@V?$allocator@PAVIMouseController@Pegas@@@4@$0A@@std@@@std@@QAEXXZ 0042b250 f i asteroids.obj
 0001:0002a2f0       ?_Lmost@?$_Tree@V?$_Tset_traits@PAVIMouseController@Pegas@@U?$less@PAVIMouseController@Pegas@@@std@@V?$allocator@PAVIMouseController@Pegas@@@4@$0A@@std@@@std@@IBEAAPAU_Node@?$_Tree_nod@V?$_Tset_traits@PAVIMouseController@Pegas@@U?$less@PAVIMouseController@Pegas@@@std@@V?$allocator@PAVIMouseController@Pegas@@@4@$0A@@std@@@2@XZ 0042b2f0 f i asteroids.obj
 0001:0002a340       ?_Rmost@?$_Tree@V?$_Tset_traits@PAVIMouseController@Pegas@@U?$less@PAVIMouseController@Pegas@@@std@@V?$allocator@PAVIMouseController@Pegas@@@4@$0A@@std@@@std@@IBEAAPAU_Node@?$_Tree_nod@V?$_Tset_traits@PAVIMouseController@Pegas@@U?$less@PAVIMouseController@Pegas@@@std@@V?$allocator@PAVIMouseController@Pegas@@@4@$0A@@std@@@2@XZ 0042b340 f i asteroids.obj
 0001:0002a390       ?_Root@?$_Tree@V?$_Tset_traits@PAVIMouseController@Pegas@@U?$less@PAVIMouseController@Pegas@@@std@@V?$allocator@PAVIMouseController@Pegas@@@4@$0A@@std@@@std@@IBEAAPAU_Node@?$_Tree_nod@V?$_Tset_traits@PAVIMouseController@Pegas@@U?$less@PAVIMouseController@Pegas@@@std@@V?$allocator@PAVIMouseController@Pegas@@@4@$0A@@std@@@2@XZ 0042b390 f i asteroids.obj
 0001:0002a3e0       ?_Make_iter@?$_Tree@V?$_Tmap_traits@HV?$ptr@VIGameState@Pegas@@@Pegas@@U?$less@H@std@@V?$allocator@U?$pair@$$CBHV?$ptr@VIGameState@Pegas@@@Pegas@@@std@@@4@$0A@@std@@@std@@QBE?AViterator@12@Vconst_iterator@12@@Z 0042b3e0 f i asteroids.obj
 0001:0002a4c0       ?erase@?$_Tree@V?$_Tmap_traits@HV?$ptr@VIGameState@Pegas@@@Pegas@@U?$less@H@std@@V?$allocator@U?$pair@$$CBHV?$ptr@VIGameState@Pegas@@@Pegas@@@std@@@4@$0A@@std@@@std@@QAE?AViterator@12@Vconst_iterator@12@@Z 0042b4c0 f i asteroids.obj
 0001:0002ad10       ?_Isnil@?$_Tree@V?$_Tmap_traits@HV?$ptr@VIGameState@Pegas@@@Pegas@@U?$less@H@std@@V?$allocator@U?$pair@$$CBHV?$ptr@VIGameState@Pegas@@@Pegas@@@std@@@4@$0A@@std@@@std@@KAAADPAU_Node@?$_Tree_nod@V?$_Tmap_traits@HV?$ptr@VIGameState@Pegas@@@Pegas@@U?$less@H@std@@V?$allocator@U?$pair@$$CBHV?$ptr@VIGameState@Pegas@@@Pegas@@@std@@@4@$0A@@std@@@2@@Z 0042bd10 f i asteroids.obj
 0001:0002ad40       ?clear@?$_Tree@V?$_Tmap_traits@HV?$ptr@VIGameState@Pegas@@@Pegas@@U?$less@H@std@@V?$allocator@U?$pair@$$CBHV?$ptr@VIGameState@Pegas@@@Pegas@@@std@@@4@$0A@@std@@@std@@QAEXXZ 0042bd40 f i asteroids.obj
 0001:0002ade0       ?_Lmost@?$_Tree@V?$_Tmap_traits@HV?$ptr@VIGameState@Pegas@@@Pegas@@U?$less@H@std@@V?$allocator@U?$pair@$$CBHV?$ptr@VIGameState@Pegas@@@Pegas@@@std@@@4@$0A@@std@@@std@@IBEAAPAU_Node@?$_Tree_nod@V?$_Tmap_traits@HV?$ptr@VIGameState@Pegas@@@Pegas@@U?$less@H@std@@V?$allocator@U?$pair@$$CBHV?$ptr@VIGameState@Pegas@@@Pegas@@@std@@@4@$0A@@std@@@2@XZ 0042bde0 f i asteroids.obj
 0001:0002ae30       ?_Rmost@?$_Tree@V?$_Tmap_traits@HV?$ptr@VIGameState@Pegas@@@Pegas@@U?$less@H@std@@V?$allocator@U?$pair@$$CBHV?$ptr@VIGameState@Pegas@@@Pegas@@@std@@@4@$0A@@std@@@std@@IBEAAPAU_Node@?$_Tree_nod@V?$_Tmap_traits@HV?$ptr@VIGameState@Pegas@@@Pegas@@U?$less@H@std@@V?$allocator@U?$pair@$$CBHV?$ptr@VIGameState@Pegas@@@Pegas@@@std@@@4@$0A@@std@@@2@XZ 0042be30 f i asteroids.obj
 0001:0002ae80       ?_Root@?$_Tree@V?$_Tmap_traits@HV?$ptr@VIGameState@Pegas@@@Pegas@@U?$less@H@std@@V?$allocator@U?$pair@$$CBHV?$ptr@VIGameState@Pegas@@@Pegas@@@std@@@4@$0A@@std@@@std@@IBEAAPAU_Node@?$_Tree_nod@V?$_Tmap_traits@HV?$ptr@VIGameState@Pegas@@@Pegas@@U?$less@H@std@@V?$allocator@U?$pair@$$CBHV?$ptr@VIGameState@Pegas@@@Pegas@@@std@@@4@$0A@@std@@@2@XZ 0042be80 f i asteroids.obj
 0001:0002aed0       ?_Orphan_off@?$deque@V?$ptr@VIGameState@Pegas@@@Pegas@@V?$allocator@V?$ptr@VIGameState@Pegas@@@Pegas@@@std@@@std@@IBEXI@Z 0042bed0 f i asteroids.obj
 0001:0002b000       ?destroy@?$allocator@V?$ptr@VIGameState@Pegas@@@Pegas@@@std@@QAEXPAV?$ptr@VIGameState@Pegas@@@Pegas@@@Z 0042c000 f i asteroids.obj
 0001:0002b050       ?_Orphan_ptr@?$list@V?$ptr@VFile@Pegas@@@Pegas@@V?$allocator@V?$ptr@VFile@Pegas@@@Pegas@@@std@@@std@@IBEXAAV12@PAU_Node@?$_List_nod@V?$ptr@VFile@Pegas@@@Pegas@@V?$allocator@V?$ptr@VFile@Pegas@@@Pegas@@@std@@@2@@Z 0042c050 f i asteroids.obj
 0001:0002b120       ?destroy@?$allocator@U_Node@?$_List_nod@V?$ptr@VFile@Pegas@@@Pegas@@V?$allocator@V?$ptr@VFile@Pegas@@@Pegas@@@std@@@std@@@std@@QAEXPAU_Node@?$_List_nod@V?$ptr@VFile@Pegas@@@Pegas@@V?$allocator@V?$ptr@VFile@Pegas@@@Pegas@@@std@@@2@@Z 0042c120 f i asteroids.obj
 0001:0002b170       ?_Left@?$_Tree@V?$_Tmap_traits@HPAVStringResource@Pegas@@U?$less@H@std@@V?$allocator@U?$pair@$$CBHPAVStringResource@Pegas@@@std@@@4@$0A@@std@@@std@@KAAAPAU_Node@?$_Tree_nod@V?$_Tmap_traits@HPAVStringResource@Pegas@@U?$less@H@std@@V?$allocator@U?$pair@$$CBHPAVStringResource@Pegas@@@std@@@4@$0A@@std@@@2@PAU342@@Z 0042c170 f i asteroids.obj
 0001:0002b1a0       ?_Parent@?$_Tree@V?$_Tmap_traits@HPAVStringResource@Pegas@@U?$less@H@std@@V?$allocator@U?$pair@$$CBHPAVStringResource@Pegas@@@std@@@4@$0A@@std@@@std@@KAAAPAU_Node@?$_Tree_nod@V?$_Tmap_traits@HPAVStringResource@Pegas@@U?$less@H@std@@V?$allocator@U?$pair@$$CBHPAVStringResource@Pegas@@@std@@@4@$0A@@std@@@2@PAU342@@Z 0042c1a0 f i asteroids.obj
 0001:0002b1d0       ?_Right@?$_Tree@V?$_Tmap_traits@HPAVStringResource@Pegas@@U?$less@H@std@@V?$allocator@U?$pair@$$CBHPAVStringResource@Pegas@@@std@@@4@$0A@@std@@@std@@KAAAPAU_Node@?$_Tree_nod@V?$_Tmap_traits@HPAVStringResource@Pegas@@U?$less@H@std@@V?$allocator@U?$pair@$$CBHPAVStringResource@Pegas@@@std@@@4@$0A@@std@@@2@PAU342@@Z 0042c1d0 f i asteroids.obj
 0001:0002b200       ?begin@?$_Tree@V?$_Tmap_traits@HPAVStringResource@Pegas@@U?$less@H@std@@V?$allocator@U?$pair@$$CBHPAVStringResource@Pegas@@@std@@@4@$0A@@std@@@std@@QAE?AViterator@12@XZ 0042c200 f i asteroids.obj
 0001:0002b270       ?end@?$_Tree@V?$_Tmap_traits@HPAVStringResource@Pegas@@U?$less@H@std@@V?$allocator@U?$pair@$$CBHPAVStringResource@Pegas@@@std@@@4@$0A@@std@@@std@@QAE?AViterator@12@XZ 0042c270 f i asteroids.obj
 0001:0002b2e0       ?erase@?$_Tree@V?$_Tmap_traits@HPAVStringResource@Pegas@@U?$less@H@std@@V?$allocator@U?$pair@$$CBHPAVStringResource@Pegas@@@std@@@4@$0A@@std@@@std@@QAE?AViterator@12@Vconst_iterator@12@0@Z 0042c2e0 f i asteroids.obj
 0001:0002b570       ?deallocate@?$allocator@U_Node@?$_Tree_nod@V?$_Tmap_traits@HPAVStringResource@Pegas@@U?$less@H@std@@V?$allocator@U?$pair@$$CBHPAVStringResource@Pegas@@@std@@@4@$0A@@std@@@std@@@std@@QAEXPAU_Node@?$_Tree_nod@V?$_Tmap_traits@HPAVStringResource@Pegas@@U?$less@H@std@@V?$allocator@U?$pair@$$CBHPAVStringResource@Pegas@@@std@@@4@$0A@@std@@@2@I@Z 0042c570 f i asteroids.obj
 0001:0002b5c0       ?destroy@?$allocator@PAU_Node@?$_Tree_nod@V?$_Tmap_traits@HPAVStringResource@Pegas@@U?$less@H@std@@V?$allocator@U?$pair@$$CBHPAVStringResource@Pegas@@@std@@@4@$0A@@std@@@std@@@std@@QAEXPAPAU_Node@?$_Tree_nod@V?$_Tmap_traits@HPAVStringResource@Pegas@@U?$less@H@std@@V?$allocator@U?$pair@$$CBHPAVStringResource@Pegas@@@std@@@4@$0A@@std@@@2@@Z 0042c5c0 f i asteroids.obj
 0001:0002b610       ?_Left@?$_Tree@V?$_Tmap_traits@HPAVTextureResource@Pegas@@U?$less@H@std@@V?$allocator@U?$pair@$$CBHPAVTextureResource@Pegas@@@std@@@4@$0A@@std@@@std@@KAAAPAU_Node@?$_Tree_nod@V?$_Tmap_traits@HPAVTextureResource@Pegas@@U?$less@H@std@@V?$allocator@U?$pair@$$CBHPAVTextureResource@Pegas@@@std@@@4@$0A@@std@@@2@PAU342@@Z 0042c610 f i asteroids.obj
 0001:0002b640       ?_Parent@?$_Tree@V?$_Tmap_traits@HPAVTextureResource@Pegas@@U?$less@H@std@@V?$allocator@U?$pair@$$CBHPAVTextureResource@Pegas@@@std@@@4@$0A@@std@@@std@@KAAAPAU_Node@?$_Tree_nod@V?$_Tmap_traits@HPAVTextureResource@Pegas@@U?$less@H@std@@V?$allocator@U?$pair@$$CBHPAVTextureResource@Pegas@@@std@@@4@$0A@@std@@@2@PAU342@@Z 0042c640 f i asteroids.obj
 0001:0002b670       ?_Right@?$_Tree@V?$_Tmap_traits@HPAVTextureResource@Pegas@@U?$less@H@std@@V?$allocator@U?$pair@$$CBHPAVTextureResource@Pegas@@@std@@@4@$0A@@std@@@std@@KAAAPAU_Node@?$_Tree_nod@V?$_Tmap_traits@HPAVTextureResource@Pegas@@U?$less@H@std@@V?$allocator@U?$pair@$$CBHPAVTextureResource@Pegas@@@std@@@4@$0A@@std@@@2@PAU342@@Z 0042c670 f i asteroids.obj
 0001:0002b6a0       ?begin@?$_Tree@V?$_Tmap_traits@HPAVTextureResource@Pegas@@U?$less@H@std@@V?$allocator@U?$pair@$$CBHPAVTextureResource@Pegas@@@std@@@4@$0A@@std@@@std@@QAE?AViterator@12@XZ 0042c6a0 f i asteroids.obj
 0001:0002b710       ?end@?$_Tree@V?$_Tmap_traits@HPAVTextureResource@Pegas@@U?$less@H@std@@V?$allocator@U?$pair@$$CBHPAVTextureResource@Pegas@@@std@@@4@$0A@@std@@@std@@QAE?AViterator@12@XZ 0042c710 f i asteroids.obj
 0001:0002b780       ?erase@?$_Tree@V?$_Tmap_traits@HPAVTextureResource@Pegas@@U?$less@H@std@@V?$allocator@U?$pair@$$CBHPAVTextureResource@Pegas@@@std@@@4@$0A@@std@@@std@@QAE?AViterator@12@Vconst_iterator@12@0@Z 0042c780 f i asteroids.obj
 0001:0002ba10       ?deallocate@?$allocator@U_Node@?$_Tree_nod@V?$_Tmap_traits@HPAVTextureResource@Pegas@@U?$less@H@std@@V?$allocator@U?$pair@$$CBHPAVTextureResource@Pegas@@@std@@@4@$0A@@std@@@std@@@std@@QAEXPAU_Node@?$_Tree_nod@V?$_Tmap_traits@HPAVTextureResource@Pegas@@U?$less@H@std@@V?$allocator@U?$pair@$$CBHPAVTextureResource@Pegas@@@std@@@4@$0A@@std@@@2@I@Z 0042ca10 f i asteroids.obj
 0001:0002ba60       ?destroy@?$allocator@PAU_Node@?$_Tree_nod@V?$_Tmap_traits@HPAVTextureResource@Pegas@@U?$less@H@std@@V?$allocator@U?$pair@$$CBHPAVTextureResource@Pegas@@@std@@@4@$0A@@std@@@std@@@std@@QAEXPAPAU_Node@?$_Tree_nod@V?$_Tmap_traits@HPAVTextureResource@Pegas@@U?$less@H@std@@V?$allocator@U?$pair@$$CBHPAVTextureResource@Pegas@@@std@@@4@$0A@@std@@@2@@Z 0042ca60 f i asteroids.obj
 0001:0002bab0       ?_Left@?$_Tree@V?$_Tmap_traits@HPAVFontResource@Pegas@@U?$less@H@std@@V?$allocator@U?$pair@$$CBHPAVFontResource@Pegas@@@std@@@4@$0A@@std@@@std@@KAAAPAU_Node@?$_Tree_nod@V?$_Tmap_traits@HPAVFontResource@Pegas@@U?$less@H@std@@V?$allocator@U?$pair@$$CBHPAVFontResource@Pegas@@@std@@@4@$0A@@std@@@2@PAU342@@Z 0042cab0 f i asteroids.obj
 0001:0002bae0       ?_Parent@?$_Tree@V?$_Tmap_traits@HPAVFontResource@Pegas@@U?$less@H@std@@V?$allocator@U?$pair@$$CBHPAVFontResource@Pegas@@@std@@@4@$0A@@std@@@std@@KAAAPAU_Node@?$_Tree_nod@V?$_Tmap_traits@HPAVFontResource@Pegas@@U?$less@H@std@@V?$allocator@U?$pair@$$CBHPAVFontResource@Pegas@@@std@@@4@$0A@@std@@@2@PAU342@@Z 0042cae0 f i asteroids.obj
 0001:0002bb10       ?_Right@?$_Tree@V?$_Tmap_traits@HPAVFontResource@Pegas@@U?$less@H@std@@V?$allocator@U?$pair@$$CBHPAVFontResource@Pegas@@@std@@@4@$0A@@std@@@std@@KAAAPAU_Node@?$_Tree_nod@V?$_Tmap_traits@HPAVFontResource@Pegas@@U?$less@H@std@@V?$allocator@U?$pair@$$CBHPAVFontResource@Pegas@@@std@@@4@$0A@@std@@@2@PAU342@@Z 0042cb10 f i asteroids.obj
 0001:0002bb40       ?begin@?$_Tree@V?$_Tmap_traits@HPAVFontResource@Pegas@@U?$less@H@std@@V?$allocator@U?$pair@$$CBHPAVFontResource@Pegas@@@std@@@4@$0A@@std@@@std@@QAE?AViterator@12@XZ 0042cb40 f i asteroids.obj
 0001:0002bbb0       ?end@?$_Tree@V?$_Tmap_traits@HPAVFontResource@Pegas@@U?$less@H@std@@V?$allocator@U?$pair@$$CBHPAVFontResource@Pegas@@@std@@@4@$0A@@std@@@std@@QAE?AViterator@12@XZ 0042cbb0 f i asteroids.obj
 0001:0002bc20       ?erase@?$_Tree@V?$_Tmap_traits@HPAVFontResource@Pegas@@U?$less@H@std@@V?$allocator@U?$pair@$$CBHPAVFontResource@Pegas@@@std@@@4@$0A@@std@@@std@@QAE?AViterator@12@Vconst_iterator@12@0@Z 0042cc20 f i asteroids.obj
 0001:0002beb0       ?deallocate@?$allocator@U_Node@?$_Tree_nod@V?$_Tmap_traits@HPAVFontResource@Pegas@@U?$less@H@std@@V?$allocator@U?$pair@$$CBHPAVFontResource@Pegas@@@std@@@4@$0A@@std@@@std@@@std@@QAEXPAU_Node@?$_Tree_nod@V?$_Tmap_traits@HPAVFontResource@Pegas@@U?$less@H@std@@V?$allocator@U?$pair@$$CBHPAVFontResource@Pegas@@@std@@@4@$0A@@std@@@2@I@Z 0042ceb0 f i asteroids.obj
 0001:0002bf00       ?destroy@?$allocator@PAU_Node@?$_Tree_nod@V?$_Tmap_traits@HPAVFontResource@Pegas@@U?$less@H@std@@V?$allocator@U?$pair@$$CBHPAVFontResource@Pegas@@@std@@@4@$0A@@std@@@std@@@std@@QAEXPAPAU_Node@?$_Tree_nod@V?$_Tmap_traits@HPAVFontResource@Pegas@@U?$less@H@std@@V?$allocator@U?$pair@$$CBHPAVFontResource@Pegas@@@std@@@4@$0A@@std@@@2@@Z 0042cf00 f i asteroids.obj
 0001:0002bf50       ?_Left@?$_Tree@V?$_Tmap_traits@HPAVSoundResource@Pegas@@U?$less@H@std@@V?$allocator@U?$pair@$$CBHPAVSoundResource@Pegas@@@std@@@4@$0A@@std@@@std@@KAAAPAU_Node@?$_Tree_nod@V?$_Tmap_traits@HPAVSoundResource@Pegas@@U?$less@H@std@@V?$allocator@U?$pair@$$CBHPAVSoundResource@Pegas@@@std@@@4@$0A@@std@@@2@PAU342@@Z 0042cf50 f i asteroids.obj
 0001:0002bf80       ?_Parent@?$_Tree@V?$_Tmap_traits@HPAVSoundResource@Pegas@@U?$less@H@std@@V?$allocator@U?$pair@$$CBHPAVSoundResource@Pegas@@@std@@@4@$0A@@std@@@std@@KAAAPAU_Node@?$_Tree_nod@V?$_Tmap_traits@HPAVSoundResource@Pegas@@U?$less@H@std@@V?$allocator@U?$pair@$$CBHPAVSoundResource@Pegas@@@std@@@4@$0A@@std@@@2@PAU342@@Z 0042cf80 f i asteroids.obj
 0001:0002bfb0       ?_Right@?$_Tree@V?$_Tmap_traits@HPAVSoundResource@Pegas@@U?$less@H@std@@V?$allocator@U?$pair@$$CBHPAVSoundResource@Pegas@@@std@@@4@$0A@@std@@@std@@KAAAPAU_Node@?$_Tree_nod@V?$_Tmap_traits@HPAVSoundResource@Pegas@@U?$less@H@std@@V?$allocator@U?$pair@$$CBHPAVSoundResource@Pegas@@@std@@@4@$0A@@std@@@2@PAU342@@Z 0042cfb0 f i asteroids.obj
 0001:0002bfe0       ?begin@?$_Tree@V?$_Tmap_traits@HPAVSoundResource@Pegas@@U?$less@H@std@@V?$allocator@U?$pair@$$CBHPAVSoundResource@Pegas@@@std@@@4@$0A@@std@@@std@@QAE?AViterator@12@XZ 0042cfe0 f i asteroids.obj
 0001:0002c050       ?end@?$_Tree@V?$_Tmap_traits@HPAVSoundResource@Pegas@@U?$less@H@std@@V?$allocator@U?$pair@$$CBHPAVSoundResource@Pegas@@@std@@@4@$0A@@std@@@std@@QAE?AViterator@12@XZ 0042d050 f i asteroids.obj
 0001:0002c0c0       ?erase@?$_Tree@V?$_Tmap_traits@HPAVSoundResource@Pegas@@U?$less@H@std@@V?$allocator@U?$pair@$$CBHPAVSoundResource@Pegas@@@std@@@4@$0A@@std@@@std@@QAE?AViterator@12@Vconst_iterator@12@0@Z 0042d0c0 f i asteroids.obj
 0001:0002c350       ?deallocate@?$allocator@U_Node@?$_Tree_nod@V?$_Tmap_traits@HPAVSoundResource@Pegas@@U?$less@H@std@@V?$allocator@U?$pair@$$CBHPAVSoundResource@Pegas@@@std@@@4@$0A@@std@@@std@@@std@@QAEXPAU_Node@?$_Tree_nod@V?$_Tmap_traits@HPAVSoundResource@Pegas@@U?$less@H@std@@V?$allocator@U?$pair@$$CBHPAVSoundResource@Pegas@@@std@@@4@$0A@@std@@@2@I@Z 0042d350 f i asteroids.obj
 0001:0002c3a0       ?destroy@?$allocator@PAU_Node@?$_Tree_nod@V?$_Tmap_traits@HPAVSoundResource@Pegas@@U?$less@H@std@@V?$allocator@U?$pair@$$CBHPAVSoundResource@Pegas@@@std@@@4@$0A@@std@@@std@@@std@@QAEXPAPAU_Node@?$_Tree_nod@V?$_Tmap_traits@HPAVSoundResource@Pegas@@U?$less@H@std@@V?$allocator@U?$pair@$$CBHPAVSoundResource@Pegas@@@std@@@4@$0A@@std@@@2@@Z 0042d3a0 f i asteroids.obj
 0001:0002c3f0       ??0iterator@?$_Tree@V?$_Tmap_traits@V?$basic_string@DU?$char_traits@D@std@@V?$allocator@D@2@@std@@V?$ptr@V?$set@PAVIEventListener@Pegas@@U?$less@PAVIEventListener@Pegas@@@std@@V?$allocator@PAVIEventListener@Pegas@@@4@@std@@@Pegas@@U?$less@V?$basic_string@DU?$char_traits@D@std@@V?$allocator@D@2@@std@@@2@V?$allocator@U?$pair@$$CBV?$basic_string@DU?$char_traits@D@std@@V?$allocator@D@2@@std@@V?$ptr@V?$set@PAVIEventListener@Pegas@@U?$less@PAVIEventListener@Pegas@@@std@@V?$allocator@PAVIEventListener@Pegas@@@4@@std@@@Pegas@@@std@@@2@$0A@@std@@@std@@QAE@PAU_Node@?$_Tree_nod@V?$_Tmap_traits@V?$basic_string@DU?$char_traits@D@std@@V?$allocator@D@2@@std@@V?$ptr@V?$set@PAVIEventListener@Pegas@@U?$less@PAVIEventListener@Pegas@@@std@@V?$allocator@PAVIEventListener@Pegas@@@4@@std@@@Pegas@@U?$less@V?$basic_string@DU?$char_traits@D@std@@V?$allocator@D@2@@std@@@2@V?$allocator@U?$pair@$$CBV?$basic_string@DU?$char_traits@D@std@@V?$allocator@D@2@@std@@V?$ptr@V?$set@PAVIEventListener@Pegas@@U?$less@PAVIEventListener@Pegas@@@std@@V?$allocator@PAVIEventListener@Pegas@@@4@@std@@@Pegas@@@std@@@2@$0A@@std@@@2@PBV12@@Z 0042d3f0 f i asteroids.obj
 0001:0002c440       ??Econst_iterator@?$_Tree@V?$_Tmap_traits@V?$basic_string@DU?$char_traits@D@std@@V?$allocator@D@2@@std@@V?$ptr@V?$set@PAVIEventListener@Pegas@@U?$less@PAVIEventListener@Pegas@@@std@@V?$allocator@PAVIEventListener@Pegas@@@4@@std@@@Pegas@@U?$less@V?$basic_string@DU?$char_traits@D@std@@V?$allocator@D@2@@std@@@2@V?$allocator@U?$pair@$$CBV?$basic_string@DU?$char_traits@D@std@@V?$allocator@D@2@@std@@V?$ptr@V?$set@PAVIEventListener@Pegas@@U?$less@PAVIEventListener@Pegas@@@std@@V?$allocator@PAVIEventListener@Pegas@@@4@@std@@@Pegas@@@std@@@2@$0A@@std@@@std@@QAE?AV012@H@Z 0042d440 f i asteroids.obj
 0001:0002c520       ??8const_iterator@?$_Tree@V?$_Tmap_traits@V?$basic_string@DU?$char_traits@D@std@@V?$allocator@D@2@@std@@V?$ptr@V?$set@PAVIEventListener@Pegas@@U?$less@PAVIEventListener@Pegas@@@std@@V?$allocator@PAVIEventListener@Pegas@@@4@@std@@@Pegas@@U?$less@V?$basic_string@DU?$char_traits@D@std@@V?$allocator@D@2@@std@@@2@V?$allocator@U?$pair@$$CBV?$basic_string@DU?$char_traits@D@std@@V?$allocator@D@2@@std@@V?$ptr@V?$set@PAVIEventListener@Pegas@@U?$less@PAVIEventListener@Pegas@@@std@@V?$allocator@PAVIEventListener@Pegas@@@4@@std@@@Pegas@@@std@@@2@$0A@@std@@@std@@QBE_NABV012@@Z 0042d520 f i asteroids.obj
 0001:0002c5e0       ??9const_iterator@?$_Tree@V?$_Tmap_traits@V?$basic_string@DU?$char_traits@D@std@@V?$allocator@D@2@@std@@V?$ptr@V?$set@PAVIEventListener@Pegas@@U?$less@PAVIEventListener@Pegas@@@std@@V?$allocator@PAVIEventListener@Pegas@@@4@@std@@@Pegas@@U?$less@V?$basic_string@DU?$char_traits@D@std@@V?$allocator@D@2@@std@@@2@V?$allocator@U?$pair@$$CBV?$basic_string@DU?$char_traits@D@std@@V?$allocator@D@2@@std@@V?$ptr@V?$set@PAVIEventListener@Pegas@@U?$less@PAVIEventListener@Pegas@@@std@@V?$allocator@PAVIEventListener@Pegas@@@4@@std@@@Pegas@@@std@@@2@$0A@@std@@@std@@QBE_NABV012@@Z 0042d5e0 f i asteroids.obj
 0001:0002c630       ??0iterator@?$_Tree@V?$_Tset_traits@PAVIKeyboardController@Pegas@@U?$less@PAVIKeyboardController@Pegas@@@std@@V?$allocator@PAVIKeyboardController@Pegas@@@4@$0A@@std@@@std@@QAE@PAU_Node@?$_Tree_nod@V?$_Tset_traits@PAVIKeyboardController@Pegas@@U?$less@PAVIKeyboardController@Pegas@@@std@@V?$allocator@PAVIKeyboardController@Pegas@@@4@$0A@@std@@@2@PBV12@@Z 0042d630 f i asteroids.obj
 0001:0002c680       ??Econst_iterator@?$_Tree@V?$_Tset_traits@PAVIKeyboardController@Pegas@@U?$less@PAVIKeyboardController@Pegas@@@std@@V?$allocator@PAVIKeyboardController@Pegas@@@4@$0A@@std@@@std@@QAE?AV012@H@Z 0042d680 f i asteroids.obj
 0001:0002c760       ??8const_iterator@?$_Tree@V?$_Tset_traits@PAVIKeyboardController@Pegas@@U?$less@PAVIKeyboardController@Pegas@@@std@@V?$allocator@PAVIKeyboardController@Pegas@@@4@$0A@@std@@@std@@QBE_NABV012@@Z 0042d760 f i asteroids.obj
 0001:0002c820       ??9const_iterator@?$_Tree@V?$_Tset_traits@PAVIKeyboardController@Pegas@@U?$less@PAVIKeyboardController@Pegas@@@std@@V?$allocator@PAVIKeyboardController@Pegas@@@4@$0A@@std@@@std@@QBE_NABV012@@Z 0042d820 f i asteroids.obj
 0001:0002c870       ??0iterator@?$_Tree@V?$_Tset_traits@PAVIMouseController@Pegas@@U?$less@PAVIMouseController@Pegas@@@std@@V?$allocator@PAVIMouseController@Pegas@@@4@$0A@@std@@@std@@QAE@PAU_Node@?$_Tree_nod@V?$_Tset_traits@PAVIMouseController@Pegas@@U?$less@PAVIMouseController@Pegas@@@std@@V?$allocator@PAVIMouseController@Pegas@@@4@$0A@@std@@@2@PBV12@@Z 0042d870 f i asteroids.obj
 0001:0002c8c0       ??Econst_iterator@?$_Tree@V?$_Tset_traits@PAVIMouseController@Pegas@@U?$less@PAVIMouseController@Pegas@@@std@@V?$allocator@PAVIMouseController@Pegas@@@4@$0A@@std@@@std@@QAE?AV012@H@Z 0042d8c0 f i asteroids.obj
 0001:0002c9a0       ??8const_iterator@?$_Tree@V?$_Tset_traits@PAVIMouseController@Pegas@@U?$less@PAVIMouseController@Pegas@@@std@@V?$allocator@PAVIMouseController@Pegas@@@4@$0A@@std@@@std@@QBE_NABV012@@Z 0042d9a0 f i asteroids.obj
 0001:0002ca60       ??9const_iterator@?$_Tree@V?$_Tset_traits@PAVIMouseController@Pegas@@U?$less@PAVIMouseController@Pegas@@@std@@V?$allocator@PAVIMouseController@Pegas@@@4@$0A@@std@@@std@@QBE_NABV012@@Z 0042da60 f i asteroids.obj
 0001:0002cab0       ??0iterator@?$_Tree@V?$_Tmap_traits@HV?$ptr@VIGameState@Pegas@@@Pegas@@U?$less@H@std@@V?$allocator@U?$pair@$$CBHV?$ptr@VIGameState@Pegas@@@Pegas@@@std@@@4@$0A@@std@@@std@@QAE@PAU_Node@?$_Tree_nod@V?$_Tmap_traits@HV?$ptr@VIGameState@Pegas@@@Pegas@@U?$less@H@std@@V?$allocator@U?$pair@$$CBHV?$ptr@VIGameState@Pegas@@@Pegas@@@std@@@4@$0A@@std@@@2@PBV12@@Z 0042dab0 f i asteroids.obj
 0001:0002cb00       ??Econst_iterator@?$_Tree@V?$_Tmap_traits@HV?$ptr@VIGameState@Pegas@@@Pegas@@U?$less@H@std@@V?$allocator@U?$pair@$$CBHV?$ptr@VIGameState@Pegas@@@Pegas@@@std@@@4@$0A@@std@@@std@@QAE?AV012@H@Z 0042db00 f i asteroids.obj
 0001:0002cbe0       ??8const_iterator@?$_Tree@V?$_Tmap_traits@HV?$ptr@VIGameState@Pegas@@@Pegas@@U?$less@H@std@@V?$allocator@U?$pair@$$CBHV?$ptr@VIGameState@Pegas@@@Pegas@@@std@@@4@$0A@@std@@@std@@QBE_NABV012@@Z 0042dbe0 f i asteroids.obj
 0001:0002cca0       ??9const_iterator@?$_Tree@V?$_Tmap_traits@HV?$ptr@VIGameState@Pegas@@@Pegas@@U?$less@H@std@@V?$allocator@U?$pair@$$CBHV?$ptr@VIGameState@Pegas@@@Pegas@@@std@@@4@$0A@@std@@@std@@QBE_NABV012@@Z 0042dca0 f i asteroids.obj
 0001:0002ccf0       ??0iterator@?$_Tree@V?$_Tmap_traits@V?$basic_string@DU?$char_traits@D@std@@V?$allocator@D@2@@std@@V?$ptr@V?$set@PAVIEventListener@Pegas@@U?$less@PAVIEventListener@Pegas@@@std@@V?$allocator@PAVIEventListener@Pegas@@@4@@std@@@Pegas@@U?$less@V?$basic_string@DU?$char_traits@D@std@@V?$allocator@D@2@@std@@@2@V?$allocator@U?$pair@$$CBV?$basic_string@DU?$char_traits@D@std@@V?$allocator@D@2@@std@@V?$ptr@V?$set@PAVIEventListener@Pegas@@U?$less@PAVIEventListener@Pegas@@@std@@V?$allocator@PAVIEventListener@Pegas@@@4@@std@@@Pegas@@@std@@@2@$0A@@std@@@std@@QAE@ABV012@@Z 0042dcf0 f i asteroids.obj
 0001:0002cd40       ??0iterator@?$_Tree@V?$_Tset_traits@PAVIKeyboardController@Pegas@@U?$less@PAVIKeyboardController@Pegas@@@std@@V?$allocator@PAVIKeyboardController@Pegas@@@4@$0A@@std@@@std@@QAE@ABV012@@Z 0042dd40 f i asteroids.obj
 0001:0002cd90       ??0iterator@?$_Tree@V?$_Tset_traits@PAVIMouseController@Pegas@@U?$less@PAVIMouseController@Pegas@@@std@@V?$allocator@PAVIMouseController@Pegas@@@4@$0A@@std@@@std@@QAE@ABV012@@Z 0042dd90 f i asteroids.obj
 0001:0002cde0       ??0iterator@?$_Tree@V?$_Tmap_traits@HV?$ptr@VIGameState@Pegas@@@Pegas@@U?$less@H@std@@V?$allocator@U?$pair@$$CBHV?$ptr@VIGameState@Pegas@@@Pegas@@@std@@@4@$0A@@std@@@std@@QAE@ABV012@@Z 0042dde0 f i asteroids.obj
 0001:0002ce30       ?_Color@?$_Tree@V?$_Tmap_traits@V?$basic_string@DU?$char_traits@D@std@@V?$allocator@D@2@@std@@V?$ptr@V?$set@PAVIEventListener@Pegas@@U?$less@PAVIEventListener@Pegas@@@std@@V?$allocator@PAVIEventListener@Pegas@@@4@@std@@@Pegas@@U?$less@V?$basic_string@DU?$char_traits@D@std@@V?$allocator@D@2@@std@@@2@V?$allocator@U?$pair@$$CBV?$basic_string@DU?$char_traits@D@std@@V?$allocator@D@2@@std@@V?$ptr@V?$set@PAVIEventListener@Pegas@@U?$less@PAVIEventListener@Pegas@@@std@@V?$allocator@PAVIEventListener@Pegas@@@4@@std@@@Pegas@@@std@@@2@$0A@@std@@@std@@KAAADPAU_Node@?$_Tree_nod@V?$_Tmap_traits@V?$basic_string@DU?$char_traits@D@std@@V?$allocator@D@2@@std@@V?$ptr@V?$set@PAVIEventListener@Pegas@@U?$less@PAVIEventListener@Pegas@@@std@@V?$allocator@PAVIEventListener@Pegas@@@4@@std@@@Pegas@@U?$less@V?$basic_string@DU?$char_traits@D@std@@V?$allocator@D@2@@std@@@2@V?$allocator@U?$pair@$$CBV?$basic_string@DU?$char_traits@D@std@@V?$allocator@D@2@@std@@V?$ptr@V?$set@PAVIEventListener@Pegas@@U?$less@PAVIEventListener@Pegas@@@std@@V?$allocator@PAVIEventListener@Pegas@@@4@@std@@@Pegas@@@std@@@2@$0A@@std@@@2@@Z 0042de30 f i asteroids.obj
 0001:0002ce60       ?_Erase@?$_Tree@V?$_Tmap_traits@V?$basic_string@DU?$char_traits@D@std@@V?$allocator@D@2@@std@@V?$ptr@V?$set@PAVIEventListener@Pegas@@U?$less@PAVIEventListener@Pegas@@@std@@V?$allocator@PAVIEventListener@Pegas@@@4@@std@@@Pegas@@U?$less@V?$basic_string@DU?$char_traits@D@std@@V?$allocator@D@2@@std@@@2@V?$allocator@U?$pair@$$CBV?$basic_string@DU?$char_traits@D@std@@V?$allocator@D@2@@std@@V?$ptr@V?$set@PAVIEventListener@Pegas@@U?$less@PAVIEventListener@Pegas@@@std@@V?$allocator@PAVIEventListener@Pegas@@@4@@std@@@Pegas@@@std@@@2@$0A@@std@@@std@@IAEXPAU_Node@?$_Tree_nod@V?$_Tmap_traits@V?$basic_string@DU?$char_traits@D@std@@V?$allocator@D@2@@std@@V?$ptr@V?$set@PAVIEventListener@Pegas@@U?$less@PAVIEventListener@Pegas@@@std@@V?$allocator@PAVIEventListener@Pegas@@@4@@std@@@Pegas@@U?$less@V?$basic_string@DU?$char_traits@D@std@@V?$allocator@D@2@@std@@@2@V?$allocator@U?$pair@$$CBV?$basic_string@DU?$char_traits@D@std@@V?$allocator@D@2@@std@@V?$ptr@V?$set@PAVIEventListener@Pegas@@U?$less@PAVIEventListener@Pegas@@@std@@V?$allocator@PAVIEventListener@Pegas@@@4@@std@@@Pegas@@@std@@@2@$0A@@std@@@2@@Z 0042de60 f i asteroids.obj
 0001:0002cf10       ?_Lrotate@?$_Tree@V?$_Tmap_traits@V?$basic_string@DU?$char_traits@D@std@@V?$allocator@D@2@@std@@V?$ptr@V?$set@PAVIEventListener@Pegas@@U?$less@PAVIEventListener@Pegas@@@std@@V?$allocator@PAVIEventListener@Pegas@@@4@@std@@@Pegas@@U?$less@V?$basic_string@DU?$char_traits@D@std@@V?$allocator@D@2@@std@@@2@V?$allocator@U?$pair@$$CBV?$basic_string@DU?$char_traits@D@std@@V?$allocator@D@2@@std@@V?$ptr@V?$set@PAVIEventListener@Pegas@@U?$less@PAVIEventListener@Pegas@@@std@@V?$allocator@PAVIEventListener@Pegas@@@4@@std@@@Pegas@@@std@@@2@$0A@@std@@@std@@IAEXPAU_Node@?$_Tree_nod@V?$_Tmap_traits@V?$basic_string@DU?$char_traits@D@std@@V?$allocator@D@2@@std@@V?$ptr@V?$set@PAVIEventListener@Pegas@@U?$less@PAVIEventListener@Pegas@@@std@@V?$allocator@PAVIEventListener@Pegas@@@4@@std@@@Pegas@@U?$less@V?$basic_string@DU?$char_traits@D@std@@V?$allocator@D@2@@std@@@2@V?$allocator@U?$pair@$$CBV?$basic_string@DU?$char_traits@D@std@@V?$allocator@D@2@@std@@V?$ptr@V?$set@PAVIEventListener@Pegas@@U?$less@PAVIEventListener@Pegas@@@std@@V?$allocator@PAVIEventListener@Pegas@@@4@@std@@@Pegas@@@std@@@2@$0A@@std@@@2@@Z 0042df10 f i asteroids.obj
 0001:0002d070       ?_Max@?$_Tree@V?$_Tmap_traits@V?$basic_string@DU?$char_traits@D@std@@V?$allocator@D@2@@std@@V?$ptr@V?$set@PAVIEventListener@Pegas@@U?$less@PAVIEventListener@Pegas@@@std@@V?$allocator@PAVIEventListener@Pegas@@@4@@std@@@Pegas@@U?$less@V?$basic_string@DU?$char_traits@D@std@@V?$allocator@D@2@@std@@@2@V?$allocator@U?$pair@$$CBV?$basic_string@DU?$char_traits@D@std@@V?$allocator@D@2@@std@@V?$ptr@V?$set@PAVIEventListener@Pegas@@U?$less@PAVIEventListener@Pegas@@@std@@V?$allocator@PAVIEventListener@Pegas@@@4@@std@@@Pegas@@@std@@@2@$0A@@std@@@std@@KAPAU_Node@?$_Tree_nod@V?$_Tmap_traits@V?$basic_string@DU?$char_traits@D@std@@V?$allocator@D@2@@std@@V?$ptr@V?$set@PAVIEventListener@Pegas@@U?$less@PAVIEventListener@Pegas@@@std@@V?$allocator@PAVIEventListener@Pegas@@@4@@std@@@Pegas@@U?$less@V?$basic_string@DU?$char_traits@D@std@@V?$allocator@D@2@@std@@@2@V?$allocator@U?$pair@$$CBV?$basic_string@DU?$char_traits@D@std@@V?$allocator@D@2@@std@@V?$ptr@V?$set@PAVIEventListener@Pegas@@U?$less@PAVIEventListener@Pegas@@@std@@V?$allocator@PAVIEventListener@Pegas@@@4@@std@@@Pegas@@@std@@@2@$0A@@std@@@2@PAU342@@Z 0042e070 f i asteroids.obj
 0001:0002d0e0       ?_Min@?$_Tree@V?$_Tmap_traits@V?$basic_string@DU?$char_traits@D@std@@V?$allocator@D@2@@std@@V?$ptr@V?$set@PAVIEventListener@Pegas@@U?$less@PAVIEventListener@Pegas@@@std@@V?$allocator@PAVIEventListener@Pegas@@@4@@std@@@Pegas@@U?$less@V?$basic_string@DU?$char_traits@D@std@@V?$allocator@D@2@@std@@@2@V?$allocator@U?$pair@$$CBV?$basic_string@DU?$char_traits@D@std@@V?$allocator@D@2@@std@@V?$ptr@V?$set@PAVIEventListener@Pegas@@U?$less@PAVIEventListener@Pegas@@@std@@V?$allocator@PAVIEventListener@Pegas@@@4@@std@@@Pegas@@@std@@@2@$0A@@std@@@std@@KAPAU_Node@?$_Tree_nod@V?$_Tmap_traits@V?$basic_string@DU?$char_traits@D@std@@V?$allocator@D@2@@std@@V?$ptr@V?$set@PAVIEventListener@Pegas@@U?$less@PAVIEventListener@Pegas@@@std@@V?$allocator@PAVIEventListener@Pegas@@@4@@std@@@Pegas@@U?$less@V?$basic_string@DU?$char_traits@D@std@@V?$allocator@D@2@@std@@@2@V?$allocator@U?$pair@$$CBV?$basic_string@DU?$char_traits@D@std@@V?$allocator@D@2@@std@@V?$ptr@V?$set@PAVIEventListener@Pegas@@U?$less@PAVIEventListener@Pegas@@@std@@V?$allocator@PAVIEventListener@Pegas@@@4@@std@@@Pegas@@@std@@@2@$0A@@std@@@2@PAU342@@Z 0042e0e0 f i asteroids.obj
 0001:0002d150       ?_Rrotate@?$_Tree@V?$_Tmap_traits@V?$basic_string@DU?$char_traits@D@std@@V?$allocator@D@2@@std@@V?$ptr@V?$set@PAVIEventListener@Pegas@@U?$less@PAVIEventListener@Pegas@@@std@@V?$allocator@PAVIEventListener@Pegas@@@4@@std@@@Pegas@@U?$less@V?$basic_string@DU?$char_traits@D@std@@V?$allocator@D@2@@std@@@2@V?$allocator@U?$pair@$$CBV?$basic_string@DU?$char_traits@D@std@@V?$allocator@D@2@@std@@V?$ptr@V?$set@PAVIEventListener@Pegas@@U?$less@PAVIEventListener@Pegas@@@std@@V?$allocator@PAVIEventListener@Pegas@@@4@@std@@@Pegas@@@std@@@2@$0A@@std@@@std@@IAEXPAU_Node@?$_Tree_nod@V?$_Tmap_traits@V?$basic_string@DU?$char_traits@D@std@@V?$allocator@D@2@@std@@V?$ptr@V?$set@PAVIEventListener@Pegas@@U?$less@PAVIEventListener@Pegas@@@std@@V?$allocator@PAVIEventListener@Pegas@@@4@@std@@@Pegas@@U?$less@V?$basic_string@DU?$char_traits@D@std@@V?$allocator@D@2@@std@@@2@V?$allocator@U?$pair@$$CBV?$basic_string@DU?$char_traits@D@std@@V?$allocator@D@2@@std@@V?$ptr@V?$set@PAVIEventListener@Pegas@@U?$less@PAVIEventListener@Pegas@@@std@@V?$allocator@PAVIEventListener@Pegas@@@4@@std@@@Pegas@@@std@@@2@$0A@@std@@@2@@Z 0042e150 f i asteroids.obj
 0001:0002d2b0       ?_Orphan_ptr@?$_Tree@V?$_Tmap_traits@V?$basic_string@DU?$char_traits@D@std@@V?$allocator@D@2@@std@@V?$ptr@V?$set@PAVIEventListener@Pegas@@U?$less@PAVIEventListener@Pegas@@@std@@V?$allocator@PAVIEventListener@Pegas@@@4@@std@@@Pegas@@U?$less@V?$basic_string@DU?$char_traits@D@std@@V?$allocator@D@2@@std@@@2@V?$allocator@U?$pair@$$CBV?$basic_string@DU?$char_traits@D@std@@V?$allocator@D@2@@std@@V?$ptr@V?$set@PAVIEventListener@Pegas@@U?$less@PAVIEventListener@Pegas@@@std@@V?$allocator@PAVIEventListener@Pegas@@@4@@std@@@Pegas@@@std@@@2@$0A@@std@@@std@@IBEXAAV12@PAU_Node@?$_Tree_nod@V?$_Tmap_traits@V?$basic_string@DU?$char_traits@D@std@@V?$allocator@D@2@@std@@V?$ptr@V?$set@PAVIEventListener@Pegas@@U?$less@PAVIEventListener@Pegas@@@std@@V?$allocator@PAVIEventListener@Pegas@@@4@@std@@@Pegas@@U?$less@V?$basic_string@DU?$char_traits@D@std@@V?$allocator@D@2@@std@@@2@V?$allocator@U?$pair@$$CBV?$basic_string@DU?$char_traits@D@std@@V?$allocator@D@2@@std@@V?$ptr@V?$set@PAVIEventListener@Pegas@@U?$less@PAVIEventListener@Pegas@@@std@@V?$allocator@PAVIEventListener@Pegas@@@4@@std@@@Pegas@@@std@@@2@$0A@@std@@@2@@Z 0042e2b0 f i asteroids.obj
 0001:0002d380       ?destroy@?$allocator@U_Node@?$_Tree_nod@V?$_Tmap_traits@V?$basic_string@DU?$char_traits@D@std@@V?$allocator@D@2@@std@@V?$ptr@V?$set@PAVIEventListener@Pegas@@U?$less@PAVIEventListener@Pegas@@@std@@V?$allocator@PAVIEventListener@Pegas@@@4@@std@@@Pegas@@U?$less@V?$basic_string@DU?$char_traits@D@std@@V?$allocator@D@2@@std@@@2@V?$allocator@U?$pair@$$CBV?$basic_string@DU?$char_traits@D@std@@V?$allocator@D@2@@std@@V?$ptr@V?$set@PAVIEventListener@Pegas@@U?$less@PAVIEventListener@Pegas@@@std@@V?$allocator@PAVIEventListener@Pegas@@@4@@std@@@Pegas@@@std@@@2@$0A@@std@@@std@@@std@@QAEXPAU_Node@?$_Tree_nod@V?$_Tmap_traits@V?$basic_string@DU?$char_traits@D@std@@V?$allocator@D@2@@std@@V?$ptr@V?$set@PAVIEventListener@Pegas@@U?$less@PAVIEventListener@Pegas@@@std@@V?$allocator@PAVIEventListener@Pegas@@@4@@std@@@Pegas@@U?$less@V?$basic_string@DU?$char_traits@D@std@@V?$allocator@D@2@@std@@@2@V?$allocator@U?$pair@$$CBV?$basic_string@DU?$char_traits@D@std@@V?$allocator@D@2@@std@@V?$ptr@V?$set@PAVIEventListener@Pegas@@U?$less@PAVIEventListener@Pegas@@@std@@V?$allocator@PAVIEventListener@Pegas@@@4@@std@@@Pegas@@@std@@@2@$0A@@std@@@2@@Z 0042e380 f i asteroids.obj
 0001:0002d3d0       ?_Color@?$_Tree@V?$_Tset_traits@PAVIKeyboardController@Pegas@@U?$less@PAVIKeyboardController@Pegas@@@std@@V?$allocator@PAVIKeyboardController@Pegas@@@4@$0A@@std@@@std@@KAAADPAU_Node@?$_Tree_nod@V?$_Tset_traits@PAVIKeyboardController@Pegas@@U?$less@PAVIKeyboardController@Pegas@@@std@@V?$allocator@PAVIKeyboardController@Pegas@@@4@$0A@@std@@@2@@Z 0042e3d0 f i asteroids.obj
 0001:0002d400       ?_Erase@?$_Tree@V?$_Tset_traits@PAVIKeyboardController@Pegas@@U?$less@PAVIKeyboardController@Pegas@@@std@@V?$allocator@PAVIKeyboardController@Pegas@@@4@$0A@@std@@@std@@IAEXPAU_Node@?$_Tree_nod@V?$_Tset_traits@PAVIKeyboardController@Pegas@@U?$less@PAVIKeyboardController@Pegas@@@std@@V?$allocator@PAVIKeyboardController@Pegas@@@4@$0A@@std@@@2@@Z 0042e400 f i asteroids.obj
 0001:0002d4b0       ?_Lrotate@?$_Tree@V?$_Tset_traits@PAVIKeyboardController@Pegas@@U?$less@PAVIKeyboardController@Pegas@@@std@@V?$allocator@PAVIKeyboardController@Pegas@@@4@$0A@@std@@@std@@IAEXPAU_Node@?$_Tree_nod@V?$_Tset_traits@PAVIKeyboardController@Pegas@@U?$less@PAVIKeyboardController@Pegas@@@std@@V?$allocator@PAVIKeyboardController@Pegas@@@4@$0A@@std@@@2@@Z 0042e4b0 f i asteroids.obj
 0001:0002d610       ?_Max@?$_Tree@V?$_Tset_traits@PAVIKeyboardController@Pegas@@U?$less@PAVIKeyboardController@Pegas@@@std@@V?$allocator@PAVIKeyboardController@Pegas@@@4@$0A@@std@@@std@@KAPAU_Node@?$_Tree_nod@V?$_Tset_traits@PAVIKeyboardController@Pegas@@U?$less@PAVIKeyboardController@Pegas@@@std@@V?$allocator@PAVIKeyboardController@Pegas@@@4@$0A@@std@@@2@PAU342@@Z 0042e610 f i asteroids.obj
 0001:0002d680       ?_Min@?$_Tree@V?$_Tset_traits@PAVIKeyboardController@Pegas@@U?$less@PAVIKeyboardController@Pegas@@@std@@V?$allocator@PAVIKeyboardController@Pegas@@@4@$0A@@std@@@std@@KAPAU_Node@?$_Tree_nod@V?$_Tset_traits@PAVIKeyboardController@Pegas@@U?$less@PAVIKeyboardController@Pegas@@@std@@V?$allocator@PAVIKeyboardController@Pegas@@@4@$0A@@std@@@2@PAU342@@Z 0042e680 f i asteroids.obj
 0001:0002d6f0       ?_Rrotate@?$_Tree@V?$_Tset_traits@PAVIKeyboardController@Pegas@@U?$less@PAVIKeyboardController@Pegas@@@std@@V?$allocator@PAVIKeyboardController@Pegas@@@4@$0A@@std@@@std@@IAEXPAU_Node@?$_Tree_nod@V?$_Tset_traits@PAVIKeyboardController@Pegas@@U?$less@PAVIKeyboardController@Pegas@@@std@@V?$allocator@PAVIKeyboardController@Pegas@@@4@$0A@@std@@@2@@Z 0042e6f0 f i asteroids.obj
 0001:0002d850       ?_Orphan_ptr@?$_Tree@V?$_Tset_traits@PAVIKeyboardController@Pegas@@U?$less@PAVIKeyboardController@Pegas@@@std@@V?$allocator@PAVIKeyboardController@Pegas@@@4@$0A@@std@@@std@@IBEXAAV12@PAU_Node@?$_Tree_nod@V?$_Tset_traits@PAVIKeyboardController@Pegas@@U?$less@PAVIKeyboardController@Pegas@@@std@@V?$allocator@PAVIKeyboardController@Pegas@@@4@$0A@@std@@@2@@Z 0042e850 f i asteroids.obj
 0001:0002d920       ?destroy@?$allocator@U_Node@?$_Tree_nod@V?$_Tset_traits@PAVIKeyboardController@Pegas@@U?$less@PAVIKeyboardController@Pegas@@@std@@V?$allocator@PAVIKeyboardController@Pegas@@@4@$0A@@std@@@std@@@std@@QAEXPAU_Node@?$_Tree_nod@V?$_Tset_traits@PAVIKeyboardController@Pegas@@U?$less@PAVIKeyboardController@Pegas@@@std@@V?$allocator@PAVIKeyboardController@Pegas@@@4@$0A@@std@@@2@@Z 0042e920 f i asteroids.obj
 0001:0002d970       ?_Color@?$_Tree@V?$_Tset_traits@PAVIMouseController@Pegas@@U?$less@PAVIMouseController@Pegas@@@std@@V?$allocator@PAVIMouseController@Pegas@@@4@$0A@@std@@@std@@KAAADPAU_Node@?$_Tree_nod@V?$_Tset_traits@PAVIMouseController@Pegas@@U?$less@PAVIMouseController@Pegas@@@std@@V?$allocator@PAVIMouseController@Pegas@@@4@$0A@@std@@@2@@Z 0042e970 f i asteroids.obj
 0001:0002d9a0       ?_Erase@?$_Tree@V?$_Tset_traits@PAVIMouseController@Pegas@@U?$less@PAVIMouseController@Pegas@@@std@@V?$allocator@PAVIMouseController@Pegas@@@4@$0A@@std@@@std@@IAEXPAU_Node@?$_Tree_nod@V?$_Tset_traits@PAVIMouseController@Pegas@@U?$less@PAVIMouseController@Pegas@@@std@@V?$allocator@PAVIMouseController@Pegas@@@4@$0A@@std@@@2@@Z 0042e9a0 f i asteroids.obj
 0001:0002da50       ?_Lrotate@?$_Tree@V?$_Tset_traits@PAVIMouseController@Pegas@@U?$less@PAVIMouseController@Pegas@@@std@@V?$allocator@PAVIMouseController@Pegas@@@4@$0A@@std@@@std@@IAEXPAU_Node@?$_Tree_nod@V?$_Tset_traits@PAVIMouseController@Pegas@@U?$less@PAVIMouseController@Pegas@@@std@@V?$allocator@PAVIMouseController@Pegas@@@4@$0A@@std@@@2@@Z 0042ea50 f i asteroids.obj
 0001:0002dbb0       ?_Max@?$_Tree@V?$_Tset_traits@PAVIMouseController@Pegas@@U?$less@PAVIMouseController@Pegas@@@std@@V?$allocator@PAVIMouseController@Pegas@@@4@$0A@@std@@@std@@KAPAU_Node@?$_Tree_nod@V?$_Tset_traits@PAVIMouseController@Pegas@@U?$less@PAVIMouseController@Pegas@@@std@@V?$allocator@PAVIMouseController@Pegas@@@4@$0A@@std@@@2@PAU342@@Z 0042ebb0 f i asteroids.obj
 0001:0002dc20       ?_Min@?$_Tree@V?$_Tset_traits@PAVIMouseController@Pegas@@U?$less@PAVIMouseController@Pegas@@@std@@V?$allocator@PAVIMouseController@Pegas@@@4@$0A@@std@@@std@@KAPAU_Node@?$_Tree_nod@V?$_Tset_traits@PAVIMouseController@Pegas@@U?$less@PAVIMouseController@Pegas@@@std@@V?$allocator@PAVIMouseController@Pegas@@@4@$0A@@std@@@2@PAU342@@Z 0042ec20 f i asteroids.obj
 0001:0002dc90       ?_Rrotate@?$_Tree@V?$_Tset_traits@PAVIMouseController@Pegas@@U?$less@PAVIMouseController@Pegas@@@std@@V?$allocator@PAVIMouseController@Pegas@@@4@$0A@@std@@@std@@IAEXPAU_Node@?$_Tree_nod@V?$_Tset_traits@PAVIMouseController@Pegas@@U?$less@PAVIMouseController@Pegas@@@std@@V?$allocator@PAVIMouseController@Pegas@@@4@$0A@@std@@@2@@Z 0042ec90 f i asteroids.obj
 0001:0002ddf0       ?_Orphan_ptr@?$_Tree@V?$_Tset_traits@PAVIMouseController@Pegas@@U?$less@PAVIMouseController@Pegas@@@std@@V?$allocator@PAVIMouseController@Pegas@@@4@$0A@@std@@@std@@IBEXAAV12@PAU_Node@?$_Tree_nod@V?$_Tset_traits@PAVIMouseController@Pegas@@U?$less@PAVIMouseController@Pegas@@@std@@V?$allocator@PAVIMouseController@Pegas@@@4@$0A@@std@@@2@@Z 0042edf0 f i asteroids.obj
 0001:0002dec0       ?destroy@?$allocator@U_Node@?$_Tree_nod@V?$_Tset_traits@PAVIMouseController@Pegas@@U?$less@PAVIMouseController@Pegas@@@std@@V?$allocator@PAVIMouseController@Pegas@@@4@$0A@@std@@@std@@@std@@QAEXPAU_Node@?$_Tree_nod@V?$_Tset_traits@PAVIMouseController@Pegas@@U?$less@PAVIMouseController@Pegas@@@std@@V?$allocator@PAVIMouseController@Pegas@@@4@$0A@@std@@@2@@Z 0042eec0 f i asteroids.obj
 0001:0002df10       ?_Color@?$_Tree@V?$_Tmap_traits@HV?$ptr@VIGameState@Pegas@@@Pegas@@U?$less@H@std@@V?$allocator@U?$pair@$$CBHV?$ptr@VIGameState@Pegas@@@Pegas@@@std@@@4@$0A@@std@@@std@@KAAADPAU_Node@?$_Tree_nod@V?$_Tmap_traits@HV?$ptr@VIGameState@Pegas@@@Pegas@@U?$less@H@std@@V?$allocator@U?$pair@$$CBHV?$ptr@VIGameState@Pegas@@@Pegas@@@std@@@4@$0A@@std@@@2@@Z 0042ef10 f i asteroids.obj
 0001:0002df40       ?_Erase@?$_Tree@V?$_Tmap_traits@HV?$ptr@VIGameState@Pegas@@@Pegas@@U?$less@H@std@@V?$allocator@U?$pair@$$CBHV?$ptr@VIGameState@Pegas@@@Pegas@@@std@@@4@$0A@@std@@@std@@IAEXPAU_Node@?$_Tree_nod@V?$_Tmap_traits@HV?$ptr@VIGameState@Pegas@@@Pegas@@U?$less@H@std@@V?$allocator@U?$pair@$$CBHV?$ptr@VIGameState@Pegas@@@Pegas@@@std@@@4@$0A@@std@@@2@@Z 0042ef40 f i asteroids.obj
 0001:0002dff0       ?_Lrotate@?$_Tree@V?$_Tmap_traits@HV?$ptr@VIGameState@Pegas@@@Pegas@@U?$less@H@std@@V?$allocator@U?$pair@$$CBHV?$ptr@VIGameState@Pegas@@@Pegas@@@std@@@4@$0A@@std@@@std@@IAEXPAU_Node@?$_Tree_nod@V?$_Tmap_traits@HV?$ptr@VIGameState@Pegas@@@Pegas@@U?$less@H@std@@V?$allocator@U?$pair@$$CBHV?$ptr@VIGameState@Pegas@@@Pegas@@@std@@@4@$0A@@std@@@2@@Z 0042eff0 f i asteroids.obj
 0001:0002e150       ?_Max@?$_Tree@V?$_Tmap_traits@HV?$ptr@VIGameState@Pegas@@@Pegas@@U?$less@H@std@@V?$allocator@U?$pair@$$CBHV?$ptr@VIGameState@Pegas@@@Pegas@@@std@@@4@$0A@@std@@@std@@KAPAU_Node@?$_Tree_nod@V?$_Tmap_traits@HV?$ptr@VIGameState@Pegas@@@Pegas@@U?$less@H@std@@V?$allocator@U?$pair@$$CBHV?$ptr@VIGameState@Pegas@@@Pegas@@@std@@@4@$0A@@std@@@2@PAU342@@Z 0042f150 f i asteroids.obj
 0001:0002e1c0       ?_Min@?$_Tree@V?$_Tmap_traits@HV?$ptr@VIGameState@Pegas@@@Pegas@@U?$less@H@std@@V?$allocator@U?$pair@$$CBHV?$ptr@VIGameState@Pegas@@@Pegas@@@std@@@4@$0A@@std@@@std@@KAPAU_Node@?$_Tree_nod@V?$_Tmap_traits@HV?$ptr@VIGameState@Pegas@@@Pegas@@U?$less@H@std@@V?$allocator@U?$pair@$$CBHV?$ptr@VIGameState@Pegas@@@Pegas@@@std@@@4@$0A@@std@@@2@PAU342@@Z 0042f1c0 f i asteroids.obj
 0001:0002e230       ?_Rrotate@?$_Tree@V?$_Tmap_traits@HV?$ptr@VIGameState@Pegas@@@Pegas@@U?$less@H@std@@V?$allocator@U?$pair@$$CBHV?$ptr@VIGameState@Pegas@@@Pegas@@@std@@@4@$0A@@std@@@std@@IAEXPAU_Node@?$_Tree_nod@V?$_Tmap_traits@HV?$ptr@VIGameState@Pegas@@@Pegas@@U?$less@H@std@@V?$allocator@U?$pair@$$CBHV?$ptr@VIGameState@Pegas@@@Pegas@@@std@@@4@$0A@@std@@@2@@Z 0042f230 f i asteroids.obj
 0001:0002e390       ?_Orphan_ptr@?$_Tree@V?$_Tmap_traits@HV?$ptr@VIGameState@Pegas@@@Pegas@@U?$less@H@std@@V?$allocator@U?$pair@$$CBHV?$ptr@VIGameState@Pegas@@@Pegas@@@std@@@4@$0A@@std@@@std@@IBEXAAV12@PAU_Node@?$_Tree_nod@V?$_Tmap_traits@HV?$ptr@VIGameState@Pegas@@@Pegas@@U?$less@H@std@@V?$allocator@U?$pair@$$CBHV?$ptr@VIGameState@Pegas@@@Pegas@@@std@@@4@$0A@@std@@@2@@Z 0042f390 f i asteroids.obj
 0001:0002e460       ?destroy@?$allocator@U_Node@?$_Tree_nod@V?$_Tmap_traits@HV?$ptr@VIGameState@Pegas@@@Pegas@@U?$less@H@std@@V?$allocator@U?$pair@$$CBHV?$ptr@VIGameState@Pegas@@@Pegas@@@std@@@4@$0A@@std@@@std@@@std@@QAEXPAU_Node@?$_Tree_nod@V?$_Tmap_traits@HV?$ptr@VIGameState@Pegas@@@Pegas@@U?$less@H@std@@V?$allocator@U?$pair@$$CBHV?$ptr@VIGameState@Pegas@@@Pegas@@@std@@@4@$0A@@std@@@2@@Z 0042f460 f i asteroids.obj
 0001:0002e4b0       ?_Make_iter@?$_Tree@V?$_Tmap_traits@HPAVStringResource@Pegas@@U?$less@H@std@@V?$allocator@U?$pair@$$CBHPAVStringResource@Pegas@@@std@@@4@$0A@@std@@@std@@QBE?AViterator@12@Vconst_iterator@12@@Z 0042f4b0 f i asteroids.obj
 0001:0002e590       ?erase@?$_Tree@V?$_Tmap_traits@HPAVStringResource@Pegas@@U?$less@H@std@@V?$allocator@U?$pair@$$CBHPAVStringResource@Pegas@@@std@@@4@$0A@@std@@@std@@QAE?AViterator@12@Vconst_iterator@12@@Z 0042f590 f i asteroids.obj
 0001:0002ede0       ?_Isnil@?$_Tree@V?$_Tmap_traits@HPAVStringResource@Pegas@@U?$less@H@std@@V?$allocator@U?$pair@$$CBHPAVStringResource@Pegas@@@std@@@4@$0A@@std@@@std@@KAAADPAU_Node@?$_Tree_nod@V?$_Tmap_traits@HPAVStringResource@Pegas@@U?$less@H@std@@V?$allocator@U?$pair@$$CBHPAVStringResource@Pegas@@@std@@@4@$0A@@std@@@2@@Z 0042fde0 f i asteroids.obj
 0001:0002ee10       ?clear@?$_Tree@V?$_Tmap_traits@HPAVStringResource@Pegas@@U?$less@H@std@@V?$allocator@U?$pair@$$CBHPAVStringResource@Pegas@@@std@@@4@$0A@@std@@@std@@QAEXXZ 0042fe10 f i asteroids.obj
 0001:0002eeb0       ?_Lmost@?$_Tree@V?$_Tmap_traits@HPAVStringResource@Pegas@@U?$less@H@std@@V?$allocator@U?$pair@$$CBHPAVStringResource@Pegas@@@std@@@4@$0A@@std@@@std@@IBEAAPAU_Node@?$_Tree_nod@V?$_Tmap_traits@HPAVStringResource@Pegas@@U?$less@H@std@@V?$allocator@U?$pair@$$CBHPAVStringResource@Pegas@@@std@@@4@$0A@@std@@@2@XZ 0042feb0 f i asteroids.obj
 0001:0002ef00       ?_Rmost@?$_Tree@V?$_Tmap_traits@HPAVStringResource@Pegas@@U?$less@H@std@@V?$allocator@U?$pair@$$CBHPAVStringResource@Pegas@@@std@@@4@$0A@@std@@@std@@IBEAAPAU_Node@?$_Tree_nod@V?$_Tmap_traits@HPAVStringResource@Pegas@@U?$less@H@std@@V?$allocator@U?$pair@$$CBHPAVStringResource@Pegas@@@std@@@4@$0A@@std@@@2@XZ 0042ff00 f i asteroids.obj
 0001:0002ef50       ?_Root@?$_Tree@V?$_Tmap_traits@HPAVStringResource@Pegas@@U?$less@H@std@@V?$allocator@U?$pair@$$CBHPAVStringResource@Pegas@@@std@@@4@$0A@@std@@@std@@IBEAAPAU_Node@?$_Tree_nod@V?$_Tmap_traits@HPAVStringResource@Pegas@@U?$less@H@std@@V?$allocator@U?$pair@$$CBHPAVStringResource@Pegas@@@std@@@4@$0A@@std@@@2@XZ 0042ff50 f i asteroids.obj
 0001:0002efa0       ?_Make_iter@?$_Tree@V?$_Tmap_traits@HPAVTextureResource@Pegas@@U?$less@H@std@@V?$allocator@U?$pair@$$CBHPAVTextureResource@Pegas@@@std@@@4@$0A@@std@@@std@@QBE?AViterator@12@Vconst_iterator@12@@Z 0042ffa0 f i asteroids.obj
 0001:0002f080       ?erase@?$_Tree@V?$_Tmap_traits@HPAVTextureResource@Pegas@@U?$less@H@std@@V?$allocator@U?$pair@$$CBHPAVTextureResource@Pegas@@@std@@@4@$0A@@std@@@std@@QAE?AViterator@12@Vconst_iterator@12@@Z 00430080 f i asteroids.obj
 0001:0002f8d0       ?_Isnil@?$_Tree@V?$_Tmap_traits@HPAVTextureResource@Pegas@@U?$less@H@std@@V?$allocator@U?$pair@$$CBHPAVTextureResource@Pegas@@@std@@@4@$0A@@std@@@std@@KAAADPAU_Node@?$_Tree_nod@V?$_Tmap_traits@HPAVTextureResource@Pegas@@U?$less@H@std@@V?$allocator@U?$pair@$$CBHPAVTextureResource@Pegas@@@std@@@4@$0A@@std@@@2@@Z 004308d0 f i asteroids.obj
 0001:0002f900       ?clear@?$_Tree@V?$_Tmap_traits@HPAVTextureResource@Pegas@@U?$less@H@std@@V?$allocator@U?$pair@$$CBHPAVTextureResource@Pegas@@@std@@@4@$0A@@std@@@std@@QAEXXZ 00430900 f i asteroids.obj
 0001:0002f9a0       ?_Lmost@?$_Tree@V?$_Tmap_traits@HPAVTextureResource@Pegas@@U?$less@H@std@@V?$allocator@U?$pair@$$CBHPAVTextureResource@Pegas@@@std@@@4@$0A@@std@@@std@@IBEAAPAU_Node@?$_Tree_nod@V?$_Tmap_traits@HPAVTextureResource@Pegas@@U?$less@H@std@@V?$allocator@U?$pair@$$CBHPAVTextureResource@Pegas@@@std@@@4@$0A@@std@@@2@XZ 004309a0 f i asteroids.obj
 0001:0002f9f0       ?_Rmost@?$_Tree@V?$_Tmap_traits@HPAVTextureResource@Pegas@@U?$less@H@std@@V?$allocator@U?$pair@$$CBHPAVTextureResource@Pegas@@@std@@@4@$0A@@std@@@std@@IBEAAPAU_Node@?$_Tree_nod@V?$_Tmap_traits@HPAVTextureResource@Pegas@@U?$less@H@std@@V?$allocator@U?$pair@$$CBHPAVTextureResource@Pegas@@@std@@@4@$0A@@std@@@2@XZ 004309f0 f i asteroids.obj
 0001:0002fa40       ?_Root@?$_Tree@V?$_Tmap_traits@HPAVTextureResource@Pegas@@U?$less@H@std@@V?$allocator@U?$pair@$$CBHPAVTextureResource@Pegas@@@std@@@4@$0A@@std@@@std@@IBEAAPAU_Node@?$_Tree_nod@V?$_Tmap_traits@HPAVTextureResource@Pegas@@U?$less@H@std@@V?$allocator@U?$pair@$$CBHPAVTextureResource@Pegas@@@std@@@4@$0A@@std@@@2@XZ 00430a40 f i asteroids.obj
 0001:0002fa90       ?_Make_iter@?$_Tree@V?$_Tmap_traits@HPAVFontResource@Pegas@@U?$less@H@std@@V?$allocator@U?$pair@$$CBHPAVFontResource@Pegas@@@std@@@4@$0A@@std@@@std@@QBE?AViterator@12@Vconst_iterator@12@@Z 00430a90 f i asteroids.obj
 0001:0002fb70       ?erase@?$_Tree@V?$_Tmap_traits@HPAVFontResource@Pegas@@U?$less@H@std@@V?$allocator@U?$pair@$$CBHPAVFontResource@Pegas@@@std@@@4@$0A@@std@@@std@@QAE?AViterator@12@Vconst_iterator@12@@Z 00430b70 f i asteroids.obj
 0001:000303c0       ?_Isnil@?$_Tree@V?$_Tmap_traits@HPAVFontResource@Pegas@@U?$less@H@std@@V?$allocator@U?$pair@$$CBHPAVFontResource@Pegas@@@std@@@4@$0A@@std@@@std@@KAAADPAU_Node@?$_Tree_nod@V?$_Tmap_traits@HPAVFontResource@Pegas@@U?$less@H@std@@V?$allocator@U?$pair@$$CBHPAVFontResource@Pegas@@@std@@@4@$0A@@std@@@2@@Z 004313c0 f i asteroids.obj
 0001:000303f0       ?clear@?$_Tree@V?$_Tmap_traits@HPAVFontResource@Pegas@@U?$less@H@std@@V?$allocator@U?$pair@$$CBHPAVFontResource@Pegas@@@std@@@4@$0A@@std@@@std@@QAEXXZ 004313f0 f i asteroids.obj
 0001:00030490       ?_Lmost@?$_Tree@V?$_Tmap_traits@HPAVFontResource@Pegas@@U?$less@H@std@@V?$allocator@U?$pair@$$CBHPAVFontResource@Pegas@@@std@@@4@$0A@@std@@@std@@IBEAAPAU_Node@?$_Tree_nod@V?$_Tmap_traits@HPAVFontResource@Pegas@@U?$less@H@std@@V?$allocator@U?$pair@$$CBHPAVFontResource@Pegas@@@std@@@4@$0A@@std@@@2@XZ 00431490 f i asteroids.obj
 0001:000304e0       ?_Rmost@?$_Tree@V?$_Tmap_traits@HPAVFontResource@Pegas@@U?$less@H@std@@V?$allocator@U?$pair@$$CBHPAVFontResource@Pegas@@@std@@@4@$0A@@std@@@std@@IBEAAPAU_Node@?$_Tree_nod@V?$_Tmap_traits@HPAVFontResource@Pegas@@U?$less@H@std@@V?$allocator@U?$pair@$$CBHPAVFontResource@Pegas@@@std@@@4@$0A@@std@@@2@XZ 004314e0 f i asteroids.obj
 0001:00030530       ?_Root@?$_Tree@V?$_Tmap_traits@HPAVFontResource@Pegas@@U?$less@H@std@@V?$allocator@U?$pair@$$CBHPAVFontResource@Pegas@@@std@@@4@$0A@@std@@@std@@IBEAAPAU_Node@?$_Tree_nod@V?$_Tmap_traits@HPAVFontResource@Pegas@@U?$less@H@std@@V?$allocator@U?$pair@$$CBHPAVFontResource@Pegas@@@std@@@4@$0A@@std@@@2@XZ 00431530 f i asteroids.obj
 0001:00030580       ?_Make_iter@?$_Tree@V?$_Tmap_traits@HPAVSoundResource@Pegas@@U?$less@H@std@@V?$allocator@U?$pair@$$CBHPAVSoundResource@Pegas@@@std@@@4@$0A@@std@@@std@@QBE?AViterator@12@Vconst_iterator@12@@Z 00431580 f i asteroids.obj
 0001:00030660       ?erase@?$_Tree@V?$_Tmap_traits@HPAVSoundResource@Pegas@@U?$less@H@std@@V?$allocator@U?$pair@$$CBHPAVSoundResource@Pegas@@@std@@@4@$0A@@std@@@std@@QAE?AViterator@12@Vconst_iterator@12@@Z 00431660 f i asteroids.obj
 0001:00030eb0       ?_Isnil@?$_Tree@V?$_Tmap_traits@HPAVSoundResource@Pegas@@U?$less@H@std@@V?$allocator@U?$pair@$$CBHPAVSoundResource@Pegas@@@std@@@4@$0A@@std@@@std@@KAAADPAU_Node@?$_Tree_nod@V?$_Tmap_traits@HPAVSoundResource@Pegas@@U?$less@H@std@@V?$allocator@U?$pair@$$CBHPAVSoundResource@Pegas@@@std@@@4@$0A@@std@@@2@@Z 00431eb0 f i asteroids.obj
 0001:00030ee0       ?clear@?$_Tree@V?$_Tmap_traits@HPAVSoundResource@Pegas@@U?$less@H@std@@V?$allocator@U?$pair@$$CBHPAVSoundResource@Pegas@@@std@@@4@$0A@@std@@@std@@QAEXXZ 00431ee0 f i asteroids.obj
 0001:00030f80       ?_Lmost@?$_Tree@V?$_Tmap_traits@HPAVSoundResource@Pegas@@U?$less@H@std@@V?$allocator@U?$pair@$$CBHPAVSoundResource@Pegas@@@std@@@4@$0A@@std@@@std@@IBEAAPAU_Node@?$_Tree_nod@V?$_Tmap_traits@HPAVSoundResource@Pegas@@U?$less@H@std@@V?$allocator@U?$pair@$$CBHPAVSoundResource@Pegas@@@std@@@4@$0A@@std@@@2@XZ 00431f80 f i asteroids.obj
 0001:00030fd0       ?_Rmost@?$_Tree@V?$_Tmap_traits@HPAVSoundResource@Pegas@@U?$less@H@std@@V?$allocator@U?$pair@$$CBHPAVSoundResource@Pegas@@@std@@@4@$0A@@std@@@std@@IBEAAPAU_Node@?$_Tree_nod@V?$_Tmap_traits@HPAVSoundResource@Pegas@@U?$less@H@std@@V?$allocator@U?$pair@$$CBHPAVSoundResource@Pegas@@@std@@@4@$0A@@std@@@2@XZ 00431fd0 f i asteroids.obj
 0001:00031020       ?_Root@?$_Tree@V?$_Tmap_traits@HPAVSoundResource@Pegas@@U?$less@H@std@@V?$allocator@U?$pair@$$CBHPAVSoundResource@Pegas@@@std@@@4@$0A@@std@@@std@@IBEAAPAU_Node@?$_Tree_nod@V?$_Tmap_traits@HPAVSoundResource@Pegas@@U?$less@H@std@@V?$allocator@U?$pair@$$CBHPAVSoundResource@Pegas@@@std@@@4@$0A@@std@@@2@XZ 00432020 f i asteroids.obj
 0001:00031070       ??0const_iterator@?$_Tree@V?$_Tmap_traits@V?$basic_string@DU?$char_traits@D@std@@V?$allocator@D@2@@std@@V?$ptr@V?$set@PAVIEventListener@Pegas@@U?$less@PAVIEventListener@Pegas@@@std@@V?$allocator@PAVIEventListener@Pegas@@@4@@std@@@Pegas@@U?$less@V?$basic_string@DU?$char_traits@D@std@@V?$allocator@D@2@@std@@@2@V?$allocator@U?$pair@$$CBV?$basic_string@DU?$char_traits@D@std@@V?$allocator@D@2@@std@@V?$ptr@V?$set@PAVIEventListener@Pegas@@U?$less@PAVIEventListener@Pegas@@@std@@V?$allocator@PAVIEventListener@Pegas@@@4@@std@@@Pegas@@@std@@@2@$0A@@std@@@std@@QAE@PAU_Node@?$_Tree_nod@V?$_Tmap_traits@V?$basic_string@DU?$char_traits@D@std@@V?$allocator@D@2@@std@@V?$ptr@V?$set@PAVIEventListener@Pegas@@U?$less@PAVIEventListener@Pegas@@@std@@V?$allocator@PAVIEventListener@Pegas@@@4@@std@@@Pegas@@U?$less@V?$basic_string@DU?$char_traits@D@std@@V?$allocator@D@2@@std@@@2@V?$allocator@U?$pair@$$CBV?$basic_string@DU?$char_traits@D@std@@V?$allocator@D@2@@std@@V?$ptr@V?$set@PAVIEventListener@Pegas@@U?$less@PAVIEventListener@Pegas@@@std@@V?$allocator@PAVIEventListener@Pegas@@@4@@std@@@Pegas@@@std@@@2@$0A@@std@@@2@PBV12@@Z 00432070 f i asteroids.obj
 0001:00031110       ??Econst_iterator@?$_Tree@V?$_Tmap_traits@V?$basic_string@DU?$char_traits@D@std@@V?$allocator@D@2@@std@@V?$ptr@V?$set@PAVIEventListener@Pegas@@U?$less@PAVIEventListener@Pegas@@@std@@V?$allocator@PAVIEventListener@Pegas@@@4@@std@@@Pegas@@U?$less@V?$basic_string@DU?$char_traits@D@std@@V?$allocator@D@2@@std@@@2@V?$allocator@U?$pair@$$CBV?$basic_string@DU?$char_traits@D@std@@V?$allocator@D@2@@std@@V?$ptr@V?$set@PAVIEventListener@Pegas@@U?$less@PAVIEventListener@Pegas@@@std@@V?$allocator@PAVIEventListener@Pegas@@@4@@std@@@Pegas@@@std@@@2@$0A@@std@@@std@@QAEAAV012@XZ 00432110 f i asteroids.obj
 0001:00031160       ?_Mynode@const_iterator@?$_Tree@V?$_Tmap_traits@V?$basic_string@DU?$char_traits@D@std@@V?$allocator@D@2@@std@@V?$ptr@V?$set@PAVIEventListener@Pegas@@U?$less@PAVIEventListener@Pegas@@@std@@V?$allocator@PAVIEventListener@Pegas@@@4@@std@@@Pegas@@U?$less@V?$basic_string@DU?$char_traits@D@std@@V?$allocator@D@2@@std@@@2@V?$allocator@U?$pair@$$CBV?$basic_string@DU?$char_traits@D@std@@V?$allocator@D@2@@std@@V?$ptr@V?$set@PAVIEventListener@Pegas@@U?$less@PAVIEventListener@Pegas@@@std@@V?$allocator@PAVIEventListener@Pegas@@@4@@std@@@Pegas@@@std@@@2@$0A@@std@@@std@@QBEPAU_Node@?$_Tree_nod@V?$_Tmap_traits@V?$basic_string@DU?$char_traits@D@std@@V?$allocator@D@2@@std@@V?$ptr@V?$set@PAVIEventListener@Pegas@@U?$less@PAVIEventListener@Pegas@@@std@@V?$allocator@PAVIEventListener@Pegas@@@4@@std@@@Pegas@@U?$less@V?$basic_string@DU?$char_traits@D@std@@V?$allocator@D@2@@std@@@2@V?$allocator@U?$pair@$$CBV?$basic_string@DU?$char_traits@D@std@@V?$allocator@D@2@@std@@V?$ptr@V?$set@PAVIEventListener@Pegas@@U?$less@PAVIEventListener@Pegas@@@std@@V?$allocator@PAVIEventListener@Pegas@@@4@@std@@@Pegas@@@std@@@2@$0A@@std@@@3@XZ 00432160 f i asteroids.obj
 0001:00031190       ??0const_iterator@?$_Tree@V?$_Tset_traits@PAVIKeyboardController@Pegas@@U?$less@PAVIKeyboardController@Pegas@@@std@@V?$allocator@PAVIKeyboardController@Pegas@@@4@$0A@@std@@@std@@QAE@PAU_Node@?$_Tree_nod@V?$_Tset_traits@PAVIKeyboardController@Pegas@@U?$less@PAVIKeyboardController@Pegas@@@std@@V?$allocator@PAVIKeyboardController@Pegas@@@4@$0A@@std@@@2@PBV12@@Z 00432190 f i asteroids.obj
 0001:00031230       ??Econst_iterator@?$_Tree@V?$_Tset_traits@PAVIKeyboardController@Pegas@@U?$less@PAVIKeyboardController@Pegas@@@std@@V?$allocator@PAVIKeyboardController@Pegas@@@4@$0A@@std@@@std@@QAEAAV012@XZ 00432230 f i asteroids.obj
 0001:00031280       ?_Mynode@const_iterator@?$_Tree@V?$_Tset_traits@PAVIKeyboardController@Pegas@@U?$less@PAVIKeyboardController@Pegas@@@std@@V?$allocator@PAVIKeyboardController@Pegas@@@4@$0A@@std@@@std@@QBEPAU_Node@?$_Tree_nod@V?$_Tset_traits@PAVIKeyboardController@Pegas@@U?$less@PAVIKeyboardController@Pegas@@@std@@V?$allocator@PAVIKeyboardController@Pegas@@@4@$0A@@std@@@3@XZ 00432280 f i asteroids.obj
 0001:000312b0       ??0const_iterator@?$_Tree@V?$_Tset_traits@PAVIMouseController@Pegas@@U?$less@PAVIMouseController@Pegas@@@std@@V?$allocator@PAVIMouseController@Pegas@@@4@$0A@@std@@@std@@QAE@PAU_Node@?$_Tree_nod@V?$_Tset_traits@PAVIMouseController@Pegas@@U?$less@PAVIMouseController@Pegas@@@std@@V?$allocator@PAVIMouseController@Pegas@@@4@$0A@@std@@@2@PBV12@@Z 004322b0 f i asteroids.obj
 0001:00031350       ??Econst_iterator@?$_Tree@V?$_Tset_traits@PAVIMouseController@Pegas@@U?$less@PAVIMouseController@Pegas@@@std@@V?$allocator@PAVIMouseController@Pegas@@@4@$0A@@std@@@std@@QAEAAV012@XZ 00432350 f i asteroids.obj
 0001:000313a0       ?_Mynode@const_iterator@?$_Tree@V?$_Tset_traits@PAVIMouseController@Pegas@@U?$less@PAVIMouseController@Pegas@@@std@@V?$allocator@PAVIMouseController@Pegas@@@4@$0A@@std@@@std@@QBEPAU_Node@?$_Tree_nod@V?$_Tset_traits@PAVIMouseController@Pegas@@U?$less@PAVIMouseController@Pegas@@@std@@V?$allocator@PAVIMouseController@Pegas@@@4@$0A@@std@@@3@XZ 004323a0 f i asteroids.obj
 0001:000313d0       ??0const_iterator@?$_Tree@V?$_Tmap_traits@HV?$ptr@VIGameState@Pegas@@@Pegas@@U?$less@H@std@@V?$allocator@U?$pair@$$CBHV?$ptr@VIGameState@Pegas@@@Pegas@@@std@@@4@$0A@@std@@@std@@QAE@PAU_Node@?$_Tree_nod@V?$_Tmap_traits@HV?$ptr@VIGameState@Pegas@@@Pegas@@U?$less@H@std@@V?$allocator@U?$pair@$$CBHV?$ptr@VIGameState@Pegas@@@Pegas@@@std@@@4@$0A@@std@@@2@PBV12@@Z 004323d0 f i asteroids.obj
 0001:00031470       ??Econst_iterator@?$_Tree@V?$_Tmap_traits@HV?$ptr@VIGameState@Pegas@@@Pegas@@U?$less@H@std@@V?$allocator@U?$pair@$$CBHV?$ptr@VIGameState@Pegas@@@Pegas@@@std@@@4@$0A@@std@@@std@@QAEAAV012@XZ 00432470 f i asteroids.obj
 0001:000314c0       ?_Mynode@const_iterator@?$_Tree@V?$_Tmap_traits@HV?$ptr@VIGameState@Pegas@@@Pegas@@U?$less@H@std@@V?$allocator@U?$pair@$$CBHV?$ptr@VIGameState@Pegas@@@Pegas@@@std@@@4@$0A@@std@@@std@@QBEPAU_Node@?$_Tree_nod@V?$_Tmap_traits@HV?$ptr@VIGameState@Pegas@@@Pegas@@U?$less@H@std@@V?$allocator@U?$pair@$$CBHV?$ptr@VIGameState@Pegas@@@Pegas@@@std@@@4@$0A@@std@@@3@XZ 004324c0 f i asteroids.obj
 0001:000314f0       ??0iterator@?$_Tree@V?$_Tmap_traits@HPAVStringResource@Pegas@@U?$less@H@std@@V?$allocator@U?$pair@$$CBHPAVStringResource@Pegas@@@std@@@4@$0A@@std@@@std@@QAE@PAU_Node@?$_Tree_nod@V?$_Tmap_traits@HPAVStringResource@Pegas@@U?$less@H@std@@V?$allocator@U?$pair@$$CBHPAVStringResource@Pegas@@@std@@@4@$0A@@std@@@2@PBV12@@Z 004324f0 f i asteroids.obj
 0001:00031540       ??Econst_iterator@?$_Tree@V?$_Tmap_traits@HPAVStringResource@Pegas@@U?$less@H@std@@V?$allocator@U?$pair@$$CBHPAVStringResource@Pegas@@@std@@@4@$0A@@std@@@std@@QAE?AV012@H@Z 00432540 f i asteroids.obj
 0001:00031620       ??8const_iterator@?$_Tree@V?$_Tmap_traits@HPAVStringResource@Pegas@@U?$less@H@std@@V?$allocator@U?$pair@$$CBHPAVStringResource@Pegas@@@std@@@4@$0A@@std@@@std@@QBE_NABV012@@Z 00432620 f i asteroids.obj
 0001:000316e0       ??9const_iterator@?$_Tree@V?$_Tmap_traits@HPAVStringResource@Pegas@@U?$less@H@std@@V?$allocator@U?$pair@$$CBHPAVStringResource@Pegas@@@std@@@4@$0A@@std@@@std@@QBE_NABV012@@Z 004326e0 f i asteroids.obj
 0001:00031730       ??0iterator@?$_Tree@V?$_Tmap_traits@HPAVTextureResource@Pegas@@U?$less@H@std@@V?$allocator@U?$pair@$$CBHPAVTextureResource@Pegas@@@std@@@4@$0A@@std@@@std@@QAE@PAU_Node@?$_Tree_nod@V?$_Tmap_traits@HPAVTextureResource@Pegas@@U?$less@H@std@@V?$allocator@U?$pair@$$CBHPAVTextureResource@Pegas@@@std@@@4@$0A@@std@@@2@PBV12@@Z 00432730 f i asteroids.obj
 0001:00031780       ??Econst_iterator@?$_Tree@V?$_Tmap_traits@HPAVTextureResource@Pegas@@U?$less@H@std@@V?$allocator@U?$pair@$$CBHPAVTextureResource@Pegas@@@std@@@4@$0A@@std@@@std@@QAE?AV012@H@Z 00432780 f i asteroids.obj
 0001:00031860       ??8const_iterator@?$_Tree@V?$_Tmap_traits@HPAVTextureResource@Pegas@@U?$less@H@std@@V?$allocator@U?$pair@$$CBHPAVTextureResource@Pegas@@@std@@@4@$0A@@std@@@std@@QBE_NABV012@@Z 00432860 f i asteroids.obj
 0001:00031920       ??9const_iterator@?$_Tree@V?$_Tmap_traits@HPAVTextureResource@Pegas@@U?$less@H@std@@V?$allocator@U?$pair@$$CBHPAVTextureResource@Pegas@@@std@@@4@$0A@@std@@@std@@QBE_NABV012@@Z 00432920 f i asteroids.obj
 0001:00031970       ??0iterator@?$_Tree@V?$_Tmap_traits@HPAVFontResource@Pegas@@U?$less@H@std@@V?$allocator@U?$pair@$$CBHPAVFontResource@Pegas@@@std@@@4@$0A@@std@@@std@@QAE@PAU_Node@?$_Tree_nod@V?$_Tmap_traits@HPAVFontResource@Pegas@@U?$less@H@std@@V?$allocator@U?$pair@$$CBHPAVFontResource@Pegas@@@std@@@4@$0A@@std@@@2@PBV12@@Z 00432970 f i asteroids.obj
 0001:000319c0       ??Econst_iterator@?$_Tree@V?$_Tmap_traits@HPAVFontResource@Pegas@@U?$less@H@std@@V?$allocator@U?$pair@$$CBHPAVFontResource@Pegas@@@std@@@4@$0A@@std@@@std@@QAE?AV012@H@Z 004329c0 f i asteroids.obj
 0001:00031aa0       ??8const_iterator@?$_Tree@V?$_Tmap_traits@HPAVFontResource@Pegas@@U?$less@H@std@@V?$allocator@U?$pair@$$CBHPAVFontResource@Pegas@@@std@@@4@$0A@@std@@@std@@QBE_NABV012@@Z 00432aa0 f i asteroids.obj
 0001:00031b60       ??9const_iterator@?$_Tree@V?$_Tmap_traits@HPAVFontResource@Pegas@@U?$less@H@std@@V?$allocator@U?$pair@$$CBHPAVFontResource@Pegas@@@std@@@4@$0A@@std@@@std@@QBE_NABV012@@Z 00432b60 f i asteroids.obj
 0001:00031bb0       ??0iterator@?$_Tree@V?$_Tmap_traits@HPAVSoundResource@Pegas@@U?$less@H@std@@V?$allocator@U?$pair@$$CBHPAVSoundResource@Pegas@@@std@@@4@$0A@@std@@@std@@QAE@PAU_Node@?$_Tree_nod@V?$_Tmap_traits@HPAVSoundResource@Pegas@@U?$less@H@std@@V?$allocator@U?$pair@$$CBHPAVSoundResource@Pegas@@@std@@@4@$0A@@std@@@2@PBV12@@Z 00432bb0 f i asteroids.obj
 0001:00031c00       ??Econst_iterator@?$_Tree@V?$_Tmap_traits@HPAVSoundResource@Pegas@@U?$less@H@std@@V?$allocator@U?$pair@$$CBHPAVSoundResource@Pegas@@@std@@@4@$0A@@std@@@std@@QAE?AV012@H@Z 00432c00 f i asteroids.obj
 0001:00031ce0       ??8const_iterator@?$_Tree@V?$_Tmap_traits@HPAVSoundResource@Pegas@@U?$less@H@std@@V?$allocator@U?$pair@$$CBHPAVSoundResource@Pegas@@@std@@@4@$0A@@std@@@std@@QBE_NABV012@@Z 00432ce0 f i asteroids.obj
 0001:00031da0       ??9const_iterator@?$_Tree@V?$_Tmap_traits@HPAVSoundResource@Pegas@@U?$less@H@std@@V?$allocator@U?$pair@$$CBHPAVSoundResource@Pegas@@@std@@@4@$0A@@std@@@std@@QBE_NABV012@@Z 00432da0 f i asteroids.obj
 0001:00031df0       ??0iterator@?$_Tree@V?$_Tmap_traits@HPAVStringResource@Pegas@@U?$less@H@std@@V?$allocator@U?$pair@$$CBHPAVStringResource@Pegas@@@std@@@4@$0A@@std@@@std@@QAE@ABV012@@Z 00432df0 f i asteroids.obj
 0001:00031e40       ??0iterator@?$_Tree@V?$_Tmap_traits@HPAVTextureResource@Pegas@@U?$less@H@std@@V?$allocator@U?$pair@$$CBHPAVTextureResource@Pegas@@@std@@@4@$0A@@std@@@std@@QAE@ABV012@@Z 00432e40 f i asteroids.obj
 0001:00031e90       ??0iterator@?$_Tree@V?$_Tmap_traits@HPAVFontResource@Pegas@@U?$less@H@std@@V?$allocator@U?$pair@$$CBHPAVFontResource@Pegas@@@std@@@4@$0A@@std@@@std@@QAE@ABV012@@Z 00432e90 f i asteroids.obj
 0001:00031ee0       ??0iterator@?$_Tree@V?$_Tmap_traits@HPAVSoundResource@Pegas@@U?$less@H@std@@V?$allocator@U?$pair@$$CBHPAVSoundResource@Pegas@@@std@@@4@$0A@@std@@@std@@QAE@ABV012@@Z 00432ee0 f i asteroids.obj
 0001:00031f30       ??0?$_Bidit@U?$pair@$$CBV?$basic_string@DU?$char_traits@D@std@@V?$allocator@D@2@@std@@V?$ptr@V?$set@PAVIEventListener@Pegas@@U?$less@PAVIEventListener@Pegas@@@std@@V?$allocator@PAVIEventListener@Pegas@@@4@@std@@@Pegas@@@std@@HPBU12@ABU12@@std@@QAE@XZ 00432f30 f i asteroids.obj
 0001:00031f80       ??0?$_Bidit@PAVIKeyboardController@Pegas@@HPBQAV12@ABQAV12@@std@@QAE@XZ 00432f80 f i asteroids.obj
 0001:00031fd0       ??0?$_Bidit@PAVIMouseController@Pegas@@HPBQAV12@ABQAV12@@std@@QAE@XZ 00432fd0 f i asteroids.obj
 0001:00032020       ??0?$_Bidit@U?$pair@$$CBHV?$ptr@VIGameState@Pegas@@@Pegas@@@std@@HPBU12@ABU12@@std@@QAE@XZ 00433020 f i asteroids.obj
 0001:00032070       ??0?$_Iterator_with_base@Ubidirectional_iterator_tag@std@@U?$pair@$$CBV?$basic_string@DU?$char_traits@D@std@@V?$allocator@D@2@@std@@V?$ptr@V?$set@PAVIEventListener@Pegas@@U?$less@PAVIEventListener@Pegas@@@std@@V?$allocator@PAVIEventListener@Pegas@@@4@@std@@@Pegas@@@2@HPBU32@ABU32@V_Iterator_base@2@@std@@QAE@XZ 00433070 f i asteroids.obj
 0001:000320c0       ??0?$_Iterator_with_base@Ubidirectional_iterator_tag@std@@PAVIKeyboardController@Pegas@@HPBQAV34@ABQAV34@V_Iterator_base@2@@std@@QAE@XZ 004330c0 f i asteroids.obj
 0001:00032110       ??0?$_Iterator_with_base@Ubidirectional_iterator_tag@std@@PAVIMouseController@Pegas@@HPBQAV34@ABQAV34@V_Iterator_base@2@@std@@QAE@XZ 00433110 f i asteroids.obj
 0001:00032160       ??0?$_Iterator_with_base@Ubidirectional_iterator_tag@std@@U?$pair@$$CBHV?$ptr@VIGameState@Pegas@@@Pegas@@@2@HPBU32@ABU32@V_Iterator_base@2@@std@@QAE@XZ 00433160 f i asteroids.obj
 0001:000321b0       ?_Color@?$_Tree@V?$_Tmap_traits@HPAVStringResource@Pegas@@U?$less@H@std@@V?$allocator@U?$pair@$$CBHPAVStringResource@Pegas@@@std@@@4@$0A@@std@@@std@@KAAADPAU_Node@?$_Tree_nod@V?$_Tmap_traits@HPAVStringResource@Pegas@@U?$less@H@std@@V?$allocator@U?$pair@$$CBHPAVStringResource@Pegas@@@std@@@4@$0A@@std@@@2@@Z 004331b0 f i asteroids.obj
 0001:000321e0       ?_Erase@?$_Tree@V?$_Tmap_traits@HPAVStringResource@Pegas@@U?$less@H@std@@V?$allocator@U?$pair@$$CBHPAVStringResource@Pegas@@@std@@@4@$0A@@std@@@std@@IAEXPAU_Node@?$_Tree_nod@V?$_Tmap_traits@HPAVStringResource@Pegas@@U?$less@H@std@@V?$allocator@U?$pair@$$CBHPAVStringResource@Pegas@@@std@@@4@$0A@@std@@@2@@Z 004331e0 f i asteroids.obj
 0001:00032290       ?_Lrotate@?$_Tree@V?$_Tmap_traits@HPAVStringResource@Pegas@@U?$less@H@std@@V?$allocator@U?$pair@$$CBHPAVStringResource@Pegas@@@std@@@4@$0A@@std@@@std@@IAEXPAU_Node@?$_Tree_nod@V?$_Tmap_traits@HPAVStringResource@Pegas@@U?$less@H@std@@V?$allocator@U?$pair@$$CBHPAVStringResource@Pegas@@@std@@@4@$0A@@std@@@2@@Z 00433290 f i asteroids.obj
 0001:000323f0       ?_Max@?$_Tree@V?$_Tmap_traits@HPAVStringResource@Pegas@@U?$less@H@std@@V?$allocator@U?$pair@$$CBHPAVStringResource@Pegas@@@std@@@4@$0A@@std@@@std@@KAPAU_Node@?$_Tree_nod@V?$_Tmap_traits@HPAVStringResource@Pegas@@U?$less@H@std@@V?$allocator@U?$pair@$$CBHPAVStringResource@Pegas@@@std@@@4@$0A@@std@@@2@PAU342@@Z 004333f0 f i asteroids.obj
 0001:00032460       ?_Min@?$_Tree@V?$_Tmap_traits@HPAVStringResource@Pegas@@U?$less@H@std@@V?$allocator@U?$pair@$$CBHPAVStringResource@Pegas@@@std@@@4@$0A@@std@@@std@@KAPAU_Node@?$_Tree_nod@V?$_Tmap_traits@HPAVStringResource@Pegas@@U?$less@H@std@@V?$allocator@U?$pair@$$CBHPAVStringResource@Pegas@@@std@@@4@$0A@@std@@@2@PAU342@@Z 00433460 f i asteroids.obj
 0001:000324d0       ?_Rrotate@?$_Tree@V?$_Tmap_traits@HPAVStringResource@Pegas@@U?$less@H@std@@V?$allocator@U?$pair@$$CBHPAVStringResource@Pegas@@@std@@@4@$0A@@std@@@std@@IAEXPAU_Node@?$_Tree_nod@V?$_Tmap_traits@HPAVStringResource@Pegas@@U?$less@H@std@@V?$allocator@U?$pair@$$CBHPAVStringResource@Pegas@@@std@@@4@$0A@@std@@@2@@Z 004334d0 f i asteroids.obj
 0001:00032630       ?_Orphan_ptr@?$_Tree@V?$_Tmap_traits@HPAVStringResource@Pegas@@U?$less@H@std@@V?$allocator@U?$pair@$$CBHPAVStringResource@Pegas@@@std@@@4@$0A@@std@@@std@@IBEXAAV12@PAU_Node@?$_Tree_nod@V?$_Tmap_traits@HPAVStringResource@Pegas@@U?$less@H@std@@V?$allocator@U?$pair@$$CBHPAVStringResource@Pegas@@@std@@@4@$0A@@std@@@2@@Z 00433630 f i asteroids.obj
 0001:00032700       ?destroy@?$allocator@U_Node@?$_Tree_nod@V?$_Tmap_traits@HPAVStringResource@Pegas@@U?$less@H@std@@V?$allocator@U?$pair@$$CBHPAVStringResource@Pegas@@@std@@@4@$0A@@std@@@std@@@std@@QAEXPAU_Node@?$_Tree_nod@V?$_Tmap_traits@HPAVStringResource@Pegas@@U?$less@H@std@@V?$allocator@U?$pair@$$CBHPAVStringResource@Pegas@@@std@@@4@$0A@@std@@@2@@Z 00433700 f i asteroids.obj
 0001:00032750       ?_Color@?$_Tree@V?$_Tmap_traits@HPAVTextureResource@Pegas@@U?$less@H@std@@V?$allocator@U?$pair@$$CBHPAVTextureResource@Pegas@@@std@@@4@$0A@@std@@@std@@KAAADPAU_Node@?$_Tree_nod@V?$_Tmap_traits@HPAVTextureResource@Pegas@@U?$less@H@std@@V?$allocator@U?$pair@$$CBHPAVTextureResource@Pegas@@@std@@@4@$0A@@std@@@2@@Z 00433750 f i asteroids.obj
 0001:00032780       ?_Erase@?$_Tree@V?$_Tmap_traits@HPAVTextureResource@Pegas@@U?$less@H@std@@V?$allocator@U?$pair@$$CBHPAVTextureResource@Pegas@@@std@@@4@$0A@@std@@@std@@IAEXPAU_Node@?$_Tree_nod@V?$_Tmap_traits@HPAVTextureResource@Pegas@@U?$less@H@std@@V?$allocator@U?$pair@$$CBHPAVTextureResource@Pegas@@@std@@@4@$0A@@std@@@2@@Z 00433780 f i asteroids.obj
 0001:00032830       ?_Lrotate@?$_Tree@V?$_Tmap_traits@HPAVTextureResource@Pegas@@U?$less@H@std@@V?$allocator@U?$pair@$$CBHPAVTextureResource@Pegas@@@std@@@4@$0A@@std@@@std@@IAEXPAU_Node@?$_Tree_nod@V?$_Tmap_traits@HPAVTextureResource@Pegas@@U?$less@H@std@@V?$allocator@U?$pair@$$CBHPAVTextureResource@Pegas@@@std@@@4@$0A@@std@@@2@@Z 00433830 f i asteroids.obj
 0001:00032990       ?_Max@?$_Tree@V?$_Tmap_traits@HPAVTextureResource@Pegas@@U?$less@H@std@@V?$allocator@U?$pair@$$CBHPAVTextureResource@Pegas@@@std@@@4@$0A@@std@@@std@@KAPAU_Node@?$_Tree_nod@V?$_Tmap_traits@HPAVTextureResource@Pegas@@U?$less@H@std@@V?$allocator@U?$pair@$$CBHPAVTextureResource@Pegas@@@std@@@4@$0A@@std@@@2@PAU342@@Z 00433990 f i asteroids.obj
 0001:00032a00       ?_Min@?$_Tree@V?$_Tmap_traits@HPAVTextureResource@Pegas@@U?$less@H@std@@V?$allocator@U?$pair@$$CBHPAVTextureResource@Pegas@@@std@@@4@$0A@@std@@@std@@KAPAU_Node@?$_Tree_nod@V?$_Tmap_traits@HPAVTextureResource@Pegas@@U?$less@H@std@@V?$allocator@U?$pair@$$CBHPAVTextureResource@Pegas@@@std@@@4@$0A@@std@@@2@PAU342@@Z 00433a00 f i asteroids.obj
 0001:00032a70       ?_Rrotate@?$_Tree@V?$_Tmap_traits@HPAVTextureResource@Pegas@@U?$less@H@std@@V?$allocator@U?$pair@$$CBHPAVTextureResource@Pegas@@@std@@@4@$0A@@std@@@std@@IAEXPAU_Node@?$_Tree_nod@V?$_Tmap_traits@HPAVTextureResource@Pegas@@U?$less@H@std@@V?$allocator@U?$pair@$$CBHPAVTextureResource@Pegas@@@std@@@4@$0A@@std@@@2@@Z 00433a70 f i asteroids.obj
 0001:00032bd0       ?_Orphan_ptr@?$_Tree@V?$_Tmap_traits@HPAVTextureResource@Pegas@@U?$less@H@std@@V?$allocator@U?$pair@$$CBHPAVTextureResource@Pegas@@@std@@@4@$0A@@std@@@std@@IBEXAAV12@PAU_Node@?$_Tree_nod@V?$_Tmap_traits@HPAVTextureResource@Pegas@@U?$less@H@std@@V?$allocator@U?$pair@$$CBHPAVTextureResource@Pegas@@@std@@@4@$0A@@std@@@2@@Z 00433bd0 f i asteroids.obj
 0001:00032ca0       ?destroy@?$allocator@U_Node@?$_Tree_nod@V?$_Tmap_traits@HPAVTextureResource@Pegas@@U?$less@H@std@@V?$allocator@U?$pair@$$CBHPAVTextureResource@Pegas@@@std@@@4@$0A@@std@@@std@@@std@@QAEXPAU_Node@?$_Tree_nod@V?$_Tmap_traits@HPAVTextureResource@Pegas@@U?$less@H@std@@V?$allocator@U?$pair@$$CBHPAVTextureResource@Pegas@@@std@@@4@$0A@@std@@@2@@Z 00433ca0 f i asteroids.obj
 0001:00032cf0       ?_Color@?$_Tree@V?$_Tmap_traits@HPAVFontResource@Pegas@@U?$less@H@std@@V?$allocator@U?$pair@$$CBHPAVFontResource@Pegas@@@std@@@4@$0A@@std@@@std@@KAAADPAU_Node@?$_Tree_nod@V?$_Tmap_traits@HPAVFontResource@Pegas@@U?$less@H@std@@V?$allocator@U?$pair@$$CBHPAVFontResource@Pegas@@@std@@@4@$0A@@std@@@2@@Z 00433cf0 f i asteroids.obj
 0001:00032d20       ?_Erase@?$_Tree@V?$_Tmap_traits@HPAVFontResource@Pegas@@U?$less@H@std@@V?$allocator@U?$pair@$$CBHPAVFontResource@Pegas@@@std@@@4@$0A@@std@@@std@@IAEXPAU_Node@?$_Tree_nod@V?$_Tmap_traits@HPAVFontResource@Pegas@@U?$less@H@std@@V?$allocator@U?$pair@$$CBHPAVFontResource@Pegas@@@std@@@4@$0A@@std@@@2@@Z 00433d20 f i asteroids.obj
 0001:00032dd0       ?_Lrotate@?$_Tree@V?$_Tmap_traits@HPAVFontResource@Pegas@@U?$less@H@std@@V?$allocator@U?$pair@$$CBHPAVFontResource@Pegas@@@std@@@4@$0A@@std@@@std@@IAEXPAU_Node@?$_Tree_nod@V?$_Tmap_traits@HPAVFontResource@Pegas@@U?$less@H@std@@V?$allocator@U?$pair@$$CBHPAVFontResource@Pegas@@@std@@@4@$0A@@std@@@2@@Z 00433dd0 f i asteroids.obj
 0001:00032f30       ?_Max@?$_Tree@V?$_Tmap_traits@HPAVFontResource@Pegas@@U?$less@H@std@@V?$allocator@U?$pair@$$CBHPAVFontResource@Pegas@@@std@@@4@$0A@@std@@@std@@KAPAU_Node@?$_Tree_nod@V?$_Tmap_traits@HPAVFontResource@Pegas@@U?$less@H@std@@V?$allocator@U?$pair@$$CBHPAVFontResource@Pegas@@@std@@@4@$0A@@std@@@2@PAU342@@Z 00433f30 f i asteroids.obj
 0001:00032fa0       ?_Min@?$_Tree@V?$_Tmap_traits@HPAVFontResource@Pegas@@U?$less@H@std@@V?$allocator@U?$pair@$$CBHPAVFontResource@Pegas@@@std@@@4@$0A@@std@@@std@@KAPAU_Node@?$_Tree_nod@V?$_Tmap_traits@HPAVFontResource@Pegas@@U?$less@H@std@@V?$allocator@U?$pair@$$CBHPAVFontResource@Pegas@@@std@@@4@$0A@@std@@@2@PAU342@@Z 00433fa0 f i asteroids.obj
 0001:00033010       ?_Rrotate@?$_Tree@V?$_Tmap_traits@HPAVFontResource@Pegas@@U?$less@H@std@@V?$allocator@U?$pair@$$CBHPAVFontResource@Pegas@@@std@@@4@$0A@@std@@@std@@IAEXPAU_Node@?$_Tree_nod@V?$_Tmap_traits@HPAVFontResource@Pegas@@U?$less@H@std@@V?$allocator@U?$pair@$$CBHPAVFontResource@Pegas@@@std@@@4@$0A@@std@@@2@@Z 00434010 f i asteroids.obj
 0001:00033170       ?_Orphan_ptr@?$_Tree@V?$_Tmap_traits@HPAVFontResource@Pegas@@U?$less@H@std@@V?$allocator@U?$pair@$$CBHPAVFontResource@Pegas@@@std@@@4@$0A@@std@@@std@@IBEXAAV12@PAU_Node@?$_Tree_nod@V?$_Tmap_traits@HPAVFontResource@Pegas@@U?$less@H@std@@V?$allocator@U?$pair@$$CBHPAVFontResource@Pegas@@@std@@@4@$0A@@std@@@2@@Z 00434170 f i asteroids.obj
 0001:00033240       ?destroy@?$allocator@U_Node@?$_Tree_nod@V?$_Tmap_traits@HPAVFontResource@Pegas@@U?$less@H@std@@V?$allocator@U?$pair@$$CBHPAVFontResource@Pegas@@@std@@@4@$0A@@std@@@std@@@std@@QAEXPAU_Node@?$_Tree_nod@V?$_Tmap_traits@HPAVFontResource@Pegas@@U?$less@H@std@@V?$allocator@U?$pair@$$CBHPAVFontResource@Pegas@@@std@@@4@$0A@@std@@@2@@Z 00434240 f i asteroids.obj
 0001:00033290       ?_Color@?$_Tree@V?$_Tmap_traits@HPAVSoundResource@Pegas@@U?$less@H@std@@V?$allocator@U?$pair@$$CBHPAVSoundResource@Pegas@@@std@@@4@$0A@@std@@@std@@KAAADPAU_Node@?$_Tree_nod@V?$_Tmap_traits@HPAVSoundResource@Pegas@@U?$less@H@std@@V?$allocator@U?$pair@$$CBHPAVSoundResource@Pegas@@@std@@@4@$0A@@std@@@2@@Z 00434290 f i asteroids.obj
 0001:000332c0       ?_Erase@?$_Tree@V?$_Tmap_traits@HPAVSoundResource@Pegas@@U?$less@H@std@@V?$allocator@U?$pair@$$CBHPAVSoundResource@Pegas@@@std@@@4@$0A@@std@@@std@@IAEXPAU_Node@?$_Tree_nod@V?$_Tmap_traits@HPAVSoundResource@Pegas@@U?$less@H@std@@V?$allocator@U?$pair@$$CBHPAVSoundResource@Pegas@@@std@@@4@$0A@@std@@@2@@Z 004342c0 f i asteroids.obj
 0001:00033370       ?_Lrotate@?$_Tree@V?$_Tmap_traits@HPAVSoundResource@Pegas@@U?$less@H@std@@V?$allocator@U?$pair@$$CBHPAVSoundResource@Pegas@@@std@@@4@$0A@@std@@@std@@IAEXPAU_Node@?$_Tree_nod@V?$_Tmap_traits@HPAVSoundResource@Pegas@@U?$less@H@std@@V?$allocator@U?$pair@$$CBHPAVSoundResource@Pegas@@@std@@@4@$0A@@std@@@2@@Z 00434370 f i asteroids.obj
 0001:000334d0       ?_Max@?$_Tree@V?$_Tmap_traits@HPAVSoundResource@Pegas@@U?$less@H@std@@V?$allocator@U?$pair@$$CBHPAVSoundResource@Pegas@@@std@@@4@$0A@@std@@@std@@KAPAU_Node@?$_Tree_nod@V?$_Tmap_traits@HPAVSoundResource@Pegas@@U?$less@H@std@@V?$allocator@U?$pair@$$CBHPAVSoundResource@Pegas@@@std@@@4@$0A@@std@@@2@PAU342@@Z 004344d0 f i asteroids.obj
 0001:00033540       ?_Min@?$_Tree@V?$_Tmap_traits@HPAVSoundResource@Pegas@@U?$less@H@std@@V?$allocator@U?$pair@$$CBHPAVSoundResource@Pegas@@@std@@@4@$0A@@std@@@std@@KAPAU_Node@?$_Tree_nod@V?$_Tmap_traits@HPAVSoundResource@Pegas@@U?$less@H@std@@V?$allocator@U?$pair@$$CBHPAVSoundResource@Pegas@@@std@@@4@$0A@@std@@@2@PAU342@@Z 00434540 f i asteroids.obj
 0001:000335b0       ?_Rrotate@?$_Tree@V?$_Tmap_traits@HPAVSoundResource@Pegas@@U?$less@H@std@@V?$allocator@U?$pair@$$CBHPAVSoundResource@Pegas@@@std@@@4@$0A@@std@@@std@@IAEXPAU_Node@?$_Tree_nod@V?$_Tmap_traits@HPAVSoundResource@Pegas@@U?$less@H@std@@V?$allocator@U?$pair@$$CBHPAVSoundResource@Pegas@@@std@@@4@$0A@@std@@@2@@Z 004345b0 f i asteroids.obj
 0001:00033710       ?_Orphan_ptr@?$_Tree@V?$_Tmap_traits@HPAVSoundResource@Pegas@@U?$less@H@std@@V?$allocator@U?$pair@$$CBHPAVSoundResource@Pegas@@@std@@@4@$0A@@std@@@std@@IBEXAAV12@PAU_Node@?$_Tree_nod@V?$_Tmap_traits@HPAVSoundResource@Pegas@@U?$less@H@std@@V?$allocator@U?$pair@$$CBHPAVSoundResource@Pegas@@@std@@@4@$0A@@std@@@2@@Z 00434710 f i asteroids.obj
 0001:000337e0       ?destroy@?$allocator@U_Node@?$_Tree_nod@V?$_Tmap_traits@HPAVSoundResource@Pegas@@U?$less@H@std@@V?$allocator@U?$pair@$$CBHPAVSoundResource@Pegas@@@std@@@4@$0A@@std@@@std@@@std@@QAEXPAU_Node@?$_Tree_nod@V?$_Tmap_traits@HPAVSoundResource@Pegas@@U?$less@H@std@@V?$allocator@U?$pair@$$CBHPAVSoundResource@Pegas@@@std@@@4@$0A@@std@@@2@@Z 004347e0 f i asteroids.obj
 0001:00033830       ?_Inc@const_iterator@?$_Tree@V?$_Tmap_traits@V?$basic_string@DU?$char_traits@D@std@@V?$allocator@D@2@@std@@V?$ptr@V?$set@PAVIEventListener@Pegas@@U?$less@PAVIEventListener@Pegas@@@std@@V?$allocator@PAVIEventListener@Pegas@@@4@@std@@@Pegas@@U?$less@V?$basic_string@DU?$char_traits@D@std@@V?$allocator@D@2@@std@@@2@V?$allocator@U?$pair@$$CBV?$basic_string@DU?$char_traits@D@std@@V?$allocator@D@2@@std@@V?$ptr@V?$set@PAVIEventListener@Pegas@@U?$less@PAVIEventListener@Pegas@@@std@@V?$allocator@PAVIEventListener@Pegas@@@4@@std@@@Pegas@@@std@@@2@$0A@@std@@@std@@QAEXXZ 00434830 f i asteroids.obj
 0001:00033990       ?_Inc@const_iterator@?$_Tree@V?$_Tset_traits@PAVIKeyboardController@Pegas@@U?$less@PAVIKeyboardController@Pegas@@@std@@V?$allocator@PAVIKeyboardController@Pegas@@@4@$0A@@std@@@std@@QAEXXZ 00434990 f i asteroids.obj
 0001:00033af0       ?_Inc@const_iterator@?$_Tree@V?$_Tset_traits@PAVIMouseController@Pegas@@U?$less@PAVIMouseController@Pegas@@@std@@V?$allocator@PAVIMouseController@Pegas@@@4@$0A@@std@@@std@@QAEXXZ 00434af0 f i asteroids.obj
 0001:00033c50       ?_Inc@const_iterator@?$_Tree@V?$_Tmap_traits@HV?$ptr@VIGameState@Pegas@@@Pegas@@U?$less@H@std@@V?$allocator@U?$pair@$$CBHV?$ptr@VIGameState@Pegas@@@Pegas@@@std@@@4@$0A@@std@@@std@@QAEXXZ 00434c50 f i asteroids.obj
 0001:00033db0       ??0const_iterator@?$_Tree@V?$_Tmap_traits@HPAVStringResource@Pegas@@U?$less@H@std@@V?$allocator@U?$pair@$$CBHPAVStringResource@Pegas@@@std@@@4@$0A@@std@@@std@@QAE@PAU_Node@?$_Tree_nod@V?$_Tmap_traits@HPAVStringResource@Pegas@@U?$less@H@std@@V?$allocator@U?$pair@$$CBHPAVStringResource@Pegas@@@std@@@4@$0A@@std@@@2@PBV12@@Z 00434db0 f i asteroids.obj
 0001:00033e50       ??Econst_iterator@?$_Tree@V?$_Tmap_traits@HPAVStringResource@Pegas@@U?$less@H@std@@V?$allocator@U?$pair@$$CBHPAVStringResource@Pegas@@@std@@@4@$0A@@std@@@std@@QAEAAV012@XZ 00434e50 f i asteroids.obj
 0001:00033ea0       ?_Mynode@const_iterator@?$_Tree@V?$_Tmap_traits@HPAVStringResource@Pegas@@U?$less@H@std@@V?$allocator@U?$pair@$$CBHPAVStringResource@Pegas@@@std@@@4@$0A@@std@@@std@@QBEPAU_Node@?$_Tree_nod@V?$_Tmap_traits@HPAVStringResource@Pegas@@U?$less@H@std@@V?$allocator@U?$pair@$$CBHPAVStringResource@Pegas@@@std@@@4@$0A@@std@@@3@XZ 00434ea0 f i asteroids.obj
 0001:00033ed0       ??0const_iterator@?$_Tree@V?$_Tmap_traits@HPAVTextureResource@Pegas@@U?$less@H@std@@V?$allocator@U?$pair@$$CBHPAVTextureResource@Pegas@@@std@@@4@$0A@@std@@@std@@QAE@PAU_Node@?$_Tree_nod@V?$_Tmap_traits@HPAVTextureResource@Pegas@@U?$less@H@std@@V?$allocator@U?$pair@$$CBHPAVTextureResource@Pegas@@@std@@@4@$0A@@std@@@2@PBV12@@Z 00434ed0 f i asteroids.obj
 0001:00033f70       ??Econst_iterator@?$_Tree@V?$_Tmap_traits@HPAVTextureResource@Pegas@@U?$less@H@std@@V?$allocator@U?$pair@$$CBHPAVTextureResource@Pegas@@@std@@@4@$0A@@std@@@std@@QAEAAV012@XZ 00434f70 f i asteroids.obj
 0001:00033fc0       ?_Mynode@const_iterator@?$_Tree@V?$_Tmap_traits@HPAVTextureResource@Pegas@@U?$less@H@std@@V?$allocator@U?$pair@$$CBHPAVTextureResource@Pegas@@@std@@@4@$0A@@std@@@std@@QBEPAU_Node@?$_Tree_nod@V?$_Tmap_traits@HPAVTextureResource@Pegas@@U?$less@H@std@@V?$allocator@U?$pair@$$CBHPAVTextureResource@Pegas@@@std@@@4@$0A@@std@@@3@XZ 00434fc0 f i asteroids.obj
 0001:00033ff0       ??0const_iterator@?$_Tree@V?$_Tmap_traits@HPAVFontResource@Pegas@@U?$less@H@std@@V?$allocator@U?$pair@$$CBHPAVFontResource@Pegas@@@std@@@4@$0A@@std@@@std@@QAE@PAU_Node@?$_Tree_nod@V?$_Tmap_traits@HPAVFontResource@Pegas@@U?$less@H@std@@V?$allocator@U?$pair@$$CBHPAVFontResource@Pegas@@@std@@@4@$0A@@std@@@2@PBV12@@Z 00434ff0 f i asteroids.obj
 0001:00034090       ??Econst_iterator@?$_Tree@V?$_Tmap_traits@HPAVFontResource@Pegas@@U?$less@H@std@@V?$allocator@U?$pair@$$CBHPAVFontResource@Pegas@@@std@@@4@$0A@@std@@@std@@QAEAAV012@XZ 00435090 f i asteroids.obj
 0001:000340e0       ?_Mynode@const_iterator@?$_Tree@V?$_Tmap_traits@HPAVFontResource@Pegas@@U?$less@H@std@@V?$allocator@U?$pair@$$CBHPAVFontResource@Pegas@@@std@@@4@$0A@@std@@@std@@QBEPAU_Node@?$_Tree_nod@V?$_Tmap_traits@HPAVFontResource@Pegas@@U?$less@H@std@@V?$allocator@U?$pair@$$CBHPAVFontResource@Pegas@@@std@@@4@$0A@@std@@@3@XZ 004350e0 f i asteroids.obj
 0001:00034110       ??0const_iterator@?$_Tree@V?$_Tmap_traits@HPAVSoundResource@Pegas@@U?$less@H@std@@V?$allocator@U?$pair@$$CBHPAVSoundResource@Pegas@@@std@@@4@$0A@@std@@@std@@QAE@PAU_Node@?$_Tree_nod@V?$_Tmap_traits@HPAVSoundResource@Pegas@@U?$less@H@std@@V?$allocator@U?$pair@$$CBHPAVSoundResource@Pegas@@@std@@@4@$0A@@std@@@2@PBV12@@Z 00435110 f i asteroids.obj
 0001:000341b0       ??Econst_iterator@?$_Tree@V?$_Tmap_traits@HPAVSoundResource@Pegas@@U?$less@H@std@@V?$allocator@U?$pair@$$CBHPAVSoundResource@Pegas@@@std@@@4@$0A@@std@@@std@@QAEAAV012@XZ 004351b0 f i asteroids.obj
 0001:00034200       ?_Mynode@const_iterator@?$_Tree@V?$_Tmap_traits@HPAVSoundResource@Pegas@@U?$less@H@std@@V?$allocator@U?$pair@$$CBHPAVSoundResource@Pegas@@@std@@@4@$0A@@std@@@std@@QBEPAU_Node@?$_Tree_nod@V?$_Tmap_traits@HPAVSoundResource@Pegas@@U?$less@H@std@@V?$allocator@U?$pair@$$CBHPAVSoundResource@Pegas@@@std@@@4@$0A@@std@@@3@XZ 00435200 f i asteroids.obj
 0001:00034230       ??0?$_Bidit@U?$pair@$$CBHPAVStringResource@Pegas@@@std@@HPBU12@ABU12@@std@@QAE@XZ 00435230 f i asteroids.obj
 0001:00034280       ??0?$_Bidit@U?$pair@$$CBHPAVTextureResource@Pegas@@@std@@HPBU12@ABU12@@std@@QAE@XZ 00435280 f i asteroids.obj
 0001:000342d0       ??0?$_Bidit@U?$pair@$$CBHPAVFontResource@Pegas@@@std@@HPBU12@ABU12@@std@@QAE@XZ 004352d0 f i asteroids.obj
 0001:00034320       ??0?$_Bidit@U?$pair@$$CBHPAVSoundResource@Pegas@@@std@@HPBU12@ABU12@@std@@QAE@XZ 00435320 f i asteroids.obj
 0001:00034370       ??0?$_Iterator_with_base@Ubidirectional_iterator_tag@std@@U?$pair@$$CBHPAVStringResource@Pegas@@@2@HPBU32@ABU32@V_Iterator_base@2@@std@@QAE@XZ 00435370 f i asteroids.obj
 0001:000343c0       ??0?$_Iterator_with_base@Ubidirectional_iterator_tag@std@@U?$pair@$$CBHPAVTextureResource@Pegas@@@2@HPBU32@ABU32@V_Iterator_base@2@@std@@QAE@XZ 004353c0 f i asteroids.obj
 0001:00034410       ??0?$_Iterator_with_base@Ubidirectional_iterator_tag@std@@U?$pair@$$CBHPAVFontResource@Pegas@@@2@HPBU32@ABU32@V_Iterator_base@2@@std@@QAE@XZ 00435410 f i asteroids.obj
 0001:00034460       ??0?$_Iterator_with_base@Ubidirectional_iterator_tag@std@@U?$pair@$$CBHPAVSoundResource@Pegas@@@2@HPBU32@ABU32@V_Iterator_base@2@@std@@QAE@XZ 00435460 f i asteroids.obj
 0001:000344b0       ?_Inc@const_iterator@?$_Tree@V?$_Tmap_traits@HPAVStringResource@Pegas@@U?$less@H@std@@V?$allocator@U?$pair@$$CBHPAVStringResource@Pegas@@@std@@@4@$0A@@std@@@std@@QAEXXZ 004354b0 f i asteroids.obj
 0001:00034610       ?_Inc@const_iterator@?$_Tree@V?$_Tmap_traits@HPAVTextureResource@Pegas@@U?$less@H@std@@V?$allocator@U?$pair@$$CBHPAVTextureResource@Pegas@@@std@@@4@$0A@@std@@@std@@QAEXXZ 00435610 f i asteroids.obj
 0001:00034770       ?_Inc@const_iterator@?$_Tree@V?$_Tmap_traits@HPAVFontResource@Pegas@@U?$less@H@std@@V?$allocator@U?$pair@$$CBHPAVFontResource@Pegas@@@std@@@4@$0A@@std@@@std@@QAEXXZ 00435770 f i asteroids.obj
 0001:000348d0       ?_Inc@const_iterator@?$_Tree@V?$_Tmap_traits@HPAVSoundResource@Pegas@@U?$less@H@std@@V?$allocator@U?$pair@$$CBHPAVSoundResource@Pegas@@@std@@@4@$0A@@std@@@std@@QAEXXZ 004358d0 f i asteroids.obj
 0001:00034a30       ?destroyAll@?$ResourceManager@VStringResource@Pegas@@UIntResourceCode@2@@Pegas@@QAEXXZ 00435a30 f i asteroids.obj
 0001:00034b80       ?destroyAll@?$ResourceManager@VTextureResource@Pegas@@UIntResourceCode@2@@Pegas@@QAEXXZ 00435b80 f i asteroids.obj
 0001:00034cd0       ?destroyAll@?$ResourceManager@VFontResource@Pegas@@UFontResourceCode@2@@Pegas@@QAEXXZ 00435cd0 f i asteroids.obj
 0001:00034e20       ?destroyAll@?$ResourceManager@VSoundResource@Pegas@@UIntResourceCode@2@@Pegas@@QAEXXZ 00435e20 f i asteroids.obj
 0001:00034f70       ??$_Destroy@PAU_Node@?$_List_nod@PAVIDrawable@Pegas@@V?$allocator@PAVIDrawable@Pegas@@@std@@@std@@@std@@YAXPAPAU_Node@?$_List_nod@PAVIDrawable@Pegas@@V?$allocator@PAVIDrawable@Pegas@@@std@@@0@@Z 00435f70 f i asteroids.obj
 0001:00034fa0       ??$_Destroy@PAV?$ptr@UEvent@Pegas@@@Pegas@@@std@@YAXPAPAV?$ptr@UEvent@Pegas@@@Pegas@@@Z 00435fa0 f i asteroids.obj
 0001:00034fd0       ??$_Destroy@PAU_Node@?$_Tree_nod@V?$_Tmap_traits@V?$basic_string@DU?$char_traits@D@std@@V?$allocator@D@2@@std@@V?$ptr@V?$set@PAVIEventListener@Pegas@@U?$less@PAVIEventListener@Pegas@@@std@@V?$allocator@PAVIEventListener@Pegas@@@4@@std@@@Pegas@@U?$less@V?$basic_string@DU?$char_traits@D@std@@V?$allocator@D@2@@std@@@2@V?$allocator@U?$pair@$$CBV?$basic_string@DU?$char_traits@D@std@@V?$allocator@D@2@@std@@V?$ptr@V?$set@PAVIEventListener@Pegas@@U?$less@PAVIEventListener@Pegas@@@std@@V?$allocator@PAVIEventListener@Pegas@@@4@@std@@@Pegas@@@std@@@2@$0A@@std@@@std@@@std@@YAXPAPAU_Node@?$_Tree_nod@V?$_Tmap_traits@V?$basic_string@DU?$char_traits@D@std@@V?$allocator@D@2@@std@@V?$ptr@V?$set@PAVIEventListener@Pegas@@U?$less@PAVIEventListener@Pegas@@@std@@V?$allocator@PAVIEventListener@Pegas@@@4@@std@@@Pegas@@U?$less@V?$basic_string@DU?$char_traits@D@std@@V?$allocator@D@2@@std@@@2@V?$allocator@U?$pair@$$CBV?$basic_string@DU?$char_traits@D@std@@V?$allocator@D@2@@std@@V?$ptr@V?$set@PAVIEventListener@Pegas@@U?$less@PAVIEventListener@Pegas@@@std@@V?$allocator@PAVIEventListener@Pegas@@@4@@std@@@Pegas@@@std@@@2@$0A@@std@@@0@@Z 00435fd0 f i asteroids.obj
 0001:00035000       ??$_Destroy@PAU_Node@?$_Tree_nod@V?$_Tset_traits@PAVIKeyboardController@Pegas@@U?$less@PAVIKeyboardController@Pegas@@@std@@V?$allocator@PAVIKeyboardController@Pegas@@@4@$0A@@std@@@std@@@std@@YAXPAPAU_Node@?$_Tree_nod@V?$_Tset_traits@PAVIKeyboardController@Pegas@@U?$less@PAVIKeyboardController@Pegas@@@std@@V?$allocator@PAVIKeyboardController@Pegas@@@4@$0A@@std@@@0@@Z 00436000 f i asteroids.obj
 0001:00035030       ??$_Destroy@PAU_Node@?$_Tree_nod@V?$_Tset_traits@PAVIMouseController@Pegas@@U?$less@PAVIMouseController@Pegas@@@std@@V?$allocator@PAVIMouseController@Pegas@@@4@$0A@@std@@@std@@@std@@YAXPAPAU_Node@?$_Tree_nod@V?$_Tset_traits@PAVIMouseController@Pegas@@U?$less@PAVIMouseController@Pegas@@@std@@V?$allocator@PAVIMouseController@Pegas@@@4@$0A@@std@@@0@@Z 00436030 f i asteroids.obj
 0001:00035060       ??$_Destroy@PAU_Node@?$_Tree_nod@V?$_Tmap_traits@HV?$ptr@VIGameState@Pegas@@@Pegas@@U?$less@H@std@@V?$allocator@U?$pair@$$CBHV?$ptr@VIGameState@Pegas@@@Pegas@@@std@@@4@$0A@@std@@@std@@@std@@YAXPAPAU_Node@?$_Tree_nod@V?$_Tmap_traits@HV?$ptr@VIGameState@Pegas@@@Pegas@@U?$less@H@std@@V?$allocator@U?$pair@$$CBHV?$ptr@VIGameState@Pegas@@@Pegas@@@std@@@4@$0A@@std@@@0@@Z 00436060 f i asteroids.obj
 0001:00035090       ??$_Destroy@PAV?$ptr@VIGameState@Pegas@@@Pegas@@@std@@YAXPAPAV?$ptr@VIGameState@Pegas@@@Pegas@@@Z 00436090 f i asteroids.obj
 0001:000350c0       ??$_Destroy@PAU_Node@?$_List_nod@V?$ptr@VFile@Pegas@@@Pegas@@V?$allocator@V?$ptr@VFile@Pegas@@@Pegas@@@std@@@std@@@std@@YAXPAPAU_Node@?$_List_nod@V?$ptr@VFile@Pegas@@@Pegas@@V?$allocator@V?$ptr@VFile@Pegas@@@Pegas@@@std@@@0@@Z 004360c0 f i asteroids.obj
 0001:000350f0       ??$_Destroy@U_Node@?$_List_nod@PAVIDrawable@Pegas@@V?$allocator@PAVIDrawable@Pegas@@@std@@@std@@@std@@YAXPAU_Node@?$_List_nod@PAVIDrawable@Pegas@@V?$allocator@PAVIDrawable@Pegas@@@std@@@0@@Z 004360f0 f i asteroids.obj
 0001:00035120       ??$_Destroy@V?$ptr@UEvent@Pegas@@@Pegas@@@std@@YAXPAV?$ptr@UEvent@Pegas@@@Pegas@@@Z 00436120 f i asteroids.obj
 0001:00035160       ??$_Destroy@V?$ptr@VIGameState@Pegas@@@Pegas@@@std@@YAXPAV?$ptr@VIGameState@Pegas@@@Pegas@@@Z 00436160 f i asteroids.obj
 0001:000351a0       ??$_Destroy@U_Node@?$_List_nod@V?$ptr@VFile@Pegas@@@Pegas@@V?$allocator@V?$ptr@VFile@Pegas@@@Pegas@@@std@@@std@@@std@@YAXPAU_Node@?$_List_nod@V?$ptr@VFile@Pegas@@@Pegas@@V?$allocator@V?$ptr@VFile@Pegas@@@Pegas@@@std@@@0@@Z 004361a0 f i asteroids.obj
 0001:000351e0       ??$_Destroy@PAU_Node@?$_Tree_nod@V?$_Tmap_traits@HPAVStringResource@Pegas@@U?$less@H@std@@V?$allocator@U?$pair@$$CBHPAVStringResource@Pegas@@@std@@@4@$0A@@std@@@std@@@std@@YAXPAPAU_Node@?$_Tree_nod@V?$_Tmap_traits@HPAVStringResource@Pegas@@U?$less@H@std@@V?$allocator@U?$pair@$$CBHPAVStringResource@Pegas@@@std@@@4@$0A@@std@@@0@@Z 004361e0 f i asteroids.obj
 0001:00035210       ??$_Destroy@PAU_Node@?$_Tree_nod@V?$_Tmap_traits@HPAVTextureResource@Pegas@@U?$less@H@std@@V?$allocator@U?$pair@$$CBHPAVTextureResource@Pegas@@@std@@@4@$0A@@std@@@std@@@std@@YAXPAPAU_Node@?$_Tree_nod@V?$_Tmap_traits@HPAVTextureResource@Pegas@@U?$less@H@std@@V?$allocator@U?$pair@$$CBHPAVTextureResource@Pegas@@@std@@@4@$0A@@std@@@0@@Z 00436210 f i asteroids.obj
 0001:00035240       ??$_Destroy@PAU_Node@?$_Tree_nod@V?$_Tmap_traits@HPAVFontResource@Pegas@@U?$less@H@std@@V?$allocator@U?$pair@$$CBHPAVFontResource@Pegas@@@std@@@4@$0A@@std@@@std@@@std@@YAXPAPAU_Node@?$_Tree_nod@V?$_Tmap_traits@HPAVFontResource@Pegas@@U?$less@H@std@@V?$allocator@U?$pair@$$CBHPAVFontResource@Pegas@@@std@@@4@$0A@@std@@@0@@Z 00436240 f i asteroids.obj
 0001:00035270       ??$_Destroy@PAU_Node@?$_Tree_nod@V?$_Tmap_traits@HPAVSoundResource@Pegas@@U?$less@H@std@@V?$allocator@U?$pair@$$CBHPAVSoundResource@Pegas@@@std@@@4@$0A@@std@@@std@@@std@@YAXPAPAU_Node@?$_Tree_nod@V?$_Tmap_traits@HPAVSoundResource@Pegas@@U?$less@H@std@@V?$allocator@U?$pair@$$CBHPAVSoundResource@Pegas@@@std@@@4@$0A@@std@@@0@@Z 00436270 f i asteroids.obj
 0001:000352a0       ??$_Destroy@U_Node@?$_Tree_nod@V?$_Tmap_traits@V?$basic_string@DU?$char_traits@D@std@@V?$allocator@D@2@@std@@V?$ptr@V?$set@PAVIEventListener@Pegas@@U?$less@PAVIEventListener@Pegas@@@std@@V?$allocator@PAVIEventListener@Pegas@@@4@@std@@@Pegas@@U?$less@V?$basic_string@DU?$char_traits@D@std@@V?$allocator@D@2@@std@@@2@V?$allocator@U?$pair@$$CBV?$basic_string@DU?$char_traits@D@std@@V?$allocator@D@2@@std@@V?$ptr@V?$set@PAVIEventListener@Pegas@@U?$less@PAVIEventListener@Pegas@@@std@@V?$allocator@PAVIEventListener@Pegas@@@4@@std@@@Pegas@@@std@@@2@$0A@@std@@@std@@@std@@YAXPAU_Node@?$_Tree_nod@V?$_Tmap_traits@V?$basic_string@DU?$char_traits@D@std@@V?$allocator@D@2@@std@@V?$ptr@V?$set@PAVIEventListener@Pegas@@U?$less@PAVIEventListener@Pegas@@@std@@V?$allocator@PAVIEventListener@Pegas@@@4@@std@@@Pegas@@U?$less@V?$basic_string@DU?$char_traits@D@std@@V?$allocator@D@2@@std@@@2@V?$allocator@U?$pair@$$CBV?$basic_string@DU?$char_traits@D@std@@V?$allocator@D@2@@std@@V?$ptr@V?$set@PAVIEventListener@Pegas@@U?$less@PAVIEventListener@Pegas@@@std@@V?$allocator@PAVIEventListener@Pegas@@@4@@std@@@Pegas@@@std@@@2@$0A@@std@@@0@@Z 004362a0 f i asteroids.obj
 0001:000352e0       ??$_Destroy@U_Node@?$_Tree_nod@V?$_Tset_traits@PAVIKeyboardController@Pegas@@U?$less@PAVIKeyboardController@Pegas@@@std@@V?$allocator@PAVIKeyboardController@Pegas@@@4@$0A@@std@@@std@@@std@@YAXPAU_Node@?$_Tree_nod@V?$_Tset_traits@PAVIKeyboardController@Pegas@@U?$less@PAVIKeyboardController@Pegas@@@std@@V?$allocator@PAVIKeyboardController@Pegas@@@4@$0A@@std@@@0@@Z 004362e0 f i asteroids.obj
 0001:00035310       ??$_Destroy@U_Node@?$_Tree_nod@V?$_Tset_traits@PAVIMouseController@Pegas@@U?$less@PAVIMouseController@Pegas@@@std@@V?$allocator@PAVIMouseController@Pegas@@@4@$0A@@std@@@std@@@std@@YAXPAU_Node@?$_Tree_nod@V?$_Tset_traits@PAVIMouseController@Pegas@@U?$less@PAVIMouseController@Pegas@@@std@@V?$allocator@PAVIMouseController@Pegas@@@4@$0A@@std@@@0@@Z 00436310 f i asteroids.obj
 0001:00035340       ??$_Destroy@U_Node@?$_Tree_nod@V?$_Tmap_traits@HV?$ptr@VIGameState@Pegas@@@Pegas@@U?$less@H@std@@V?$allocator@U?$pair@$$CBHV?$ptr@VIGameState@Pegas@@@Pegas@@@std@@@4@$0A@@std@@@std@@@std@@YAXPAU_Node@?$_Tree_nod@V?$_Tmap_traits@HV?$ptr@VIGameState@Pegas@@@Pegas@@U?$less@H@std@@V?$allocator@U?$pair@$$CBHV?$ptr@VIGameState@Pegas@@@Pegas@@@std@@@4@$0A@@std@@@0@@Z 00436340 f i asteroids.obj
 0001:00035380       ??$_Destroy@U_Node@?$_Tree_nod@V?$_Tmap_traits@HPAVStringResource@Pegas@@U?$less@H@std@@V?$allocator@U?$pair@$$CBHPAVStringResource@Pegas@@@std@@@4@$0A@@std@@@std@@@std@@YAXPAU_Node@?$_Tree_nod@V?$_Tmap_traits@HPAVStringResource@Pegas@@U?$less@H@std@@V?$allocator@U?$pair@$$CBHPAVStringResource@Pegas@@@std@@@4@$0A@@std@@@0@@Z 00436380 f i asteroids.obj
 0001:000353b0       ??$_Destroy@U_Node@?$_Tree_nod@V?$_Tmap_traits@HPAVTextureResource@Pegas@@U?$less@H@std@@V?$allocator@U?$pair@$$CBHPAVTextureResource@Pegas@@@std@@@4@$0A@@std@@@std@@@std@@YAXPAU_Node@?$_Tree_nod@V?$_Tmap_traits@HPAVTextureResource@Pegas@@U?$less@H@std@@V?$allocator@U?$pair@$$CBHPAVTextureResource@Pegas@@@std@@@4@$0A@@std@@@0@@Z 004363b0 f i asteroids.obj
 0001:000353e0       ??$_Destroy@U_Node@?$_Tree_nod@V?$_Tmap_traits@HPAVFontResource@Pegas@@U?$less@H@std@@V?$allocator@U?$pair@$$CBHPAVFontResource@Pegas@@@std@@@4@$0A@@std@@@std@@@std@@YAXPAU_Node@?$_Tree_nod@V?$_Tmap_traits@HPAVFontResource@Pegas@@U?$less@H@std@@V?$allocator@U?$pair@$$CBHPAVFontResource@Pegas@@@std@@@4@$0A@@std@@@0@@Z 004363e0 f i asteroids.obj
 0001:00035410       ??$_Destroy@U_Node@?$_Tree_nod@V?$_Tmap_traits@HPAVSoundResource@Pegas@@U?$less@H@std@@V?$allocator@U?$pair@$$CBHPAVSoundResource@Pegas@@@std@@@4@$0A@@std@@@std@@@std@@YAXPAU_Node@?$_Tree_nod@V?$_Tmap_traits@HPAVSoundResource@Pegas@@U?$less@H@std@@V?$allocator@U?$pair@$$CBHPAVSoundResource@Pegas@@@std@@@4@$0A@@std@@@0@@Z 00436410 f i asteroids.obj
 0001:00035440       ??_G?$ptr@UEvent@Pegas@@@Pegas@@QAEPAXI@Z 00436440 f i asteroids.obj
 0001:000354a0       ??_G?$ptr@VIGameState@Pegas@@@Pegas@@QAEPAXI@Z 004364a0 f i asteroids.obj
 0001:00035500       ??_G_Node@?$_List_nod@V?$ptr@VFile@Pegas@@@Pegas@@V?$allocator@V?$ptr@VFile@Pegas@@@Pegas@@@std@@@std@@QAEPAXI@Z 00436500 f i asteroids.obj
 0001:00035560       ??_G_Node@?$_Tree_nod@V?$_Tmap_traits@V?$basic_string@DU?$char_traits@D@std@@V?$allocator@D@2@@std@@V?$ptr@V?$set@PAVIEventListener@Pegas@@U?$less@PAVIEventListener@Pegas@@@std@@V?$allocator@PAVIEventListener@Pegas@@@4@@std@@@Pegas@@U?$less@V?$basic_string@DU?$char_traits@D@std@@V?$allocator@D@2@@std@@@2@V?$allocator@U?$pair@$$CBV?$basic_string@DU?$char_traits@D@std@@V?$allocator@D@2@@std@@V?$ptr@V?$set@PAVIEventListener@Pegas@@U?$less@PAVIEventListener@Pegas@@@std@@V?$allocator@PAVIEventListener@Pegas@@@4@@std@@@Pegas@@@std@@@2@$0A@@std@@@std@@QAEPAXI@Z 00436560 f i asteroids.obj
 0001:000355c0       ??_G_Node@?$_Tree_nod@V?$_Tmap_traits@HV?$ptr@VIGameState@Pegas@@@Pegas@@U?$less@H@std@@V?$allocator@U?$pair@$$CBHV?$ptr@VIGameState@Pegas@@@Pegas@@@std@@@4@$0A@@std@@@std@@QAEPAXI@Z 004365c0 f i asteroids.obj
 0001:00035620       ??1_Node@?$_List_nod@V?$ptr@VFile@Pegas@@@Pegas@@V?$allocator@V?$ptr@VFile@Pegas@@@Pegas@@@std@@@std@@QAE@XZ 00436620 f i asteroids.obj
 0001:00035670       ??1_Node@?$_Tree_nod@V?$_Tmap_traits@V?$basic_string@DU?$char_traits@D@std@@V?$allocator@D@2@@std@@V?$ptr@V?$set@PAVIEventListener@Pegas@@U?$less@PAVIEventListener@Pegas@@@std@@V?$allocator@PAVIEventListener@Pegas@@@4@@std@@@Pegas@@U?$less@V?$basic_string@DU?$char_traits@D@std@@V?$allocator@D@2@@std@@@2@V?$allocator@U?$pair@$$CBV?$basic_string@DU?$char_traits@D@std@@V?$allocator@D@2@@std@@V?$ptr@V?$set@PAVIEventListener@Pegas@@U?$less@PAVIEventListener@Pegas@@@std@@V?$allocator@PAVIEventListener@Pegas@@@4@@std@@@Pegas@@@std@@@2@$0A@@std@@@std@@QAE@XZ 00436670 f i asteroids.obj
 0001:000356c0       ??1_Node@?$_Tree_nod@V?$_Tmap_traits@HV?$ptr@VIGameState@Pegas@@@Pegas@@U?$less@H@std@@V?$allocator@U?$pair@$$CBHV?$ptr@VIGameState@Pegas@@@Pegas@@@std@@@4@$0A@@std@@@std@@QAE@XZ 004366c0 f i asteroids.obj
 0001:00035710       ??1?$pair@$$CBV?$basic_string@DU?$char_traits@D@std@@V?$allocator@D@2@@std@@V?$ptr@V?$set@PAVIEventListener@Pegas@@U?$less@PAVIEventListener@Pegas@@@std@@V?$allocator@PAVIEventListener@Pegas@@@4@@std@@@Pegas@@@std@@QAE@XZ 00436710 f i asteroids.obj
 0001:000357a0       ??1?$pair@$$CBHV?$ptr@VIGameState@Pegas@@@Pegas@@@std@@QAE@XZ 004367a0 f i asteroids.obj
 0001:000357f0       ??1?$ptr@VIGameState@Pegas@@@Pegas@@QAE@XZ 004367f0 f i asteroids.obj
 0001:00035830       ??1?$ptr@V?$set@PAVIEventListener@Pegas@@U?$less@PAVIEventListener@Pegas@@@std@@V?$allocator@PAVIEventListener@Pegas@@@4@@std@@@Pegas@@QAE@XZ 00436830 f i asteroids.obj
 0001:00035870       ??1?$ptr@VFile@Pegas@@@Pegas@@QAE@XZ 00436870 f i asteroids.obj
 0001:000358b0       ??Citerator@?$_Tree@V?$_Tmap_traits@HPAVStringResource@Pegas@@U?$less@H@std@@V?$allocator@U?$pair@$$CBHPAVStringResource@Pegas@@@std@@@4@$0A@@std@@@std@@QBEPAU?$pair@$$CBHPAVStringResource@Pegas@@@2@XZ 004368b0 f i asteroids.obj
 0001:000358f0       ??Eiterator@?$_Tree@V?$_Tmap_traits@HPAVStringResource@Pegas@@U?$less@H@std@@V?$allocator@U?$pair@$$CBHPAVStringResource@Pegas@@@std@@@4@$0A@@std@@@std@@QAEAAV012@XZ 004368f0 f i asteroids.obj
 0001:00035940       ??Citerator@?$_Tree@V?$_Tmap_traits@HPAVTextureResource@Pegas@@U?$less@H@std@@V?$allocator@U?$pair@$$CBHPAVTextureResource@Pegas@@@std@@@4@$0A@@std@@@std@@QBEPAU?$pair@$$CBHPAVTextureResource@Pegas@@@2@XZ 00436940 f i asteroids.obj
 0001:00035980       ??Eiterator@?$_Tree@V?$_Tmap_traits@HPAVTextureResource@Pegas@@U?$less@H@std@@V?$allocator@U?$pair@$$CBHPAVTextureResource@Pegas@@@std@@@4@$0A@@std@@@std@@QAEAAV012@XZ 00436980 f i asteroids.obj
 0001:000359d0       ??Citerator@?$_Tree@V?$_Tmap_traits@HPAVFontResource@Pegas@@U?$less@H@std@@V?$allocator@U?$pair@$$CBHPAVFontResource@Pegas@@@std@@@4@$0A@@std@@@std@@QBEPAU?$pair@$$CBHPAVFontResource@Pegas@@@2@XZ 004369d0 f i asteroids.obj
 0001:00035a10       ??Eiterator@?$_Tree@V?$_Tmap_traits@HPAVFontResource@Pegas@@U?$less@H@std@@V?$allocator@U?$pair@$$CBHPAVFontResource@Pegas@@@std@@@4@$0A@@std@@@std@@QAEAAV012@XZ 00436a10 f i asteroids.obj
 0001:00035a60       ??Citerator@?$_Tree@V?$_Tmap_traits@HPAVSoundResource@Pegas@@U?$less@H@std@@V?$allocator@U?$pair@$$CBHPAVSoundResource@Pegas@@@std@@@4@$0A@@std@@@std@@QBEPAU?$pair@$$CBHPAVSoundResource@Pegas@@@2@XZ 00436a60 f i asteroids.obj
 0001:00035aa0       ??Eiterator@?$_Tree@V?$_Tmap_traits@HPAVSoundResource@Pegas@@U?$less@H@std@@V?$allocator@U?$pair@$$CBHPAVSoundResource@Pegas@@@std@@@4@$0A@@std@@@std@@QAEAAV012@XZ 00436aa0 f i asteroids.obj
 0001:00035af0       ?release@?$ptr@VIGameState@Pegas@@@Pegas@@AAEXXZ 00436af0 f i asteroids.obj
 0001:00035bd0       ?release@?$ptr@V?$set@PAVIEventListener@Pegas@@U?$less@PAVIEventListener@Pegas@@@std@@V?$allocator@PAVIEventListener@Pegas@@@4@@std@@@Pegas@@AAEXXZ 00436bd0 f i asteroids.obj
 0001:00035ca0       ?release@?$ptr@VFile@Pegas@@@Pegas@@AAEXXZ 00436ca0 f i asteroids.obj
 0001:00035d80       ??Diterator@?$_Tree@V?$_Tmap_traits@HPAVStringResource@Pegas@@U?$less@H@std@@V?$allocator@U?$pair@$$CBHPAVStringResource@Pegas@@@std@@@4@$0A@@std@@@std@@QBEAAU?$pair@$$CBHPAVStringResource@Pegas@@@2@XZ 00436d80 f i asteroids.obj
 0001:00035dc0       ??Diterator@?$_Tree@V?$_Tmap_traits@HPAVTextureResource@Pegas@@U?$less@H@std@@V?$allocator@U?$pair@$$CBHPAVTextureResource@Pegas@@@std@@@4@$0A@@std@@@std@@QBEAAU?$pair@$$CBHPAVTextureResource@Pegas@@@2@XZ 00436dc0 f i asteroids.obj
 0001:00035e00       ??Diterator@?$_Tree@V?$_Tmap_traits@HPAVFontResource@Pegas@@U?$less@H@std@@V?$allocator@U?$pair@$$CBHPAVFontResource@Pegas@@@std@@@4@$0A@@std@@@std@@QBEAAU?$pair@$$CBHPAVFontResource@Pegas@@@2@XZ 00436e00 f i asteroids.obj
 0001:00035e40       ??Diterator@?$_Tree@V?$_Tmap_traits@HPAVSoundResource@Pegas@@U?$less@H@std@@V?$allocator@U?$pair@$$CBHPAVSoundResource@Pegas@@@std@@@4@$0A@@std@@@std@@QBEAAU?$pair@$$CBHPAVSoundResource@Pegas@@@2@XZ 00436e40 f i asteroids.obj
 0001:00035e80       ??_G?$set@PAVIEventListener@Pegas@@U?$less@PAVIEventListener@Pegas@@@std@@V?$allocator@PAVIEventListener@Pegas@@@4@@std@@QAEPAXI@Z 00436e80 f i asteroids.obj
 0001:00035ee0       ??1?$set@PAVIEventListener@Pegas@@U?$less@PAVIEventListener@Pegas@@@std@@V?$allocator@PAVIEventListener@Pegas@@@4@@std@@QAE@XZ 00436ee0 f i asteroids.obj
 0001:00035f20       ??Dconst_iterator@?$_Tree@V?$_Tmap_traits@HPAVStringResource@Pegas@@U?$less@H@std@@V?$allocator@U?$pair@$$CBHPAVStringResource@Pegas@@@std@@@4@$0A@@std@@@std@@QBEABU?$pair@$$CBHPAVStringResource@Pegas@@@2@XZ 00436f20 f i asteroids.obj
 0001:00035ff0       ??Dconst_iterator@?$_Tree@V?$_Tmap_traits@HPAVTextureResource@Pegas@@U?$less@H@std@@V?$allocator@U?$pair@$$CBHPAVTextureResource@Pegas@@@std@@@4@$0A@@std@@@std@@QBEABU?$pair@$$CBHPAVTextureResource@Pegas@@@2@XZ 00436ff0 f i asteroids.obj
 0001:000360c0       ??Dconst_iterator@?$_Tree@V?$_Tmap_traits@HPAVFontResource@Pegas@@U?$less@H@std@@V?$allocator@U?$pair@$$CBHPAVFontResource@Pegas@@@std@@@4@$0A@@std@@@std@@QBEABU?$pair@$$CBHPAVFontResource@Pegas@@@2@XZ 004370c0 f i asteroids.obj
 0001:00036190       ??Dconst_iterator@?$_Tree@V?$_Tmap_traits@HPAVSoundResource@Pegas@@U?$less@H@std@@V?$allocator@U?$pair@$$CBHPAVSoundResource@Pegas@@@std@@@4@$0A@@std@@@std@@QBEABU?$pair@$$CBHPAVSoundResource@Pegas@@@2@XZ 00437190 f i asteroids.obj
 0001:00036260       ??1?$_Tree@V?$_Tset_traits@PAVIEventListener@Pegas@@U?$less@PAVIEventListener@Pegas@@@std@@V?$allocator@PAVIEventListener@Pegas@@@4@$0A@@std@@@std@@QAE@XZ 00437260 f i asteroids.obj
 0001:000362e0       ??1?$_Tree_val@V?$_Tset_traits@PAVIEventListener@Pegas@@U?$less@PAVIEventListener@Pegas@@@std@@V?$allocator@PAVIEventListener@Pegas@@@4@$0A@@std@@@std@@QAE@XZ 004372e0 f i asteroids.obj
 0001:00036320       ??1?$_Tree_ptr@V?$_Tset_traits@PAVIEventListener@Pegas@@U?$less@PAVIEventListener@Pegas@@@std@@V?$allocator@PAVIEventListener@Pegas@@@4@$0A@@std@@@std@@QAE@XZ 00437320 f i asteroids.obj
 0001:00036360       ??1?$_Tree_nod@V?$_Tset_traits@PAVIEventListener@Pegas@@U?$less@PAVIEventListener@Pegas@@@std@@V?$allocator@PAVIEventListener@Pegas@@@4@$0A@@std@@@std@@QAE@XZ 00437360 f i asteroids.obj
 0001:000363a0       ??1?$_Tset_traits@PAVIEventListener@Pegas@@U?$less@PAVIEventListener@Pegas@@@std@@V?$allocator@PAVIEventListener@Pegas@@@4@$0A@@std@@QAE@XZ 004373a0 f i asteroids.obj
 0001:000363e0       ?_Myval@?$_Tree@V?$_Tmap_traits@HPAVStringResource@Pegas@@U?$less@H@std@@V?$allocator@U?$pair@$$CBHPAVStringResource@Pegas@@@std@@@4@$0A@@std@@@std@@KAAAU?$pair@$$CBHPAVStringResource@Pegas@@@2@PAU_Node@?$_Tree_nod@V?$_Tmap_traits@HPAVStringResource@Pegas@@U?$less@H@std@@V?$allocator@U?$pair@$$CBHPAVStringResource@Pegas@@@std@@@4@$0A@@std@@@2@@Z 004373e0 f i asteroids.obj
 0001:00036410       ?_Myval@?$_Tree@V?$_Tmap_traits@HPAVTextureResource@Pegas@@U?$less@H@std@@V?$allocator@U?$pair@$$CBHPAVTextureResource@Pegas@@@std@@@4@$0A@@std@@@std@@KAAAU?$pair@$$CBHPAVTextureResource@Pegas@@@2@PAU_Node@?$_Tree_nod@V?$_Tmap_traits@HPAVTextureResource@Pegas@@U?$less@H@std@@V?$allocator@U?$pair@$$CBHPAVTextureResource@Pegas@@@std@@@4@$0A@@std@@@2@@Z 00437410 f i asteroids.obj
 0001:00036440       ?_Myval@?$_Tree@V?$_Tmap_traits@HPAVFontResource@Pegas@@U?$less@H@std@@V?$allocator@U?$pair@$$CBHPAVFontResource@Pegas@@@std@@@4@$0A@@std@@@std@@KAAAU?$pair@$$CBHPAVFontResource@Pegas@@@2@PAU_Node@?$_Tree_nod@V?$_Tmap_traits@HPAVFontResource@Pegas@@U?$less@H@std@@V?$allocator@U?$pair@$$CBHPAVFontResource@Pegas@@@std@@@4@$0A@@std@@@2@@Z 00437440 f i asteroids.obj
 0001:00036470       ?_Myval@?$_Tree@V?$_Tmap_traits@HPAVSoundResource@Pegas@@U?$less@H@std@@V?$allocator@U?$pair@$$CBHPAVSoundResource@Pegas@@@std@@@4@$0A@@std@@@std@@KAAAU?$pair@$$CBHPAVSoundResource@Pegas@@@2@PAU_Node@?$_Tree_nod@V?$_Tmap_traits@HPAVSoundResource@Pegas@@U?$less@H@std@@V?$allocator@U?$pair@$$CBHPAVSoundResource@Pegas@@@std@@@4@$0A@@std@@@2@@Z 00437470 f i asteroids.obj
 0001:000364a0       ?_Tidy@?$_Tree@V?$_Tset_traits@PAVIEventListener@Pegas@@U?$less@PAVIEventListener@Pegas@@@std@@V?$allocator@PAVIEventListener@Pegas@@@4@$0A@@std@@@std@@IAEXXZ 004374a0 f i asteroids.obj
 0001:00036660       ??1?$_Container_base_aux_alloc_empty@V?$allocator@PAVIEventListener@Pegas@@@std@@@std@@IAE@XZ 00437660 f i asteroids.obj
 0001:000366a0       ??1iterator@?$_Tree@V?$_Tset_traits@PAVIEventListener@Pegas@@U?$less@PAVIEventListener@Pegas@@@std@@V?$allocator@PAVIEventListener@Pegas@@@4@$0A@@std@@@std@@QAE@XZ 004376a0 f i asteroids.obj
 0001:000366e0       ??0const_iterator@?$_Tree@V?$_Tset_traits@PAVIEventListener@Pegas@@U?$less@PAVIEventListener@Pegas@@@std@@V?$allocator@PAVIEventListener@Pegas@@@4@$0A@@std@@@std@@QAE@ABV012@@Z 004376e0 f i asteroids.obj
 0001:00036740       ??1const_iterator@?$_Tree@V?$_Tset_traits@PAVIEventListener@Pegas@@U?$less@PAVIEventListener@Pegas@@@std@@V?$allocator@PAVIEventListener@Pegas@@@4@$0A@@std@@@std@@QAE@XZ 00437740 f i asteroids.obj
 0001:00036780       ??0?$_Bidit@PAVIEventListener@Pegas@@HPBQAV12@ABQAV12@@std@@QAE@ABU01@@Z 00437780 f i asteroids.obj
 0001:000367d0       ??1?$_Bidit@PAVIEventListener@Pegas@@HPBQAV12@ABQAV12@@std@@QAE@XZ 004377d0 f i asteroids.obj
 0001:00036810       ??0?$_Iterator_with_base@Ubidirectional_iterator_tag@std@@PAVIEventListener@Pegas@@HPBQAV34@ABQAV34@V_Iterator_base@2@@std@@QAE@ABU01@@Z 00437810 f i asteroids.obj
 0001:00036860       ??1?$_Iterator_with_base@Ubidirectional_iterator_tag@std@@PAVIEventListener@Pegas@@HPBQAV34@ABQAV34@V_Iterator_base@2@@std@@QAE@XZ 00437860 f i asteroids.obj
 0001:000368a0       ?_Left@?$_Tree@V?$_Tset_traits@PAVIEventListener@Pegas@@U?$less@PAVIEventListener@Pegas@@@std@@V?$allocator@PAVIEventListener@Pegas@@@4@$0A@@std@@@std@@KAAAPAU_Node@?$_Tree_nod@V?$_Tset_traits@PAVIEventListener@Pegas@@U?$less@PAVIEventListener@Pegas@@@std@@V?$allocator@PAVIEventListener@Pegas@@@4@$0A@@std@@@2@PAU342@@Z 004378a0 f i asteroids.obj
 0001:000368d0       ?_Parent@?$_Tree@V?$_Tset_traits@PAVIEventListener@Pegas@@U?$less@PAVIEventListener@Pegas@@@std@@V?$allocator@PAVIEventListener@Pegas@@@4@$0A@@std@@@std@@KAAAPAU_Node@?$_Tree_nod@V?$_Tset_traits@PAVIEventListener@Pegas@@U?$less@PAVIEventListener@Pegas@@@std@@V?$allocator@PAVIEventListener@Pegas@@@4@$0A@@std@@@2@PAU342@@Z 004378d0 f i asteroids.obj
 0001:00036900       ?_Right@?$_Tree@V?$_Tset_traits@PAVIEventListener@Pegas@@U?$less@PAVIEventListener@Pegas@@@std@@V?$allocator@PAVIEventListener@Pegas@@@4@$0A@@std@@@std@@KAAAPAU_Node@?$_Tree_nod@V?$_Tset_traits@PAVIEventListener@Pegas@@U?$less@PAVIEventListener@Pegas@@@std@@V?$allocator@PAVIEventListener@Pegas@@@4@$0A@@std@@@2@PAU342@@Z 00437900 f i asteroids.obj
 0001:00036930       ?begin@?$_Tree@V?$_Tset_traits@PAVIEventListener@Pegas@@U?$less@PAVIEventListener@Pegas@@@std@@V?$allocator@PAVIEventListener@Pegas@@@4@$0A@@std@@@std@@QAE?AViterator@12@XZ 00437930 f i asteroids.obj
 0001:000369a0       ?end@?$_Tree@V?$_Tset_traits@PAVIEventListener@Pegas@@U?$less@PAVIEventListener@Pegas@@@std@@V?$allocator@PAVIEventListener@Pegas@@@4@$0A@@std@@@std@@QAE?AViterator@12@XZ 004379a0 f i asteroids.obj
 0001:00036a10       ?erase@?$_Tree@V?$_Tset_traits@PAVIEventListener@Pegas@@U?$less@PAVIEventListener@Pegas@@@std@@V?$allocator@PAVIEventListener@Pegas@@@4@$0A@@std@@@std@@QAE?AViterator@12@Vconst_iterator@12@0@Z 00437a10 f i asteroids.obj
 0001:00036ca0       ?deallocate@?$allocator@U_Node@?$_Tree_nod@V?$_Tset_traits@PAVIEventListener@Pegas@@U?$less@PAVIEventListener@Pegas@@@std@@V?$allocator@PAVIEventListener@Pegas@@@4@$0A@@std@@@std@@@std@@QAEXPAU_Node@?$_Tree_nod@V?$_Tset_traits@PAVIEventListener@Pegas@@U?$less@PAVIEventListener@Pegas@@@std@@V?$allocator@PAVIEventListener@Pegas@@@4@$0A@@std@@@2@I@Z 00437ca0 f i asteroids.obj
 0001:00036cf0       ?destroy@?$allocator@PAU_Node@?$_Tree_nod@V?$_Tset_traits@PAVIEventListener@Pegas@@U?$less@PAVIEventListener@Pegas@@@std@@V?$allocator@PAVIEventListener@Pegas@@@4@$0A@@std@@@std@@@std@@QAEXPAPAU_Node@?$_Tree_nod@V?$_Tset_traits@PAVIEventListener@Pegas@@U?$less@PAVIEventListener@Pegas@@@std@@V?$allocator@PAVIEventListener@Pegas@@@4@$0A@@std@@@2@@Z 00437cf0 f i asteroids.obj
 0001:00036d40       ?_Make_iter@?$_Tree@V?$_Tset_traits@PAVIEventListener@Pegas@@U?$less@PAVIEventListener@Pegas@@@std@@V?$allocator@PAVIEventListener@Pegas@@@4@$0A@@std@@@std@@QBE?AViterator@12@Vconst_iterator@12@@Z 00437d40 f i asteroids.obj
 0001:00036e20       ?erase@?$_Tree@V?$_Tset_traits@PAVIEventListener@Pegas@@U?$less@PAVIEventListener@Pegas@@@std@@V?$allocator@PAVIEventListener@Pegas@@@4@$0A@@std@@@std@@QAE?AViterator@12@Vconst_iterator@12@@Z 00437e20 f i asteroids.obj
 0001:00037670       ?clear@?$_Tree@V?$_Tset_traits@PAVIEventListener@Pegas@@U?$less@PAVIEventListener@Pegas@@@std@@V?$allocator@PAVIEventListener@Pegas@@@4@$0A@@std@@@std@@QAEXXZ 00438670 f i asteroids.obj
 0001:00037710       ?_Lmost@?$_Tree@V?$_Tset_traits@PAVIEventListener@Pegas@@U?$less@PAVIEventListener@Pegas@@@std@@V?$allocator@PAVIEventListener@Pegas@@@4@$0A@@std@@@std@@IBEAAPAU_Node@?$_Tree_nod@V?$_Tset_traits@PAVIEventListener@Pegas@@U?$less@PAVIEventListener@Pegas@@@std@@V?$allocator@PAVIEventListener@Pegas@@@4@$0A@@std@@@2@XZ 00438710 f i asteroids.obj
 0001:00037760       ??0iterator@?$_Tree@V?$_Tset_traits@PAVIEventListener@Pegas@@U?$less@PAVIEventListener@Pegas@@@std@@V?$allocator@PAVIEventListener@Pegas@@@4@$0A@@std@@@std@@QAE@PAU_Node@?$_Tree_nod@V?$_Tset_traits@PAVIEventListener@Pegas@@U?$less@PAVIEventListener@Pegas@@@std@@V?$allocator@PAVIEventListener@Pegas@@@4@$0A@@std@@@2@PBV12@@Z 00438760 f i asteroids.obj
 0001:000377b0       ??Econst_iterator@?$_Tree@V?$_Tset_traits@PAVIEventListener@Pegas@@U?$less@PAVIEventListener@Pegas@@@std@@V?$allocator@PAVIEventListener@Pegas@@@4@$0A@@std@@@std@@QAE?AV012@H@Z 004387b0 f i asteroids.obj
 0001:00037890       ??8const_iterator@?$_Tree@V?$_Tset_traits@PAVIEventListener@Pegas@@U?$less@PAVIEventListener@Pegas@@@std@@V?$allocator@PAVIEventListener@Pegas@@@4@$0A@@std@@@std@@QBE_NABV012@@Z 00438890 f i asteroids.obj
 0001:00037950       ??9const_iterator@?$_Tree@V?$_Tset_traits@PAVIEventListener@Pegas@@U?$less@PAVIEventListener@Pegas@@@std@@V?$allocator@PAVIEventListener@Pegas@@@4@$0A@@std@@@std@@QBE_NABV012@@Z 00438950 f i asteroids.obj
 0001:000379a0       ??0iterator@?$_Tree@V?$_Tset_traits@PAVIEventListener@Pegas@@U?$less@PAVIEventListener@Pegas@@@std@@V?$allocator@PAVIEventListener@Pegas@@@4@$0A@@std@@@std@@QAE@ABV012@@Z 004389a0 f i asteroids.obj
 0001:000379f0       ?_Color@?$_Tree@V?$_Tset_traits@PAVIEventListener@Pegas@@U?$less@PAVIEventListener@Pegas@@@std@@V?$allocator@PAVIEventListener@Pegas@@@4@$0A@@std@@@std@@KAAADPAU_Node@?$_Tree_nod@V?$_Tset_traits@PAVIEventListener@Pegas@@U?$less@PAVIEventListener@Pegas@@@std@@V?$allocator@PAVIEventListener@Pegas@@@4@$0A@@std@@@2@@Z 004389f0 f i asteroids.obj
 0001:00037a20       ?_Isnil@?$_Tree@V?$_Tset_traits@PAVIEventListener@Pegas@@U?$less@PAVIEventListener@Pegas@@@std@@V?$allocator@PAVIEventListener@Pegas@@@4@$0A@@std@@@std@@KAAADPAU_Node@?$_Tree_nod@V?$_Tset_traits@PAVIEventListener@Pegas@@U?$less@PAVIEventListener@Pegas@@@std@@V?$allocator@PAVIEventListener@Pegas@@@4@$0A@@std@@@2@@Z 00438a20 f i asteroids.obj
 0001:00037a50       ?_Erase@?$_Tree@V?$_Tset_traits@PAVIEventListener@Pegas@@U?$less@PAVIEventListener@Pegas@@@std@@V?$allocator@PAVIEventListener@Pegas@@@4@$0A@@std@@@std@@IAEXPAU_Node@?$_Tree_nod@V?$_Tset_traits@PAVIEventListener@Pegas@@U?$less@PAVIEventListener@Pegas@@@std@@V?$allocator@PAVIEventListener@Pegas@@@4@$0A@@std@@@2@@Z 00438a50 f i asteroids.obj
 0001:00037b00       ?_Lrotate@?$_Tree@V?$_Tset_traits@PAVIEventListener@Pegas@@U?$less@PAVIEventListener@Pegas@@@std@@V?$allocator@PAVIEventListener@Pegas@@@4@$0A@@std@@@std@@IAEXPAU_Node@?$_Tree_nod@V?$_Tset_traits@PAVIEventListener@Pegas@@U?$less@PAVIEventListener@Pegas@@@std@@V?$allocator@PAVIEventListener@Pegas@@@4@$0A@@std@@@2@@Z 00438b00 f i asteroids.obj
 0001:00037c60       ?_Max@?$_Tree@V?$_Tset_traits@PAVIEventListener@Pegas@@U?$less@PAVIEventListener@Pegas@@@std@@V?$allocator@PAVIEventListener@Pegas@@@4@$0A@@std@@@std@@KAPAU_Node@?$_Tree_nod@V?$_Tset_traits@PAVIEventListener@Pegas@@U?$less@PAVIEventListener@Pegas@@@std@@V?$allocator@PAVIEventListener@Pegas@@@4@$0A@@std@@@2@PAU342@@Z 00438c60 f i asteroids.obj
 0001:00037cd0       ?_Min@?$_Tree@V?$_Tset_traits@PAVIEventListener@Pegas@@U?$less@PAVIEventListener@Pegas@@@std@@V?$allocator@PAVIEventListener@Pegas@@@4@$0A@@std@@@std@@KAPAU_Node@?$_Tree_nod@V?$_Tset_traits@PAVIEventListener@Pegas@@U?$less@PAVIEventListener@Pegas@@@std@@V?$allocator@PAVIEventListener@Pegas@@@4@$0A@@std@@@2@PAU342@@Z 00438cd0 f i asteroids.obj
 0001:00037d40       ?_Rmost@?$_Tree@V?$_Tset_traits@PAVIEventListener@Pegas@@U?$less@PAVIEventListener@Pegas@@@std@@V?$allocator@PAVIEventListener@Pegas@@@4@$0A@@std@@@std@@IBEAAPAU_Node@?$_Tree_nod@V?$_Tset_traits@PAVIEventListener@Pegas@@U?$less@PAVIEventListener@Pegas@@@std@@V?$allocator@PAVIEventListener@Pegas@@@4@$0A@@std@@@2@XZ 00438d40 f i asteroids.obj
 0001:00037d90       ?_Root@?$_Tree@V?$_Tset_traits@PAVIEventListener@Pegas@@U?$less@PAVIEventListener@Pegas@@@std@@V?$allocator@PAVIEventListener@Pegas@@@4@$0A@@std@@@std@@IBEAAPAU_Node@?$_Tree_nod@V?$_Tset_traits@PAVIEventListener@Pegas@@U?$less@PAVIEventListener@Pegas@@@std@@V?$allocator@PAVIEventListener@Pegas@@@4@$0A@@std@@@2@XZ 00438d90 f i asteroids.obj
 0001:00037de0       ?_Rrotate@?$_Tree@V?$_Tset_traits@PAVIEventListener@Pegas@@U?$less@PAVIEventListener@Pegas@@@std@@V?$allocator@PAVIEventListener@Pegas@@@4@$0A@@std@@@std@@IAEXPAU_Node@?$_Tree_nod@V?$_Tset_traits@PAVIEventListener@Pegas@@U?$less@PAVIEventListener@Pegas@@@std@@V?$allocator@PAVIEventListener@Pegas@@@4@$0A@@std@@@2@@Z 00438de0 f i asteroids.obj
 0001:00037f40       ?_Orphan_ptr@?$_Tree@V?$_Tset_traits@PAVIEventListener@Pegas@@U?$less@PAVIEventListener@Pegas@@@std@@V?$allocator@PAVIEventListener@Pegas@@@4@$0A@@std@@@std@@IBEXAAV12@PAU_Node@?$_Tree_nod@V?$_Tset_traits@PAVIEventListener@Pegas@@U?$less@PAVIEventListener@Pegas@@@std@@V?$allocator@PAVIEventListener@Pegas@@@4@$0A@@std@@@2@@Z 00438f40 f i asteroids.obj
 0001:00038010       ?destroy@?$allocator@U_Node@?$_Tree_nod@V?$_Tset_traits@PAVIEventListener@Pegas@@U?$less@PAVIEventListener@Pegas@@@std@@V?$allocator@PAVIEventListener@Pegas@@@4@$0A@@std@@@std@@@std@@QAEXPAU_Node@?$_Tree_nod@V?$_Tset_traits@PAVIEventListener@Pegas@@U?$less@PAVIEventListener@Pegas@@@std@@V?$allocator@PAVIEventListener@Pegas@@@4@$0A@@std@@@2@@Z 00439010 f i asteroids.obj
 0001:00038060       ??0const_iterator@?$_Tree@V?$_Tset_traits@PAVIEventListener@Pegas@@U?$less@PAVIEventListener@Pegas@@@std@@V?$allocator@PAVIEventListener@Pegas@@@4@$0A@@std@@@std@@QAE@PAU_Node@?$_Tree_nod@V?$_Tset_traits@PAVIEventListener@Pegas@@U?$less@PAVIEventListener@Pegas@@@std@@V?$allocator@PAVIEventListener@Pegas@@@4@$0A@@std@@@2@PBV12@@Z 00439060 f i asteroids.obj
 0001:00038100       ??Econst_iterator@?$_Tree@V?$_Tset_traits@PAVIEventListener@Pegas@@U?$less@PAVIEventListener@Pegas@@@std@@V?$allocator@PAVIEventListener@Pegas@@@4@$0A@@std@@@std@@QAEAAV012@XZ 00439100 f i asteroids.obj
 0001:00038150       ?_Mynode@const_iterator@?$_Tree@V?$_Tset_traits@PAVIEventListener@Pegas@@U?$less@PAVIEventListener@Pegas@@@std@@V?$allocator@PAVIEventListener@Pegas@@@4@$0A@@std@@@std@@QBEPAU_Node@?$_Tree_nod@V?$_Tset_traits@PAVIEventListener@Pegas@@U?$less@PAVIEventListener@Pegas@@@std@@V?$allocator@PAVIEventListener@Pegas@@@4@$0A@@std@@@3@XZ 00439150 f i asteroids.obj
 0001:00038180       ??0?$_Bidit@PAVIEventListener@Pegas@@HPBQAV12@ABQAV12@@std@@QAE@XZ 00439180 f i asteroids.obj
 0001:000381d0       ??0?$_Iterator_with_base@Ubidirectional_iterator_tag@std@@PAVIEventListener@Pegas@@HPBQAV34@ABQAV34@V_Iterator_base@2@@std@@QAE@XZ 004391d0 f i asteroids.obj
 0001:00038220       ?_Inc@const_iterator@?$_Tree@V?$_Tset_traits@PAVIEventListener@Pegas@@U?$less@PAVIEventListener@Pegas@@@std@@V?$allocator@PAVIEventListener@Pegas@@@4@$0A@@std@@@std@@QAEXXZ 00439220 f i asteroids.obj
 0001:00038380       ??$_Destroy@PAU_Node@?$_Tree_nod@V?$_Tset_traits@PAVIEventListener@Pegas@@U?$less@PAVIEventListener@Pegas@@@std@@V?$allocator@PAVIEventListener@Pegas@@@4@$0A@@std@@@std@@@std@@YAXPAPAU_Node@?$_Tree_nod@V?$_Tset_traits@PAVIEventListener@Pegas@@U?$less@PAVIEventListener@Pegas@@@std@@V?$allocator@PAVIEventListener@Pegas@@@4@$0A@@std@@@0@@Z 00439380 f i asteroids.obj
 0001:000383b0       ??$_Destroy@U_Node@?$_Tree_nod@V?$_Tset_traits@PAVIEventListener@Pegas@@U?$less@PAVIEventListener@Pegas@@@std@@V?$allocator@PAVIEventListener@Pegas@@@4@$0A@@std@@@std@@@std@@YAXPAU_Node@?$_Tree_nod@V?$_Tset_traits@PAVIEventListener@Pegas@@U?$less@PAVIEventListener@Pegas@@@std@@V?$allocator@PAVIEventListener@Pegas@@@4@$0A@@std@@@0@@Z 004393b0 f i asteroids.obj
 0001:000383e0       ??_EBaseGameApplication@Pegas@@W3AEPAXI@Z 004393e0 f i asteroids.obj
 0001:000383f0       ??_GBaseGameApplication@Pegas@@UAEPAXI@Z 004393f0 f i asteroids.obj
 0001:000383f0       ??_EBaseGameApplication@Pegas@@UAEPAXI@Z 004393f0 f i asteroids.obj
 0001:00038450       ??0MainMenu@Pegas@@QAE@XZ  00439450 f   game_application.obj
 0001:000384c0       ??_EMainMenu@Pegas@@UAEPAXI@Z 004394c0 f i game_application.obj
 0001:000384c0       ??_GMainMenu@Pegas@@UAEPAXI@Z 004394c0 f i game_application.obj
 0001:00038520       ??1MainMenu@Pegas@@UAE@XZ  00439520 f i game_application.obj
 0001:00038560       ??0GameScreen@Pegas@@QAE@XZ 00439560 f   game_application.obj
 0001:000385d0       ??_GGameScreen@Pegas@@UAEPAXI@Z 004395d0 f i game_application.obj
 0001:000385d0       ??_EGameScreen@Pegas@@UAEPAXI@Z 004395d0 f i game_application.obj
 0001:00038630       ??1GameScreen@Pegas@@UAE@XZ 00439630 f i game_application.obj
 0001:00038670       ?enter@GameScreen@Pegas@@UAEXPAVIPlatformContext@2@@Z 00439670 f   game_application.obj
 0001:00038760       ??0GameApplication@Pegas@@QAE@PAUHINSTANCE__@@@Z 00439760 f   game_application.obj
 0001:000387c0       ?init@GameApplication@Pegas@@UAEXPAUHWND__@@@Z 004397c0 f   game_application.obj
 0001:00038940       ??$?0VGameManager@Pegas@@@?$ptr@VBaseScreenLayer@Pegas@@@Pegas@@QAE@PAVGameManager@1@PAUCounter@1@@Z 00439940 f i game_application.obj
 0001:00038a40       ??$?0VMainMenu@Pegas@@@?$ptr@VIGameState@Pegas@@@Pegas@@QAE@PAVMainMenu@1@PAUCounter@1@@Z 00439a40 f i game_application.obj
 0001:00038b40       ??$?0VGameScreen@Pegas@@@?$ptr@VIGameState@Pegas@@@Pegas@@QAE@PAVGameScreen@1@PAUCounter@1@@Z 00439b40 f i game_application.obj
 0001:00038c40       ?acquire@?$ptr@VIGameState@Pegas@@@Pegas@@AAEXPAUCounter@2@@Z 00439c40 f i game_application.obj
 0001:00038c90       ?acquire@?$ptr@VBaseScreenLayer@Pegas@@@Pegas@@AAEXPAUCounter@2@@Z 00439c90 f i game_application.obj
 0001:00038ce0       ??_EGameScreen@Pegas@@WM@AEPAXI@Z 00439ce0 f i game_application.obj
 0001:00038cf0       ??_EGameApplication@Pegas@@W3AEPAXI@Z 00439cf0 f i game_application.obj
 0001:00038d00       ??_EGameApplication@Pegas@@UAEPAXI@Z 00439d00 f i game_application.obj
 0001:00038d00       ??_GGameApplication@Pegas@@UAEPAXI@Z 00439d00 f i game_application.obj
 0001:00038d60       ??_EMainMenu@Pegas@@W7AEPAXI@Z 00439d60 f i game_application.obj
 0001:00038d70       ??_EMainMenu@Pegas@@WM@AEPAXI@Z 00439d70 f i game_application.obj
 0001:00038d80       ??_EGameScreen@Pegas@@W7AEPAXI@Z 00439d80 f i game_application.obj
 0001:00038d90       ??0DefaultGameState@Pegas@@QAE@ABH@Z 00439d90 f i game_application.obj
 0001:00038e60       ??0IGameState@Pegas@@QAE@ABH@Z 00439e60 f i game_application.obj
 0001:00038eb0       ??1IGameState@Pegas@@UAE@XZ 00439eb0 f i game_application.obj
 0001:00038ef0       ??_GIGameState@Pegas@@UAEPAXI@Z 00439ef0 f i game_application.obj
 0001:00038ef0       ??_EIGameState@Pegas@@UAEPAXI@Z 00439ef0 f i game_application.obj
 0001:00038f50       ??1DefaultGameState@Pegas@@UAE@XZ 00439f50 f i game_application.obj
 0001:00039010       ??_EDefaultGameState@Pegas@@UAEPAXI@Z 0043a010 f i game_application.obj
 0001:00039010       ??_GDefaultGameState@Pegas@@UAEPAXI@Z 0043a010 f i game_application.obj
 0001:00039070       ??0BaseGameApplication@Pegas@@QAE@PAUHINSTANCE__@@@Z 0043a070 f i game_application.obj
 0001:00039230       ??0EventManager@Pegas@@QAE@XZ 0043a230 f i game_application.obj
 0001:00039300       ??0WindowsOSUtils@Pegas@@QAE@XZ 0043a300 f i game_application.obj
 0001:00039350       ??0OSUtils@Pegas@@QAE@XZ   0043a350 f i game_application.obj
 0001:000393b0       ??0WinMMSoundManager@Pegas@@QAE@XZ 0043a3b0 f i game_application.obj
 0001:00039400       ??0SoundManager@Pegas@@QAE@XZ 0043a400 f i game_application.obj
 0001:00039460       ??0OGLGrafManager@Pegas@@QAE@XZ 0043a460 f i game_application.obj
 0001:00039510       ??0GrafManager@Pegas@@QAE@XZ 0043a510 f i game_application.obj
 0001:000395b0       ??0EllipseTexture@Pegas@@QAE@XZ 0043a5b0 f i game_application.obj
 0001:00039600       ??_GOGLGrafManager@Pegas@@UAEPAXI@Z 0043a600 f i game_application.obj
 0001:00039600       ??_EOGLGrafManager@Pegas@@UAEPAXI@Z 0043a600 f i game_application.obj
 0001:00039660       ??0IPlatformContext@Pegas@@QAE@XZ 0043a660 f i game_application.obj
 0001:000396a0       ??0?$Singleton@VOSUtils@Pegas@@@Pegas@@QAE@AAVOSUtils@1@@Z 0043a6a0 f i game_application.obj
 0001:00039700       ??0?$Singleton@VGrafManager@Pegas@@@Pegas@@QAE@AAVGrafManager@1@@Z 0043a700 f i game_application.obj
 0001:00039760       ??0?$list@PAVIDrawable@Pegas@@V?$allocator@PAVIDrawable@Pegas@@@std@@@std@@QAE@XZ 0043a760 f i game_application.obj
 0001:00039800       ??0?$Singleton@VSoundManager@Pegas@@@Pegas@@QAE@AAVSoundManager@1@@Z 0043a800 f i game_application.obj
 0001:00039860       ??0?$Singleton@VEventManager@Pegas@@@Pegas@@QAE@AAVEventManager@1@@Z 0043a860 f i game_application.obj
 0001:000398c0       ??0?$queue@V?$ptr@UEvent@Pegas@@@Pegas@@V?$deque@V?$ptr@UEvent@Pegas@@@Pegas@@V?$allocator@V?$ptr@UEvent@Pegas@@@Pegas@@@std@@@std@@@std@@QAE@XZ 0043a8c0 f i game_application.obj
 0001:00039910       ??0?$map@V?$basic_string@DU?$char_traits@D@std@@V?$allocator@D@2@@std@@V?$ptr@V?$set@PAVIEventListener@Pegas@@U?$less@PAVIEventListener@Pegas@@@std@@V?$allocator@PAVIEventListener@Pegas@@@4@@std@@@Pegas@@U?$less@V?$basic_string@DU?$char_traits@D@std@@V?$allocator@D@2@@std@@@2@V?$allocator@U?$pair@$$CBV?$basic_string@DU?$char_traits@D@std@@V?$allocator@D@2@@std@@V?$ptr@V?$set@PAVIEventListener@Pegas@@U?$less@PAVIEventListener@Pegas@@@std@@V?$allocator@PAVIEventListener@Pegas@@@4@@std@@@Pegas@@@std@@@2@@std@@QAE@XZ 0043a910 f i game_application.obj
 0001:00039970       ??0?$list@V?$ptr@VBaseScreenLayer@Pegas@@@Pegas@@V?$allocator@V?$ptr@VBaseScreenLayer@Pegas@@@Pegas@@@std@@@std@@QAE@XZ 0043a970 f i game_application.obj
 0001:00039a10       ??1?$list@V?$ptr@VBaseScreenLayer@Pegas@@@Pegas@@V?$allocator@V?$ptr@VBaseScreenLayer@Pegas@@@Pegas@@@std@@@std@@QAE@XZ 0043aa10 f i game_application.obj
 0001:00039a90       ??0?$Singleton@VBaseGameApplication@Pegas@@@Pegas@@QAE@AAVBaseGameApplication@1@@Z 0043aa90 f i game_application.obj
 0001:00039af0       ??0?$set@PAVIKeyboardController@Pegas@@U?$less@PAVIKeyboardController@Pegas@@@std@@V?$allocator@PAVIKeyboardController@Pegas@@@4@@std@@QAE@XZ 0043aaf0 f i game_application.obj
 0001:00039b50       ??0?$set@PAVIMouseController@Pegas@@U?$less@PAVIMouseController@Pegas@@@std@@V?$allocator@PAVIMouseController@Pegas@@@4@@std@@QAE@XZ 0043ab50 f i game_application.obj
 0001:00039bb0       ??0?$map@HV?$ptr@VIGameState@Pegas@@@Pegas@@U?$less@H@std@@V?$allocator@U?$pair@$$CBHV?$ptr@VIGameState@Pegas@@@Pegas@@@std@@@4@@std@@QAE@XZ 0043abb0 f i game_application.obj
 0001:00039c10       ??0?$stack@V?$ptr@VIGameState@Pegas@@@Pegas@@V?$deque@V?$ptr@VIGameState@Pegas@@@Pegas@@V?$allocator@V?$ptr@VIGameState@Pegas@@@Pegas@@@std@@@std@@@std@@QAE@XZ 0043ac10 f i game_application.obj
 0001:00039c60       ??0?$list@V?$ptr@VFile@Pegas@@@Pegas@@V?$allocator@V?$ptr@VFile@Pegas@@@Pegas@@@std@@@std@@QAE@XZ 0043ac60 f i game_application.obj
 0001:00039d00       ??0?$ResourceManager@VStringResource@Pegas@@UIntResourceCode@2@@Pegas@@QAE@XZ 0043ad00 f i game_application.obj
 0001:00039da0       ??0?$ResourceManager@VTextureResource@Pegas@@UIntResourceCode@2@@Pegas@@QAE@XZ 0043ada0 f i game_application.obj
 0001:00039e40       ??0?$ResourceManager@VFontResource@Pegas@@UFontResourceCode@2@@Pegas@@QAE@XZ 0043ae40 f i game_application.obj
 0001:00039ee0       ??0?$ResourceManager@VSoundResource@Pegas@@UIntResourceCode@2@@Pegas@@QAE@XZ 0043aee0 f i game_application.obj
 0001:00039f80       ??1?$_List_val@V?$ptr@VBaseScreenLayer@Pegas@@@Pegas@@V?$allocator@V?$ptr@VBaseScreenLayer@Pegas@@@Pegas@@@std@@@std@@QAE@XZ 0043af80 f i game_application.obj
 0001:00039fc0       ??1?$_List_ptr@V?$ptr@VBaseScreenLayer@Pegas@@@Pegas@@V?$allocator@V?$ptr@VBaseScreenLayer@Pegas@@@Pegas@@@std@@@std@@QAE@XZ 0043afc0 f i game_application.obj
 0001:0003a000       ??1?$_List_nod@V?$ptr@VBaseScreenLayer@Pegas@@@Pegas@@V?$allocator@V?$ptr@VBaseScreenLayer@Pegas@@@Pegas@@@std@@@std@@QAE@XZ 0043b000 f i game_application.obj
 0001:0003a040       ?_Buynode@?$list@PAVIDrawable@Pegas@@V?$allocator@PAVIDrawable@Pegas@@@std@@@std@@IAEPAU_Node@?$_List_nod@PAVIDrawable@Pegas@@V?$allocator@PAVIDrawable@Pegas@@@std@@@2@XZ 0043b040 f i game_application.obj
 0001:0003a1a0       ??0?$_List_val@PAVIDrawable@Pegas@@V?$allocator@PAVIDrawable@Pegas@@@std@@@std@@QAE@V?$allocator@PAVIDrawable@Pegas@@@1@@Z 0043b1a0 f i game_application.obj
 0001:0003a210       ??0?$allocator@PAVIDrawable@Pegas@@@std@@QAE@XZ 0043b210 f i game_application.obj
 0001:0003a240       ??0?$deque@V?$ptr@UEvent@Pegas@@@Pegas@@V?$allocator@V?$ptr@UEvent@Pegas@@@Pegas@@@std@@@std@@QAE@XZ 0043b240 f i game_application.obj
 0001:0003a2c0       ??0?$_Tree@V?$_Tmap_traits@V?$basic_string@DU?$char_traits@D@std@@V?$allocator@D@2@@std@@V?$ptr@V?$set@PAVIEventListener@Pegas@@U?$less@PAVIEventListener@Pegas@@@std@@V?$allocator@PAVIEventListener@Pegas@@@4@@std@@@Pegas@@U?$less@V?$basic_string@DU?$char_traits@D@std@@V?$allocator@D@2@@std@@@2@V?$allocator@U?$pair@$$CBV?$basic_string@DU?$char_traits@D@std@@V?$allocator@D@2@@std@@V?$ptr@V?$set@PAVIEventListener@Pegas@@U?$less@PAVIEventListener@Pegas@@@std@@V?$allocator@PAVIEventListener@Pegas@@@4@@std@@@Pegas@@@std@@@2@$0A@@std@@@std@@QAE@ABU?$less@V?$basic_string@DU?$char_traits@D@std@@V?$allocator@D@2@@std@@@1@ABV?$allocator@U?$pair@$$CBV?$basic_string@DU?$char_traits@D@std@@V?$allocator@D@2@@std@@V?$ptr@V?$set@PAVIEventListener@Pegas@@U?$less@PAVIEventListener@Pegas@@@std@@V?$allocator@PAVIEventListener@Pegas@@@4@@std@@@Pegas@@@std@@@1@@Z 0043b2c0 f i game_application.obj
 0001:0003a360       ??0?$allocator@U?$pair@$$CBV?$basic_string@DU?$char_traits@D@std@@V?$allocator@D@2@@std@@V?$ptr@V?$set@PAVIEventListener@Pegas@@U?$less@PAVIEventListener@Pegas@@@std@@V?$allocator@PAVIEventListener@Pegas@@@4@@std@@@Pegas@@@std@@@std@@QAE@XZ 0043b360 f i game_application.obj
 0001:0003a390       ?_Buynode@?$list@V?$ptr@VBaseScreenLayer@Pegas@@@Pegas@@V?$allocator@V?$ptr@VBaseScreenLayer@Pegas@@@Pegas@@@std@@@std@@IAEPAU_Node@?$_List_nod@V?$ptr@VBaseScreenLayer@Pegas@@@Pegas@@V?$allocator@V?$ptr@VBaseScreenLayer@Pegas@@@Pegas@@@std@@@2@XZ 0043b390 f i game_application.obj
 0001:0003a4f0       ?_Tidy@?$list@V?$ptr@VBaseScreenLayer@Pegas@@@Pegas@@V?$allocator@V?$ptr@VBaseScreenLayer@Pegas@@@Pegas@@@std@@@std@@IAEXXZ 0043b4f0 f i game_application.obj
 0001:0003a590       ??0?$_List_val@V?$ptr@VBaseScreenLayer@Pegas@@@Pegas@@V?$allocator@V?$ptr@VBaseScreenLayer@Pegas@@@Pegas@@@std@@@std@@QAE@V?$allocator@V?$ptr@VBaseScreenLayer@Pegas@@@Pegas@@@1@@Z 0043b590 f i game_application.obj
 0001:0003a600       ??1?$_Container_base_aux_alloc_empty@V?$allocator@V?$ptr@VBaseScreenLayer@Pegas@@@Pegas@@@std@@@std@@IAE@XZ 0043b600 f i game_application.obj
 0001:0003a640       ??0?$allocator@V?$ptr@VBaseScreenLayer@Pegas@@@Pegas@@@std@@QAE@XZ 0043b640 f i game_application.obj
 0001:0003a670       ??0?$_Tree@V?$_Tset_traits@PAVIKeyboardController@Pegas@@U?$less@PAVIKeyboardController@Pegas@@@std@@V?$allocator@PAVIKeyboardController@Pegas@@@4@$0A@@std@@@std@@QAE@ABU?$less@PAVIKeyboardController@Pegas@@@1@ABV?$allocator@PAVIKeyboardController@Pegas@@@1@@Z 0043b670 f i game_application.obj
 0001:0003a710       ??0?$allocator@PAVIKeyboardController@Pegas@@@std@@QAE@XZ 0043b710 f i game_application.obj
 0001:0003a740       ??0?$_Tree@V?$_Tset_traits@PAVIMouseController@Pegas@@U?$less@PAVIMouseController@Pegas@@@std@@V?$allocator@PAVIMouseController@Pegas@@@4@$0A@@std@@@std@@QAE@ABU?$less@PAVIMouseController@Pegas@@@1@ABV?$allocator@PAVIMouseController@Pegas@@@1@@Z 0043b740 f i game_application.obj
 0001:0003a7e0       ??0?$allocator@PAVIMouseController@Pegas@@@std@@QAE@XZ 0043b7e0 f i game_application.obj
 0001:0003a810       ??0?$_Tree@V?$_Tmap_traits@HV?$ptr@VIGameState@Pegas@@@Pegas@@U?$less@H@std@@V?$allocator@U?$pair@$$CBHV?$ptr@VIGameState@Pegas@@@Pegas@@@std@@@4@$0A@@std@@@std@@QAE@ABU?$less@H@1@ABV?$allocator@U?$pair@$$CBHV?$ptr@VIGameState@Pegas@@@Pegas@@@std@@@1@@Z 0043b810 f i game_application.obj
 0001:0003a8b0       ??0?$allocator@U?$pair@$$CBHV?$ptr@VIGameState@Pegas@@@Pegas@@@std@@@std@@QAE@XZ 0043b8b0 f i game_application.obj
 0001:0003a8e0       ??0?$deque@V?$ptr@VIGameState@Pegas@@@Pegas@@V?$allocator@V?$ptr@VIGameState@Pegas@@@Pegas@@@std@@@std@@QAE@XZ 0043b8e0 f i game_application.obj
 0001:0003a960       ?_Buynode@?$list@V?$ptr@VFile@Pegas@@@Pegas@@V?$allocator@V?$ptr@VFile@Pegas@@@Pegas@@@std@@@std@@IAEPAU_Node@?$_List_nod@V?$ptr@VFile@Pegas@@@Pegas@@V?$allocator@V?$ptr@VFile@Pegas@@@Pegas@@@std@@@2@XZ 0043b960 f i game_application.obj
 0001:0003aac0       ??0?$_List_val@V?$ptr@VFile@Pegas@@@Pegas@@V?$allocator@V?$ptr@VFile@Pegas@@@Pegas@@@std@@@std@@QAE@V?$allocator@V?$ptr@VFile@Pegas@@@Pegas@@@1@@Z 0043bac0 f i game_application.obj
 0001:0003ab30       ??0?$allocator@V?$ptr@VFile@Pegas@@@Pegas@@@std@@QAE@XZ 0043bb30 f i game_application.obj
 0001:0003ab60       ??0?$Singleton@V?$ResourceManager@VStringResource@Pegas@@UIntResourceCode@2@@Pegas@@@Pegas@@QAE@AAV?$ResourceManager@VStringResource@Pegas@@UIntResourceCode@2@@1@@Z 0043bb60 f i game_application.obj
 0001:0003abc0       ??0?$map@HPAVStringResource@Pegas@@U?$less@H@std@@V?$allocator@U?$pair@$$CBHPAVStringResource@Pegas@@@std@@@4@@std@@QAE@XZ 0043bbc0 f i game_application.obj
 0001:0003ac20       ??0?$Singleton@V?$ResourceManager@VTextureResource@Pegas@@UIntResourceCode@2@@Pegas@@@Pegas@@QAE@AAV?$ResourceManager@VTextureResource@Pegas@@UIntResourceCode@2@@1@@Z 0043bc20 f i game_application.obj
 0001:0003ac80       ??0?$map@HPAVTextureResource@Pegas@@U?$less@H@std@@V?$allocator@U?$pair@$$CBHPAVTextureResource@Pegas@@@std@@@4@@std@@QAE@XZ 0043bc80 f i game_application.obj
 0001:0003ace0       ??0?$Singleton@V?$ResourceManager@VFontResource@Pegas@@UFontResourceCode@2@@Pegas@@@Pegas@@QAE@AAV?$ResourceManager@VFontResource@Pegas@@UFontResourceCode@2@@1@@Z 0043bce0 f i game_application.obj
 0001:0003ad40       ??0?$map@HPAVFontResource@Pegas@@U?$less@H@std@@V?$allocator@U?$pair@$$CBHPAVFontResource@Pegas@@@std@@@4@@std@@QAE@XZ 0043bd40 f i game_application.obj
 0001:0003ada0       ??0?$Singleton@V?$ResourceManager@VSoundResource@Pegas@@UIntResourceCode@2@@Pegas@@@Pegas@@QAE@AAV?$ResourceManager@VSoundResource@Pegas@@UIntResourceCode@2@@1@@Z 0043bda0 f i game_application.obj
 0001:0003ae00       ??0?$map@HPAVSoundResource@Pegas@@U?$less@H@std@@V?$allocator@U?$pair@$$CBHPAVSoundResource@Pegas@@@std@@@4@@std@@QAE@XZ 0043be00 f i game_application.obj
 0001:0003ae60       ??0?$_List_ptr@PAVIDrawable@Pegas@@V?$allocator@PAVIDrawable@Pegas@@@std@@@std@@IAE@V?$allocator@PAVIDrawable@Pegas@@@1@@Z 0043be60 f i game_application.obj
 0001:0003aed0       ??0?$allocator@PAVIDrawable@Pegas@@@std@@QAE@ABV01@@Z 0043bed0 f i game_application.obj
 0001:0003af00       ?allocate@?$allocator@U_Node@?$_List_nod@PAVIDrawable@Pegas@@V?$allocator@PAVIDrawable@Pegas@@@std@@@std@@@std@@QAEPAU_Node@?$_List_nod@PAVIDrawable@Pegas@@V?$allocator@PAVIDrawable@Pegas@@@std@@@2@I@Z 0043bf00 f i game_application.obj
 0001:0003af50       ?construct@?$allocator@PAU_Node@?$_List_nod@PAVIDrawable@Pegas@@V?$allocator@PAVIDrawable@Pegas@@@std@@@std@@@std@@QAEXPAPAU_Node@?$_List_nod@PAVIDrawable@Pegas@@V?$allocator@PAVIDrawable@Pegas@@@std@@@2@ABQAU342@@Z 0043bf50 f i game_application.obj
 0001:0003afa0       ??0?$_Deque_val@V?$ptr@UEvent@Pegas@@@Pegas@@V?$allocator@V?$ptr@UEvent@Pegas@@@Pegas@@@std@@@std@@IAE@V?$allocator@V?$ptr@UEvent@Pegas@@@Pegas@@@1@@Z 0043bfa0 f i game_application.obj
 0001:0003b010       ??0?$allocator@V?$ptr@UEvent@Pegas@@@Pegas@@@std@@QAE@XZ 0043c010 f i game_application.obj
 0001:0003b040       ?_Init@?$_Tree@V?$_Tmap_traits@V?$basic_string@DU?$char_traits@D@std@@V?$allocator@D@2@@std@@V?$ptr@V?$set@PAVIEventListener@Pegas@@U?$less@PAVIEventListener@Pegas@@@std@@V?$allocator@PAVIEventListener@Pegas@@@4@@std@@@Pegas@@U?$less@V?$basic_string@DU?$char_traits@D@std@@V?$allocator@D@2@@std@@@2@V?$allocator@U?$pair@$$CBV?$basic_string@DU?$char_traits@D@std@@V?$allocator@D@2@@std@@V?$ptr@V?$set@PAVIEventListener@Pegas@@U?$less@PAVIEventListener@Pegas@@@std@@V?$allocator@PAVIEventListener@Pegas@@@4@@std@@@Pegas@@@std@@@2@$0A@@std@@@std@@IAEXXZ 0043c040 f i game_application.obj
 0001:0003b0e0       ??0?$_Tree_val@V?$_Tmap_traits@V?$basic_string@DU?$char_traits@D@std@@V?$allocator@D@2@@std@@V?$ptr@V?$set@PAVIEventListener@Pegas@@U?$less@PAVIEventListener@Pegas@@@std@@V?$allocator@PAVIEventListener@Pegas@@@4@@std@@@Pegas@@U?$less@V?$basic_string@DU?$char_traits@D@std@@V?$allocator@D@2@@std@@@2@V?$allocator@U?$pair@$$CBV?$basic_string@DU?$char_traits@D@std@@V?$allocator@D@2@@std@@V?$ptr@V?$set@PAVIEventListener@Pegas@@U?$less@PAVIEventListener@Pegas@@@std@@V?$allocator@PAVIEventListener@Pegas@@@4@@std@@@Pegas@@@std@@@2@$0A@@std@@@std@@IAE@ABU?$less@V?$basic_string@DU?$char_traits@D@std@@V?$allocator@D@2@@std@@@1@V?$allocator@U?$pair@$$CBV?$basic_string@DU?$char_traits@D@std@@V?$allocator@D@2@@std@@V?$ptr@V?$set@PAVIEventListener@Pegas@@U?$less@PAVIEventListener@Pegas@@@std@@V?$allocator@PAVIEventListener@Pegas@@@4@@std@@@Pegas@@@std@@@1@@Z 0043c0e0 f i game_application.obj
 0001:0003b150       ??0?$allocator@U?$pair@$$CBV?$basic_string@DU?$char_traits@D@std@@V?$allocator@D@2@@std@@V?$ptr@V?$set@PAVIEventListener@Pegas@@U?$less@PAVIEventListener@Pegas@@@std@@V?$allocator@PAVIEventListener@Pegas@@@4@@std@@@Pegas@@@std@@@std@@QAE@ABV01@@Z 0043c150 f i game_application.obj
 0001:0003b180       ?_Nextnode@?$list@V?$ptr@VBaseScreenLayer@Pegas@@@Pegas@@V?$allocator@V?$ptr@VBaseScreenLayer@Pegas@@@Pegas@@@std@@@std@@KAAAPAU_Node@?$_List_nod@V?$ptr@VBaseScreenLayer@Pegas@@@Pegas@@V?$allocator@V?$ptr@VBaseScreenLayer@Pegas@@@Pegas@@@std@@@2@PAU342@@Z 0043c180 f i game_application.obj
 0001:0003b1b0       ?_Prevnode@?$list@V?$ptr@VBaseScreenLayer@Pegas@@@Pegas@@V?$allocator@V?$ptr@VBaseScreenLayer@Pegas@@@Pegas@@@std@@@std@@KAAAPAU_Node@?$_List_nod@V?$ptr@VBaseScreenLayer@Pegas@@@Pegas@@V?$allocator@V?$ptr@VBaseScreenLayer@Pegas@@@Pegas@@@std@@@2@PAU342@@Z 0043c1b0 f i game_application.obj
 0001:0003b1e0       ?clear@?$list@V?$ptr@VBaseScreenLayer@Pegas@@@Pegas@@V?$allocator@V?$ptr@VBaseScreenLayer@Pegas@@@Pegas@@@std@@@std@@QAEXXZ 0043c1e0 f i game_application.obj
 0001:0003b2c0       ??0?$_List_ptr@V?$ptr@VBaseScreenLayer@Pegas@@@Pegas@@V?$allocator@V?$ptr@VBaseScreenLayer@Pegas@@@Pegas@@@std@@@std@@IAE@V?$allocator@V?$ptr@VBaseScreenLayer@Pegas@@@Pegas@@@1@@Z 0043c2c0 f i game_application.obj
 0001:0003b330       ??0?$allocator@V?$ptr@VBaseScreenLayer@Pegas@@@Pegas@@@std@@QAE@ABV01@@Z 0043c330 f i game_application.obj
 0001:0003b360       ?deallocate@?$allocator@U_Node@?$_List_nod@V?$ptr@VBaseScreenLayer@Pegas@@@Pegas@@V?$allocator@V?$ptr@VBaseScreenLayer@Pegas@@@Pegas@@@std@@@std@@@std@@QAEXPAU_Node@?$_List_nod@V?$ptr@VBaseScreenLayer@Pegas@@@Pegas@@V?$allocator@V?$ptr@VBaseScreenLayer@Pegas@@@Pegas@@@std@@@2@I@Z 0043c360 f i game_application.obj
 0001:0003b3b0       ?allocate@?$allocator@U_Node@?$_List_nod@V?$ptr@VBaseScreenLayer@Pegas@@@Pegas@@V?$allocator@V?$ptr@VBaseScreenLayer@Pegas@@@Pegas@@@std@@@std@@@std@@QAEPAU_Node@?$_List_nod@V?$ptr@VBaseScreenLayer@Pegas@@@Pegas@@V?$allocator@V?$ptr@VBaseScreenLayer@Pegas@@@Pegas@@@std@@@2@I@Z 0043c3b0 f i game_application.obj
 0001:0003b400       ?construct@?$allocator@PAU_Node@?$_List_nod@V?$ptr@VBaseScreenLayer@Pegas@@@Pegas@@V?$allocator@V?$ptr@VBaseScreenLayer@Pegas@@@Pegas@@@std@@@std@@@std@@QAEXPAPAU_Node@?$_List_nod@V?$ptr@VBaseScreenLayer@Pegas@@@Pegas@@V?$allocator@V?$ptr@VBaseScreenLayer@Pegas@@@Pegas@@@std@@@2@ABQAU342@@Z 0043c400 f i game_application.obj
 0001:0003b450       ?destroy@?$allocator@PAU_Node@?$_List_nod@V?$ptr@VBaseScreenLayer@Pegas@@@Pegas@@V?$allocator@V?$ptr@VBaseScreenLayer@Pegas@@@Pegas@@@std@@@std@@@std@@QAEXPAPAU_Node@?$_List_nod@V?$ptr@VBaseScreenLayer@Pegas@@@Pegas@@V?$allocator@V?$ptr@VBaseScreenLayer@Pegas@@@Pegas@@@std@@@2@@Z 0043c450 f i game_application.obj
 0001:0003b4a0       ?_Init@?$_Tree@V?$_Tset_traits@PAVIKeyboardController@Pegas@@U?$less@PAVIKeyboardController@Pegas@@@std@@V?$allocator@PAVIKeyboardController@Pegas@@@4@$0A@@std@@@std@@IAEXXZ 0043c4a0 f i game_application.obj
 0001:0003b540       ??0?$_Tree_val@V?$_Tset_traits@PAVIKeyboardController@Pegas@@U?$less@PAVIKeyboardController@Pegas@@@std@@V?$allocator@PAVIKeyboardController@Pegas@@@4@$0A@@std@@@std@@IAE@ABU?$less@PAVIKeyboardController@Pegas@@@1@V?$allocator@PAVIKeyboardController@Pegas@@@1@@Z 0043c540 f i game_application.obj
 0001:0003b5b0       ??0?$allocator@PAVIKeyboardController@Pegas@@@std@@QAE@ABV01@@Z 0043c5b0 f i game_application.obj
 0001:0003b5e0       ?_Init@?$_Tree@V?$_Tset_traits@PAVIMouseController@Pegas@@U?$less@PAVIMouseController@Pegas@@@std@@V?$allocator@PAVIMouseController@Pegas@@@4@$0A@@std@@@std@@IAEXXZ 0043c5e0 f i game_application.obj
 0001:0003b680       ??0?$_Tree_val@V?$_Tset_traits@PAVIMouseController@Pegas@@U?$less@PAVIMouseController@Pegas@@@std@@V?$allocator@PAVIMouseController@Pegas@@@4@$0A@@std@@@std@@IAE@ABU?$less@PAVIMouseController@Pegas@@@1@V?$allocator@PAVIMouseController@Pegas@@@1@@Z 0043c680 f i game_application.obj
 0001:0003b6f0       ??0?$allocator@PAVIMouseController@Pegas@@@std@@QAE@ABV01@@Z 0043c6f0 f i game_application.obj
 0001:0003b720       ?_Init@?$_Tree@V?$_Tmap_traits@HV?$ptr@VIGameState@Pegas@@@Pegas@@U?$less@H@std@@V?$allocator@U?$pair@$$CBHV?$ptr@VIGameState@Pegas@@@Pegas@@@std@@@4@$0A@@std@@@std@@IAEXXZ 0043c720 f i game_application.obj
 0001:0003b7c0       ??0?$_Tree_val@V?$_Tmap_traits@HV?$ptr@VIGameState@Pegas@@@Pegas@@U?$less@H@std@@V?$allocator@U?$pair@$$CBHV?$ptr@VIGameState@Pegas@@@Pegas@@@std@@@4@$0A@@std@@@std@@IAE@ABU?$less@H@1@V?$allocator@U?$pair@$$CBHV?$ptr@VIGameState@Pegas@@@Pegas@@@std@@@1@@Z 0043c7c0 f i game_application.obj
 0001:0003b830       ??0?$allocator@U?$pair@$$CBHV?$ptr@VIGameState@Pegas@@@Pegas@@@std@@@std@@QAE@ABV01@@Z 0043c830 f i game_application.obj
 0001:0003b860       ??0?$_Deque_val@V?$ptr@VIGameState@Pegas@@@Pegas@@V?$allocator@V?$ptr@VIGameState@Pegas@@@Pegas@@@std@@@std@@IAE@V?$allocator@V?$ptr@VIGameState@Pegas@@@Pegas@@@1@@Z 0043c860 f i game_application.obj
 0001:0003b8d0       ??0?$allocator@V?$ptr@VIGameState@Pegas@@@Pegas@@@std@@QAE@XZ 0043c8d0 f i game_application.obj
 0001:0003b900       ??0?$_List_ptr@V?$ptr@VFile@Pegas@@@Pegas@@V?$allocator@V?$ptr@VFile@Pegas@@@Pegas@@@std@@@std@@IAE@V?$allocator@V?$ptr@VFile@Pegas@@@Pegas@@@1@@Z 0043c900 f i game_application.obj
 0001:0003b970       ??0?$allocator@V?$ptr@VFile@Pegas@@@Pegas@@@std@@QAE@ABV01@@Z 0043c970 f i game_application.obj
 0001:0003b9a0       ?allocate@?$allocator@U_Node@?$_List_nod@V?$ptr@VFile@Pegas@@@Pegas@@V?$allocator@V?$ptr@VFile@Pegas@@@Pegas@@@std@@@std@@@std@@QAEPAU_Node@?$_List_nod@V?$ptr@VFile@Pegas@@@Pegas@@V?$allocator@V?$ptr@VFile@Pegas@@@Pegas@@@std@@@2@I@Z 0043c9a0 f i game_application.obj
 0001:0003b9f0       ?construct@?$allocator@PAU_Node@?$_List_nod@V?$ptr@VFile@Pegas@@@Pegas@@V?$allocator@V?$ptr@VFile@Pegas@@@Pegas@@@std@@@std@@@std@@QAEXPAPAU_Node@?$_List_nod@V?$ptr@VFile@Pegas@@@Pegas@@V?$allocator@V?$ptr@VFile@Pegas@@@Pegas@@@std@@@2@ABQAU342@@Z 0043c9f0 f i game_application.obj
 0001:0003ba40       ??0?$_Tree@V?$_Tmap_traits@HPAVStringResource@Pegas@@U?$less@H@std@@V?$allocator@U?$pair@$$CBHPAVStringResource@Pegas@@@std@@@4@$0A@@std@@@std@@QAE@ABU?$less@H@1@ABV?$allocator@U?$pair@$$CBHPAVStringResource@Pegas@@@std@@@1@@Z 0043ca40 f i game_application.obj
 0001:0003bae0       ??0?$allocator@U?$pair@$$CBHPAVStringResource@Pegas@@@std@@@std@@QAE@XZ 0043cae0 f i game_application.obj
 0001:0003bb10       ??0?$_Tree@V?$_Tmap_traits@HPAVTextureResource@Pegas@@U?$less@H@std@@V?$allocator@U?$pair@$$CBHPAVTextureResource@Pegas@@@std@@@4@$0A@@std@@@std@@QAE@ABU?$less@H@1@ABV?$allocator@U?$pair@$$CBHPAVTextureResource@Pegas@@@std@@@1@@Z 0043cb10 f i game_application.obj
 0001:0003bbb0       ??0?$allocator@U?$pair@$$CBHPAVTextureResource@Pegas@@@std@@@std@@QAE@XZ 0043cbb0 f i game_application.obj
 0001:0003bbe0       ??0?$_Tree@V?$_Tmap_traits@HPAVFontResource@Pegas@@U?$less@H@std@@V?$allocator@U?$pair@$$CBHPAVFontResource@Pegas@@@std@@@4@$0A@@std@@@std@@QAE@ABU?$less@H@1@ABV?$allocator@U?$pair@$$CBHPAVFontResource@Pegas@@@std@@@1@@Z 0043cbe0 f i game_application.obj
 0001:0003bc80       ??0?$allocator@U?$pair@$$CBHPAVFontResource@Pegas@@@std@@@std@@QAE@XZ 0043cc80 f i game_application.obj
 0001:0003bcb0       ??0?$_Tree@V?$_Tmap_traits@HPAVSoundResource@Pegas@@U?$less@H@std@@V?$allocator@U?$pair@$$CBHPAVSoundResource@Pegas@@@std@@@4@$0A@@std@@@std@@QAE@ABU?$less@H@1@ABV?$allocator@U?$pair@$$CBHPAVSoundResource@Pegas@@@std@@@1@@Z 0043ccb0 f i game_application.obj
 0001:0003bd50       ??0?$allocator@U?$pair@$$CBHPAVSoundResource@Pegas@@@std@@@std@@QAE@XZ 0043cd50 f i game_application.obj
 0001:0003bd80       ??0?$_List_nod@PAVIDrawable@Pegas@@V?$allocator@PAVIDrawable@Pegas@@@std@@@std@@IAE@V?$allocator@PAVIDrawable@Pegas@@@1@@Z 0043cd80 f i game_application.obj
 0001:0003bdf0       ??0?$_Deque_map@V?$ptr@UEvent@Pegas@@@Pegas@@V?$allocator@V?$ptr@UEvent@Pegas@@@Pegas@@@std@@@std@@IAE@V?$allocator@V?$ptr@UEvent@Pegas@@@Pegas@@@1@@Z 0043cdf0 f i game_application.obj
 0001:0003be60       ??0?$allocator@V?$ptr@UEvent@Pegas@@@Pegas@@@std@@QAE@ABV01@@Z 0043ce60 f i game_application.obj
 0001:0003be90       ?_Buynode@?$_Tree@V?$_Tmap_traits@V?$basic_string@DU?$char_traits@D@std@@V?$allocator@D@2@@std@@V?$ptr@V?$set@PAVIEventListener@Pegas@@U?$less@PAVIEventListener@Pegas@@@std@@V?$allocator@PAVIEventListener@Pegas@@@4@@std@@@Pegas@@U?$less@V?$basic_string@DU?$char_traits@D@std@@V?$allocator@D@2@@std@@@2@V?$allocator@U?$pair@$$CBV?$basic_string@DU?$char_traits@D@std@@V?$allocator@D@2@@std@@V?$ptr@V?$set@PAVIEventListener@Pegas@@U?$less@PAVIEventListener@Pegas@@@std@@V?$allocator@PAVIEventListener@Pegas@@@4@@std@@@Pegas@@@std@@@2@$0A@@std@@@std@@IAEPAU_Node@?$_Tree_nod@V?$_Tmap_traits@V?$basic_string@DU?$char_traits@D@std@@V?$allocator@D@2@@std@@V?$ptr@V?$set@PAVIEventListener@Pegas@@U?$less@PAVIEventListener@Pegas@@@std@@V?$allocator@PAVIEventListener@Pegas@@@4@@std@@@Pegas@@U?$less@V?$basic_string@DU?$char_traits@D@std@@V?$allocator@D@2@@std@@@2@V?$allocator@U?$pair@$$CBV?$basic_string@DU?$char_traits@D@std@@V?$allocator@D@2@@std@@V?$ptr@V?$set@PAVIEventListener@Pegas@@U?$less@PAVIEventListener@Pegas@@@std@@V?$allocator@PAVIEventListener@Pegas@@@4@@std@@@Pegas@@@std@@@2@$0A@@std@@@2@XZ 0043ce90 f i game_application.obj
 0001:0003c060       ??0?$_Tree_ptr@V?$_Tmap_traits@V?$basic_string@DU?$char_traits@D@std@@V?$allocator@D@2@@std@@V?$ptr@V?$set@PAVIEventListener@Pegas@@U?$less@PAVIEventListener@Pegas@@@std@@V?$allocator@PAVIEventListener@Pegas@@@4@@std@@@Pegas@@U?$less@V?$basic_string@DU?$char_traits@D@std@@V?$allocator@D@2@@std@@@2@V?$allocator@U?$pair@$$CBV?$basic_string@DU?$char_traits@D@std@@V?$allocator@D@2@@std@@V?$ptr@V?$set@PAVIEventListener@Pegas@@U?$less@PAVIEventListener@Pegas@@@std@@V?$allocator@PAVIEventListener@Pegas@@@4@@std@@@Pegas@@@std@@@2@$0A@@std@@@std@@QAE@ABU?$less@V?$basic_string@DU?$char_traits@D@std@@V?$allocator@D@2@@std@@@1@V?$allocator@U?$pair@$$CBV?$basic_string@DU?$char_traits@D@std@@V?$allocator@D@2@@std@@V?$ptr@V?$set@PAVIEventListener@Pegas@@U?$less@PAVIEventListener@Pegas@@@std@@V?$allocator@PAVIEventListener@Pegas@@@4@@std@@@Pegas@@@std@@@1@@Z 0043d060 f i game_application.obj
 0001:0003c0d0       ?_Orphan_ptr@?$list@V?$ptr@VBaseScreenLayer@Pegas@@@Pegas@@V?$allocator@V?$ptr@VBaseScreenLayer@Pegas@@@Pegas@@@std@@@std@@IBEXAAV12@PAU_Node@?$_List_nod@V?$ptr@VBaseScreenLayer@Pegas@@@Pegas@@V?$allocator@V?$ptr@VBaseScreenLayer@Pegas@@@Pegas@@@std@@@2@@Z 0043d0d0 f i game_application.obj
 0001:0003c1a0       ??0?$_List_nod@V?$ptr@VBaseScreenLayer@Pegas@@@Pegas@@V?$allocator@V?$ptr@VBaseScreenLayer@Pegas@@@Pegas@@@std@@@std@@IAE@V?$allocator@V?$ptr@VBaseScreenLayer@Pegas@@@Pegas@@@1@@Z 0043d1a0 f i game_application.obj
 0001:0003c210       ?destroy@?$allocator@U_Node@?$_List_nod@V?$ptr@VBaseScreenLayer@Pegas@@@Pegas@@V?$allocator@V?$ptr@VBaseScreenLayer@Pegas@@@Pegas@@@std@@@std@@@std@@QAEXPAU_Node@?$_List_nod@V?$ptr@VBaseScreenLayer@Pegas@@@Pegas@@V?$allocator@V?$ptr@VBaseScreenLayer@Pegas@@@Pegas@@@std@@@2@@Z 0043d210 f i game_application.obj
 0001:0003c260       ?_Buynode@?$_Tree@V?$_Tset_traits@PAVIKeyboardController@Pegas@@U?$less@PAVIKeyboardController@Pegas@@@std@@V?$allocator@PAVIKeyboardController@Pegas@@@4@$0A@@std@@@std@@IAEPAU_Node@?$_Tree_nod@V?$_Tset_traits@PAVIKeyboardController@Pegas@@U?$less@PAVIKeyboardController@Pegas@@@std@@V?$allocator@PAVIKeyboardController@Pegas@@@4@$0A@@std@@@2@XZ 0043d260 f i game_application.obj
 0001:0003c430       ??0?$_Tree_ptr@V?$_Tset_traits@PAVIKeyboardController@Pegas@@U?$less@PAVIKeyboardController@Pegas@@@std@@V?$allocator@PAVIKeyboardController@Pegas@@@4@$0A@@std@@@std@@QAE@ABU?$less@PAVIKeyboardController@Pegas@@@1@V?$allocator@PAVIKeyboardController@Pegas@@@1@@Z 0043d430 f i game_application.obj
 0001:0003c4a0       ?_Buynode@?$_Tree@V?$_Tset_traits@PAVIMouseController@Pegas@@U?$less@PAVIMouseController@Pegas@@@std@@V?$allocator@PAVIMouseController@Pegas@@@4@$0A@@std@@@std@@IAEPAU_Node@?$_Tree_nod@V?$_Tset_traits@PAVIMouseController@Pegas@@U?$less@PAVIMouseController@Pegas@@@std@@V?$allocator@PAVIMouseController@Pegas@@@4@$0A@@std@@@2@XZ 0043d4a0 f i game_application.obj
 0001:0003c670       ??0?$_Tree_ptr@V?$_Tset_traits@PAVIMouseController@Pegas@@U?$less@PAVIMouseController@Pegas@@@std@@V?$allocator@PAVIMouseController@Pegas@@@4@$0A@@std@@@std@@QAE@ABU?$less@PAVIMouseController@Pegas@@@1@V?$allocator@PAVIMouseController@Pegas@@@1@@Z 0043d670 f i game_application.obj
 0001:0003c6e0       ?_Buynode@?$_Tree@V?$_Tmap_traits@HV?$ptr@VIGameState@Pegas@@@Pegas@@U?$less@H@std@@V?$allocator@U?$pair@$$CBHV?$ptr@VIGameState@Pegas@@@Pegas@@@std@@@4@$0A@@std@@@std@@IAEPAU_Node@?$_Tree_nod@V?$_Tmap_traits@HV?$ptr@VIGameState@Pegas@@@Pegas@@U?$less@H@std@@V?$allocator@U?$pair@$$CBHV?$ptr@VIGameState@Pegas@@@Pegas@@@std@@@4@$0A@@std@@@2@XZ 0043d6e0 f i game_application.obj
 0001:0003c8b0       ??0?$_Tree_ptr@V?$_Tmap_traits@HV?$ptr@VIGameState@Pegas@@@Pegas@@U?$less@H@std@@V?$allocator@U?$pair@$$CBHV?$ptr@VIGameState@Pegas@@@Pegas@@@std@@@4@$0A@@std@@@std@@QAE@ABU?$less@H@1@V?$allocator@U?$pair@$$CBHV?$ptr@VIGameState@Pegas@@@Pegas@@@std@@@1@@Z 0043d8b0 f i game_application.obj
 0001:0003c920       ??0?$_Deque_map@V?$ptr@VIGameState@Pegas@@@Pegas@@V?$allocator@V?$ptr@VIGameState@Pegas@@@Pegas@@@std@@@std@@IAE@V?$allocator@V?$ptr@VIGameState@Pegas@@@Pegas@@@1@@Z 0043d920 f i game_application.obj
 0001:0003c990       ??0?$allocator@V?$ptr@VIGameState@Pegas@@@Pegas@@@std@@QAE@ABV01@@Z 0043d990 f i game_application.obj
 0001:0003c9c0       ??0?$_List_nod@V?$ptr@VFile@Pegas@@@Pegas@@V?$allocator@V?$ptr@VFile@Pegas@@@Pegas@@@std@@@std@@IAE@V?$allocator@V?$ptr@VFile@Pegas@@@Pegas@@@1@@Z 0043d9c0 f i game_application.obj
 0001:0003ca30       ?_Init@?$_Tree@V?$_Tmap_traits@HPAVStringResource@Pegas@@U?$less@H@std@@V?$allocator@U?$pair@$$CBHPAVStringResource@Pegas@@@std@@@4@$0A@@std@@@std@@IAEXXZ 0043da30 f i game_application.obj
 0001:0003cad0       ??0?$_Tree_val@V?$_Tmap_traits@HPAVStringResource@Pegas@@U?$less@H@std@@V?$allocator@U?$pair@$$CBHPAVStringResource@Pegas@@@std@@@4@$0A@@std@@@std@@IAE@ABU?$less@H@1@V?$allocator@U?$pair@$$CBHPAVStringResource@Pegas@@@std@@@1@@Z 0043dad0 f i game_application.obj
 0001:0003cb40       ??0?$allocator@U?$pair@$$CBHPAVStringResource@Pegas@@@std@@@std@@QAE@ABV01@@Z 0043db40 f i game_application.obj
 0001:0003cb70       ?_Init@?$_Tree@V?$_Tmap_traits@HPAVTextureResource@Pegas@@U?$less@H@std@@V?$allocator@U?$pair@$$CBHPAVTextureResource@Pegas@@@std@@@4@$0A@@std@@@std@@IAEXXZ 0043db70 f i game_application.obj
 0001:0003cc10       ??0?$_Tree_val@V?$_Tmap_traits@HPAVTextureResource@Pegas@@U?$less@H@std@@V?$allocator@U?$pair@$$CBHPAVTextureResource@Pegas@@@std@@@4@$0A@@std@@@std@@IAE@ABU?$less@H@1@V?$allocator@U?$pair@$$CBHPAVTextureResource@Pegas@@@std@@@1@@Z 0043dc10 f i game_application.obj
 0001:0003cc80       ??0?$allocator@U?$pair@$$CBHPAVTextureResource@Pegas@@@std@@@std@@QAE@ABV01@@Z 0043dc80 f i game_application.obj
 0001:0003ccb0       ?_Init@?$_Tree@V?$_Tmap_traits@HPAVFontResource@Pegas@@U?$less@H@std@@V?$allocator@U?$pair@$$CBHPAVFontResource@Pegas@@@std@@@4@$0A@@std@@@std@@IAEXXZ 0043dcb0 f i game_application.obj
 0001:0003cd50       ??0?$_Tree_val@V?$_Tmap_traits@HPAVFontResource@Pegas@@U?$less@H@std@@V?$allocator@U?$pair@$$CBHPAVFontResource@Pegas@@@std@@@4@$0A@@std@@@std@@IAE@ABU?$less@H@1@V?$allocator@U?$pair@$$CBHPAVFontResource@Pegas@@@std@@@1@@Z 0043dd50 f i game_application.obj
 0001:0003cdc0       ??0?$allocator@U?$pair@$$CBHPAVFontResource@Pegas@@@std@@@std@@QAE@ABV01@@Z 0043ddc0 f i game_application.obj
 0001:0003cdf0       ?_Init@?$_Tree@V?$_Tmap_traits@HPAVSoundResource@Pegas@@U?$less@H@std@@V?$allocator@U?$pair@$$CBHPAVSoundResource@Pegas@@@std@@@4@$0A@@std@@@std@@IAEXXZ 0043ddf0 f i game_application.obj
 0001:0003ce90       ??0?$_Tree_val@V?$_Tmap_traits@HPAVSoundResource@Pegas@@U?$less@H@std@@V?$allocator@U?$pair@$$CBHPAVSoundResource@Pegas@@@std@@@4@$0A@@std@@@std@@IAE@ABU?$less@H@1@V?$allocator@U?$pair@$$CBHPAVSoundResource@Pegas@@@std@@@1@@Z 0043de90 f i game_application.obj
 0001:0003cf00       ??0?$allocator@U?$pair@$$CBHPAVSoundResource@Pegas@@@std@@@std@@QAE@ABV01@@Z 0043df00 f i game_application.obj
 0001:0003cf30       ??0?$_Container_base_aux_alloc_empty@V?$allocator@PAVIDrawable@Pegas@@@std@@@std@@IAE@V?$allocator@PAVIDrawable@Pegas@@@1@@Z 0043df30 f i game_application.obj
 0001:0003cf80       ??0?$_Container_base_aux_alloc_empty@V?$allocator@V?$ptr@UEvent@Pegas@@@Pegas@@@std@@@std@@IAE@V?$allocator@V?$ptr@UEvent@Pegas@@@Pegas@@@1@@Z 0043df80 f i game_application.obj
 0001:0003cfd0       ??0?$_Tree_nod@V?$_Tmap_traits@V?$basic_string@DU?$char_traits@D@std@@V?$allocator@D@2@@std@@V?$ptr@V?$set@PAVIEventListener@Pegas@@U?$less@PAVIEventListener@Pegas@@@std@@V?$allocator@PAVIEventListener@Pegas@@@4@@std@@@Pegas@@U?$less@V?$basic_string@DU?$char_traits@D@std@@V?$allocator@D@2@@std@@@2@V?$allocator@U?$pair@$$CBV?$basic_string@DU?$char_traits@D@std@@V?$allocator@D@2@@std@@V?$ptr@V?$set@PAVIEventListener@Pegas@@U?$less@PAVIEventListener@Pegas@@@std@@V?$allocator@PAVIEventListener@Pegas@@@4@@std@@@Pegas@@@std@@@2@$0A@@std@@@std@@IAE@ABU?$less@V?$basic_string@DU?$char_traits@D@std@@V?$allocator@D@2@@std@@@1@V?$allocator@U?$pair@$$CBV?$basic_string@DU?$char_traits@D@std@@V?$allocator@D@2@@std@@V?$ptr@V?$set@PAVIEventListener@Pegas@@U?$less@PAVIEventListener@Pegas@@@std@@V?$allocator@PAVIEventListener@Pegas@@@4@@std@@@Pegas@@@std@@@1@@Z 0043dfd0 f i game_application.obj
 0001:0003d040       ?allocate@?$allocator@U_Node@?$_Tree_nod@V?$_Tmap_traits@V?$basic_string@DU?$char_traits@D@std@@V?$allocator@D@2@@std@@V?$ptr@V?$set@PAVIEventListener@Pegas@@U?$less@PAVIEventListener@Pegas@@@std@@V?$allocator@PAVIEventListener@Pegas@@@4@@std@@@Pegas@@U?$less@V?$basic_string@DU?$char_traits@D@std@@V?$allocator@D@2@@std@@@2@V?$allocator@U?$pair@$$CBV?$basic_string@DU?$char_traits@D@std@@V?$allocator@D@2@@std@@V?$ptr@V?$set@PAVIEventListener@Pegas@@U?$less@PAVIEventListener@Pegas@@@std@@V?$allocator@PAVIEventListener@Pegas@@@4@@std@@@Pegas@@@std@@@2@$0A@@std@@@std@@@std@@QAEPAU_Node@?$_Tree_nod@V?$_Tmap_traits@V?$basic_string@DU?$char_traits@D@std@@V?$allocator@D@2@@std@@V?$ptr@V?$set@PAVIEventListener@Pegas@@U?$less@PAVIEventListener@Pegas@@@std@@V?$allocator@PAVIEventListener@Pegas@@@4@@std@@@Pegas@@U?$less@V?$basic_string@DU?$char_traits@D@std@@V?$allocator@D@2@@std@@@2@V?$allocator@U?$pair@$$CBV?$basic_string@DU?$char_traits@D@std@@V?$allocator@D@2@@std@@V?$ptr@V?$set@PAVIEventListener@Pegas@@U?$less@PAVIEventListener@Pegas@@@std@@V?$allocator@PAVIEventListener@Pegas@@@4@@std@@@Pegas@@@std@@@2@$0A@@std@@@2@I@Z 0043e040 f i game_application.obj
 0001:0003d090       ?construct@?$allocator@PAU_Node@?$_Tree_nod@V?$_Tmap_traits@V?$basic_string@DU?$char_traits@D@std@@V?$allocator@D@2@@std@@V?$ptr@V?$set@PAVIEventListener@Pegas@@U?$less@PAVIEventListener@Pegas@@@std@@V?$allocator@PAVIEventListener@Pegas@@@4@@std@@@Pegas@@U?$less@V?$basic_string@DU?$char_traits@D@std@@V?$allocator@D@2@@std@@@2@V?$allocator@U?$pair@$$CBV?$basic_string@DU?$char_traits@D@std@@V?$allocator@D@2@@std@@V?$ptr@V?$set@PAVIEventListener@Pegas@@U?$less@PAVIEventListener@Pegas@@@std@@V?$allocator@PAVIEventListener@Pegas@@@4@@std@@@Pegas@@@std@@@2@$0A@@std@@@std@@@std@@QAEXPAPAU_Node@?$_Tree_nod@V?$_Tmap_traits@V?$basic_string@DU?$char_traits@D@std@@V?$allocator@D@2@@std@@V?$ptr@V?$set@PAVIEventListener@Pegas@@U?$less@PAVIEventListener@Pegas@@@std@@V?$allocator@PAVIEventListener@Pegas@@@4@@std@@@Pegas@@U?$less@V?$basic_string@DU?$char_traits@D@std@@V?$allocator@D@2@@std@@@2@V?$allocator@U?$pair@$$CBV?$basic_string@DU?$char_traits@D@std@@V?$allocator@D@2@@std@@V?$ptr@V?$set@PAVIEventListener@Pegas@@U?$less@PAVIEventListener@Pegas@@@std@@V?$allocator@PAVIEventListener@Pegas@@@4@@std@@@Pegas@@@std@@@2@$0A@@std@@@2@ABQAU342@@Z 0043e090 f i game_application.obj
 0001:0003d0e0       ??0?$_Container_base_aux_alloc_empty@V?$allocator@V?$ptr@VBaseScreenLayer@Pegas@@@Pegas@@@std@@@std@@IAE@V?$allocator@V?$ptr@VBaseScreenLayer@Pegas@@@Pegas@@@1@@Z 0043e0e0 f i game_application.obj
 0001:0003d130       ??0?$_Tree_nod@V?$_Tset_traits@PAVIKeyboardController@Pegas@@U?$less@PAVIKeyboardController@Pegas@@@std@@V?$allocator@PAVIKeyboardController@Pegas@@@4@$0A@@std@@@std@@IAE@ABU?$less@PAVIKeyboardController@Pegas@@@1@V?$allocator@PAVIKeyboardController@Pegas@@@1@@Z 0043e130 f i game_application.obj
 0001:0003d1a0       ?allocate@?$allocator@U_Node@?$_Tree_nod@V?$_Tset_traits@PAVIKeyboardController@Pegas@@U?$less@PAVIKeyboardController@Pegas@@@std@@V?$allocator@PAVIKeyboardController@Pegas@@@4@$0A@@std@@@std@@@std@@QAEPAU_Node@?$_Tree_nod@V?$_Tset_traits@PAVIKeyboardController@Pegas@@U?$less@PAVIKeyboardController@Pegas@@@std@@V?$allocator@PAVIKeyboardController@Pegas@@@4@$0A@@std@@@2@I@Z 0043e1a0 f i game_application.obj
 0001:0003d1f0       ?construct@?$allocator@PAU_Node@?$_Tree_nod@V?$_Tset_traits@PAVIKeyboardController@Pegas@@U?$less@PAVIKeyboardController@Pegas@@@std@@V?$allocator@PAVIKeyboardController@Pegas@@@4@$0A@@std@@@std@@@std@@QAEXPAPAU_Node@?$_Tree_nod@V?$_Tset_traits@PAVIKeyboardController@Pegas@@U?$less@PAVIKeyboardController@Pegas@@@std@@V?$allocator@PAVIKeyboardController@Pegas@@@4@$0A@@std@@@2@ABQAU342@@Z 0043e1f0 f i game_application.obj
 0001:0003d240       ??0?$_Tree_nod@V?$_Tset_traits@PAVIMouseController@Pegas@@U?$less@PAVIMouseController@Pegas@@@std@@V?$allocator@PAVIMouseController@Pegas@@@4@$0A@@std@@@std@@IAE@ABU?$less@PAVIMouseController@Pegas@@@1@V?$allocator@PAVIMouseController@Pegas@@@1@@Z 0043e240 f i game_application.obj
 0001:0003d2b0       ?allocate@?$allocator@U_Node@?$_Tree_nod@V?$_Tset_traits@PAVIMouseController@Pegas@@U?$less@PAVIMouseController@Pegas@@@std@@V?$allocator@PAVIMouseController@Pegas@@@4@$0A@@std@@@std@@@std@@QAEPAU_Node@?$_Tree_nod@V?$_Tset_traits@PAVIMouseController@Pegas@@U?$less@PAVIMouseController@Pegas@@@std@@V?$allocator@PAVIMouseController@Pegas@@@4@$0A@@std@@@2@I@Z 0043e2b0 f i game_application.obj
 0001:0003d300       ?construct@?$allocator@PAU_Node@?$_Tree_nod@V?$_Tset_traits@PAVIMouseController@Pegas@@U?$less@PAVIMouseController@Pegas@@@std@@V?$allocator@PAVIMouseController@Pegas@@@4@$0A@@std@@@std@@@std@@QAEXPAPAU_Node@?$_Tree_nod@V?$_Tset_traits@PAVIMouseController@Pegas@@U?$less@PAVIMouseController@Pegas@@@std@@V?$allocator@PAVIMouseController@Pegas@@@4@$0A@@std@@@2@ABQAU342@@Z 0043e300 f i game_application.obj
 0001:0003d350       ??0?$_Tree_nod@V?$_Tmap_traits@HV?$ptr@VIGameState@Pegas@@@Pegas@@U?$less@H@std@@V?$allocator@U?$pair@$$CBHV?$ptr@VIGameState@Pegas@@@Pegas@@@std@@@4@$0A@@std@@@std@@IAE@ABU?$less@H@1@V?$allocator@U?$pair@$$CBHV?$ptr@VIGameState@Pegas@@@Pegas@@@std@@@1@@Z 0043e350 f i game_application.obj
 0001:0003d3c0       ?allocate@?$allocator@U_Node@?$_Tree_nod@V?$_Tmap_traits@HV?$ptr@VIGameState@Pegas@@@Pegas@@U?$less@H@std@@V?$allocator@U?$pair@$$CBHV?$ptr@VIGameState@Pegas@@@Pegas@@@std@@@4@$0A@@std@@@std@@@std@@QAEPAU_Node@?$_Tree_nod@V?$_Tmap_traits@HV?$ptr@VIGameState@Pegas@@@Pegas@@U?$less@H@std@@V?$allocator@U?$pair@$$CBHV?$ptr@VIGameState@Pegas@@@Pegas@@@std@@@4@$0A@@std@@@2@I@Z 0043e3c0 f i game_application.obj
 0001:0003d410       ?construct@?$allocator@PAU_Node@?$_Tree_nod@V?$_Tmap_traits@HV?$ptr@VIGameState@Pegas@@@Pegas@@U?$less@H@std@@V?$allocator@U?$pair@$$CBHV?$ptr@VIGameState@Pegas@@@Pegas@@@std@@@4@$0A@@std@@@std@@@std@@QAEXPAPAU_Node@?$_Tree_nod@V?$_Tmap_traits@HV?$ptr@VIGameState@Pegas@@@Pegas@@U?$less@H@std@@V?$allocator@U?$pair@$$CBHV?$ptr@VIGameState@Pegas@@@Pegas@@@std@@@4@$0A@@std@@@2@ABQAU342@@Z 0043e410 f i game_application.obj
 0001:0003d460       ??0?$_Container_base_aux_alloc_empty@V?$allocator@V?$ptr@VIGameState@Pegas@@@Pegas@@@std@@@std@@IAE@V?$allocator@V?$ptr@VIGameState@Pegas@@@Pegas@@@1@@Z 0043e460 f i game_application.obj
 0001:0003d4b0       ??0?$_Container_base_aux_alloc_empty@V?$allocator@V?$ptr@VFile@Pegas@@@Pegas@@@std@@@std@@IAE@V?$allocator@V?$ptr@VFile@Pegas@@@Pegas@@@1@@Z 0043e4b0 f i game_application.obj
 0001:0003d500       ?_Buynode@?$_Tree@V?$_Tmap_traits@HPAVStringResource@Pegas@@U?$less@H@std@@V?$allocator@U?$pair@$$CBHPAVStringResource@Pegas@@@std@@@4@$0A@@std@@@std@@IAEPAU_Node@?$_Tree_nod@V?$_Tmap_traits@HPAVStringResource@Pegas@@U?$less@H@std@@V?$allocator@U?$pair@$$CBHPAVStringResource@Pegas@@@std@@@4@$0A@@std@@@2@XZ 0043e500 f i game_application.obj
 0001:0003d6d0       ??0?$_Tree_ptr@V?$_Tmap_traits@HPAVStringResource@Pegas@@U?$less@H@std@@V?$allocator@U?$pair@$$CBHPAVStringResource@Pegas@@@std@@@4@$0A@@std@@@std@@QAE@ABU?$less@H@1@V?$allocator@U?$pair@$$CBHPAVStringResource@Pegas@@@std@@@1@@Z 0043e6d0 f i game_application.obj
 0001:0003d740       ?_Buynode@?$_Tree@V?$_Tmap_traits@HPAVTextureResource@Pegas@@U?$less@H@std@@V?$allocator@U?$pair@$$CBHPAVTextureResource@Pegas@@@std@@@4@$0A@@std@@@std@@IAEPAU_Node@?$_Tree_nod@V?$_Tmap_traits@HPAVTextureResource@Pegas@@U?$less@H@std@@V?$allocator@U?$pair@$$CBHPAVTextureResource@Pegas@@@std@@@4@$0A@@std@@@2@XZ 0043e740 f i game_application.obj
 0001:0003d910       ??0?$_Tree_ptr@V?$_Tmap_traits@HPAVTextureResource@Pegas@@U?$less@H@std@@V?$allocator@U?$pair@$$CBHPAVTextureResource@Pegas@@@std@@@4@$0A@@std@@@std@@QAE@ABU?$less@H@1@V?$allocator@U?$pair@$$CBHPAVTextureResource@Pegas@@@std@@@1@@Z 0043e910 f i game_application.obj
 0001:0003d980       ?_Buynode@?$_Tree@V?$_Tmap_traits@HPAVFontResource@Pegas@@U?$less@H@std@@V?$allocator@U?$pair@$$CBHPAVFontResource@Pegas@@@std@@@4@$0A@@std@@@std@@IAEPAU_Node@?$_Tree_nod@V?$_Tmap_traits@HPAVFontResource@Pegas@@U?$less@H@std@@V?$allocator@U?$pair@$$CBHPAVFontResource@Pegas@@@std@@@4@$0A@@std@@@2@XZ 0043e980 f i game_application.obj
 0001:0003db50       ??0?$_Tree_ptr@V?$_Tmap_traits@HPAVFontResource@Pegas@@U?$less@H@std@@V?$allocator@U?$pair@$$CBHPAVFontResource@Pegas@@@std@@@4@$0A@@std@@@std@@QAE@ABU?$less@H@1@V?$allocator@U?$pair@$$CBHPAVFontResource@Pegas@@@std@@@1@@Z 0043eb50 f i game_application.obj
 0001:0003dbc0       ?_Buynode@?$_Tree@V?$_Tmap_traits@HPAVSoundResource@Pegas@@U?$less@H@std@@V?$allocator@U?$pair@$$CBHPAVSoundResource@Pegas@@@std@@@4@$0A@@std@@@std@@IAEPAU_Node@?$_Tree_nod@V?$_Tmap_traits@HPAVSoundResource@Pegas@@U?$less@H@std@@V?$allocator@U?$pair@$$CBHPAVSoundResource@Pegas@@@std@@@4@$0A@@std@@@2@XZ 0043ebc0 f i game_application.obj
 0001:0003dd90       ??0?$_Tree_ptr@V?$_Tmap_traits@HPAVSoundResource@Pegas@@U?$less@H@std@@V?$allocator@U?$pair@$$CBHPAVSoundResource@Pegas@@@std@@@4@$0A@@std@@@std@@QAE@ABU?$less@H@1@V?$allocator@U?$pair@$$CBHPAVSoundResource@Pegas@@@std@@@1@@Z 0043ed90 f i game_application.obj
 0001:0003de00       ??0?$_Tmap_traits@V?$basic_string@DU?$char_traits@D@std@@V?$allocator@D@2@@std@@V?$ptr@V?$set@PAVIEventListener@Pegas@@U?$less@PAVIEventListener@Pegas@@@std@@V?$allocator@PAVIEventListener@Pegas@@@4@@std@@@Pegas@@U?$less@V?$basic_string@DU?$char_traits@D@std@@V?$allocator@D@2@@std@@@2@V?$allocator@U?$pair@$$CBV?$basic_string@DU?$char_traits@D@std@@V?$allocator@D@2@@std@@V?$ptr@V?$set@PAVIEventListener@Pegas@@U?$less@PAVIEventListener@Pegas@@@std@@V?$allocator@PAVIEventListener@Pegas@@@4@@std@@@Pegas@@@std@@@2@$0A@@std@@QAE@U?$less@V?$basic_string@DU?$char_traits@D@std@@V?$allocator@D@2@@std@@@1@V?$allocator@U?$pair@$$CBV?$basic_string@DU?$char_traits@D@std@@V?$allocator@D@2@@std@@V?$ptr@V?$set@PAVIEventListener@Pegas@@U?$less@PAVIEventListener@Pegas@@@std@@V?$allocator@PAVIEventListener@Pegas@@@4@@std@@@Pegas@@@std@@@1@@Z 0043ee00 f i game_application.obj
 0001:0003de60       ??0?$_Tset_traits@PAVIKeyboardController@Pegas@@U?$less@PAVIKeyboardController@Pegas@@@std@@V?$allocator@PAVIKeyboardController@Pegas@@@4@$0A@@std@@QAE@U?$less@PAVIKeyboardController@Pegas@@@1@V?$allocator@PAVIKeyboardController@Pegas@@@1@@Z 0043ee60 f i game_application.obj
 0001:0003dec0       ??0?$_Tset_traits@PAVIMouseController@Pegas@@U?$less@PAVIMouseController@Pegas@@@std@@V?$allocator@PAVIMouseController@Pegas@@@4@$0A@@std@@QAE@U?$less@PAVIMouseController@Pegas@@@1@V?$allocator@PAVIMouseController@Pegas@@@1@@Z 0043eec0 f i game_application.obj
 0001:0003df20       ??0?$_Tmap_traits@HV?$ptr@VIGameState@Pegas@@@Pegas@@U?$less@H@std@@V?$allocator@U?$pair@$$CBHV?$ptr@VIGameState@Pegas@@@Pegas@@@std@@@4@$0A@@std@@QAE@U?$less@H@1@V?$allocator@U?$pair@$$CBHV?$ptr@VIGameState@Pegas@@@Pegas@@@std@@@1@@Z 0043ef20 f i game_application.obj
 0001:0003df80       ??0?$_Tree_nod@V?$_Tmap_traits@HPAVStringResource@Pegas@@U?$less@H@std@@V?$allocator@U?$pair@$$CBHPAVStringResource@Pegas@@@std@@@4@$0A@@std@@@std@@IAE@ABU?$less@H@1@V?$allocator@U?$pair@$$CBHPAVStringResource@Pegas@@@std@@@1@@Z 0043ef80 f i game_application.obj
 0001:0003dff0       ?allocate@?$allocator@U_Node@?$_Tree_nod@V?$_Tmap_traits@HPAVStringResource@Pegas@@U?$less@H@std@@V?$allocator@U?$pair@$$CBHPAVStringResource@Pegas@@@std@@@4@$0A@@std@@@std@@@std@@QAEPAU_Node@?$_Tree_nod@V?$_Tmap_traits@HPAVStringResource@Pegas@@U?$less@H@std@@V?$allocator@U?$pair@$$CBHPAVStringResource@Pegas@@@std@@@4@$0A@@std@@@2@I@Z 0043eff0 f i game_application.obj
 0001:0003e040       ?construct@?$allocator@PAU_Node@?$_Tree_nod@V?$_Tmap_traits@HPAVStringResource@Pegas@@U?$less@H@std@@V?$allocator@U?$pair@$$CBHPAVStringResource@Pegas@@@std@@@4@$0A@@std@@@std@@@std@@QAEXPAPAU_Node@?$_Tree_nod@V?$_Tmap_traits@HPAVStringResource@Pegas@@U?$less@H@std@@V?$allocator@U?$pair@$$CBHPAVStringResource@Pegas@@@std@@@4@$0A@@std@@@2@ABQAU342@@Z 0043f040 f i game_application.obj
 0001:0003e090       ??0?$_Tree_nod@V?$_Tmap_traits@HPAVTextureResource@Pegas@@U?$less@H@std@@V?$allocator@U?$pair@$$CBHPAVTextureResource@Pegas@@@std@@@4@$0A@@std@@@std@@IAE@ABU?$less@H@1@V?$allocator@U?$pair@$$CBHPAVTextureResource@Pegas@@@std@@@1@@Z 0043f090 f i game_application.obj
 0001:0003e100       ?allocate@?$allocator@U_Node@?$_Tree_nod@V?$_Tmap_traits@HPAVTextureResource@Pegas@@U?$less@H@std@@V?$allocator@U?$pair@$$CBHPAVTextureResource@Pegas@@@std@@@4@$0A@@std@@@std@@@std@@QAEPAU_Node@?$_Tree_nod@V?$_Tmap_traits@HPAVTextureResource@Pegas@@U?$less@H@std@@V?$allocator@U?$pair@$$CBHPAVTextureResource@Pegas@@@std@@@4@$0A@@std@@@2@I@Z 0043f100 f i game_application.obj
 0001:0003e150       ?construct@?$allocator@PAU_Node@?$_Tree_nod@V?$_Tmap_traits@HPAVTextureResource@Pegas@@U?$less@H@std@@V?$allocator@U?$pair@$$CBHPAVTextureResource@Pegas@@@std@@@4@$0A@@std@@@std@@@std@@QAEXPAPAU_Node@?$_Tree_nod@V?$_Tmap_traits@HPAVTextureResource@Pegas@@U?$less@H@std@@V?$allocator@U?$pair@$$CBHPAVTextureResource@Pegas@@@std@@@4@$0A@@std@@@2@ABQAU342@@Z 0043f150 f i game_application.obj
 0001:0003e1a0       ??0?$_Tree_nod@V?$_Tmap_traits@HPAVFontResource@Pegas@@U?$less@H@std@@V?$allocator@U?$pair@$$CBHPAVFontResource@Pegas@@@std@@@4@$0A@@std@@@std@@IAE@ABU?$less@H@1@V?$allocator@U?$pair@$$CBHPAVFontResource@Pegas@@@std@@@1@@Z 0043f1a0 f i game_application.obj
 0001:0003e210       ?allocate@?$allocator@U_Node@?$_Tree_nod@V?$_Tmap_traits@HPAVFontResource@Pegas@@U?$less@H@std@@V?$allocator@U?$pair@$$CBHPAVFontResource@Pegas@@@std@@@4@$0A@@std@@@std@@@std@@QAEPAU_Node@?$_Tree_nod@V?$_Tmap_traits@HPAVFontResource@Pegas@@U?$less@H@std@@V?$allocator@U?$pair@$$CBHPAVFontResource@Pegas@@@std@@@4@$0A@@std@@@2@I@Z 0043f210 f i game_application.obj
 0001:0003e260       ?construct@?$allocator@PAU_Node@?$_Tree_nod@V?$_Tmap_traits@HPAVFontResource@Pegas@@U?$less@H@std@@V?$allocator@U?$pair@$$CBHPAVFontResource@Pegas@@@std@@@4@$0A@@std@@@std@@@std@@QAEXPAPAU_Node@?$_Tree_nod@V?$_Tmap_traits@HPAVFontResource@Pegas@@U?$less@H@std@@V?$allocator@U?$pair@$$CBHPAVFontResource@Pegas@@@std@@@4@$0A@@std@@@2@ABQAU342@@Z 0043f260 f i game_application.obj
 0001:0003e2b0       ??0?$_Tree_nod@V?$_Tmap_traits@HPAVSoundResource@Pegas@@U?$less@H@std@@V?$allocator@U?$pair@$$CBHPAVSoundResource@Pegas@@@std@@@4@$0A@@std@@@std@@IAE@ABU?$less@H@1@V?$allocator@U?$pair@$$CBHPAVSoundResource@Pegas@@@std@@@1@@Z 0043f2b0 f i game_application.obj
 0001:0003e320       ?allocate@?$allocator@U_Node@?$_Tree_nod@V?$_Tmap_traits@HPAVSoundResource@Pegas@@U?$less@H@std@@V?$allocator@U?$pair@$$CBHPAVSoundResource@Pegas@@@std@@@4@$0A@@std@@@std@@@std@@QAEPAU_Node@?$_Tree_nod@V?$_Tmap_traits@HPAVSoundResource@Pegas@@U?$less@H@std@@V?$allocator@U?$pair@$$CBHPAVSoundResource@Pegas@@@std@@@4@$0A@@std@@@2@I@Z 0043f320 f i game_application.obj
 0001:0003e370       ?construct@?$allocator@PAU_Node@?$_Tree_nod@V?$_Tmap_traits@HPAVSoundResource@Pegas@@U?$less@H@std@@V?$allocator@U?$pair@$$CBHPAVSoundResource@Pegas@@@std@@@4@$0A@@std@@@std@@@std@@QAEXPAPAU_Node@?$_Tree_nod@V?$_Tmap_traits@HPAVSoundResource@Pegas@@U?$less@H@std@@V?$allocator@U?$pair@$$CBHPAVSoundResource@Pegas@@@std@@@4@$0A@@std@@@2@ABQAU342@@Z 0043f370 f i game_application.obj
 0001:0003e3c0       ??0?$_Container_base_aux_alloc_empty@V?$allocator@U?$pair@$$CBV?$basic_string@DU?$char_traits@D@std@@V?$allocator@D@2@@std@@V?$ptr@V?$set@PAVIEventListener@Pegas@@U?$less@PAVIEventListener@Pegas@@@std@@V?$allocator@PAVIEventListener@Pegas@@@4@@std@@@Pegas@@@std@@@std@@@std@@IAE@V?$allocator@U?$pair@$$CBV?$basic_string@DU?$char_traits@D@std@@V?$allocator@D@2@@std@@V?$ptr@V?$set@PAVIEventListener@Pegas@@U?$less@PAVIEventListener@Pegas@@@std@@V?$allocator@PAVIEventListener@Pegas@@@4@@std@@@Pegas@@@std@@@1@@Z 0043f3c0 f i game_application.obj
 0001:0003e410       ??0?$_Container_base_aux_alloc_empty@V?$allocator@PAVIKeyboardController@Pegas@@@std@@@std@@IAE@V?$allocator@PAVIKeyboardController@Pegas@@@1@@Z 0043f410 f i game_application.obj
 0001:0003e460       ??0?$_Container_base_aux_alloc_empty@V?$allocator@PAVIMouseController@Pegas@@@std@@@std@@IAE@V?$allocator@PAVIMouseController@Pegas@@@1@@Z 0043f460 f i game_application.obj
 0001:0003e4b0       ??0?$_Container_base_aux_alloc_empty@V?$allocator@U?$pair@$$CBHV?$ptr@VIGameState@Pegas@@@Pegas@@@std@@@std@@@std@@IAE@V?$allocator@U?$pair@$$CBHV?$ptr@VIGameState@Pegas@@@Pegas@@@std@@@1@@Z 0043f4b0 f i game_application.obj
 0001:0003e500       ??0?$_Tmap_traits@HPAVStringResource@Pegas@@U?$less@H@std@@V?$allocator@U?$pair@$$CBHPAVStringResource@Pegas@@@std@@@4@$0A@@std@@QAE@U?$less@H@1@V?$allocator@U?$pair@$$CBHPAVStringResource@Pegas@@@std@@@1@@Z 0043f500 f i game_application.obj
 0001:0003e560       ??0?$_Tmap_traits@HPAVTextureResource@Pegas@@U?$less@H@std@@V?$allocator@U?$pair@$$CBHPAVTextureResource@Pegas@@@std@@@4@$0A@@std@@QAE@U?$less@H@1@V?$allocator@U?$pair@$$CBHPAVTextureResource@Pegas@@@std@@@1@@Z 0043f560 f i game_application.obj
 0001:0003e5c0       ??0?$_Tmap_traits@HPAVFontResource@Pegas@@U?$less@H@std@@V?$allocator@U?$pair@$$CBHPAVFontResource@Pegas@@@std@@@4@$0A@@std@@QAE@U?$less@H@1@V?$allocator@U?$pair@$$CBHPAVFontResource@Pegas@@@std@@@1@@Z 0043f5c0 f i game_application.obj
 0001:0003e620       ??0?$_Tmap_traits@HPAVSoundResource@Pegas@@U?$less@H@std@@V?$allocator@U?$pair@$$CBHPAVSoundResource@Pegas@@@std@@@4@$0A@@std@@QAE@U?$less@H@1@V?$allocator@U?$pair@$$CBHPAVSoundResource@Pegas@@@std@@@1@@Z 0043f620 f i game_application.obj
 0001:0003e680       ??0?$_Container_base_aux_alloc_empty@V?$allocator@U?$pair@$$CBHPAVStringResource@Pegas@@@std@@@std@@@std@@IAE@V?$allocator@U?$pair@$$CBHPAVStringResource@Pegas@@@std@@@1@@Z 0043f680 f i game_application.obj
 0001:0003e6d0       ??0?$_Container_base_aux_alloc_empty@V?$allocator@U?$pair@$$CBHPAVTextureResource@Pegas@@@std@@@std@@@std@@IAE@V?$allocator@U?$pair@$$CBHPAVTextureResource@Pegas@@@std@@@1@@Z 0043f6d0 f i game_application.obj
 0001:0003e720       ??0?$_Container_base_aux_alloc_empty@V?$allocator@U?$pair@$$CBHPAVFontResource@Pegas@@@std@@@std@@@std@@IAE@V?$allocator@U?$pair@$$CBHPAVFontResource@Pegas@@@std@@@1@@Z 0043f720 f i game_application.obj
 0001:0003e770       ??0?$_Container_base_aux_alloc_empty@V?$allocator@U?$pair@$$CBHPAVSoundResource@Pegas@@@std@@@std@@@std@@IAE@V?$allocator@U?$pair@$$CBHPAVSoundResource@Pegas@@@std@@@1@@Z 0043f770 f i game_application.obj
 0001:0003e7c0       ??$?0PAVIDrawable@Pegas@@@?$allocator@PAU_Node@?$_List_nod@PAVIDrawable@Pegas@@V?$allocator@PAVIDrawable@Pegas@@@std@@@std@@@std@@QAE@ABV?$allocator@PAVIDrawable@Pegas@@@1@@Z 0043f7c0 f i game_application.obj
 0001:0003e7f0       ??$_Allocate@U_Node@?$_List_nod@PAVIDrawable@Pegas@@V?$allocator@PAVIDrawable@Pegas@@@std@@@std@@@std@@YAPAU_Node@?$_List_nod@PAVIDrawable@Pegas@@V?$allocator@PAVIDrawable@Pegas@@@std@@@0@IPAU120@@Z 0043f7f0 f i game_application.obj
 0001:0003e870       ??$_Construct@PAU_Node@?$_List_nod@PAVIDrawable@Pegas@@V?$allocator@PAVIDrawable@Pegas@@@std@@@std@@PAU123@@std@@YAXPAPAU_Node@?$_List_nod@PAVIDrawable@Pegas@@V?$allocator@PAVIDrawable@Pegas@@@std@@@0@ABQAU120@@Z 0043f870 f i game_application.obj
 0001:0003e8f0       ??$?0V?$ptr@VBaseScreenLayer@Pegas@@@Pegas@@@?$allocator@PAU_Node@?$_List_nod@V?$ptr@VBaseScreenLayer@Pegas@@@Pegas@@V?$allocator@V?$ptr@VBaseScreenLayer@Pegas@@@Pegas@@@std@@@std@@@std@@QAE@ABV?$allocator@V?$ptr@VBaseScreenLayer@Pegas@@@Pegas@@@1@@Z 0043f8f0 f i game_application.obj
 0001:0003e920       ??$_Allocate@U_Node@?$_List_nod@V?$ptr@VBaseScreenLayer@Pegas@@@Pegas@@V?$allocator@V?$ptr@VBaseScreenLayer@Pegas@@@Pegas@@@std@@@std@@@std@@YAPAU_Node@?$_List_nod@V?$ptr@VBaseScreenLayer@Pegas@@@Pegas@@V?$allocator@V?$ptr@VBaseScreenLayer@Pegas@@@Pegas@@@std@@@0@IPAU120@@Z 0043f920 f i game_application.obj
 0001:0003e9a0       ??$_Construct@PAU_Node@?$_List_nod@V?$ptr@VBaseScreenLayer@Pegas@@@Pegas@@V?$allocator@V?$ptr@VBaseScreenLayer@Pegas@@@Pegas@@@std@@@std@@PAU123@@std@@YAXPAPAU_Node@?$_List_nod@V?$ptr@VBaseScreenLayer@Pegas@@@Pegas@@V?$allocator@V?$ptr@VBaseScreenLayer@Pegas@@@Pegas@@@std@@@0@ABQAU120@@Z 0043f9a0 f i game_application.obj
 0001:0003ea20       ??$_Destroy@PAU_Node@?$_List_nod@V?$ptr@VBaseScreenLayer@Pegas@@@Pegas@@V?$allocator@V?$ptr@VBaseScreenLayer@Pegas@@@Pegas@@@std@@@std@@@std@@YAXPAPAU_Node@?$_List_nod@V?$ptr@VBaseScreenLayer@Pegas@@@Pegas@@V?$allocator@V?$ptr@VBaseScreenLayer@Pegas@@@Pegas@@@std@@@0@@Z 0043fa20 f i game_application.obj
 0001:0003ea50       ??$?0V?$ptr@VFile@Pegas@@@Pegas@@@?$allocator@PAU_Node@?$_List_nod@V?$ptr@VFile@Pegas@@@Pegas@@V?$allocator@V?$ptr@VFile@Pegas@@@Pegas@@@std@@@std@@@std@@QAE@ABV?$allocator@V?$ptr@VFile@Pegas@@@Pegas@@@1@@Z 0043fa50 f i game_application.obj
 0001:0003ea80       ??$_Allocate@U_Node@?$_List_nod@V?$ptr@VFile@Pegas@@@Pegas@@V?$allocator@V?$ptr@VFile@Pegas@@@Pegas@@@std@@@std@@@std@@YAPAU_Node@?$_List_nod@V?$ptr@VFile@Pegas@@@Pegas@@V?$allocator@V?$ptr@VFile@Pegas@@@Pegas@@@std@@@0@IPAU120@@Z 0043fa80 f i game_application.obj
 0001:0003eb00       ??$_Construct@PAU_Node@?$_List_nod@V?$ptr@VFile@Pegas@@@Pegas@@V?$allocator@V?$ptr@VFile@Pegas@@@Pegas@@@std@@@std@@PAU123@@std@@YAXPAPAU_Node@?$_List_nod@V?$ptr@VFile@Pegas@@@Pegas@@V?$allocator@V?$ptr@VFile@Pegas@@@Pegas@@@std@@@0@ABQAU120@@Z 0043fb00 f i game_application.obj
 0001:0003eb80       ??$?0PAVIDrawable@Pegas@@@?$allocator@U_Node@?$_List_nod@PAVIDrawable@Pegas@@V?$allocator@PAVIDrawable@Pegas@@@std@@@std@@@std@@QAE@ABV?$allocator@PAVIDrawable@Pegas@@@1@@Z 0043fb80 f i game_application.obj
 0001:0003ebb0       ??$?0V?$ptr@UEvent@Pegas@@@Pegas@@@?$allocator@PAV?$ptr@UEvent@Pegas@@@Pegas@@@std@@QAE@ABV?$allocator@V?$ptr@UEvent@Pegas@@@Pegas@@@1@@Z 0043fbb0 f i game_application.obj
 0001:0003ebe0       ??$?0U?$pair@$$CBV?$basic_string@DU?$char_traits@D@std@@V?$allocator@D@2@@std@@V?$ptr@V?$set@PAVIEventListener@Pegas@@U?$less@PAVIEventListener@Pegas@@@std@@V?$allocator@PAVIEventListener@Pegas@@@4@@std@@@Pegas@@@std@@@?$allocator@PAU_Node@?$_Tree_nod@V?$_Tmap_traits@V?$basic_string@DU?$char_traits@D@std@@V?$allocator@D@2@@std@@V?$ptr@V?$set@PAVIEventListener@Pegas@@U?$less@PAVIEventListener@Pegas@@@std@@V?$allocator@PAVIEventListener@Pegas@@@4@@std@@@Pegas@@U?$less@V?$basic_string@DU?$char_traits@D@std@@V?$allocator@D@2@@std@@@2@V?$allocator@U?$pair@$$CBV?$basic_string@DU?$char_traits@D@std@@V?$allocator@D@2@@std@@V?$ptr@V?$set@PAVIEventListener@Pegas@@U?$less@PAVIEventListener@Pegas@@@std@@V?$allocator@PAVIEventListener@Pegas@@@4@@std@@@Pegas@@@std@@@2@$0A@@std@@@std@@@std@@QAE@ABV?$allocator@U?$pair@$$CBV?$basic_string@DU?$char_traits@D@std@@V?$allocator@D@2@@std@@V?$ptr@V?$set@PAVIEventListener@Pegas@@U?$less@PAVIEventListener@Pegas@@@std@@V?$allocator@PAVIEventListener@Pegas@@@4@@std@@@Pegas@@@std@@@1@@Z 0043fbe0 f i game_application.obj
 0001:0003ec10       ??$?0V?$ptr@VBaseScreenLayer@Pegas@@@Pegas@@@?$allocator@U_Node@?$_List_nod@V?$ptr@VBaseScreenLayer@Pegas@@@Pegas@@V?$allocator@V?$ptr@VBaseScreenLayer@Pegas@@@Pegas@@@std@@@std@@@std@@QAE@ABV?$allocator@V?$ptr@VBaseScreenLayer@Pegas@@@Pegas@@@1@@Z 0043fc10 f i game_application.obj
 0001:0003ec40       ??$_Destroy@U_Node@?$_List_nod@V?$ptr@VBaseScreenLayer@Pegas@@@Pegas@@V?$allocator@V?$ptr@VBaseScreenLayer@Pegas@@@Pegas@@@std@@@std@@@std@@YAXPAU_Node@?$_List_nod@V?$ptr@VBaseScreenLayer@Pegas@@@Pegas@@V?$allocator@V?$ptr@VBaseScreenLayer@Pegas@@@Pegas@@@std@@@0@@Z 0043fc40 f i game_application.obj
 0001:0003ec80       ??$?0PAVIKeyboardController@Pegas@@@?$allocator@PAU_Node@?$_Tree_nod@V?$_Tset_traits@PAVIKeyboardController@Pegas@@U?$less@PAVIKeyboardController@Pegas@@@std@@V?$allocator@PAVIKeyboardController@Pegas@@@4@$0A@@std@@@std@@@std@@QAE@ABV?$allocator@PAVIKeyboardController@Pegas@@@1@@Z 0043fc80 f i game_application.obj
 0001:0003ecb0       ??$?0PAVIMouseController@Pegas@@@?$allocator@PAU_Node@?$_Tree_nod@V?$_Tset_traits@PAVIMouseController@Pegas@@U?$less@PAVIMouseController@Pegas@@@std@@V?$allocator@PAVIMouseController@Pegas@@@4@$0A@@std@@@std@@@std@@QAE@ABV?$allocator@PAVIMouseController@Pegas@@@1@@Z 0043fcb0 f i game_application.obj
 0001:0003ece0       ??$?0U?$pair@$$CBHV?$ptr@VIGameState@Pegas@@@Pegas@@@std@@@?$allocator@PAU_Node@?$_Tree_nod@V?$_Tmap_traits@HV?$ptr@VIGameState@Pegas@@@Pegas@@U?$less@H@std@@V?$allocator@U?$pair@$$CBHV?$ptr@VIGameState@Pegas@@@Pegas@@@std@@@4@$0A@@std@@@std@@@std@@QAE@ABV?$allocator@U?$pair@$$CBHV?$ptr@VIGameState@Pegas@@@Pegas@@@std@@@1@@Z 0043fce0 f i game_application.obj
 0001:0003ed10       ??$?0V?$ptr@VIGameState@Pegas@@@Pegas@@@?$allocator@PAV?$ptr@VIGameState@Pegas@@@Pegas@@@std@@QAE@ABV?$allocator@V?$ptr@VIGameState@Pegas@@@Pegas@@@1@@Z 0043fd10 f i game_application.obj
 0001:0003ed40       ??$?0V?$ptr@VFile@Pegas@@@Pegas@@@?$allocator@U_Node@?$_List_nod@V?$ptr@VFile@Pegas@@@Pegas@@V?$allocator@V?$ptr@VFile@Pegas@@@Pegas@@@std@@@std@@@std@@QAE@ABV?$allocator@V?$ptr@VFile@Pegas@@@Pegas@@@1@@Z 0043fd40 f i game_application.obj
 0001:0003ed70       ??$?0U?$pair@$$CBV?$basic_string@DU?$char_traits@D@std@@V?$allocator@D@2@@std@@V?$ptr@V?$set@PAVIEventListener@Pegas@@U?$less@PAVIEventListener@Pegas@@@std@@V?$allocator@PAVIEventListener@Pegas@@@4@@std@@@Pegas@@@std@@@?$allocator@U_Node@?$_Tree_nod@V?$_Tmap_traits@V?$basic_string@DU?$char_traits@D@std@@V?$allocator@D@2@@std@@V?$ptr@V?$set@PAVIEventListener@Pegas@@U?$less@PAVIEventListener@Pegas@@@std@@V?$allocator@PAVIEventListener@Pegas@@@4@@std@@@Pegas@@U?$less@V?$basic_string@DU?$char_traits@D@std@@V?$allocator@D@2@@std@@@2@V?$allocator@U?$pair@$$CBV?$basic_string@DU?$char_traits@D@std@@V?$allocator@D@2@@std@@V?$ptr@V?$set@PAVIEventListener@Pegas@@U?$less@PAVIEventListener@Pegas@@@std@@V?$allocator@PAVIEventListener@Pegas@@@4@@std@@@Pegas@@@std@@@2@$0A@@std@@@std@@@std@@QAE@ABV?$allocator@U?$pair@$$CBV?$basic_string@DU?$char_traits@D@std@@V?$allocator@D@2@@std@@V?$ptr@V?$set@PAVIEventListener@Pegas@@U?$less@PAVIEventListener@Pegas@@@std@@V?$allocator@PAVIEventListener@Pegas@@@4@@std@@@Pegas@@@std@@@1@@Z 0043fd70 f i game_application.obj
 0001:0003eda0       ??$_Allocate@U_Node@?$_Tree_nod@V?$_Tmap_traits@V?$basic_string@DU?$char_traits@D@std@@V?$allocator@D@2@@std@@V?$ptr@V?$set@PAVIEventListener@Pegas@@U?$less@PAVIEventListener@Pegas@@@std@@V?$allocator@PAVIEventListener@Pegas@@@4@@std@@@Pegas@@U?$less@V?$basic_string@DU?$char_traits@D@std@@V?$allocator@D@2@@std@@@2@V?$allocator@U?$pair@$$CBV?$basic_string@DU?$char_traits@D@std@@V?$allocator@D@2@@std@@V?$ptr@V?$set@PAVIEventListener@Pegas@@U?$less@PAVIEventListener@Pegas@@@std@@V?$allocator@PAVIEventListener@Pegas@@@4@@std@@@Pegas@@@std@@@2@$0A@@std@@@std@@@std@@YAPAU_Node@?$_Tree_nod@V?$_Tmap_traits@V?$basic_string@DU?$char_traits@D@std@@V?$allocator@D@2@@std@@V?$ptr@V?$set@PAVIEventListener@Pegas@@U?$less@PAVIEventListener@Pegas@@@std@@V?$allocator@PAVIEventListener@Pegas@@@4@@std@@@Pegas@@U?$less@V?$basic_string@DU?$char_traits@D@std@@V?$allocator@D@2@@std@@@2@V?$allocator@U?$pair@$$CBV?$basic_string@DU?$char_traits@D@std@@V?$allocator@D@2@@std@@V?$ptr@V?$set@PAVIEventListener@Pegas@@U?$less@PAVIEventListener@Pegas@@@std@@V?$allocator@PAVIEventListener@Pegas@@@4@@std@@@Pegas@@@std@@@2@$0A@@std@@@0@IPAU120@@Z 0043fda0 f i game_application.obj
 0001:0003ee20       ??$_Construct@PAU_Node@?$_Tree_nod@V?$_Tmap_traits@V?$basic_string@DU?$char_traits@D@std@@V?$allocator@D@2@@std@@V?$ptr@V?$set@PAVIEventListener@Pegas@@U?$less@PAVIEventListener@Pegas@@@std@@V?$allocator@PAVIEventListener@Pegas@@@4@@std@@@Pegas@@U?$less@V?$basic_string@DU?$char_traits@D@std@@V?$allocator@D@2@@std@@@2@V?$allocator@U?$pair@$$CBV?$basic_string@DU?$char_traits@D@std@@V?$allocator@D@2@@std@@V?$ptr@V?$set@PAVIEventListener@Pegas@@U?$less@PAVIEventListener@Pegas@@@std@@V?$allocator@PAVIEventListener@Pegas@@@4@@std@@@Pegas@@@std@@@2@$0A@@std@@@std@@PAU123@@std@@YAXPAPAU_Node@?$_Tree_nod@V?$_Tmap_traits@V?$basic_string@DU?$char_traits@D@std@@V?$allocator@D@2@@std@@V?$ptr@V?$set@PAVIEventListener@Pegas@@U?$less@PAVIEventListener@Pegas@@@std@@V?$allocator@PAVIEventListener@Pegas@@@4@@std@@@Pegas@@U?$less@V?$basic_string@DU?$char_traits@D@std@@V?$allocator@D@2@@std@@@2@V?$allocator@U?$pair@$$CBV?$basic_string@DU?$char_traits@D@std@@V?$allocator@D@2@@std@@V?$ptr@V?$set@PAVIEventListener@Pegas@@U?$less@PAVIEventListener@Pegas@@@std@@V?$allocator@PAVIEventListener@Pegas@@@4@@std@@@Pegas@@@std@@@2@$0A@@std@@@0@ABQAU120@@Z 0043fe20 f i game_application.obj
 0001:0003eea0       ??$?0PAVIKeyboardController@Pegas@@@?$allocator@U_Node@?$_Tree_nod@V?$_Tset_traits@PAVIKeyboardController@Pegas@@U?$less@PAVIKeyboardController@Pegas@@@std@@V?$allocator@PAVIKeyboardController@Pegas@@@4@$0A@@std@@@std@@@std@@QAE@ABV?$allocator@PAVIKeyboardController@Pegas@@@1@@Z 0043fea0 f i game_application.obj
 0001:0003eed0       ??$_Allocate@U_Node@?$_Tree_nod@V?$_Tset_traits@PAVIKeyboardController@Pegas@@U?$less@PAVIKeyboardController@Pegas@@@std@@V?$allocator@PAVIKeyboardController@Pegas@@@4@$0A@@std@@@std@@@std@@YAPAU_Node@?$_Tree_nod@V?$_Tset_traits@PAVIKeyboardController@Pegas@@U?$less@PAVIKeyboardController@Pegas@@@std@@V?$allocator@PAVIKeyboardController@Pegas@@@4@$0A@@std@@@0@IPAU120@@Z 0043fed0 f i game_application.obj
 0001:0003ef50       ??$_Construct@PAU_Node@?$_Tree_nod@V?$_Tset_traits@PAVIKeyboardController@Pegas@@U?$less@PAVIKeyboardController@Pegas@@@std@@V?$allocator@PAVIKeyboardController@Pegas@@@4@$0A@@std@@@std@@PAU123@@std@@YAXPAPAU_Node@?$_Tree_nod@V?$_Tset_traits@PAVIKeyboardController@Pegas@@U?$less@PAVIKeyboardController@Pegas@@@std@@V?$allocator@PAVIKeyboardController@Pegas@@@4@$0A@@std@@@0@ABQAU120@@Z 0043ff50 f i game_application.obj
 0001:0003efd0       ??$?0PAVIMouseController@Pegas@@@?$allocator@U_Node@?$_Tree_nod@V?$_Tset_traits@PAVIMouseController@Pegas@@U?$less@PAVIMouseController@Pegas@@@std@@V?$allocator@PAVIMouseController@Pegas@@@4@$0A@@std@@@std@@@std@@QAE@ABV?$allocator@PAVIMouseController@Pegas@@@1@@Z 0043ffd0 f i game_application.obj
 0001:0003f000       ??$_Allocate@U_Node@?$_Tree_nod@V?$_Tset_traits@PAVIMouseController@Pegas@@U?$less@PAVIMouseController@Pegas@@@std@@V?$allocator@PAVIMouseController@Pegas@@@4@$0A@@std@@@std@@@std@@YAPAU_Node@?$_Tree_nod@V?$_Tset_traits@PAVIMouseController@Pegas@@U?$less@PAVIMouseController@Pegas@@@std@@V?$allocator@PAVIMouseController@Pegas@@@4@$0A@@std@@@0@IPAU120@@Z 00440000 f i game_application.obj
 0001:0003f080       ??$_Construct@PAU_Node@?$_Tree_nod@V?$_Tset_traits@PAVIMouseController@Pegas@@U?$less@PAVIMouseController@Pegas@@@std@@V?$allocator@PAVIMouseController@Pegas@@@4@$0A@@std@@@std@@PAU123@@std@@YAXPAPAU_Node@?$_Tree_nod@V?$_Tset_traits@PAVIMouseController@Pegas@@U?$less@PAVIMouseController@Pegas@@@std@@V?$allocator@PAVIMouseController@Pegas@@@4@$0A@@std@@@0@ABQAU120@@Z 00440080 f i game_application.obj
 0001:0003f100       ??$?0U?$pair@$$CBHV?$ptr@VIGameState@Pegas@@@Pegas@@@std@@@?$allocator@U_Node@?$_Tree_nod@V?$_Tmap_traits@HV?$ptr@VIGameState@Pegas@@@Pegas@@U?$less@H@std@@V?$allocator@U?$pair@$$CBHV?$ptr@VIGameState@Pegas@@@Pegas@@@std@@@4@$0A@@std@@@std@@@std@@QAE@ABV?$allocator@U?$pair@$$CBHV?$ptr@VIGameState@Pegas@@@Pegas@@@std@@@1@@Z 00440100 f i game_application.obj
 0001:0003f130       ??$_Allocate@U_Node@?$_Tree_nod@V?$_Tmap_traits@HV?$ptr@VIGameState@Pegas@@@Pegas@@U?$less@H@std@@V?$allocator@U?$pair@$$CBHV?$ptr@VIGameState@Pegas@@@Pegas@@@std@@@4@$0A@@std@@@std@@@std@@YAPAU_Node@?$_Tree_nod@V?$_Tmap_traits@HV?$ptr@VIGameState@Pegas@@@Pegas@@U?$less@H@std@@V?$allocator@U?$pair@$$CBHV?$ptr@VIGameState@Pegas@@@Pegas@@@std@@@4@$0A@@std@@@0@IPAU120@@Z 00440130 f i game_application.obj
 0001:0003f1b0       ??$_Construct@PAU_Node@?$_Tree_nod@V?$_Tmap_traits@HV?$ptr@VIGameState@Pegas@@@Pegas@@U?$less@H@std@@V?$allocator@U?$pair@$$CBHV?$ptr@VIGameState@Pegas@@@Pegas@@@std@@@4@$0A@@std@@@std@@PAU123@@std@@YAXPAPAU_Node@?$_Tree_nod@V?$_Tmap_traits@HV?$ptr@VIGameState@Pegas@@@Pegas@@U?$less@H@std@@V?$allocator@U?$pair@$$CBHV?$ptr@VIGameState@Pegas@@@Pegas@@@std@@@4@$0A@@std@@@0@ABQAU120@@Z 004401b0 f i game_application.obj
 0001:0003f230       ??$?0U?$pair@$$CBHPAVStringResource@Pegas@@@std@@@?$allocator@PAU_Node@?$_Tree_nod@V?$_Tmap_traits@HPAVStringResource@Pegas@@U?$less@H@std@@V?$allocator@U?$pair@$$CBHPAVStringResource@Pegas@@@std@@@4@$0A@@std@@@std@@@std@@QAE@ABV?$allocator@U?$pair@$$CBHPAVStringResource@Pegas@@@std@@@1@@Z 00440230 f i game_application.obj
 0001:0003f260       ??$?0U?$pair@$$CBHPAVTextureResource@Pegas@@@std@@@?$allocator@PAU_Node@?$_Tree_nod@V?$_Tmap_traits@HPAVTextureResource@Pegas@@U?$less@H@std@@V?$allocator@U?$pair@$$CBHPAVTextureResource@Pegas@@@std@@@4@$0A@@std@@@std@@@std@@QAE@ABV?$allocator@U?$pair@$$CBHPAVTextureResource@Pegas@@@std@@@1@@Z 00440260 f i game_application.obj
 0001:0003f290       ??$?0U?$pair@$$CBHPAVFontResource@Pegas@@@std@@@?$allocator@PAU_Node@?$_Tree_nod@V?$_Tmap_traits@HPAVFontResource@Pegas@@U?$less@H@std@@V?$allocator@U?$pair@$$CBHPAVFontResource@Pegas@@@std@@@4@$0A@@std@@@std@@@std@@QAE@ABV?$allocator@U?$pair@$$CBHPAVFontResource@Pegas@@@std@@@1@@Z 00440290 f i game_application.obj
 0001:0003f2c0       ??$?0U?$pair@$$CBHPAVSoundResource@Pegas@@@std@@@?$allocator@PAU_Node@?$_Tree_nod@V?$_Tmap_traits@HPAVSoundResource@Pegas@@U?$less@H@std@@V?$allocator@U?$pair@$$CBHPAVSoundResource@Pegas@@@std@@@4@$0A@@std@@@std@@@std@@QAE@ABV?$allocator@U?$pair@$$CBHPAVSoundResource@Pegas@@@std@@@1@@Z 004402c0 f i game_application.obj
 0001:0003f2f0       ??$?0U?$pair@$$CBHPAVStringResource@Pegas@@@std@@@?$allocator@U_Node@?$_Tree_nod@V?$_Tmap_traits@HPAVStringResource@Pegas@@U?$less@H@std@@V?$allocator@U?$pair@$$CBHPAVStringResource@Pegas@@@std@@@4@$0A@@std@@@std@@@std@@QAE@ABV?$allocator@U?$pair@$$CBHPAVStringResource@Pegas@@@std@@@1@@Z 004402f0 f i game_application.obj
 0001:0003f320       ??$_Allocate@U_Node@?$_Tree_nod@V?$_Tmap_traits@HPAVStringResource@Pegas@@U?$less@H@std@@V?$allocator@U?$pair@$$CBHPAVStringResource@Pegas@@@std@@@4@$0A@@std@@@std@@@std@@YAPAU_Node@?$_Tree_nod@V?$_Tmap_traits@HPAVStringResource@Pegas@@U?$less@H@std@@V?$allocator@U?$pair@$$CBHPAVStringResource@Pegas@@@std@@@4@$0A@@std@@@0@IPAU120@@Z 00440320 f i game_application.obj
 0001:0003f3a0       ??$_Construct@PAU_Node@?$_Tree_nod@V?$_Tmap_traits@HPAVStringResource@Pegas@@U?$less@H@std@@V?$allocator@U?$pair@$$CBHPAVStringResource@Pegas@@@std@@@4@$0A@@std@@@std@@PAU123@@std@@YAXPAPAU_Node@?$_Tree_nod@V?$_Tmap_traits@HPAVStringResource@Pegas@@U?$less@H@std@@V?$allocator@U?$pair@$$CBHPAVStringResource@Pegas@@@std@@@4@$0A@@std@@@0@ABQAU120@@Z 004403a0 f i game_application.obj
 0001:0003f420       ??$?0U?$pair@$$CBHPAVTextureResource@Pegas@@@std@@@?$allocator@U_Node@?$_Tree_nod@V?$_Tmap_traits@HPAVTextureResource@Pegas@@U?$less@H@std@@V?$allocator@U?$pair@$$CBHPAVTextureResource@Pegas@@@std@@@4@$0A@@std@@@std@@@std@@QAE@ABV?$allocator@U?$pair@$$CBHPAVTextureResource@Pegas@@@std@@@1@@Z 00440420 f i game_application.obj
 0001:0003f450       ??$_Allocate@U_Node@?$_Tree_nod@V?$_Tmap_traits@HPAVTextureResource@Pegas@@U?$less@H@std@@V?$allocator@U?$pair@$$CBHPAVTextureResource@Pegas@@@std@@@4@$0A@@std@@@std@@@std@@YAPAU_Node@?$_Tree_nod@V?$_Tmap_traits@HPAVTextureResource@Pegas@@U?$less@H@std@@V?$allocator@U?$pair@$$CBHPAVTextureResource@Pegas@@@std@@@4@$0A@@std@@@0@IPAU120@@Z 00440450 f i game_application.obj
 0001:0003f4d0       ??$_Construct@PAU_Node@?$_Tree_nod@V?$_Tmap_traits@HPAVTextureResource@Pegas@@U?$less@H@std@@V?$allocator@U?$pair@$$CBHPAVTextureResource@Pegas@@@std@@@4@$0A@@std@@@std@@PAU123@@std@@YAXPAPAU_Node@?$_Tree_nod@V?$_Tmap_traits@HPAVTextureResource@Pegas@@U?$less@H@std@@V?$allocator@U?$pair@$$CBHPAVTextureResource@Pegas@@@std@@@4@$0A@@std@@@0@ABQAU120@@Z 004404d0 f i game_application.obj
 0001:0003f550       ??$?0U?$pair@$$CBHPAVFontResource@Pegas@@@std@@@?$allocator@U_Node@?$_Tree_nod@V?$_Tmap_traits@HPAVFontResource@Pegas@@U?$less@H@std@@V?$allocator@U?$pair@$$CBHPAVFontResource@Pegas@@@std@@@4@$0A@@std@@@std@@@std@@QAE@ABV?$allocator@U?$pair@$$CBHPAVFontResource@Pegas@@@std@@@1@@Z 00440550 f i game_application.obj
 0001:0003f580       ??$_Allocate@U_Node@?$_Tree_nod@V?$_Tmap_traits@HPAVFontResource@Pegas@@U?$less@H@std@@V?$allocator@U?$pair@$$CBHPAVFontResource@Pegas@@@std@@@4@$0A@@std@@@std@@@std@@YAPAU_Node@?$_Tree_nod@V?$_Tmap_traits@HPAVFontResource@Pegas@@U?$less@H@std@@V?$allocator@U?$pair@$$CBHPAVFontResource@Pegas@@@std@@@4@$0A@@std@@@0@IPAU120@@Z 00440580 f i game_application.obj
 0001:0003f600       ??$_Construct@PAU_Node@?$_Tree_nod@V?$_Tmap_traits@HPAVFontResource@Pegas@@U?$less@H@std@@V?$allocator@U?$pair@$$CBHPAVFontResource@Pegas@@@std@@@4@$0A@@std@@@std@@PAU123@@std@@YAXPAPAU_Node@?$_Tree_nod@V?$_Tmap_traits@HPAVFontResource@Pegas@@U?$less@H@std@@V?$allocator@U?$pair@$$CBHPAVFontResource@Pegas@@@std@@@4@$0A@@std@@@0@ABQAU120@@Z 00440600 f i game_application.obj
 0001:0003f680       ??$?0U?$pair@$$CBHPAVSoundResource@Pegas@@@std@@@?$allocator@U_Node@?$_Tree_nod@V?$_Tmap_traits@HPAVSoundResource@Pegas@@U?$less@H@std@@V?$allocator@U?$pair@$$CBHPAVSoundResource@Pegas@@@std@@@4@$0A@@std@@@std@@@std@@QAE@ABV?$allocator@U?$pair@$$CBHPAVSoundResource@Pegas@@@std@@@1@@Z 00440680 f i game_application.obj
 0001:0003f6b0       ??$_Allocate@U_Node@?$_Tree_nod@V?$_Tmap_traits@HPAVSoundResource@Pegas@@U?$less@H@std@@V?$allocator@U?$pair@$$CBHPAVSoundResource@Pegas@@@std@@@4@$0A@@std@@@std@@@std@@YAPAU_Node@?$_Tree_nod@V?$_Tmap_traits@HPAVSoundResource@Pegas@@U?$less@H@std@@V?$allocator@U?$pair@$$CBHPAVSoundResource@Pegas@@@std@@@4@$0A@@std@@@0@IPAU120@@Z 004406b0 f i game_application.obj
 0001:0003f730       ??$_Construct@PAU_Node@?$_Tree_nod@V?$_Tmap_traits@HPAVSoundResource@Pegas@@U?$less@H@std@@V?$allocator@U?$pair@$$CBHPAVSoundResource@Pegas@@@std@@@4@$0A@@std@@@std@@PAU123@@std@@YAXPAPAU_Node@?$_Tree_nod@V?$_Tmap_traits@HPAVSoundResource@Pegas@@U?$less@H@std@@V?$allocator@U?$pair@$$CBHPAVSoundResource@Pegas@@@std@@@4@$0A@@std@@@0@ABQAU120@@Z 00440730 f i game_application.obj
 0001:0003f7b0       ??_G_Node@?$_List_nod@V?$ptr@VBaseScreenLayer@Pegas@@@Pegas@@V?$allocator@V?$ptr@VBaseScreenLayer@Pegas@@@Pegas@@@std@@@std@@QAEPAXI@Z 004407b0 f i game_application.obj
 0001:0003f810       ??1_Node@?$_List_nod@V?$ptr@VBaseScreenLayer@Pegas@@@Pegas@@V?$allocator@V?$ptr@VBaseScreenLayer@Pegas@@@Pegas@@@std@@@std@@QAE@XZ 00440810 f i game_application.obj
 0001:0003f860       ??1?$ptr@VBaseScreenLayer@Pegas@@@Pegas@@QAE@XZ 00440860 f i game_application.obj
 0001:0003f8a0       ?release@?$ptr@VBaseScreenLayer@Pegas@@@Pegas@@AAEXXZ 004408a0 f i game_application.obj
 0001:0003f980       ??_EDefaultGameState@Pegas@@W7AEPAXI@Z 00440980 f i game_application.obj
 0001:0003f990       ??_EDefaultGameState@Pegas@@WM@AEPAXI@Z 00440990 f i game_application.obj
 0001:0003f9a0       ?allocate@?$_DebugHeapAllocator@D@std@@QAAPADIPBX@Z 004409a0 f i stdafx.obj
 0001:0003fa40       ?allocate@?$_DebugHeapAllocator@D@std@@QAEPADI@Z 00440a40 f i stdafx.obj
 0001:0003fae0       ?deallocate@?$_DebugHeapAllocator@D@std@@QAEXPADI@Z 00440ae0 f i stdafx.obj
 0001:0003fb30       ??0?$_DebugHeapAllocator@D@std@@QAE@XZ 00440b30 f i stdafx.obj
 0001:0003fb80       ??0?$_DebugHeapAllocator@D@std@@QAE@ABV01@@Z 00440b80 f i stdafx.obj
 0001:0003fbd0       ??$_DebugHeapDelete@X@std@@YAXPAX@Z 00440bd0 f i stdafx.obj
 0001:0003fc20       ??0CollisionManager@Pegas@@QAE@XZ 00440c20 f   engine:collision_checker.obj
 0001:0003fd40       ??1?$set@HU?$less@H@std@@V?$allocator@H@2@@std@@QAE@XZ 00440d40 f i engine:collision_checker.obj
 0001:0003fd60       ??1?$CellGrid@PAVICollisionHull@Pegas@@@Pegas@@QAE@XZ 00440d60 f i engine:collision_checker.obj
 0001:0003fd80       ??1?$map@HV?$ptr@VICollisionHull@Pegas@@@Pegas@@U?$less@H@std@@V?$allocator@U?$pair@$$CBHV?$ptr@VICollisionHull@Pegas@@@Pegas@@@std@@@4@@std@@QAE@XZ 00440d80 f i engine:collision_checker.obj
 0001:0003fda0       ??1?$map@PAVICollisionHull@Pegas@@PAV?$Cell@PAVICollisionHull@Pegas@@@2@U?$less@PAVICollisionHull@Pegas@@@std@@V?$allocator@U?$pair@QAVICollisionHull@Pegas@@PAV?$Cell@PAVICollisionHull@Pegas@@@2@@std@@@5@@std@@QAE@XZ 00440da0 f i engine:collision_checker.obj
 0001:0003fdc0       ??1CollisionManager@Pegas@@QAE@XZ 00440dc0 f   engine:collision_checker.obj
 0001:0003fe50       ?isIntersects@CollisionManager@Pegas@@QAE_NPAVICollisionHull@2@0@Z 00440e50 f   engine:collision_checker.obj
 0001:0003feb0       ?registerPoint@CollisionManager@Pegas@@QAE_NHHABVVector3@2@@Z 00440eb0 f   engine:collision_checker.obj
 0001:00040040       ?registerCircle@CollisionManager@Pegas@@QAE_NHHABVVector3@2@M@Z 00441040 f   engine:collision_checker.obj
 0001:000401e0       ?registerPoligon@CollisionManager@Pegas@@QAE_NHHABV?$vector@VVector3@Pegas@@V?$allocator@VVector3@Pegas@@@std@@@std@@@Z 004411e0 f   engine:collision_checker.obj
 0001:00040370       ?unregisterCollisionHull@CollisionManager@Pegas@@QAEXH@Z 00441370 f   engine:collision_checker.obj
 0001:00040420       ?moveObject@CollisionManager@Pegas@@QAEXHABVVector3@2@_N@Z 00441420 f   engine:collision_checker.obj
 0001:00040520       ?rotateObject@CollisionManager@Pegas@@QAEXHM_N@Z 00441520 f   engine:collision_checker.obj
 0001:00040620       ?transformObject@CollisionManager@Pegas@@QAEXHABVMatrix4x4@2@@Z 00441620 f   engine:collision_checker.obj
 0001:00040710       ?update@CollisionManager@Pegas@@QAEXXZ 00441710 f   engine:collision_checker.obj
 0001:00040a80       ?getId@ICollisionHull@Pegas@@QBEHXZ 00441a80 f i engine:collision_checker.obj
 0001:00040aa0       ?getCollisionGroup@ICollisionHull@Pegas@@QBEHXZ 00441aa0 f i engine:collision_checker.obj
 0001:00040ac0       ??1iterator@?$_Tree@V?$_Tmap_traits@HV?$ptr@VICollisionHull@Pegas@@@Pegas@@U?$less@H@std@@V?$allocator@U?$pair@$$CBHV?$ptr@VICollisionHull@Pegas@@@Pegas@@@std@@@4@$0A@@std@@@std@@QAE@XZ 00441ac0 f i engine:collision_checker.obj
 0001:00040ae0       ??1iterator@?$_Tree@V?$_Tset_traits@PAVICollisionHull@Pegas@@U?$less@PAVICollisionHull@Pegas@@@std@@V?$allocator@PAVICollisionHull@Pegas@@@4@$0A@@std@@@std@@QAE@XZ 00441ae0 f i engine:collision_checker.obj
 0001:00040b00       ??1?$pair@Viterator@?$_Tree@V?$_Tset_traits@HU?$less@H@std@@V?$allocator@H@2@$0A@@std@@@std@@_N@std@@QAE@XZ 00441b00 f i engine:collision_checker.obj
 0001:00040b20       ??1const_iterator@?$_Tree@V?$_Tmap_traits@HV?$ptr@VICollisionHull@Pegas@@@Pegas@@U?$less@H@std@@V?$allocator@U?$pair@$$CBHV?$ptr@VICollisionHull@Pegas@@@Pegas@@@std@@@4@$0A@@std@@@std@@QAE@XZ 00441b20 f i engine:collision_checker.obj
 0001:00040b40       ??1const_iterator@?$_Tree@V?$_Tset_traits@PAVICollisionHull@Pegas@@U?$less@PAVICollisionHull@Pegas@@@std@@V?$allocator@PAVICollisionHull@Pegas@@@4@$0A@@std@@@std@@QAE@XZ 00441b40 f i engine:collision_checker.obj
 0001:00040b60       ??1iterator@?$_Tree@V?$_Tset_traits@HU?$less@H@std@@V?$allocator@H@2@$0A@@std@@@std@@QAE@XZ 00441b60 f i engine:collision_checker.obj
 0001:00040b80       ??1?$_Bidit@U?$pair@$$CBHV?$ptr@VICollisionHull@Pegas@@@Pegas@@@std@@HPBU12@ABU12@@std@@QAE@XZ 00441b80 f i engine:collision_checker.obj
 0001:00040ba0       ??1?$_Bidit@PAVICollisionHull@Pegas@@HPBQAV12@ABQAV12@@std@@QAE@XZ 00441ba0 f i engine:collision_checker.obj
 0001:00040bc0       ??1const_iterator@?$_Tree@V?$_Tset_traits@HU?$less@H@std@@V?$allocator@H@2@$0A@@std@@@std@@QAE@XZ 00441bc0 f i engine:collision_checker.obj
 0001:00040be0       ??1?$_Iterator_with_base@Ubidirectional_iterator_tag@std@@U?$pair@$$CBHV?$ptr@VICollisionHull@Pegas@@@Pegas@@@2@HPBU32@ABU32@V_Iterator_base@2@@std@@QAE@XZ 00441be0 f i engine:collision_checker.obj
 0001:00040c00       ??1?$_Iterator_with_base@Ubidirectional_iterator_tag@std@@PAVICollisionHull@Pegas@@HPBQAV34@ABQAV34@V_Iterator_base@2@@std@@QAE@XZ 00441c00 f i engine:collision_checker.obj
 0001:00040c20       ??1?$_Bidit@HHPBHABH@std@@QAE@XZ 00441c20 f i engine:collision_checker.obj
 0001:00040c40       ??1?$_Iterator_with_base@Ubidirectional_iterator_tag@std@@HHPBHABHV_Iterator_base@2@@std@@QAE@XZ 00441c40 f i engine:collision_checker.obj
 0001:00040c60       ?getCollidedPairs@CollisionManager@Pegas@@QAEAAV?$list@U?$pair@HH@std@@V?$allocator@U?$pair@HH@std@@@2@@std@@XZ 00441c60 f   engine:collision_checker.obj
 0001:00040c80       ?debugDraw@CollisionManager@Pegas@@QAEXXZ 00441c80 f   engine:collision_checker.obj
 0001:00040d60       ?isIntersectsPointCircle@CollisionManager@Pegas@@CA_NPAVICollisionHull@2@0@Z 00441d60 f   engine:collision_checker.obj
 0001:00040e10       ?getRadius@CircleCollisionHull@Pegas@@QBEMXZ 00441e10 f i engine:collision_checker.obj
 0001:00040e30       ?isIntersectsCirclePoint@CollisionManager@Pegas@@CA_NPAVICollisionHull@2@0@Z 00441e30 f   engine:collision_checker.obj
 0001:00040e50       ?isIntersectsPointPolygon@CollisionManager@Pegas@@CA_NPAVICollisionHull@2@0@Z 00441e50 f   engine:collision_checker.obj
 0001:00041020       ?getPoints@PoligonCollisionHull@Pegas@@QBE?AV?$vector@VVector3@Pegas@@V?$allocator@VVector3@Pegas@@@std@@@std@@XZ 00442020 f i engine:collision_checker.obj
 0001:00041060       ?isIntersectsPolygonPoint@CollisionManager@Pegas@@CA_NPAVICollisionHull@2@0@Z 00442060 f   engine:collision_checker.obj
 0001:00041080       ?isIntersectsCirclePolygon@CollisionManager@Pegas@@CA_NPAVICollisionHull@2@0@Z 00442080 f   engine:collision_checker.obj
 0001:000411e0       ?isIntersectsPolygonCircle@CollisionManager@Pegas@@CA_NPAVICollisionHull@2@0@Z 004421e0 f   engine:collision_checker.obj
 0001:00041200       ?isIntersectsPointPoint@CollisionManager@Pegas@@CA_NPAVICollisionHull@2@0@Z 00442200 f   engine:collision_checker.obj
 0001:00041310       ?abs@@YAMM@Z               00442310 f i engine:collision_checker.obj
 0001:00041330       _fabsf                     00442330 f i engine:collision_checker.obj
 0001:00041360       ?isIntersectsCircleCircle@CollisionManager@Pegas@@CA_NPAVICollisionHull@2@0@Z 00442360 f   engine:collision_checker.obj
 0001:00041430       ?isIntersectsPolygonPolygon@CollisionManager@Pegas@@CA_NPAVICollisionHull@2@0@Z 00442430 f   engine:collision_checker.obj
 0001:00041ba0       ??0PointCollisionHull@Pegas@@QAE@HHABVVector3@1@@Z 00442ba0 f   engine:collision_checker.obj
 0001:00041bf0       ??0ICollisionHull@Pegas@@QAE@HH@Z 00442bf0 f i engine:collision_checker.obj
 0001:00041c30       ?getType@PointCollisionHull@Pegas@@UAEHXZ 00442c30 f i engine:collision_checker.obj
 0001:00041c50       ?draw@PointCollisionHull@Pegas@@UAEXAAVGrafManager@2@@Z 00442c50 f i engine:collision_checker.obj
 0001:00041c70       ?moveObject@PointCollisionHull@Pegas@@UAEXABVVector3@2@_N@Z 00442c70 f   engine:collision_checker.obj
 0001:00041cf0       ?rotateObject@PointCollisionHull@Pegas@@UAEXM_N@Z 00442cf0 f   engine:collision_checker.obj
 0001:00041da0       ?transformObject@PointCollisionHull@Pegas@@UAEXABVMatrix4x4@2@@Z 00442da0 f   engine:collision_checker.obj
 0001:00041df0       ?getPosition@PointCollisionHull@Pegas@@UAE?AVVector3@2@XZ 00442df0 f   engine:collision_checker.obj
 0001:00041e20       ??0CircleCollisionHull@Pegas@@QAE@HHABVVector3@1@M@Z 00442e20 f   engine:collision_checker.obj
 0001:00041e60       ?getType@CircleCollisionHull@Pegas@@UAEHXZ 00442e60 f i engine:collision_checker.obj
 0001:00041e80       ?draw@CircleCollisionHull@Pegas@@UAEXAAVGrafManager@2@@Z 00442e80 f   engine:collision_checker.obj
 0001:00041f00       ??0PoligonCollisionHull@Pegas@@QAE@HHABV?$vector@VVector3@Pegas@@V?$allocator@VVector3@Pegas@@@std@@@std@@@Z 00442f00 f   engine:collision_checker.obj
 0001:000420f0       ??KPegas@@YA?AVVector3@0@ABV10@M@Z 004430f0 f i engine:collision_checker.obj
 0001:00042150       ?getType@PoligonCollisionHull@Pegas@@UAEHXZ 00443150 f i engine:collision_checker.obj
 0001:00042170       ?moveObject@PoligonCollisionHull@Pegas@@UAEXABVVector3@2@_N@Z 00443170 f   engine:collision_checker.obj
 0001:000422a0       ?rotateObject@PoligonCollisionHull@Pegas@@UAEXM_N@Z 004432a0 f   engine:collision_checker.obj
 0001:00042410       ?transformObject@PoligonCollisionHull@Pegas@@UAEXABVMatrix4x4@2@@Z 00443410 f   engine:collision_checker.obj
 0001:000424c0       ?getPosition@PoligonCollisionHull@Pegas@@UAE?AVVector3@2@XZ 004434c0 f   engine:collision_checker.obj
 0001:000424f0       ?draw@PoligonCollisionHull@Pegas@@UAEXAAVGrafManager@2@@Z 004434f0 f   engine:collision_checker.obj
 0001:00042650       ??0?$set@HU?$less@H@std@@V?$allocator@H@2@@std@@QAE@XZ 00443650 f i engine:collision_checker.obj
 0001:00042680       ??1?$_Tree@V?$_Tset_traits@HU?$less@H@std@@V?$allocator@H@2@$0A@@std@@@std@@QAE@XZ 00443680 f i engine:collision_checker.obj
 0001:000426e0       ?insert@?$_Tree@V?$_Tset_traits@HU?$less@H@std@@V?$allocator@H@2@$0A@@std@@@std@@QAE?AU?$pair@Viterator@?$_Tree@V?$_Tset_traits@HU?$less@H@std@@V?$allocator@H@2@$0A@@std@@@std@@_N@2@ABH@Z 004436e0 f i engine:collision_checker.obj
 0001:00042a30       ?erase@?$_Tree@V?$_Tset_traits@HU?$less@H@std@@V?$allocator@H@2@$0A@@std@@@std@@QAEIABH@Z 00443a30 f i engine:collision_checker.obj
 0001:00042b60       ?count@?$_Tree@V?$_Tset_traits@HU?$less@H@std@@V?$allocator@H@2@$0A@@std@@@std@@QBEIABH@Z 00443b60 f i engine:collision_checker.obj
 0001:00042c20       ??0?$list@U?$pair@HH@std@@V?$allocator@U?$pair@HH@std@@@2@@std@@QAE@XZ 00443c20 f i engine:collision_checker.obj
 0001:00042ca0       ?push_back@?$list@U?$pair@HH@std@@V?$allocator@U?$pair@HH@std@@@2@@std@@QAEXABU?$pair@HH@2@@Z 00443ca0 f i engine:collision_checker.obj
 0001:00042d30       ??0?$CellGrid@PAVICollisionHull@Pegas@@@Pegas@@QAE@XZ 00443d30 f i engine:collision_checker.obj
 0001:00042d60       ??1?$_Tree@V?$_Tmap_traits@PAVICollisionHull@Pegas@@PAV?$Cell@PAVICollisionHull@Pegas@@@2@U?$less@PAVICollisionHull@Pegas@@@std@@V?$allocator@U?$pair@QAVICollisionHull@Pegas@@PAV?$Cell@PAVICollisionHull@Pegas@@@2@@std@@@5@$0A@@std@@@std@@QAE@XZ 00443d60 f i engine:collision_checker.obj
 0001:00042dc0       ??0?$map@HV?$ptr@VICollisionHull@Pegas@@@Pegas@@U?$less@H@std@@V?$allocator@U?$pair@$$CBHV?$ptr@VICollisionHull@Pegas@@@Pegas@@@std@@@4@@std@@QAE@XZ 00443dc0 f i engine:collision_checker.obj
 0001:00042df0       ??A?$map@HV?$ptr@VICollisionHull@Pegas@@@Pegas@@U?$less@H@std@@V?$allocator@U?$pair@$$CBHV?$ptr@VICollisionHull@Pegas@@@Pegas@@@std@@@4@@std@@QAEAAV?$ptr@VICollisionHull@Pegas@@@Pegas@@ABH@Z 00443df0 f i engine:collision_checker.obj
 0001:00042ff0       ??1?$_Tree@V?$_Tmap_traits@HV?$ptr@VICollisionHull@Pegas@@@Pegas@@U?$less@H@std@@V?$allocator@U?$pair@$$CBHV?$ptr@VICollisionHull@Pegas@@@Pegas@@@std@@@4@$0A@@std@@@std@@QAE@XZ 00443ff0 f i engine:collision_checker.obj
 0001:00043050       ?begin@?$_Tree@V?$_Tmap_traits@HV?$ptr@VICollisionHull@Pegas@@@Pegas@@U?$less@H@std@@V?$allocator@U?$pair@$$CBHV?$ptr@VICollisionHull@Pegas@@@Pegas@@@std@@@4@$0A@@std@@@std@@QAE?AViterator@12@XZ 00444050 f i engine:collision_checker.obj
 0001:00043090       ?end@?$_Tree@V?$_Tmap_traits@HV?$ptr@VICollisionHull@Pegas@@@Pegas@@U?$less@H@std@@V?$allocator@U?$pair@$$CBHV?$ptr@VICollisionHull@Pegas@@@Pegas@@@std@@@4@$0A@@std@@@std@@QAE?AViterator@12@XZ 00444090 f i engine:collision_checker.obj
 0001:000430d0       ?erase@?$_Tree@V?$_Tmap_traits@HV?$ptr@VICollisionHull@Pegas@@@Pegas@@U?$less@H@std@@V?$allocator@U?$pair@$$CBHV?$ptr@VICollisionHull@Pegas@@@Pegas@@@std@@@4@$0A@@std@@@std@@QAEIABH@Z 004440d0 f i engine:collision_checker.obj
 0001:00043200       ?count@?$_Tree@V?$_Tmap_traits@HV?$ptr@VICollisionHull@Pegas@@@Pegas@@U?$less@H@std@@V?$allocator@U?$pair@$$CBHV?$ptr@VICollisionHull@Pegas@@@Pegas@@@std@@@4@$0A@@std@@@std@@QBEIABH@Z 00444200 f i engine:collision_checker.obj
 0001:000432c0       ??0?$vector@VVector3@Pegas@@V?$allocator@VVector3@Pegas@@@std@@@std@@QAE@ABV01@@Z 004442c0 f i engine:collision_checker.obj
 0001:000433d0       ?begin@?$vector@VVector3@Pegas@@V?$allocator@VVector3@Pegas@@@std@@@std@@QBE?AV?$_Vector_const_iterator@VVector3@Pegas@@V?$allocator@VVector3@Pegas@@@std@@@2@XZ 004443d0 f i engine:collision_checker.obj
 0001:00043410       ?end@?$vector@VVector3@Pegas@@V?$allocator@VVector3@Pegas@@@std@@@std@@QBE?AV?$_Vector_const_iterator@VVector3@Pegas@@V?$allocator@VVector3@Pegas@@@std@@@2@XZ 00444410 f i engine:collision_checker.obj
 0001:00043450       ??0?$ptr@VICollisionHull@Pegas@@@Pegas@@QAE@PAVICollisionHull@1@PAUCounter@1@@Z 00444450 f i engine:collision_checker.obj
 0001:00043510       ??0?$ptr@VICollisionHull@Pegas@@@Pegas@@QAE@ABV01@@Z 00444510 f i engine:collision_checker.obj
 0001:00043550       ??1?$ptr@VICollisionHull@Pegas@@@Pegas@@QAE@XZ 00444550 f i engine:collision_checker.obj
 0001:00043570       ??4?$ptr@VICollisionHull@Pegas@@@Pegas@@QAEAAV01@ABV01@@Z 00444570 f i engine:collision_checker.obj
 0001:000435c0       ??C?$ptr@VICollisionHull@Pegas@@@Pegas@@QBEPAVICollisionHull@1@XZ 004445c0 f i engine:collision_checker.obj
 0001:000435e0       ?get@?$ptr@VICollisionHull@Pegas@@@Pegas@@QBEPAVICollisionHull@2@XZ 004445e0 f i engine:collision_checker.obj
 0001:00043600       ??9const_iterator@?$_Tree@V?$_Tmap_traits@HV?$ptr@VICollisionHull@Pegas@@@Pegas@@U?$less@H@std@@V?$allocator@U?$pair@$$CBHV?$ptr@VICollisionHull@Pegas@@@Pegas@@@std@@@4@$0A@@std@@@std@@QBE_NABV012@@Z 00444600 f i engine:collision_checker.obj
 0001:00043630       ??Citerator@?$_Tree@V?$_Tmap_traits@HV?$ptr@VICollisionHull@Pegas@@@Pegas@@U?$less@H@std@@V?$allocator@U?$pair@$$CBHV?$ptr@VICollisionHull@Pegas@@@Pegas@@@std@@@4@$0A@@std@@@std@@QBEPAU?$pair@$$CBHV?$ptr@VICollisionHull@Pegas@@@Pegas@@@2@XZ 00444630 f i engine:collision_checker.obj
 0001:00043650       ??Eiterator@?$_Tree@V?$_Tmap_traits@HV?$ptr@VICollisionHull@Pegas@@@Pegas@@U?$less@H@std@@V?$allocator@U?$pair@$$CBHV?$ptr@VICollisionHull@Pegas@@@Pegas@@@std@@@4@$0A@@std@@@std@@QAEAAV012@XZ 00444650 f i engine:collision_checker.obj
 0001:00043670       ??Diterator@?$_Tree@V?$_Tset_traits@PAVICollisionHull@Pegas@@U?$less@PAVICollisionHull@Pegas@@@std@@V?$allocator@PAVICollisionHull@Pegas@@@4@$0A@@std@@@std@@QBEAAPAVICollisionHull@Pegas@@XZ 00444670 f i engine:collision_checker.obj
 0001:00043690       ??Eiterator@?$_Tree@V?$_Tset_traits@PAVICollisionHull@Pegas@@U?$less@PAVICollisionHull@Pegas@@@std@@V?$allocator@PAVICollisionHull@Pegas@@@4@$0A@@std@@@std@@QAEAAV012@XZ 00444690 f i engine:collision_checker.obj
 0001:000436b0       ??9const_iterator@?$_Tree@V?$_Tset_traits@PAVICollisionHull@Pegas@@U?$less@PAVICollisionHull@Pegas@@@std@@V?$allocator@PAVICollisionHull@Pegas@@@4@$0A@@std@@@std@@QBE_NABV012@@Z 004446b0 f i engine:collision_checker.obj
 0001:000436e0       ??0?$vector@MV?$allocator@M@std@@@std@@QAE@I@Z 004446e0 f i engine:collision_checker.obj
 0001:00043760       ??1?$vector@MV?$allocator@M@std@@@std@@QAE@XZ 00444760 f i engine:collision_checker.obj
 0001:000437c0       ??A?$vector@MV?$allocator@M@std@@@std@@QAEAAMI@Z 004447c0 f i engine:collision_checker.obj
 0001:000438a0       ??1?$_Tree_val@V?$_Tset_traits@HU?$less@H@std@@V?$allocator@H@2@$0A@@std@@@std@@QAE@XZ 004448a0 f i engine:collision_checker.obj
 0001:000438c0       ??1?$pair@Viterator@?$_Tree@V?$_Tset_traits@HU?$less@H@std@@V?$allocator@H@2@$0A@@std@@@std@@V123@@std@@QAE@XZ 004448c0 f i engine:collision_checker.obj
 0001:00043920       ??0iterator@?$_Tree@V?$_Tset_traits@HU?$less@H@std@@V?$allocator@H@2@$0A@@std@@@std@@QAE@ABV012@@Z 00444920 f i engine:collision_checker.obj
 0001:00043950       ??0const_iterator@?$_Tree@V?$_Tset_traits@HU?$less@H@std@@V?$allocator@H@2@$0A@@std@@@std@@QAE@ABV012@@Z 00444950 f i engine:collision_checker.obj
 0001:00043980       ??1?$pair@Vconst_iterator@?$_Tree@V?$_Tset_traits@HU?$less@H@std@@V?$allocator@H@2@$0A@@std@@@std@@V123@@std@@QAE@XZ 00444980 f i engine:collision_checker.obj
 0001:000439e0       ??1?$_Tree_val@V?$_Tmap_traits@PAVICollisionHull@Pegas@@PAV?$Cell@PAVICollisionHull@Pegas@@@2@U?$less@PAVICollisionHull@Pegas@@@std@@V?$allocator@U?$pair@QAVICollisionHull@Pegas@@PAV?$Cell@PAVICollisionHull@Pegas@@@2@@std@@@5@$0A@@std@@@std@@QAE@XZ 004449e0 f i engine:collision_checker.obj
 0001:00043a00       ??1?$pair@$$CBHV?$ptr@VICollisionHull@Pegas@@@Pegas@@@std@@QAE@XZ 00444a00 f i engine:collision_checker.obj
 0001:00043a20       ??0const_iterator@?$_Tree@V?$_Tmap_traits@HV?$ptr@VICollisionHull@Pegas@@@Pegas@@U?$less@H@std@@V?$allocator@U?$pair@$$CBHV?$ptr@VICollisionHull@Pegas@@@Pegas@@@std@@@4@$0A@@std@@@std@@QAE@ABV012@@Z 00444a20 f i engine:collision_checker.obj
 0001:00043a50       ??4iterator@?$_Tree@V?$_Tmap_traits@HV?$ptr@VICollisionHull@Pegas@@@Pegas@@U?$less@H@std@@V?$allocator@U?$pair@$$CBHV?$ptr@VICollisionHull@Pegas@@@Pegas@@@std@@@4@$0A@@std@@@std@@QAEAAV012@ABV012@@Z 00444a50 f i engine:collision_checker.obj
 0001:00043a80       ??1?$_Tree_val@V?$_Tmap_traits@HV?$ptr@VICollisionHull@Pegas@@@Pegas@@U?$less@H@std@@V?$allocator@U?$pair@$$CBHV?$ptr@VICollisionHull@Pegas@@@Pegas@@@std@@@4@$0A@@std@@@std@@QAE@XZ 00444a80 f i engine:collision_checker.obj
 0001:00043aa0       ??1?$pair@Viterator@?$_Tree@V?$_Tmap_traits@HV?$ptr@VICollisionHull@Pegas@@@Pegas@@U?$less@H@std@@V?$allocator@U?$pair@$$CBHV?$ptr@VICollisionHull@Pegas@@@Pegas@@@std@@@4@$0A@@std@@@std@@V123@@std@@QAE@XZ 00444aa0 f i engine:collision_checker.obj
 0001:00043b00       ??0iterator@?$_Tree@V?$_Tmap_traits@HV?$ptr@VICollisionHull@Pegas@@@Pegas@@U?$less@H@std@@V?$allocator@U?$pair@$$CBHV?$ptr@VICollisionHull@Pegas@@@Pegas@@@std@@@4@$0A@@std@@@std@@QAE@ABV012@@Z 00444b00 f i engine:collision_checker.obj
 0001:00043b30       ??1?$pair@Vconst_iterator@?$_Tree@V?$_Tmap_traits@HV?$ptr@VICollisionHull@Pegas@@@Pegas@@U?$less@H@std@@V?$allocator@U?$pair@$$CBHV?$ptr@VICollisionHull@Pegas@@@Pegas@@@std@@@4@$0A@@std@@@std@@V123@@std@@QAE@XZ 00444b30 f i engine:collision_checker.obj
 0001:00043b90       ??1?$_Vector_val@MV?$allocator@M@std@@@std@@QAE@XZ 00444b90 f i engine:collision_checker.obj
 0001:00043bb0       ??1?$_Tree_ptr@V?$_Tset_traits@HU?$less@H@std@@V?$allocator@H@2@$0A@@std@@@std@@QAE@XZ 00444bb0 f i engine:collision_checker.obj
 0001:00043bd0       ??0?$_Bidit@HHPBHABH@std@@QAE@ABU01@@Z 00444bd0 f i engine:collision_checker.obj
 0001:00043c00       ??1?$_Tree_ptr@V?$_Tmap_traits@PAVICollisionHull@Pegas@@PAV?$Cell@PAVICollisionHull@Pegas@@@2@U?$less@PAVICollisionHull@Pegas@@@std@@V?$allocator@U?$pair@QAVICollisionHull@Pegas@@PAV?$Cell@PAVICollisionHull@Pegas@@@2@@std@@@5@$0A@@std@@@std@@QAE@XZ 00444c00 f i engine:collision_checker.obj
 0001:00043c20       ??0?$_Bidit@U?$pair@$$CBHV?$ptr@VICollisionHull@Pegas@@@Pegas@@@std@@HPBU12@ABU12@@std@@QAE@ABU01@@Z 00444c20 f i engine:collision_checker.obj
 0001:00043c50       ??4const_iterator@?$_Tree@V?$_Tmap_traits@HV?$ptr@VICollisionHull@Pegas@@@Pegas@@U?$less@H@std@@V?$allocator@U?$pair@$$CBHV?$ptr@VICollisionHull@Pegas@@@Pegas@@@std@@@4@$0A@@std@@@std@@QAEAAV012@ABV012@@Z 00444c50 f i engine:collision_checker.obj
 0001:00043c80       ??1?$_Tree_ptr@V?$_Tmap_traits@HV?$ptr@VICollisionHull@Pegas@@@Pegas@@U?$less@H@std@@V?$allocator@U?$pair@$$CBHV?$ptr@VICollisionHull@Pegas@@@Pegas@@@std@@@4@$0A@@std@@@std@@QAE@XZ 00444c80 f i engine:collision_checker.obj
 0001:00043ca0       ??1?$_Tree_nod@V?$_Tset_traits@HU?$less@H@std@@V?$allocator@H@2@$0A@@std@@@std@@QAE@XZ 00444ca0 f i engine:collision_checker.obj
 0001:00043cc0       ??0?$_Iterator_with_base@Ubidirectional_iterator_tag@std@@HHPBHABHV_Iterator_base@2@@std@@QAE@ABU01@@Z 00444cc0 f i engine:collision_checker.obj
 0001:00043cf0       ??1?$_Tree_nod@V?$_Tmap_traits@PAVICollisionHull@Pegas@@PAV?$Cell@PAVICollisionHull@Pegas@@@2@U?$less@PAVICollisionHull@Pegas@@@std@@V?$allocator@U?$pair@QAVICollisionHull@Pegas@@PAV?$Cell@PAVICollisionHull@Pegas@@@2@@std@@@5@$0A@@std@@@std@@QAE@XZ 00444cf0 f i engine:collision_checker.obj
 0001:00043d10       ??0?$_Iterator_with_base@Ubidirectional_iterator_tag@std@@U?$pair@$$CBHV?$ptr@VICollisionHull@Pegas@@@Pegas@@@2@HPBU32@ABU32@V_Iterator_base@2@@std@@QAE@ABU01@@Z 00444d10 f i engine:collision_checker.obj
 0001:00043d40       ??4?$_Bidit@U?$pair@$$CBHV?$ptr@VICollisionHull@Pegas@@@Pegas@@@std@@HPBU12@ABU12@@std@@QAEAAU01@ABU01@@Z 00444d40 f i engine:collision_checker.obj
 0001:00043d70       ??1?$_Tree_nod@V?$_Tmap_traits@HV?$ptr@VICollisionHull@Pegas@@@Pegas@@U?$less@H@std@@V?$allocator@U?$pair@$$CBHV?$ptr@VICollisionHull@Pegas@@@Pegas@@@std@@@4@$0A@@std@@@std@@QAE@XZ 00444d70 f i engine:collision_checker.obj
 0001:00043d90       ??1?$_Tset_traits@HU?$less@H@std@@V?$allocator@H@2@$0A@@std@@QAE@XZ 00444d90 f i engine:collision_checker.obj
 0001:00043db0       ??1?$_Tmap_traits@PAVICollisionHull@Pegas@@PAV?$Cell@PAVICollisionHull@Pegas@@@2@U?$less@PAVICollisionHull@Pegas@@@std@@V?$allocator@U?$pair@QAVICollisionHull@Pegas@@PAV?$Cell@PAVICollisionHull@Pegas@@@2@@std@@@5@$0A@@std@@QAE@XZ 00444db0 f i engine:collision_checker.obj
 0001:00043dd0       ??4?$_Iterator_with_base@Ubidirectional_iterator_tag@std@@U?$pair@$$CBHV?$ptr@VICollisionHull@Pegas@@@Pegas@@@2@HPBU32@ABU32@V_Iterator_base@2@@std@@QAEAAU01@ABU01@@Z 00444dd0 f i engine:collision_checker.obj
 0001:00043e00       ??1?$_Tmap_traits@HV?$ptr@VICollisionHull@Pegas@@@Pegas@@U?$less@H@std@@V?$allocator@U?$pair@$$CBHV?$ptr@VICollisionHull@Pegas@@@Pegas@@@std@@@4@$0A@@std@@QAE@XZ 00444e00 f i engine:collision_checker.obj
 0001:00043e20       ?_Isnil@?$_Tree@V?$_Tset_traits@HU?$less@H@std@@V?$allocator@H@2@$0A@@std@@@std@@KAAADPAU_Node@?$_Tree_nod@V?$_Tset_traits@HU?$less@H@std@@V?$allocator@H@2@$0A@@std@@@2@@Z 00444e20 f i engine:collision_checker.obj
 0001:00043e40       ?_Key@?$_Tree@V?$_Tset_traits@HU?$less@H@std@@V?$allocator@H@2@$0A@@std@@@std@@KAABHPAU_Node@?$_Tree_nod@V?$_Tset_traits@HU?$less@H@std@@V?$allocator@H@2@$0A@@std@@@2@@Z 00444e40 f i engine:collision_checker.obj
 0001:00043e70       ?_Left@?$_Tree@V?$_Tset_traits@HU?$less@H@std@@V?$allocator@H@2@$0A@@std@@@std@@KAAAPAU_Node@?$_Tree_nod@V?$_Tset_traits@HU?$less@H@std@@V?$allocator@H@2@$0A@@std@@@2@PAU342@@Z 00444e70 f i engine:collision_checker.obj
 0001:00043e90       ?_Right@?$_Tree@V?$_Tset_traits@HU?$less@H@std@@V?$allocator@H@2@$0A@@std@@@std@@KAAAPAU_Node@?$_Tree_nod@V?$_Tset_traits@HU?$less@H@std@@V?$allocator@H@2@$0A@@std@@@2@PAU342@@Z 00444e90 f i engine:collision_checker.obj
 0001:00043eb0       ??0?$_Tree@V?$_Tset_traits@HU?$less@H@std@@V?$allocator@H@2@$0A@@std@@@std@@QAE@ABU?$less@H@1@ABV?$allocator@H@1@@Z 00444eb0 f i engine:collision_checker.obj
 0001:00043f30       ?begin@?$_Tree@V?$_Tset_traits@HU?$less@H@std@@V?$allocator@H@2@$0A@@std@@@std@@QAE?AViterator@12@XZ 00444f30 f i engine:collision_checker.obj
 0001:00043f70       ?erase@?$_Tree@V?$_Tset_traits@HU?$less@H@std@@V?$allocator@H@2@$0A@@std@@@std@@QAE?AViterator@12@Vconst_iterator@12@0@Z 00444f70 f i engine:collision_checker.obj
 0001:000441a0       ?equal_range@?$_Tree@V?$_Tset_traits@HU?$less@H@std@@V?$allocator@H@2@$0A@@std@@@std@@QAE?AU?$pair@Viterator@?$_Tree@V?$_Tset_traits@HU?$less@H@std@@V?$allocator@H@2@$0A@@std@@@std@@V123@@2@ABH@Z 004451a0 f i engine:collision_checker.obj
 0001:000441e0       ?equal_range@?$_Tree@V?$_Tset_traits@HU?$less@H@std@@V?$allocator@H@2@$0A@@std@@@std@@QBE?AU?$pair@Vconst_iterator@?$_Tree@V?$_Tset_traits@HU?$less@H@std@@V?$allocator@H@2@$0A@@std@@@std@@V123@@2@ABH@Z 004451e0 f i engine:collision_checker.obj
 0001:00044220       ?_Insert@?$_Tree@V?$_Tset_traits@HU?$less@H@std@@V?$allocator@H@2@$0A@@std@@@std@@IAE?AViterator@12@_NPAU_Node@?$_Tree_nod@V?$_Tset_traits@HU?$less@H@std@@V?$allocator@H@2@$0A@@std@@@2@ABH@Z 00445220 f i engine:collision_checker.obj
 0001:000446c0       ?_Root@?$_Tree@V?$_Tset_traits@HU?$less@H@std@@V?$allocator@H@2@$0A@@std@@@std@@IBEAAPAU_Node@?$_Tree_nod@V?$_Tset_traits@HU?$less@H@std@@V?$allocator@H@2@$0A@@std@@@2@XZ 004456c0 f i engine:collision_checker.obj
 0001:000446f0       ?_Tidy@?$_Tree@V?$_Tset_traits@HU?$less@H@std@@V?$allocator@H@2@$0A@@std@@@std@@IAEXXZ 004456f0 f i engine:collision_checker.obj
 0001:00044870       ?_Kfn@?$_Tset_traits@HU?$less@H@std@@V?$allocator@H@2@$0A@@std@@SAABHABH@Z 00445870 f i engine:collision_checker.obj
 0001:00044890       ??0?$map@PAVICollisionHull@Pegas@@PAV?$Cell@PAVICollisionHull@Pegas@@@2@U?$less@PAVICollisionHull@Pegas@@@std@@V?$allocator@U?$pair@QAVICollisionHull@Pegas@@PAV?$Cell@PAVICollisionHull@Pegas@@@2@@std@@@5@@std@@QAE@XZ 00445890 f i engine:collision_checker.obj
 0001:000448c0       ?_Tidy@?$_Tree@V?$_Tmap_traits@PAVICollisionHull@Pegas@@PAV?$Cell@PAVICollisionHull@Pegas@@@2@U?$less@PAVICollisionHull@Pegas@@@std@@V?$allocator@U?$pair@QAVICollisionHull@Pegas@@PAV?$Cell@PAVICollisionHull@Pegas@@@2@@std@@@5@$0A@@std@@@std@@IAEXXZ 004458c0 f i engine:collision_checker.obj
 0001:00044a40       ??1?$_Container_base_aux_alloc_empty@V?$allocator@U?$pair@QAVICollisionHull@Pegas@@PAV?$Cell@PAVICollisionHull@Pegas@@@2@@std@@@std@@@std@@IAE@XZ 00445a40 f i engine:collision_checker.obj
 0001:00044a60       ?_Key@?$_Tree@V?$_Tmap_traits@HV?$ptr@VICollisionHull@Pegas@@@Pegas@@U?$less@H@std@@V?$allocator@U?$pair@$$CBHV?$ptr@VICollisionHull@Pegas@@@Pegas@@@std@@@4@$0A@@std@@@std@@KAABHPAU_Node@?$_Tree_nod@V?$_Tmap_traits@HV?$ptr@VICollisionHull@Pegas@@@Pegas@@U?$less@H@std@@V?$allocator@U?$pair@$$CBHV?$ptr@VICollisionHull@Pegas@@@Pegas@@@std@@@4@$0A@@std@@@2@@Z 00445a60 f i engine:collision_checker.obj
 0001:00044a90       ??0?$_Tree@V?$_Tmap_traits@HV?$ptr@VICollisionHull@Pegas@@@Pegas@@U?$less@H@std@@V?$allocator@U?$pair@$$CBHV?$ptr@VICollisionHull@Pegas@@@Pegas@@@std@@@4@$0A@@std@@@std@@QAE@ABU?$less@H@1@ABV?$allocator@U?$pair@$$CBHV?$ptr@VICollisionHull@Pegas@@@Pegas@@@std@@@1@@Z 00445a90 f i engine:collision_checker.obj
 0001:00044b10       ?insert@?$_Tree@V?$_Tmap_traits@HV?$ptr@VICollisionHull@Pegas@@@Pegas@@U?$less@H@std@@V?$allocator@U?$pair@$$CBHV?$ptr@VICollisionHull@Pegas@@@Pegas@@@std@@@4@$0A@@std@@@std@@QAE?AViterator@12@Vconst_iterator@12@ABU?$pair@$$CBHV?$ptr@VICollisionHull@Pegas@@@Pegas@@@2@@Z 00445b10 f i engine:collision_checker.obj
 0001:00045620       ?erase@?$_Tree@V?$_Tmap_traits@HV?$ptr@VICollisionHull@Pegas@@@Pegas@@U?$less@H@std@@V?$allocator@U?$pair@$$CBHV?$ptr@VICollisionHull@Pegas@@@Pegas@@@std@@@4@$0A@@std@@@std@@QAE?AViterator@12@Vconst_iterator@12@0@Z 00446620 f i engine:collision_checker.obj
 0001:00045850       ?lower_bound@?$_Tree@V?$_Tmap_traits@HV?$ptr@VICollisionHull@Pegas@@@Pegas@@U?$less@H@std@@V?$allocator@U?$pair@$$CBHV?$ptr@VICollisionHull@Pegas@@@Pegas@@@std@@@4@$0A@@std@@@std@@QAE?AViterator@12@ABH@Z 00446850 f i engine:collision_checker.obj
 0001:000458a0       ?equal_range@?$_Tree@V?$_Tmap_traits@HV?$ptr@VICollisionHull@Pegas@@@Pegas@@U?$less@H@std@@V?$allocator@U?$pair@$$CBHV?$ptr@VICollisionHull@Pegas@@@Pegas@@@std@@@4@$0A@@std@@@std@@QAE?AU?$pair@Viterator@?$_Tree@V?$_Tmap_traits@HV?$ptr@VICollisionHull@Pegas@@@Pegas@@U?$less@H@std@@V?$allocator@U?$pair@$$CBHV?$ptr@VICollisionHull@Pegas@@@Pegas@@@std@@@4@$0A@@std@@@std@@V123@@2@ABH@Z 004468a0 f i engine:collision_checker.obj
 0001:000458e0       ?equal_range@?$_Tree@V?$_Tmap_traits@HV?$ptr@VICollisionHull@Pegas@@@Pegas@@U?$less@H@std@@V?$allocator@U?$pair@$$CBHV?$ptr@VICollisionHull@Pegas@@@Pegas@@@std@@@4@$0A@@std@@@std@@QBE?AU?$pair@Vconst_iterator@?$_Tree@V?$_Tmap_traits@HV?$ptr@VICollisionHull@Pegas@@@Pegas@@U?$less@H@std@@V?$allocator@U?$pair@$$CBHV?$ptr@VICollisionHull@Pegas@@@Pegas@@@std@@@4@$0A@@std@@@std@@V123@@2@ABH@Z 004468e0 f i engine:collision_checker.obj
 0001:00045920       ?_Lmost@?$_Tree@V?$_Tmap_traits@HV?$ptr@VICollisionHull@Pegas@@@Pegas@@U?$less@H@std@@V?$allocator@U?$pair@$$CBHV?$ptr@VICollisionHull@Pegas@@@Pegas@@@std@@@4@$0A@@std@@@std@@IBEAAPAU_Node@?$_Tree_nod@V?$_Tmap_traits@HV?$ptr@VICollisionHull@Pegas@@@Pegas@@U?$less@H@std@@V?$allocator@U?$pair@$$CBHV?$ptr@VICollisionHull@Pegas@@@Pegas@@@std@@@4@$0A@@std@@@2@XZ 00446920 f i engine:collision_checker.obj
 0001:00045950       ?_Tidy@?$_Tree@V?$_Tmap_traits@HV?$ptr@VICollisionHull@Pegas@@@Pegas@@U?$less@H@std@@V?$allocator@U?$pair@$$CBHV?$ptr@VICollisionHull@Pegas@@@Pegas@@@std@@@4@$0A@@std@@@std@@IAEXXZ 00446950 f i engine:collision_checker.obj
 0001:00045ad0       ??1?$_Container_base_aux_alloc_empty@V?$allocator@U?$pair@$$CBHV?$ptr@VICollisionHull@Pegas@@@Pegas@@@std@@@std@@@std@@IAE@XZ 00446ad0 f i engine:collision_checker.obj
 0001:00045af0       ??0?$allocator@U?$pair@$$CBHV?$ptr@VICollisionHull@Pegas@@@Pegas@@@std@@@std@@QAE@XZ 00446af0 f i engine:collision_checker.obj
 0001:00045b10       ??0?$ptr@VICollisionHull@Pegas@@@Pegas@@QAE@XZ 00446b10 f i engine:collision_checker.obj
 0001:00045b40       ?GetRawPointer@?$ptr@VICollisionHull@Pegas@@@Pegas@@QBEPAVICollisionHull@2@XZ 00446b40 f i engine:collision_checker.obj
 0001:00045ba0       ?acquire@?$ptr@VICollisionHull@Pegas@@@Pegas@@AAEXPAUCounter@2@@Z 00446ba0 f i engine:collision_checker.obj
 0001:00045be0       ?release@?$ptr@VICollisionHull@Pegas@@@Pegas@@AAEXXZ 00446be0 f i engine:collision_checker.obj
 0001:00045c60       ??Econst_iterator@?$_Tree@V?$_Tmap_traits@HV?$ptr@VICollisionHull@Pegas@@@Pegas@@U?$less@H@std@@V?$allocator@U?$pair@$$CBHV?$ptr@VICollisionHull@Pegas@@@Pegas@@@std@@@4@$0A@@std@@@std@@QAEAAV012@XZ 00446c60 f i engine:collision_checker.obj
 0001:00045c80       ??8const_iterator@?$_Tree@V?$_Tmap_traits@HV?$ptr@VICollisionHull@Pegas@@@Pegas@@U?$less@H@std@@V?$allocator@U?$pair@$$CBHV?$ptr@VICollisionHull@Pegas@@@Pegas@@@std@@@4@$0A@@std@@@std@@QBE_NABV012@@Z 00446c80 f i engine:collision_checker.obj
 0001:00045d20       ?_Mynode@const_iterator@?$_Tree@V?$_Tmap_traits@HV?$ptr@VICollisionHull@Pegas@@@Pegas@@U?$less@H@std@@V?$allocator@U?$pair@$$CBHV?$ptr@VICollisionHull@Pegas@@@Pegas@@@std@@@4@$0A@@std@@@std@@QBEPAU_Node@?$_Tree_nod@V?$_Tmap_traits@HV?$ptr@VICollisionHull@Pegas@@@Pegas@@U?$less@H@std@@V?$allocator@U?$pair@$$CBHV?$ptr@VICollisionHull@Pegas@@@Pegas@@@std@@@4@$0A@@std@@@3@XZ 00446d20 f i engine:collision_checker.obj
 0001:00045d40       ??0iterator@?$_Tree@V?$_Tmap_traits@HV?$ptr@VICollisionHull@Pegas@@@Pegas@@U?$less@H@std@@V?$allocator@U?$pair@$$CBHV?$ptr@VICollisionHull@Pegas@@@Pegas@@@std@@@4@$0A@@std@@@std@@QAE@PAU_Node@?$_Tree_nod@V?$_Tmap_traits@HV?$ptr@VICollisionHull@Pegas@@@Pegas@@U?$less@H@std@@V?$allocator@U?$pair@$$CBHV?$ptr@VICollisionHull@Pegas@@@Pegas@@@std@@@4@$0A@@std@@@2@PBV12@@Z 00446d40 f i engine:collision_checker.obj
 0001:00045d70       ??Diterator@?$_Tree@V?$_Tmap_traits@HV?$ptr@VICollisionHull@Pegas@@@Pegas@@U?$less@H@std@@V?$allocator@U?$pair@$$CBHV?$ptr@VICollisionHull@Pegas@@@Pegas@@@std@@@4@$0A@@std@@@std@@QBEAAU?$pair@$$CBHV?$ptr@VICollisionHull@Pegas@@@Pegas@@@2@XZ 00446d70 f i engine:collision_checker.obj
 0001:00045d90       ??0?$pair@$$CBHV?$ptr@VICollisionHull@Pegas@@@Pegas@@@std@@QAE@ABHABV?$ptr@VICollisionHull@Pegas@@@Pegas@@@Z 00446d90 f i engine:collision_checker.obj
 0001:00045dd0       ??Dconst_iterator@?$_Tree@V?$_Tset_traits@PAVICollisionHull@Pegas@@U?$less@PAVICollisionHull@Pegas@@@std@@V?$allocator@PAVICollisionHull@Pegas@@@4@$0A@@std@@@std@@QBEABQAVICollisionHull@Pegas@@XZ 00446dd0 f i engine:collision_checker.obj
 0001:00045e70       ??Econst_iterator@?$_Tree@V?$_Tset_traits@PAVICollisionHull@Pegas@@U?$less@PAVICollisionHull@Pegas@@@std@@V?$allocator@PAVICollisionHull@Pegas@@@4@$0A@@std@@@std@@QAEAAV012@XZ 00446e70 f i engine:collision_checker.obj
 0001:00045e90       ??8const_iterator@?$_Tree@V?$_Tset_traits@PAVICollisionHull@Pegas@@U?$less@PAVICollisionHull@Pegas@@@std@@V?$allocator@PAVICollisionHull@Pegas@@@4@$0A@@std@@@std@@QBE_NABV012@@Z 00446e90 f i engine:collision_checker.obj
 0001:00045f30       ??0?$pair@Viterator@?$_Tree@V?$_Tset_traits@HU?$less@H@std@@V?$allocator@H@2@$0A@@std@@@std@@_N@std@@QAE@ABViterator@?$_Tree@V?$_Tset_traits@HU?$less@H@std@@V?$allocator@H@2@$0A@@std@@@1@AB_N@Z 00446f30 f i engine:collision_checker.obj
 0001:00045f60       ??0iterator@?$_Tree@V?$_Tset_traits@HU?$less@H@std@@V?$allocator@H@2@$0A@@std@@@std@@QAE@PAU_Node@?$_Tree_nod@V?$_Tset_traits@HU?$less@H@std@@V?$allocator@H@2@$0A@@std@@@2@PBV12@@Z 00446f60 f i engine:collision_checker.obj
 0001:00045f90       ??Fiterator@?$_Tree@V?$_Tset_traits@HU?$less@H@std@@V?$allocator@H@2@$0A@@std@@@std@@QAEAAV012@XZ 00446f90 f i engine:collision_checker.obj
 0001:00045fb0       ??8const_iterator@?$_Tree@V?$_Tset_traits@HU?$less@H@std@@V?$allocator@H@2@$0A@@std@@@std@@QBE_NABV012@@Z 00446fb0 f i engine:collision_checker.obj
 0001:00046050       ?_Mynode@const_iterator@?$_Tree@V?$_Tset_traits@HU?$less@H@std@@V?$allocator@H@2@$0A@@std@@@std@@QBEPAU_Node@?$_Tree_nod@V?$_Tset_traits@HU?$less@H@std@@V?$allocator@H@2@$0A@@std@@@3@XZ 00447050 f i engine:collision_checker.obj
 0001:00046070       ?_Construct_n@?$vector@MV?$allocator@M@std@@@std@@QAEXIABM@Z 00447070 f i engine:collision_checker.obj
 0001:00046120       ?size@?$vector@MV?$allocator@M@std@@@std@@QBEIXZ 00447120 f i engine:collision_checker.obj
 0001:00046150       ?_Tidy@?$vector@MV?$allocator@M@std@@@std@@IAEXXZ 00447150 f i engine:collision_checker.obj
 0001:000461d0       ??0?$_Vector_val@MV?$allocator@M@std@@@std@@IAE@V?$allocator@M@1@@Z 004471d0 f i engine:collision_checker.obj
 0001:00046210       ??1?$_Container_base_aux_alloc_empty@V?$allocator@M@std@@@std@@IAE@XZ 00447210 f i engine:collision_checker.obj
 0001:00046230       ??0?$allocator@M@std@@QAE@XZ 00447230 f i engine:collision_checker.obj
 0001:00046250       ??1iterator@?$_Tree@V?$_Tmap_traits@PAVICollisionHull@Pegas@@PAV?$Cell@PAVICollisionHull@Pegas@@@2@U?$less@PAVICollisionHull@Pegas@@@std@@V?$allocator@U?$pair@QAVICollisionHull@Pegas@@PAV?$Cell@PAVICollisionHull@Pegas@@@2@@std@@@5@$0A@@std@@@std@@QAE@XZ 00447250 f i engine:collision_checker.obj
 0001:00046270       ??0const_iterator@?$_Tree@V?$_Tmap_traits@PAVICollisionHull@Pegas@@PAV?$Cell@PAVICollisionHull@Pegas@@@2@U?$less@PAVICollisionHull@Pegas@@@std@@V?$allocator@U?$pair@QAVICollisionHull@Pegas@@PAV?$Cell@PAVICollisionHull@Pegas@@@2@@std@@@5@$0A@@std@@@std@@QAE@ABV012@@Z 00447270 f i engine:collision_checker.obj
 0001:000462a0       ??1const_iterator@?$_Tree@V?$_Tmap_traits@PAVICollisionHull@Pegas@@PAV?$Cell@PAVICollisionHull@Pegas@@@2@U?$less@PAVICollisionHull@Pegas@@@std@@V?$allocator@U?$pair@QAVICollisionHull@Pegas@@PAV?$Cell@PAVICollisionHull@Pegas@@@2@@std@@@5@$0A@@std@@@std@@QAE@XZ 004472a0 f i engine:collision_checker.obj
 0001:000462c0       ??1?$pair@Viterator@?$_Tree@V?$_Tmap_traits@HV?$ptr@VICollisionHull@Pegas@@@Pegas@@U?$less@H@std@@V?$allocator@U?$pair@$$CBHV?$ptr@VICollisionHull@Pegas@@@Pegas@@@std@@@4@$0A@@std@@@std@@_N@std@@QAE@XZ 004472c0 f i engine:collision_checker.obj
 0001:000462e0       ??0?$_Bidit@U?$pair@QAVICollisionHull@Pegas@@PAV?$Cell@PAVICollisionHull@Pegas@@@2@@std@@HPBU12@ABU12@@std@@QAE@ABU01@@Z 004472e0 f i engine:collision_checker.obj
 0001:00046310       ??1?$_Bidit@U?$pair@QAVICollisionHull@Pegas@@PAV?$Cell@PAVICollisionHull@Pegas@@@2@@std@@HPBU12@ABU12@@std@@QAE@XZ 00447310 f i engine:collision_checker.obj
 0001:00046330       ??0?$_Iterator_with_base@Ubidirectional_iterator_tag@std@@U?$pair@QAVICollisionHull@Pegas@@PAV?$Cell@PAVICollisionHull@Pegas@@@2@@2@HPBU32@ABU32@V_Iterator_base@2@@std@@QAE@ABU01@@Z 00447330 f i engine:collision_checker.obj
 0001:00046360       ??1?$_Iterator_with_base@Ubidirectional_iterator_tag@std@@U?$pair@QAVICollisionHull@Pegas@@PAV?$Cell@PAVICollisionHull@Pegas@@@2@@2@HPBU32@ABU32@V_Iterator_base@2@@std@@QAE@XZ 00447360 f i engine:collision_checker.obj
 0001:00046380       ?_Color@?$_Tree@V?$_Tset_traits@HU?$less@H@std@@V?$allocator@H@2@$0A@@std@@@std@@KAAADPAU_Node@?$_Tree_nod@V?$_Tset_traits@HU?$less@H@std@@V?$allocator@H@2@$0A@@std@@@2@@Z 00447380 f i engine:collision_checker.obj
 0001:000463a0       ?_Parent@?$_Tree@V?$_Tset_traits@HU?$less@H@std@@V?$allocator@H@2@$0A@@std@@@std@@KAAAPAU_Node@?$_Tree_nod@V?$_Tset_traits@HU?$less@H@std@@V?$allocator@H@2@$0A@@std@@@2@PAU342@@Z 004473a0 f i engine:collision_checker.obj
 0001:000463c0       ?_Myval@?$_Tree@V?$_Tset_traits@HU?$less@H@std@@V?$allocator@H@2@$0A@@std@@@std@@KAAAHPAU_Node@?$_Tree_nod@V?$_Tset_traits@HU?$less@H@std@@V?$allocator@H@2@$0A@@std@@@2@@Z 004473c0 f i engine:collision_checker.obj
 0001:000463e0       ?end@?$_Tree@V?$_Tset_traits@HU?$less@H@std@@V?$allocator@H@2@$0A@@std@@@std@@QAE?AViterator@12@XZ 004473e0 f i engine:collision_checker.obj
 0001:00046420       ?_Make_iter@?$_Tree@V?$_Tset_traits@HU?$less@H@std@@V?$allocator@H@2@$0A@@std@@@std@@QBE?AViterator@12@Vconst_iterator@12@@Z 00447420 f i engine:collision_checker.obj
 0001:000464c0       ?max_size@?$_Tree@V?$_Tset_traits@HU?$less@H@std@@V?$allocator@H@2@$0A@@std@@@std@@QBEIXZ 004474c0 f i engine:collision_checker.obj
 0001:000464e0       ?erase@?$_Tree@V?$_Tset_traits@HU?$less@H@std@@V?$allocator@H@2@$0A@@std@@@std@@QAE?AViterator@12@Vconst_iterator@12@@Z 004474e0 f i engine:collision_checker.obj
 0001:00046ce0       ?clear@?$_Tree@V?$_Tset_traits@HU?$less@H@std@@V?$allocator@H@2@$0A@@std@@@std@@QAEXXZ 00447ce0 f i engine:collision_checker.obj
 0001:00046d50       ?_Eqrange@?$_Tree@V?$_Tset_traits@HU?$less@H@std@@V?$allocator@H@2@$0A@@std@@@std@@IBE?AU?$pair@Vconst_iterator@?$_Tree@V?$_Tset_traits@HU?$less@H@std@@V?$allocator@H@2@$0A@@std@@@std@@V123@@2@ABH@Z 00447d50 f i engine:collision_checker.obj
 0001:00046fa0       ?_Eqrange@?$_Tree@V?$_Tset_traits@HU?$less@H@std@@V?$allocator@H@2@$0A@@std@@@std@@IAE?AU?$pair@Viterator@?$_Tree@V?$_Tset_traits@HU?$less@H@std@@V?$allocator@H@2@$0A@@std@@@std@@V123@@2@ABH@Z 00447fa0 f i engine:collision_checker.obj
 0001:000471e0       ?_Init@?$_Tree@V?$_Tset_traits@HU?$less@H@std@@V?$allocator@H@2@$0A@@std@@@std@@IAEXXZ 004481e0 f i engine:collision_checker.obj
 0001:00047250       ?_Lmost@?$_Tree@V?$_Tset_traits@HU?$less@H@std@@V?$allocator@H@2@$0A@@std@@@std@@IBEAAPAU_Node@?$_Tree_nod@V?$_Tset_traits@HU?$less@H@std@@V?$allocator@H@2@$0A@@std@@@2@XZ 00448250 f i engine:collision_checker.obj
 0001:00047280       ?_Lrotate@?$_Tree@V?$_Tset_traits@HU?$less@H@std@@V?$allocator@H@2@$0A@@std@@@std@@IAEXPAU_Node@?$_Tree_nod@V?$_Tset_traits@HU?$less@H@std@@V?$allocator@H@2@$0A@@std@@@2@@Z 00448280 f i engine:collision_checker.obj
 0001:000473c0       ?_Rmost@?$_Tree@V?$_Tset_traits@HU?$less@H@std@@V?$allocator@H@2@$0A@@std@@@std@@IBEAAPAU_Node@?$_Tree_nod@V?$_Tset_traits@HU?$less@H@std@@V?$allocator@H@2@$0A@@std@@@2@XZ 004483c0 f i engine:collision_checker.obj
 0001:000473f0       ?_Rrotate@?$_Tree@V?$_Tset_traits@HU?$less@H@std@@V?$allocator@H@2@$0A@@std@@@std@@IAEXPAU_Node@?$_Tree_nod@V?$_Tset_traits@HU?$less@H@std@@V?$allocator@H@2@$0A@@std@@@2@@Z 004483f0 f i engine:collision_checker.obj
 0001:00047530       ?_Buynode@?$_Tree@V?$_Tset_traits@HU?$less@H@std@@V?$allocator@H@2@$0A@@std@@@std@@IAEPAU_Node@?$_Tree_nod@V?$_Tset_traits@HU?$less@H@std@@V?$allocator@H@2@$0A@@std@@@2@PAU342@00ABHD@Z 00448530 f i engine:collision_checker.obj
 0001:00047620       ??0?$_Tree_val@V?$_Tset_traits@HU?$less@H@std@@V?$allocator@H@2@$0A@@std@@@std@@IAE@ABU?$less@H@1@V?$allocator@H@1@@Z 00448620 f i engine:collision_checker.obj
 0001:00047670       ?deallocate@?$allocator@U_Node@?$_Tree_nod@V?$_Tset_traits@HU?$less@H@std@@V?$allocator@H@2@$0A@@std@@@std@@@std@@QAEXPAU_Node@?$_Tree_nod@V?$_Tset_traits@HU?$less@H@std@@V?$allocator@H@2@$0A@@std@@@2@I@Z 00448670 f i engine:collision_checker.obj
 0001:000476a0       ?destroy@?$allocator@PAU_Node@?$_Tree_nod@V?$_Tset_traits@HU?$less@H@std@@V?$allocator@H@2@$0A@@std@@@std@@@std@@QAEXPAPAU_Node@?$_Tree_nod@V?$_Tset_traits@HU?$less@H@std@@V?$allocator@H@2@$0A@@std@@@2@@Z 004486a0 f i engine:collision_checker.obj
 0001:000476d0       ?_Left@?$_Tree@V?$_Tmap_traits@PAVICollisionHull@Pegas@@PAV?$Cell@PAVICollisionHull@Pegas@@@2@U?$less@PAVICollisionHull@Pegas@@@std@@V?$allocator@U?$pair@QAVICollisionHull@Pegas@@PAV?$Cell@PAVICollisionHull@Pegas@@@2@@std@@@5@$0A@@std@@@std@@KAAAPAU_Node@?$_Tree_nod@V?$_Tmap_traits@PAVICollisionHull@Pegas@@PAV?$Cell@PAVICollisionHull@Pegas@@@2@U?$less@PAVICollisionHull@Pegas@@@std@@V?$allocator@U?$pair@QAVICollisionHull@Pegas@@PAV?$Cell@PAVICollisionHull@Pegas@@@2@@std@@@5@$0A@@std@@@2@PAU342@@Z 004486d0 f i engine:collision_checker.obj
 0001:000476f0       ?_Parent@?$_Tree@V?$_Tmap_traits@PAVICollisionHull@Pegas@@PAV?$Cell@PAVICollisionHull@Pegas@@@2@U?$less@PAVICollisionHull@Pegas@@@std@@V?$allocator@U?$pair@QAVICollisionHull@Pegas@@PAV?$Cell@PAVICollisionHull@Pegas@@@2@@std@@@5@$0A@@std@@@std@@KAAAPAU_Node@?$_Tree_nod@V?$_Tmap_traits@PAVICollisionHull@Pegas@@PAV?$Cell@PAVICollisionHull@Pegas@@@2@U?$less@PAVICollisionHull@Pegas@@@std@@V?$allocator@U?$pair@QAVICollisionHull@Pegas@@PAV?$Cell@PAVICollisionHull@Pegas@@@2@@std@@@5@$0A@@std@@@2@PAU342@@Z 004486f0 f i engine:collision_checker.obj
 0001:00047710       ?_Right@?$_Tree@V?$_Tmap_traits@PAVICollisionHull@Pegas@@PAV?$Cell@PAVICollisionHull@Pegas@@@2@U?$less@PAVICollisionHull@Pegas@@@std@@V?$allocator@U?$pair@QAVICollisionHull@Pegas@@PAV?$Cell@PAVICollisionHull@Pegas@@@2@@std@@@5@$0A@@std@@@std@@KAAAPAU_Node@?$_Tree_nod@V?$_Tmap_traits@PAVICollisionHull@Pegas@@PAV?$Cell@PAVICollisionHull@Pegas@@@2@U?$less@PAVICollisionHull@Pegas@@@std@@V?$allocator@U?$pair@QAVICollisionHull@Pegas@@PAV?$Cell@PAVICollisionHull@Pegas@@@2@@std@@@5@$0A@@std@@@2@PAU342@@Z 00448710 f i engine:collision_checker.obj
 0001:00047730       ??0?$_Tree@V?$_Tmap_traits@PAVICollisionHull@Pegas@@PAV?$Cell@PAVICollisionHull@Pegas@@@2@U?$less@PAVICollisionHull@Pegas@@@std@@V?$allocator@U?$pair@QAVICollisionHull@Pegas@@PAV?$Cell@PAVICollisionHull@Pegas@@@2@@std@@@5@$0A@@std@@@std@@QAE@ABU?$less@PAVICollisionHull@Pegas@@@1@ABV?$allocator@U?$pair@QAVICollisionHull@Pegas@@PAV?$Cell@PAVICollisionHull@Pegas@@@2@@std@@@1@@Z 00448730 f i engine:collision_checker.obj
 0001:000477b0       ?begin@?$_Tree@V?$_Tmap_traits@PAVICollisionHull@Pegas@@PAV?$Cell@PAVICollisionHull@Pegas@@@2@U?$less@PAVICollisionHull@Pegas@@@std@@V?$allocator@U?$pair@QAVICollisionHull@Pegas@@PAV?$Cell@PAVICollisionHull@Pegas@@@2@@std@@@5@$0A@@std@@@std@@QAE?AViterator@12@XZ 004487b0 f i engine:collision_checker.obj
 0001:000477f0       ?end@?$_Tree@V?$_Tmap_traits@PAVICollisionHull@Pegas@@PAV?$Cell@PAVICollisionHull@Pegas@@@2@U?$less@PAVICollisionHull@Pegas@@@std@@V?$allocator@U?$pair@QAVICollisionHull@Pegas@@PAV?$Cell@PAVICollisionHull@Pegas@@@2@@std@@@5@$0A@@std@@@std@@QAE?AViterator@12@XZ 004487f0 f i engine:collision_checker.obj
 0001:00047830       ?erase@?$_Tree@V?$_Tmap_traits@PAVICollisionHull@Pegas@@PAV?$Cell@PAVICollisionHull@Pegas@@@2@U?$less@PAVICollisionHull@Pegas@@@std@@V?$allocator@U?$pair@QAVICollisionHull@Pegas@@PAV?$Cell@PAVICollisionHull@Pegas@@@2@@std@@@5@$0A@@std@@@std@@QAE?AViterator@12@Vconst_iterator@12@0@Z 00448830 f i engine:collision_checker.obj
 0001:00047a60       ??0?$allocator@U?$pair@QAVICollisionHull@Pegas@@PAV?$Cell@PAVICollisionHull@Pegas@@@2@@std@@@std@@QAE@XZ 00448a60 f i engine:collision_checker.obj
 0001:00047a80       ?deallocate@?$allocator@U_Node@?$_Tree_nod@V?$_Tmap_traits@PAVICollisionHull@Pegas@@PAV?$Cell@PAVICollisionHull@Pegas@@@2@U?$less@PAVICollisionHull@Pegas@@@std@@V?$allocator@U?$pair@QAVICollisionHull@Pegas@@PAV?$Cell@PAVICollisionHull@Pegas@@@2@@std@@@5@$0A@@std@@@std@@@std@@QAEXPAU_Node@?$_Tree_nod@V?$_Tmap_traits@PAVICollisionHull@Pegas@@PAV?$Cell@PAVICollisionHull@Pegas@@@2@U?$less@PAVICollisionHull@Pegas@@@std@@V?$allocator@U?$pair@QAVICollisionHull@Pegas@@PAV?$Cell@PAVICollisionHull@Pegas@@@2@@std@@@5@$0A@@std@@@2@I@Z 00448a80 f i engine:collision_checker.obj
 0001:00047ab0       ?destroy@?$allocator@PAU_Node@?$_Tree_nod@V?$_Tmap_traits@PAVICollisionHull@Pegas@@PAV?$Cell@PAVICollisionHull@Pegas@@@2@U?$less@PAVICollisionHull@Pegas@@@std@@V?$allocator@U?$pair@QAVICollisionHull@Pegas@@PAV?$Cell@PAVICollisionHull@Pegas@@@2@@std@@@5@$0A@@std@@@std@@@std@@QAEXPAPAU_Node@?$_Tree_nod@V?$_Tmap_traits@PAVICollisionHull@Pegas@@PAV?$Cell@PAVICollisionHull@Pegas@@@2@U?$less@PAVICollisionHull@Pegas@@@std@@V?$allocator@U?$pair@QAVICollisionHull@Pegas@@PAV?$Cell@PAVICollisionHull@Pegas@@@2@@std@@@5@$0A@@std@@@2@@Z 00448ab0 f i engine:collision_checker.obj
 0001:00047ae0       ?_Isnil@?$_Tree@V?$_Tmap_traits@HV?$ptr@VICollisionHull@Pegas@@@Pegas@@U?$less@H@std@@V?$allocator@U?$pair@$$CBHV?$ptr@VICollisionHull@Pegas@@@Pegas@@@std@@@4@$0A@@std@@@std@@KAAADPAU_Node@?$_Tree_nod@V?$_Tmap_traits@HV?$ptr@VICollisionHull@Pegas@@@Pegas@@U?$less@H@std@@V?$allocator@U?$pair@$$CBHV?$ptr@VICollisionHull@Pegas@@@Pegas@@@std@@@4@$0A@@std@@@2@@Z 00448ae0 f i engine:collision_checker.obj
 0001:00047b00       ?_Left@?$_Tree@V?$_Tmap_traits@HV?$ptr@VICollisionHull@Pegas@@@Pegas@@U?$less@H@std@@V?$allocator@U?$pair@$$CBHV?$ptr@VICollisionHull@Pegas@@@Pegas@@@std@@@4@$0A@@std@@@std@@KAAAPAU_Node@?$_Tree_nod@V?$_Tmap_traits@HV?$ptr@VICollisionHull@Pegas@@@Pegas@@U?$less@H@std@@V?$allocator@U?$pair@$$CBHV?$ptr@VICollisionHull@Pegas@@@Pegas@@@std@@@4@$0A@@std@@@2@PAU342@@Z 00448b00 f i engine:collision_checker.obj
 0001:00047b20       ?_Parent@?$_Tree@V?$_Tmap_traits@HV?$ptr@VICollisionHull@Pegas@@@Pegas@@U?$less@H@std@@V?$allocator@U?$pair@$$CBHV?$ptr@VICollisionHull@Pegas@@@Pegas@@@std@@@4@$0A@@std@@@std@@KAAAPAU_Node@?$_Tree_nod@V?$_Tmap_traits@HV?$ptr@VICollisionHull@Pegas@@@Pegas@@U?$less@H@std@@V?$allocator@U?$pair@$$CBHV?$ptr@VICollisionHull@Pegas@@@Pegas@@@std@@@4@$0A@@std@@@2@PAU342@@Z 00448b20 f i engine:collision_checker.obj
 0001:00047b40       ?_Right@?$_Tree@V?$_Tmap_traits@HV?$ptr@VICollisionHull@Pegas@@@Pegas@@U?$less@H@std@@V?$allocator@U?$pair@$$CBHV?$ptr@VICollisionHull@Pegas@@@Pegas@@@std@@@4@$0A@@std@@@std@@KAAAPAU_Node@?$_Tree_nod@V?$_Tmap_traits@HV?$ptr@VICollisionHull@Pegas@@@Pegas@@U?$less@H@std@@V?$allocator@U?$pair@$$CBHV?$ptr@VICollisionHull@Pegas@@@Pegas@@@std@@@4@$0A@@std@@@2@PAU342@@Z 00448b40 f i engine:collision_checker.obj
 0001:00047b60       ?_Myval@?$_Tree@V?$_Tmap_traits@HV?$ptr@VICollisionHull@Pegas@@@Pegas@@U?$less@H@std@@V?$allocator@U?$pair@$$CBHV?$ptr@VICollisionHull@Pegas@@@Pegas@@@std@@@4@$0A@@std@@@std@@KAAAU?$pair@$$CBHV?$ptr@VICollisionHull@Pegas@@@Pegas@@@2@PAU_Node@?$_Tree_nod@V?$_Tmap_traits@HV?$ptr@VICollisionHull@Pegas@@@Pegas@@U?$less@H@std@@V?$allocator@U?$pair@$$CBHV?$ptr@VICollisionHull@Pegas@@@Pegas@@@std@@@4@$0A@@std@@@2@@Z 00448b60 f i engine:collision_checker.obj
 0001:00047b80       ?_Make_iter@?$_Tree@V?$_Tmap_traits@HV?$ptr@VICollisionHull@Pegas@@@Pegas@@U?$less@H@std@@V?$allocator@U?$pair@$$CBHV?$ptr@VICollisionHull@Pegas@@@Pegas@@@std@@@4@$0A@@std@@@std@@QBE?AViterator@12@Vconst_iterator@12@@Z 00448b80 f i engine:collision_checker.obj
 0001:00047c20       ?size@?$_Tree@V?$_Tmap_traits@HV?$ptr@VICollisionHull@Pegas@@@Pegas@@U?$less@H@std@@V?$allocator@U?$pair@$$CBHV?$ptr@VICollisionHull@Pegas@@@Pegas@@@std@@@4@$0A@@std@@@std@@QBEIXZ 00448c20 f i engine:collision_checker.obj
 0001:00047c40       ?insert@?$_Tree@V?$_Tmap_traits@HV?$ptr@VICollisionHull@Pegas@@@Pegas@@U?$less@H@std@@V?$allocator@U?$pair@$$CBHV?$ptr@VICollisionHull@Pegas@@@Pegas@@@std@@@4@$0A@@std@@@std@@QAE?AU?$pair@Viterator@?$_Tree@V?$_Tmap_traits@HV?$ptr@VICollisionHull@Pegas@@@Pegas@@U?$less@H@std@@V?$allocator@U?$pair@$$CBHV?$ptr@VICollisionHull@Pegas@@@Pegas@@@std@@@4@$0A@@std@@@std@@_N@2@ABU?$pair@$$CBHV?$ptr@VICollisionHull@Pegas@@@Pegas@@@2@@Z 00448c40 f i engine:collision_checker.obj
 0001:00047f90       ?erase@?$_Tree@V?$_Tmap_traits@HV?$ptr@VICollisionHull@Pegas@@@Pegas@@U?$less@H@std@@V?$allocator@U?$pair@$$CBHV?$ptr@VICollisionHull@Pegas@@@Pegas@@@std@@@4@$0A@@std@@@std@@QAE?AViterator@12@Vconst_iterator@12@@Z 00448f90 f i engine:collision_checker.obj
 0001:00048790       ?clear@?$_Tree@V?$_Tmap_traits@HV?$ptr@VICollisionHull@Pegas@@@Pegas@@U?$less@H@std@@V?$allocator@U?$pair@$$CBHV?$ptr@VICollisionHull@Pegas@@@Pegas@@@std@@@4@$0A@@std@@@std@@QAEXXZ 00449790 f i engine:collision_checker.obj
 0001:00048800       ?_Eqrange@?$_Tree@V?$_Tmap_traits@HV?$ptr@VICollisionHull@Pegas@@@Pegas@@U?$less@H@std@@V?$allocator@U?$pair@$$CBHV?$ptr@VICollisionHull@Pegas@@@Pegas@@@std@@@4@$0A@@std@@@std@@IBE?AU?$pair@Vconst_iterator@?$_Tree@V?$_Tmap_traits@HV?$ptr@VICollisionHull@Pegas@@@Pegas@@U?$less@H@std@@V?$allocator@U?$pair@$$CBHV?$ptr@VICollisionHull@Pegas@@@Pegas@@@std@@@4@$0A@@std@@@std@@V123@@2@ABH@Z 00449800 f i engine:collision_checker.obj
 0001:00048a40       ?_Eqrange@?$_Tree@V?$_Tmap_traits@HV?$ptr@VICollisionHull@Pegas@@@Pegas@@U?$less@H@std@@V?$allocator@U?$pair@$$CBHV?$ptr@VICollisionHull@Pegas@@@Pegas@@@std@@@4@$0A@@std@@@std@@IAE?AU?$pair@Viterator@?$_Tree@V?$_Tmap_traits@HV?$ptr@VICollisionHull@Pegas@@@Pegas@@U?$less@H@std@@V?$allocator@U?$pair@$$CBHV?$ptr@VICollisionHull@Pegas@@@Pegas@@@std@@@4@$0A@@std@@@std@@V123@@2@ABH@Z 00449a40 f i engine:collision_checker.obj
 0001:00048c80       ?_Init@?$_Tree@V?$_Tmap_traits@HV?$ptr@VICollisionHull@Pegas@@@Pegas@@U?$less@H@std@@V?$allocator@U?$pair@$$CBHV?$ptr@VICollisionHull@Pegas@@@Pegas@@@std@@@4@$0A@@std@@@std@@IAEXXZ 00449c80 f i engine:collision_checker.obj
 0001:00048cf0       ?_Insert@?$_Tree@V?$_Tmap_traits@HV?$ptr@VICollisionHull@Pegas@@@Pegas@@U?$less@H@std@@V?$allocator@U?$pair@$$CBHV?$ptr@VICollisionHull@Pegas@@@Pegas@@@std@@@4@$0A@@std@@@std@@IAE?AViterator@12@_NPAU_Node@?$_Tree_nod@V?$_Tmap_traits@HV?$ptr@VICollisionHull@Pegas@@@Pegas@@U?$less@H@std@@V?$allocator@U?$pair@$$CBHV?$ptr@VICollisionHull@Pegas@@@Pegas@@@std@@@4@$0A@@std@@@2@ABU?$pair@$$CBHV?$ptr@VICollisionHull@Pegas@@@Pegas@@@2@@Z 00449cf0 f i engine:collision_checker.obj
 0001:00049190       ?_Lbound@?$_Tree@V?$_Tmap_traits@HV?$ptr@VICollisionHull@Pegas@@@Pegas@@U?$less@H@std@@V?$allocator@U?$pair@$$CBHV?$ptr@VICollisionHull@Pegas@@@Pegas@@@std@@@4@$0A@@std@@@std@@IBEPAU_Node@?$_Tree_nod@V?$_Tmap_traits@HV?$ptr@VICollisionHull@Pegas@@@Pegas@@U?$less@H@std@@V?$allocator@U?$pair@$$CBHV?$ptr@VICollisionHull@Pegas@@@Pegas@@@std@@@4@$0A@@std@@@2@ABH@Z 0044a190 f i engine:collision_checker.obj
 0001:00049230       ?_Rmost@?$_Tree@V?$_Tmap_traits@HV?$ptr@VICollisionHull@Pegas@@@Pegas@@U?$less@H@std@@V?$allocator@U?$pair@$$CBHV?$ptr@VICollisionHull@Pegas@@@Pegas@@@std@@@4@$0A@@std@@@std@@IBEAAPAU_Node@?$_Tree_nod@V?$_Tmap_traits@HV?$ptr@VICollisionHull@Pegas@@@Pegas@@U?$less@H@std@@V?$allocator@U?$pair@$$CBHV?$ptr@VICollisionHull@Pegas@@@Pegas@@@std@@@4@$0A@@std@@@2@XZ 0044a230 f i engine:collision_checker.obj
 0001:00049260       ??0?$_Tree_val@V?$_Tmap_traits@HV?$ptr@VICollisionHull@Pegas@@@Pegas@@U?$less@H@std@@V?$allocator@U?$pair@$$CBHV?$ptr@VICollisionHull@Pegas@@@Pegas@@@std@@@4@$0A@@std@@@std@@IAE@ABU?$less@H@1@V?$allocator@U?$pair@$$CBHV?$ptr@VICollisionHull@Pegas@@@Pegas@@@std@@@1@@Z 0044a260 f i engine:collision_checker.obj
 0001:000492b0       ?_Kfn@?$_Tmap_traits@HV?$ptr@VICollisionHull@Pegas@@@Pegas@@U?$less@H@std@@V?$allocator@U?$pair@$$CBHV?$ptr@VICollisionHull@Pegas@@@Pegas@@@std@@@4@$0A@@std@@SAABHABU?$pair@$$CBHV?$ptr@VICollisionHull@Pegas@@@Pegas@@@2@@Z 0044a2b0 f i engine:collision_checker.obj
 0001:000492d0       ??0?$allocator@U?$pair@$$CBHV?$ptr@VICollisionHull@Pegas@@@Pegas@@@std@@@std@@QAE@ABV01@@Z 0044a2d0 f i engine:collision_checker.obj
 0001:000492f0       ?deallocate@?$allocator@U_Node@?$_Tree_nod@V?$_Tmap_traits@HV?$ptr@VICollisionHull@Pegas@@@Pegas@@U?$less@H@std@@V?$allocator@U?$pair@$$CBHV?$ptr@VICollisionHull@Pegas@@@Pegas@@@std@@@4@$0A@@std@@@std@@@std@@QAEXPAU_Node@?$_Tree_nod@V?$_Tmap_traits@HV?$ptr@VICollisionHull@Pegas@@@Pegas@@U?$less@H@std@@V?$allocator@U?$pair@$$CBHV?$ptr@VICollisionHull@Pegas@@@Pegas@@@std@@@4@$0A@@std@@@2@I@Z 0044a2f0 f i engine:collision_checker.obj
 0001:00049320       ?destroy@?$allocator@PAU_Node@?$_Tree_nod@V?$_Tmap_traits@HV?$ptr@VICollisionHull@Pegas@@@Pegas@@U?$less@H@std@@V?$allocator@U?$pair@$$CBHV?$ptr@VICollisionHull@Pegas@@@Pegas@@@std@@@4@$0A@@std@@@std@@@std@@QAEXPAPAU_Node@?$_Tree_nod@V?$_Tmap_traits@HV?$ptr@VICollisionHull@Pegas@@@Pegas@@U?$less@H@std@@V?$allocator@U?$pair@$$CBHV?$ptr@VICollisionHull@Pegas@@@Pegas@@@std@@@4@$0A@@std@@@2@@Z 0044a320 f i engine:collision_checker.obj
 0001:00049350       ??0const_iterator@?$_Tree@V?$_Tmap_traits@HV?$ptr@VICollisionHull@Pegas@@@Pegas@@U?$less@H@std@@V?$allocator@U?$pair@$$CBHV?$ptr@VICollisionHull@Pegas@@@Pegas@@@std@@@4@$0A@@std@@@std@@QAE@XZ 0044a350 f i engine:collision_checker.obj
 0001:00049380       ??0const_iterator@?$_Tree@V?$_Tmap_traits@HV?$ptr@VICollisionHull@Pegas@@@Pegas@@U?$less@H@std@@V?$allocator@U?$pair@$$CBHV?$ptr@VICollisionHull@Pegas@@@Pegas@@@std@@@4@$0A@@std@@@std@@QAE@PAU_Node@?$_Tree_nod@V?$_Tmap_traits@HV?$ptr@VICollisionHull@Pegas@@@Pegas@@U?$less@H@std@@V?$allocator@U?$pair@$$CBHV?$ptr@VICollisionHull@Pegas@@@Pegas@@@std@@@4@$0A@@std@@@2@PBV12@@Z 0044a380 f i engine:collision_checker.obj
 0001:000493f0       ??Dconst_iterator@?$_Tree@V?$_Tmap_traits@HV?$ptr@VICollisionHull@Pegas@@@Pegas@@U?$less@H@std@@V?$allocator@U?$pair@$$CBHV?$ptr@VICollisionHull@Pegas@@@Pegas@@@std@@@4@$0A@@std@@@std@@QBEABU?$pair@$$CBHV?$ptr@VICollisionHull@Pegas@@@Pegas@@@2@XZ 0044a3f0 f i engine:collision_checker.obj
 0001:00049490       ??Econst_iterator@?$_Tree@V?$_Tmap_traits@HV?$ptr@VICollisionHull@Pegas@@@Pegas@@U?$less@H@std@@V?$allocator@U?$pair@$$CBHV?$ptr@VICollisionHull@Pegas@@@Pegas@@@std@@@4@$0A@@std@@@std@@QAE?AV012@H@Z 0044a490 f i engine:collision_checker.obj
 0001:00049520       ??Fconst_iterator@?$_Tree@V?$_Tmap_traits@HV?$ptr@VICollisionHull@Pegas@@@Pegas@@U?$less@H@std@@V?$allocator@U?$pair@$$CBHV?$ptr@VICollisionHull@Pegas@@@Pegas@@@std@@@4@$0A@@std@@@std@@QAEAAV012@XZ 0044a520 f i engine:collision_checker.obj
 0001:00049540       ?_Inc@const_iterator@?$_Tree@V?$_Tmap_traits@HV?$ptr@VICollisionHull@Pegas@@@Pegas@@U?$less@H@std@@V?$allocator@U?$pair@$$CBHV?$ptr@VICollisionHull@Pegas@@@Pegas@@@std@@@4@$0A@@std@@@std@@QAEXXZ 0044a540 f i engine:collision_checker.obj
 0001:00049670       ?_Myval@?$_Tree@V?$_Tset_traits@PAVICollisionHull@Pegas@@U?$less@PAVICollisionHull@Pegas@@@std@@V?$allocator@PAVICollisionHull@Pegas@@@4@$0A@@std@@@std@@KAAAPAVICollisionHull@Pegas@@PAU_Node@?$_Tree_nod@V?$_Tset_traits@PAVICollisionHull@Pegas@@U?$less@PAVICollisionHull@Pegas@@@std@@V?$allocator@PAVICollisionHull@Pegas@@@4@$0A@@std@@@2@@Z 0044a670 f i engine:collision_checker.obj
 0001:00049690       ?_Inc@const_iterator@?$_Tree@V?$_Tset_traits@PAVICollisionHull@Pegas@@U?$less@PAVICollisionHull@Pegas@@@std@@V?$allocator@PAVICollisionHull@Pegas@@@4@$0A@@std@@@std@@QAEXXZ 0044a690 f i engine:collision_checker.obj
 0001:000497c0       ??0const_iterator@?$_Tree@V?$_Tset_traits@HU?$less@H@std@@V?$allocator@H@2@$0A@@std@@@std@@QAE@PAU_Node@?$_Tree_nod@V?$_Tset_traits@HU?$less@H@std@@V?$allocator@H@2@$0A@@std@@@2@PBV12@@Z 0044a7c0 f i engine:collision_checker.obj
 0001:00049830       ??Econst_iterator@?$_Tree@V?$_Tset_traits@HU?$less@H@std@@V?$allocator@H@2@$0A@@std@@@std@@QAE?AV012@H@Z 0044a830 f i engine:collision_checker.obj
 0001:000498c0       ??Fconst_iterator@?$_Tree@V?$_Tset_traits@HU?$less@H@std@@V?$allocator@H@2@$0A@@std@@@std@@QAEAAV012@XZ 0044a8c0 f i engine:collision_checker.obj
 0001:000498e0       ??9const_iterator@?$_Tree@V?$_Tset_traits@HU?$less@H@std@@V?$allocator@H@2@$0A@@std@@@std@@QBE_NABV012@@Z 0044a8e0 f i engine:collision_checker.obj
 0001:00049910       ?_Buy@?$vector@MV?$allocator@M@std@@@std@@IAE_NI@Z 0044a910 f i engine:collision_checker.obj
 0001:000499a0       ?_Destroy@?$vector@MV?$allocator@M@std@@@std@@IAEXPAM0@Z 0044a9a0 f i engine:collision_checker.obj
 0001:000499d0       ?_Ufill@?$vector@MV?$allocator@M@std@@@std@@IAEPAMPAMIABM@Z 0044a9d0 f i engine:collision_checker.obj
 0001:00049a10       ??0?$_Container_base_aux_alloc_empty@V?$allocator@M@std@@@std@@IAE@V?$allocator@M@1@@Z 0044aa10 f i engine:collision_checker.obj
 0001:00049a30       ??0?$allocator@M@std@@QAE@ABV01@@Z 0044aa30 f i engine:collision_checker.obj
 0001:00049a50       ?deallocate@?$allocator@M@std@@QAEXPAMI@Z 0044aa50 f i engine:collision_checker.obj
 0001:00049a80       ??0?$_Bidit@U?$pair@$$CBHV?$ptr@VICollisionHull@Pegas@@@Pegas@@@std@@HPBU12@ABU12@@std@@QAE@XZ 0044aa80 f i engine:collision_checker.obj
 0001:00049aa0       ??0?$_Bidit@HHPBHABH@std@@QAE@XZ 0044aaa0 f i engine:collision_checker.obj
 0001:00049ac0       ??0?$_Iterator_with_base@Ubidirectional_iterator_tag@std@@U?$pair@$$CBHV?$ptr@VICollisionHull@Pegas@@@Pegas@@@2@HPBU32@ABU32@V_Iterator_base@2@@std@@QAE@XZ 0044aac0 f i engine:collision_checker.obj
 0001:00049ae0       ??0?$_Iterator_with_base@Ubidirectional_iterator_tag@std@@HHPBHABHV_Iterator_base@2@@std@@QAE@XZ 0044aae0 f i engine:collision_checker.obj
 0001:00049b00       ?max_size@?$allocator@H@std@@QBEIXZ 0044ab00 f i engine:collision_checker.obj
 0001:00049b40       ?_Erase@?$_Tree@V?$_Tset_traits@HU?$less@H@std@@V?$allocator@H@2@$0A@@std@@@std@@IAEXPAU_Node@?$_Tree_nod@V?$_Tset_traits@HU?$less@H@std@@V?$allocator@H@2@$0A@@std@@@2@@Z 0044ab40 f i engine:collision_checker.obj
 0001:00049bc0       ?_Max@?$_Tree@V?$_Tset_traits@HU?$less@H@std@@V?$allocator@H@2@$0A@@std@@@std@@KAPAU_Node@?$_Tree_nod@V?$_Tset_traits@HU?$less@H@std@@V?$allocator@H@2@$0A@@std@@@2@PAU342@@Z 0044abc0 f i engine:collision_checker.obj
 0001:00049c10       ?_Min@?$_Tree@V?$_Tset_traits@HU?$less@H@std@@V?$allocator@H@2@$0A@@std@@@std@@KAPAU_Node@?$_Tree_nod@V?$_Tset_traits@HU?$less@H@std@@V?$allocator@H@2@$0A@@std@@@2@PAU342@@Z 0044ac10 f i engine:collision_checker.obj
 0001:00049c60       ?_Orphan_ptr@?$_Tree@V?$_Tset_traits@HU?$less@H@std@@V?$allocator@H@2@$0A@@std@@@std@@IBEXAAV12@PAU_Node@?$_Tree_nod@V?$_Tset_traits@HU?$less@H@std@@V?$allocator@H@2@$0A@@std@@@2@@Z 0044ac60 f i engine:collision_checker.obj
 0001:00049ce0       ?_Buynode@?$_Tree@V?$_Tset_traits@HU?$less@H@std@@V?$allocator@H@2@$0A@@std@@@std@@IAEPAU_Node@?$_Tree_nod@V?$_Tset_traits@HU?$less@H@std@@V?$allocator@H@2@$0A@@std@@@2@XZ 0044ace0 f i engine:collision_checker.obj
 0001:00049e60       ??0?$_Tree_ptr@V?$_Tset_traits@HU?$less@H@std@@V?$allocator@H@2@$0A@@std@@@std@@QAE@ABU?$less@H@1@V?$allocator@H@1@@Z 0044ae60 f i engine:collision_checker.obj
 0001:00049eb0       ?allocate@?$allocator@U_Node@?$_Tree_nod@V?$_Tset_traits@HU?$less@H@std@@V?$allocator@H@2@$0A@@std@@@std@@@std@@QAEPAU_Node@?$_Tree_nod@V?$_Tset_traits@HU?$less@H@std@@V?$allocator@H@2@$0A@@std@@@2@I@Z 0044aeb0 f i engine:collision_checker.obj
 0001:00049ee0       ?destroy@?$allocator@U_Node@?$_Tree_nod@V?$_Tset_traits@HU?$less@H@std@@V?$allocator@H@2@$0A@@std@@@std@@@std@@QAEXPAU_Node@?$_Tree_nod@V?$_Tset_traits@HU?$less@H@std@@V?$allocator@H@2@$0A@@std@@@2@@Z 0044aee0 f i engine:collision_checker.obj
 0001:00049f10       ?_Make_iter@?$_Tree@V?$_Tmap_traits@PAVICollisionHull@Pegas@@PAV?$Cell@PAVICollisionHull@Pegas@@@2@U?$less@PAVICollisionHull@Pegas@@@std@@V?$allocator@U?$pair@QAVICollisionHull@Pegas@@PAV?$Cell@PAVICollisionHull@Pegas@@@2@@std@@@5@$0A@@std@@@std@@QBE?AViterator@12@Vconst_iterator@12@@Z 0044af10 f i engine:collision_checker.obj
 0001:00049fb0       ?erase@?$_Tree@V?$_Tmap_traits@PAVICollisionHull@Pegas@@PAV?$Cell@PAVICollisionHull@Pegas@@@2@U?$less@PAVICollisionHull@Pegas@@@std@@V?$allocator@U?$pair@QAVICollisionHull@Pegas@@PAV?$Cell@PAVICollisionHull@Pegas@@@2@@std@@@5@$0A@@std@@@std@@QAE?AViterator@12@Vconst_iterator@12@@Z 0044afb0 f i engine:collision_checker.obj
 0001:0004a7b0       ?clear@?$_Tree@V?$_Tmap_traits@PAVICollisionHull@Pegas@@PAV?$Cell@PAVICollisionHull@Pegas@@@2@U?$less@PAVICollisionHull@Pegas@@@std@@V?$allocator@U?$pair@QAVICollisionHull@Pegas@@PAV?$Cell@PAVICollisionHull@Pegas@@@2@@std@@@5@$0A@@std@@@std@@QAEXXZ 0044b7b0 f i engine:collision_checker.obj
 0001:0004a820       ?_Init@?$_Tree@V?$_Tmap_traits@PAVICollisionHull@Pegas@@PAV?$Cell@PAVICollisionHull@Pegas@@@2@U?$less@PAVICollisionHull@Pegas@@@std@@V?$allocator@U?$pair@QAVICollisionHull@Pegas@@PAV?$Cell@PAVICollisionHull@Pegas@@@2@@std@@@5@$0A@@std@@@std@@IAEXXZ 0044b820 f i engine:collision_checker.obj
 0001:0004a890       ?_Lmost@?$_Tree@V?$_Tmap_traits@PAVICollisionHull@Pegas@@PAV?$Cell@PAVICollisionHull@Pegas@@@2@U?$less@PAVICollisionHull@Pegas@@@std@@V?$allocator@U?$pair@QAVICollisionHull@Pegas@@PAV?$Cell@PAVICollisionHull@Pegas@@@2@@std@@@5@$0A@@std@@@std@@IBEAAPAU_Node@?$_Tree_nod@V?$_Tmap_traits@PAVICollisionHull@Pegas@@PAV?$Cell@PAVICollisionHull@Pegas@@@2@U?$less@PAVICollisionHull@Pegas@@@std@@V?$allocator@U?$pair@QAVICollisionHull@Pegas@@PAV?$Cell@PAVICollisionHull@Pegas@@@2@@std@@@5@$0A@@std@@@2@XZ 0044b890 f i engine:collision_checker.obj
 0001:0004a8c0       ??0?$_Tree_val@V?$_Tmap_traits@PAVICollisionHull@Pegas@@PAV?$Cell@PAVICollisionHull@Pegas@@@2@U?$less@PAVICollisionHull@Pegas@@@std@@V?$allocator@U?$pair@QAVICollisionHull@Pegas@@PAV?$Cell@PAVICollisionHull@Pegas@@@2@@std@@@5@$0A@@std@@@std@@IAE@ABU?$less@PAVICollisionHull@Pegas@@@1@V?$allocator@U?$pair@QAVICollisionHull@Pegas@@PAV?$Cell@PAVICollisionHull@Pegas@@@2@@std@@@1@@Z 0044b8c0 f i engine:collision_checker.obj
 0001:0004a910       ??0?$allocator@U?$pair@QAVICollisionHull@Pegas@@PAV?$Cell@PAVICollisionHull@Pegas@@@2@@std@@@std@@QAE@ABV01@@Z 0044b910 f i engine:collision_checker.obj
 0001:0004a930       ?_Color@?$_Tree@V?$_Tmap_traits@HV?$ptr@VICollisionHull@Pegas@@@Pegas@@U?$less@H@std@@V?$allocator@U?$pair@$$CBHV?$ptr@VICollisionHull@Pegas@@@Pegas@@@std@@@4@$0A@@std@@@std@@KAAADPAU_Node@?$_Tree_nod@V?$_Tmap_traits@HV?$ptr@VICollisionHull@Pegas@@@Pegas@@U?$less@H@std@@V?$allocator@U?$pair@$$CBHV?$ptr@VICollisionHull@Pegas@@@Pegas@@@std@@@4@$0A@@std@@@2@@Z 0044b930 f i engine:collision_checker.obj
 0001:0004a950       ?max_size@?$_Tree@V?$_Tmap_traits@HV?$ptr@VICollisionHull@Pegas@@@Pegas@@U?$less@H@std@@V?$allocator@U?$pair@$$CBHV?$ptr@VICollisionHull@Pegas@@@Pegas@@@std@@@4@$0A@@std@@@std@@QBEIXZ 0044b950 f i engine:collision_checker.obj
 0001:0004a970       ?_Erase@?$_Tree@V?$_Tmap_traits@HV?$ptr@VICollisionHull@Pegas@@@Pegas@@U?$less@H@std@@V?$allocator@U?$pair@$$CBHV?$ptr@VICollisionHull@Pegas@@@Pegas@@@std@@@4@$0A@@std@@@std@@IAEXPAU_Node@?$_Tree_nod@V?$_Tmap_traits@HV?$ptr@VICollisionHull@Pegas@@@Pegas@@U?$less@H@std@@V?$allocator@U?$pair@$$CBHV?$ptr@VICollisionHull@Pegas@@@Pegas@@@std@@@4@$0A@@std@@@2@@Z 0044b970 f i engine:collision_checker.obj
 0001:0004a9f0       ?_Lrotate@?$_Tree@V?$_Tmap_traits@HV?$ptr@VICollisionHull@Pegas@@@Pegas@@U?$less@H@std@@V?$allocator@U?$pair@$$CBHV?$ptr@VICollisionHull@Pegas@@@Pegas@@@std@@@4@$0A@@std@@@std@@IAEXPAU_Node@?$_Tree_nod@V?$_Tmap_traits@HV?$ptr@VICollisionHull@Pegas@@@Pegas@@U?$less@H@std@@V?$allocator@U?$pair@$$CBHV?$ptr@VICollisionHull@Pegas@@@Pegas@@@std@@@4@$0A@@std@@@2@@Z 0044b9f0 f i engine:collision_checker.obj
 0001:0004ab30       ?_Max@?$_Tree@V?$_Tmap_traits@HV?$ptr@VICollisionHull@Pegas@@@Pegas@@U?$less@H@std@@V?$allocator@U?$pair@$$CBHV?$ptr@VICollisionHull@Pegas@@@Pegas@@@std@@@4@$0A@@std@@@std@@KAPAU_Node@?$_Tree_nod@V?$_Tmap_traits@HV?$ptr@VICollisionHull@Pegas@@@Pegas@@U?$less@H@std@@V?$allocator@U?$pair@$$CBHV?$ptr@VICollisionHull@Pegas@@@Pegas@@@std@@@4@$0A@@std@@@2@PAU342@@Z 0044bb30 f i engine:collision_checker.obj
 0001:0004ab80       ?_Min@?$_Tree@V?$_Tmap_traits@HV?$ptr@VICollisionHull@Pegas@@@Pegas@@U?$less@H@std@@V?$allocator@U?$pair@$$CBHV?$ptr@VICollisionHull@Pegas@@@Pegas@@@std@@@4@$0A@@std@@@std@@KAPAU_Node@?$_Tree_nod@V?$_Tmap_traits@HV?$ptr@VICollisionHull@Pegas@@@Pegas@@U?$less@H@std@@V?$allocator@U?$pair@$$CBHV?$ptr@VICollisionHull@Pegas@@@Pegas@@@std@@@4@$0A@@std@@@2@PAU342@@Z 0044bb80 f i engine:collision_checker.obj
 0001:0004abd0       ?_Root@?$_Tree@V?$_Tmap_traits@HV?$ptr@VICollisionHull@Pegas@@@Pegas@@U?$less@H@std@@V?$allocator@U?$pair@$$CBHV?$ptr@VICollisionHull@Pegas@@@Pegas@@@std@@@4@$0A@@std@@@std@@IBEAAPAU_Node@?$_Tree_nod@V?$_Tmap_traits@HV?$ptr@VICollisionHull@Pegas@@@Pegas@@U?$less@H@std@@V?$allocator@U?$pair@$$CBHV?$ptr@VICollisionHull@Pegas@@@Pegas@@@std@@@4@$0A@@std@@@2@XZ 0044bbd0 f i engine:collision_checker.obj
 0001:0004ac00       ?_Rrotate@?$_Tree@V?$_Tmap_traits@HV?$ptr@VICollisionHull@Pegas@@@Pegas@@U?$less@H@std@@V?$allocator@U?$pair@$$CBHV?$ptr@VICollisionHull@Pegas@@@Pegas@@@std@@@4@$0A@@std@@@std@@IAEXPAU_Node@?$_Tree_nod@V?$_Tmap_traits@HV?$ptr@VICollisionHull@Pegas@@@Pegas@@U?$less@H@std@@V?$allocator@U?$pair@$$CBHV?$ptr@VICollisionHull@Pegas@@@Pegas@@@std@@@4@$0A@@std@@@2@@Z 0044bc00 f i engine:collision_checker.obj
 0001:0004ad40       ?_Orphan_ptr@?$_Tree@V?$_Tmap_traits@HV?$ptr@VICollisionHull@Pegas@@@Pegas@@U?$less@H@std@@V?$allocator@U?$pair@$$CBHV?$ptr@VICollisionHull@Pegas@@@Pegas@@@std@@@4@$0A@@std@@@std@@IBEXAAV12@PAU_Node@?$_Tree_nod@V?$_Tmap_traits@HV?$ptr@VICollisionHull@Pegas@@@Pegas@@U?$less@H@std@@V?$allocator@U?$pair@$$CBHV?$ptr@VICollisionHull@Pegas@@@Pegas@@@std@@@4@$0A@@std@@@2@@Z 0044bd40 f i engine:collision_checker.obj
 0001:0004adc0       ?_Buynode@?$_Tree@V?$_Tmap_traits@HV?$ptr@VICollisionHull@Pegas@@@Pegas@@U?$less@H@std@@V?$allocator@U?$pair@$$CBHV?$ptr@VICollisionHull@Pegas@@@Pegas@@@std@@@4@$0A@@std@@@std@@IAEPAU_Node@?$_Tree_nod@V?$_Tmap_traits@HV?$ptr@VICollisionHull@Pegas@@@Pegas@@U?$less@H@std@@V?$allocator@U?$pair@$$CBHV?$ptr@VICollisionHull@Pegas@@@Pegas@@@std@@@4@$0A@@std@@@2@XZ 0044bdc0 f i engine:collision_checker.obj
 0001:0004af50       ?_Buynode@?$_Tree@V?$_Tmap_traits@HV?$ptr@VICollisionHull@Pegas@@@Pegas@@U?$less@H@std@@V?$allocator@U?$pair@$$CBHV?$ptr@VICollisionHull@Pegas@@@Pegas@@@std@@@4@$0A@@std@@@std@@IAEPAU_Node@?$_Tree_nod@V?$_Tmap_traits@HV?$ptr@VICollisionHull@Pegas@@@Pegas@@U?$less@H@std@@V?$allocator@U?$pair@$$CBHV?$ptr@VICollisionHull@Pegas@@@Pegas@@@std@@@4@$0A@@std@@@2@PAU342@00ABU?$pair@$$CBHV?$ptr@VICollisionHull@Pegas@@@Pegas@@@2@D@Z 0044bf50 f i engine:collision_checker.obj
 0001:0004b040       ??0?$_Tree_ptr@V?$_Tmap_traits@HV?$ptr@VICollisionHull@Pegas@@@Pegas@@U?$less@H@std@@V?$allocator@U?$pair@$$CBHV?$ptr@VICollisionHull@Pegas@@@Pegas@@@std@@@4@$0A@@std@@@std@@QAE@ABU?$less@H@1@V?$allocator@U?$pair@$$CBHV?$ptr@VICollisionHull@Pegas@@@Pegas@@@std@@@1@@Z 0044c040 f i engine:collision_checker.obj
 0001:0004b090       ?destroy@?$allocator@U_Node@?$_Tree_nod@V?$_Tmap_traits@HV?$ptr@VICollisionHull@Pegas@@@Pegas@@U?$less@H@std@@V?$allocator@U?$pair@$$CBHV?$ptr@VICollisionHull@Pegas@@@Pegas@@@std@@@4@$0A@@std@@@std@@@std@@QAEXPAU_Node@?$_Tree_nod@V?$_Tmap_traits@HV?$ptr@VICollisionHull@Pegas@@@Pegas@@U?$less@H@std@@V?$allocator@U?$pair@$$CBHV?$ptr@VICollisionHull@Pegas@@@Pegas@@@std@@@4@$0A@@std@@@2@@Z 0044c090 f i engine:collision_checker.obj
 0001:0004b0c0       ?_Dec@const_iterator@?$_Tree@V?$_Tmap_traits@HV?$ptr@VICollisionHull@Pegas@@@Pegas@@U?$less@H@std@@V?$allocator@U?$pair@$$CBHV?$ptr@VICollisionHull@Pegas@@@Pegas@@@std@@@4@$0A@@std@@@std@@QAEXXZ 0044c0c0 f i engine:collision_checker.obj
 0001:0004b2f0       ??Fiterator@?$_Tree@V?$_Tmap_traits@HV?$ptr@VICollisionHull@Pegas@@@Pegas@@U?$less@H@std@@V?$allocator@U?$pair@$$CBHV?$ptr@VICollisionHull@Pegas@@@Pegas@@@std@@@4@$0A@@std@@@std@@QAEAAV012@XZ 0044c2f0 f i engine:collision_checker.obj
 0001:0004b310       ?_Isnil@?$_Tree@V?$_Tset_traits@PAVICollisionHull@Pegas@@U?$less@PAVICollisionHull@Pegas@@@std@@V?$allocator@PAVICollisionHull@Pegas@@@4@$0A@@std@@@std@@KAAADPAU_Node@?$_Tree_nod@V?$_Tset_traits@PAVICollisionHull@Pegas@@U?$less@PAVICollisionHull@Pegas@@@std@@V?$allocator@PAVICollisionHull@Pegas@@@4@$0A@@std@@@2@@Z 0044c310 f i engine:collision_checker.obj
 0001:0004b330       ?_Parent@?$_Tree@V?$_Tset_traits@PAVICollisionHull@Pegas@@U?$less@PAVICollisionHull@Pegas@@@std@@V?$allocator@PAVICollisionHull@Pegas@@@4@$0A@@std@@@std@@KAAAPAU_Node@?$_Tree_nod@V?$_Tset_traits@PAVICollisionHull@Pegas@@U?$less@PAVICollisionHull@Pegas@@@std@@V?$allocator@PAVICollisionHull@Pegas@@@4@$0A@@std@@@2@PAU342@@Z 0044c330 f i engine:collision_checker.obj
 0001:0004b350       ?_Right@?$_Tree@V?$_Tset_traits@PAVICollisionHull@Pegas@@U?$less@PAVICollisionHull@Pegas@@@std@@V?$allocator@PAVICollisionHull@Pegas@@@4@$0A@@std@@@std@@KAAAPAU_Node@?$_Tree_nod@V?$_Tset_traits@PAVICollisionHull@Pegas@@U?$less@PAVICollisionHull@Pegas@@@std@@V?$allocator@PAVICollisionHull@Pegas@@@4@$0A@@std@@@2@PAU342@@Z 0044c350 f i engine:collision_checker.obj
 0001:0004b370       ?_Min@?$_Tree@V?$_Tset_traits@PAVICollisionHull@Pegas@@U?$less@PAVICollisionHull@Pegas@@@std@@V?$allocator@PAVICollisionHull@Pegas@@@4@$0A@@std@@@std@@KAPAU_Node@?$_Tree_nod@V?$_Tset_traits@PAVICollisionHull@Pegas@@U?$less@PAVICollisionHull@Pegas@@@std@@V?$allocator@PAVICollisionHull@Pegas@@@4@$0A@@std@@@2@PAU342@@Z 0044c370 f i engine:collision_checker.obj
 0001:0004b3c0       ??Econst_iterator@?$_Tree@V?$_Tset_traits@HU?$less@H@std@@V?$allocator@H@2@$0A@@std@@@std@@QAEAAV012@XZ 0044c3c0 f i engine:collision_checker.obj
 0001:0004b3e0       ?_Dec@const_iterator@?$_Tree@V?$_Tset_traits@HU?$less@H@std@@V?$allocator@H@2@$0A@@std@@@std@@QAEXXZ 0044c3e0 f i engine:collision_checker.obj
 0001:0004b610       ?max_size@?$vector@MV?$allocator@M@std@@@std@@QBEIXZ 0044c610 f i engine:collision_checker.obj
 0001:0004b630       ?_Xlen@?$vector@MV?$allocator@M@std@@@std@@KAXXZ 0044c630 f i engine:collision_checker.obj
 0001:0004b6b0       ?allocate@?$allocator@M@std@@QAEPAMI@Z 0044c6b0 f i engine:collision_checker.obj
 0001:0004b6e0       ??0?$pair@Viterator@?$_Tree@V?$_Tset_traits@HU?$less@H@std@@V?$allocator@H@2@$0A@@std@@@std@@V123@@std@@QAE@ABViterator@?$_Tree@V?$_Tset_traits@HU?$less@H@std@@V?$allocator@H@2@$0A@@std@@@1@0@Z 0044c6e0 f i engine:collision_checker.obj
 0001:0004b750       ??0?$pair@Vconst_iterator@?$_Tree@V?$_Tset_traits@HU?$less@H@std@@V?$allocator@H@2@$0A@@std@@@std@@V123@@std@@QAE@ABVconst_iterator@?$_Tree@V?$_Tset_traits@HU?$less@H@std@@V?$allocator@H@2@$0A@@std@@@1@0@Z 0044c750 f i engine:collision_checker.obj
 0001:0004b7c0       ??0?$pair@Viterator@?$_Tree@V?$_Tmap_traits@HV?$ptr@VICollisionHull@Pegas@@@Pegas@@U?$less@H@std@@V?$allocator@U?$pair@$$CBHV?$ptr@VICollisionHull@Pegas@@@Pegas@@@std@@@4@$0A@@std@@@std@@V123@@std@@QAE@ABViterator@?$_Tree@V?$_Tmap_traits@HV?$ptr@VICollisionHull@Pegas@@@Pegas@@U?$less@H@std@@V?$allocator@U?$pair@$$CBHV?$ptr@VICollisionHull@Pegas@@@Pegas@@@std@@@4@$0A@@std@@@1@0@Z 0044c7c0 f i engine:collision_checker.obj
 0001:0004b830       ??0?$pair@Vconst_iterator@?$_Tree@V?$_Tmap_traits@HV?$ptr@VICollisionHull@Pegas@@@Pegas@@U?$less@H@std@@V?$allocator@U?$pair@$$CBHV?$ptr@VICollisionHull@Pegas@@@Pegas@@@std@@@4@$0A@@std@@@std@@V123@@std@@QAE@ABVconst_iterator@?$_Tree@V?$_Tmap_traits@HV?$ptr@VICollisionHull@Pegas@@@Pegas@@U?$less@H@std@@V?$allocator@U?$pair@$$CBHV?$ptr@VICollisionHull@Pegas@@@Pegas@@@std@@@4@$0A@@std@@@1@0@Z 0044c830 f i engine:collision_checker.obj
 0001:0004b8a0       ??0_Node@?$_Tree_nod@V?$_Tset_traits@HU?$less@H@std@@V?$allocator@H@2@$0A@@std@@@std@@QAE@PAU012@00ABHD@Z 0044c8a0 f i engine:collision_checker.obj
 0001:0004b8f0       ??0iterator@?$_Tree@V?$_Tmap_traits@PAVICollisionHull@Pegas@@PAV?$Cell@PAVICollisionHull@Pegas@@@2@U?$less@PAVICollisionHull@Pegas@@@std@@V?$allocator@U?$pair@QAVICollisionHull@Pegas@@PAV?$Cell@PAVICollisionHull@Pegas@@@2@@std@@@5@$0A@@std@@@std@@QAE@PAU_Node@?$_Tree_nod@V?$_Tmap_traits@PAVICollisionHull@Pegas@@PAV?$Cell@PAVICollisionHull@Pegas@@@2@U?$less@PAVICollisionHull@Pegas@@@std@@V?$allocator@U?$pair@QAVICollisionHull@Pegas@@PAV?$Cell@PAVICollisionHull@Pegas@@@2@@std@@@5@$0A@@std@@@2@PBV12@@Z 0044c8f0 f i engine:collision_checker.obj
 0001:0004b920       ??Econst_iterator@?$_Tree@V?$_Tmap_traits@PAVICollisionHull@Pegas@@PAV?$Cell@PAVICollisionHull@Pegas@@@2@U?$less@PAVICollisionHull@Pegas@@@std@@V?$allocator@U?$pair@QAVICollisionHull@Pegas@@PAV?$Cell@PAVICollisionHull@Pegas@@@2@@std@@@5@$0A@@std@@@std@@QAE?AV012@H@Z 0044c920 f i engine:collision_checker.obj
 0001:0004b9b0       ??8const_iterator@?$_Tree@V?$_Tmap_traits@PAVICollisionHull@Pegas@@PAV?$Cell@PAVICollisionHull@Pegas@@@2@U?$less@PAVICollisionHull@Pegas@@@std@@V?$allocator@U?$pair@QAVICollisionHull@Pegas@@PAV?$Cell@PAVICollisionHull@Pegas@@@2@@std@@@5@$0A@@std@@@std@@QBE_NABV012@@Z 0044c9b0 f i engine:collision_checker.obj
 0001:0004ba50       ??9const_iterator@?$_Tree@V?$_Tmap_traits@PAVICollisionHull@Pegas@@PAV?$Cell@PAVICollisionHull@Pegas@@@2@U?$less@PAVICollisionHull@Pegas@@@std@@V?$allocator@U?$pair@QAVICollisionHull@Pegas@@PAV?$Cell@PAVICollisionHull@Pegas@@@2@@std@@@5@$0A@@std@@@std@@QBE_NABV012@@Z 0044ca50 f i engine:collision_checker.obj
 0001:0004ba80       ??0?$pair@Viterator@?$_Tree@V?$_Tmap_traits@HV?$ptr@VICollisionHull@Pegas@@@Pegas@@U?$less@H@std@@V?$allocator@U?$pair@$$CBHV?$ptr@VICollisionHull@Pegas@@@Pegas@@@std@@@4@$0A@@std@@@std@@_N@std@@QAE@ABViterator@?$_Tree@V?$_Tmap_traits@HV?$ptr@VICollisionHull@Pegas@@@Pegas@@U?$less@H@std@@V?$allocator@U?$pair@$$CBHV?$ptr@VICollisionHull@Pegas@@@Pegas@@@std@@@4@$0A@@std@@@1@AB_N@Z 0044ca80 f i engine:collision_checker.obj
 0001:0004bab0       ??0iterator@?$_Tree@V?$_Tmap_traits@PAVICollisionHull@Pegas@@PAV?$Cell@PAVICollisionHull@Pegas@@@2@U?$less@PAVICollisionHull@Pegas@@@std@@V?$allocator@U?$pair@QAVICollisionHull@Pegas@@PAV?$Cell@PAVICollisionHull@Pegas@@@2@@std@@@5@$0A@@std@@@std@@QAE@ABV012@@Z 0044cab0 f i engine:collision_checker.obj
 0001:0004bae0       ??0?$_Tree_nod@V?$_Tset_traits@HU?$less@H@std@@V?$allocator@H@2@$0A@@std@@@std@@IAE@ABU?$less@H@1@V?$allocator@H@1@@Z 0044cae0 f i engine:collision_checker.obj
 0001:0004bb30       ?construct@?$allocator@PAU_Node@?$_Tree_nod@V?$_Tset_traits@HU?$less@H@std@@V?$allocator@H@2@$0A@@std@@@std@@@std@@QAEXPAPAU_Node@?$_Tree_nod@V?$_Tset_traits@HU?$less@H@std@@V?$allocator@H@2@$0A@@std@@@2@ABQAU342@@Z 0044cb30 f i engine:collision_checker.obj
 0001:0004bb60       ?_Color@?$_Tree@V?$_Tmap_traits@PAVICollisionHull@Pegas@@PAV?$Cell@PAVICollisionHull@Pegas@@@2@U?$less@PAVICollisionHull@Pegas@@@std@@V?$allocator@U?$pair@QAVICollisionHull@Pegas@@PAV?$Cell@PAVICollisionHull@Pegas@@@2@@std@@@5@$0A@@std@@@std@@KAAADPAU_Node@?$_Tree_nod@V?$_Tmap_traits@PAVICollisionHull@Pegas@@PAV?$Cell@PAVICollisionHull@Pegas@@@2@U?$less@PAVICollisionHull@Pegas@@@std@@V?$allocator@U?$pair@QAVICollisionHull@Pegas@@PAV?$Cell@PAVICollisionHull@Pegas@@@2@@std@@@5@$0A@@std@@@2@@Z 0044cb60 f i engine:collision_checker.obj
 0001:0004bb80       ?_Isnil@?$_Tree@V?$_Tmap_traits@PAVICollisionHull@Pegas@@PAV?$Cell@PAVICollisionHull@Pegas@@@2@U?$less@PAVICollisionHull@Pegas@@@std@@V?$allocator@U?$pair@QAVICollisionHull@Pegas@@PAV?$Cell@PAVICollisionHull@Pegas@@@2@@std@@@5@$0A@@std@@@std@@KAAADPAU_Node@?$_Tree_nod@V?$_Tmap_traits@PAVICollisionHull@Pegas@@PAV?$Cell@PAVICollisionHull@Pegas@@@2@U?$less@PAVICollisionHull@Pegas@@@std@@V?$allocator@U?$pair@QAVICollisionHull@Pegas@@PAV?$Cell@PAVICollisionHull@Pegas@@@2@@std@@@5@$0A@@std@@@2@@Z 0044cb80 f i engine:collision_checker.obj
 0001:0004bba0       ?_Erase@?$_Tree@V?$_Tmap_traits@PAVICollisionHull@Pegas@@PAV?$Cell@PAVICollisionHull@Pegas@@@2@U?$less@PAVICollisionHull@Pegas@@@std@@V?$allocator@U?$pair@QAVICollisionHull@Pegas@@PAV?$Cell@PAVICollisionHull@Pegas@@@2@@std@@@5@$0A@@std@@@std@@IAEXPAU_Node@?$_Tree_nod@V?$_Tmap_traits@PAVICollisionHull@Pegas@@PAV?$Cell@PAVICollisionHull@Pegas@@@2@U?$less@PAVICollisionHull@Pegas@@@std@@V?$allocator@U?$pair@QAVICollisionHull@Pegas@@PAV?$Cell@PAVICollisionHull@Pegas@@@2@@std@@@5@$0A@@std@@@2@@Z 0044cba0 f i engine:collision_checker.obj
 0001:0004bc20       ?_Lrotate@?$_Tree@V?$_Tmap_traits@PAVICollisionHull@Pegas@@PAV?$Cell@PAVICollisionHull@Pegas@@@2@U?$less@PAVICollisionHull@Pegas@@@std@@V?$allocator@U?$pair@QAVICollisionHull@Pegas@@PAV?$Cell@PAVICollisionHull@Pegas@@@2@@std@@@5@$0A@@std@@@std@@IAEXPAU_Node@?$_Tree_nod@V?$_Tmap_traits@PAVICollisionHull@Pegas@@PAV?$Cell@PAVICollisionHull@Pegas@@@2@U?$less@PAVICollisionHull@Pegas@@@std@@V?$allocator@U?$pair@QAVICollisionHull@Pegas@@PAV?$Cell@PAVICollisionHull@Pegas@@@2@@std@@@5@$0A@@std@@@2@@Z 0044cc20 f i engine:collision_checker.obj
 0001:0004bd60       ?_Max@?$_Tree@V?$_Tmap_traits@PAVICollisionHull@Pegas@@PAV?$Cell@PAVICollisionHull@Pegas@@@2@U?$less@PAVICollisionHull@Pegas@@@std@@V?$allocator@U?$pair@QAVICollisionHull@Pegas@@PAV?$Cell@PAVICollisionHull@Pegas@@@2@@std@@@5@$0A@@std@@@std@@KAPAU_Node@?$_Tree_nod@V?$_Tmap_traits@PAVICollisionHull@Pegas@@PAV?$Cell@PAVICollisionHull@Pegas@@@2@U?$less@PAVICollisionHull@Pegas@@@std@@V?$allocator@U?$pair@QAVICollisionHull@Pegas@@PAV?$Cell@PAVICollisionHull@Pegas@@@2@@std@@@5@$0A@@std@@@2@PAU342@@Z 0044cd60 f i engine:collision_checker.obj
 0001:0004bdb0       ?_Min@?$_Tree@V?$_Tmap_traits@PAVICollisionHull@Pegas@@PAV?$Cell@PAVICollisionHull@Pegas@@@2@U?$less@PAVICollisionHull@Pegas@@@std@@V?$allocator@U?$pair@QAVICollisionHull@Pegas@@PAV?$Cell@PAVICollisionHull@Pegas@@@2@@std@@@5@$0A@@std@@@std@@KAPAU_Node@?$_Tree_nod@V?$_Tmap_traits@PAVICollisionHull@Pegas@@PAV?$Cell@PAVICollisionHull@Pegas@@@2@U?$less@PAVICollisionHull@Pegas@@@std@@V?$allocator@U?$pair@QAVICollisionHull@Pegas@@PAV?$Cell@PAVICollisionHull@Pegas@@@2@@std@@@5@$0A@@std@@@2@PAU342@@Z 0044cdb0 f i engine:collision_checker.obj
 0001:0004be00       ?_Rmost@?$_Tree@V?$_Tmap_traits@PAVICollisionHull@Pegas@@PAV?$Cell@PAVICollisionHull@Pegas@@@2@U?$less@PAVICollisionHull@Pegas@@@std@@V?$allocator@U?$pair@QAVICollisionHull@Pegas@@PAV?$Cell@PAVICollisionHull@Pegas@@@2@@std@@@5@$0A@@std@@@std@@IBEAAPAU_Node@?$_Tree_nod@V?$_Tmap_traits@PAVICollisionHull@Pegas@@PAV?$Cell@PAVICollisionHull@Pegas@@@2@U?$less@PAVICollisionHull@Pegas@@@std@@V?$allocator@U?$pair@QAVICollisionHull@Pegas@@PAV?$Cell@PAVICollisionHull@Pegas@@@2@@std@@@5@$0A@@std@@@2@XZ 0044ce00 f i engine:collision_checker.obj
 0001:0004be30       ?_Root@?$_Tree@V?$_Tmap_traits@PAVICollisionHull@Pegas@@PAV?$Cell@PAVICollisionHull@Pegas@@@2@U?$less@PAVICollisionHull@Pegas@@@std@@V?$allocator@U?$pair@QAVICollisionHull@Pegas@@PAV?$Cell@PAVICollisionHull@Pegas@@@2@@std@@@5@$0A@@std@@@std@@IBEAAPAU_Node@?$_Tree_nod@V?$_Tmap_traits@PAVICollisionHull@Pegas@@PAV?$Cell@PAVICollisionHull@Pegas@@@2@U?$less@PAVICollisionHull@Pegas@@@std@@V?$allocator@U?$pair@QAVICollisionHull@Pegas@@PAV?$Cell@PAVICollisionHull@Pegas@@@2@@std@@@5@$0A@@std@@@2@XZ 0044ce30 f i engine:collision_checker.obj
 0001:0004be60       ?_Rrotate@?$_Tree@V?$_Tmap_traits@PAVICollisionHull@Pegas@@PAV?$Cell@PAVICollisionHull@Pegas@@@2@U?$less@PAVICollisionHull@Pegas@@@std@@V?$allocator@U?$pair@QAVICollisionHull@Pegas@@PAV?$Cell@PAVICollisionHull@Pegas@@@2@@std@@@5@$0A@@std@@@std@@IAEXPAU_Node@?$_Tree_nod@V?$_Tmap_traits@PAVICollisionHull@Pegas@@PAV?$Cell@PAVICollisionHull@Pegas@@@2@U?$less@PAVICollisionHull@Pegas@@@std@@V?$allocator@U?$pair@QAVICollisionHull@Pegas@@PAV?$Cell@PAVICollisionHull@Pegas@@@2@@std@@@5@$0A@@std@@@2@@Z 0044ce60 f i engine:collision_checker.obj
 0001:0004bfa0       ?_Orphan_ptr@?$_Tree@V?$_Tmap_traits@PAVICollisionHull@Pegas@@PAV?$Cell@PAVICollisionHull@Pegas@@@2@U?$less@PAVICollisionHull@Pegas@@@std@@V?$allocator@U?$pair@QAVICollisionHull@Pegas@@PAV?$Cell@PAVICollisionHull@Pegas@@@2@@std@@@5@$0A@@std@@@std@@IBEXAAV12@PAU_Node@?$_Tree_nod@V?$_Tmap_traits@PAVICollisionHull@Pegas@@PAV?$Cell@PAVICollisionHull@Pegas@@@2@U?$less@PAVICollisionHull@Pegas@@@std@@V?$allocator@U?$pair@QAVICollisionHull@Pegas@@PAV?$Cell@PAVICollisionHull@Pegas@@@2@@std@@@5@$0A@@std@@@2@@Z 0044cfa0 f i engine:collision_checker.obj
 0001:0004c020       ?_Buynode@?$_Tree@V?$_Tmap_traits@PAVICollisionHull@Pegas@@PAV?$Cell@PAVICollisionHull@Pegas@@@2@U?$less@PAVICollisionHull@Pegas@@@std@@V?$allocator@U?$pair@QAVICollisionHull@Pegas@@PAV?$Cell@PAVICollisionHull@Pegas@@@2@@std@@@5@$0A@@std@@@std@@IAEPAU_Node@?$_Tree_nod@V?$_Tmap_traits@PAVICollisionHull@Pegas@@PAV?$Cell@PAVICollisionHull@Pegas@@@2@U?$less@PAVICollisionHull@Pegas@@@std@@V?$allocator@U?$pair@QAVICollisionHull@Pegas@@PAV?$Cell@PAVICollisionHull@Pegas@@@2@@std@@@5@$0A@@std@@@2@XZ 0044d020 f i engine:collision_checker.obj
 0001:0004c1a0       ??0?$_Tree_ptr@V?$_Tmap_traits@PAVICollisionHull@Pegas@@PAV?$Cell@PAVICollisionHull@Pegas@@@2@U?$less@PAVICollisionHull@Pegas@@@std@@V?$allocator@U?$pair@QAVICollisionHull@Pegas@@PAV?$Cell@PAVICollisionHull@Pegas@@@2@@std@@@5@$0A@@std@@@std@@QAE@ABU?$less@PAVICollisionHull@Pegas@@@1@V?$allocator@U?$pair@QAVICollisionHull@Pegas@@PAV?$Cell@PAVICollisionHull@Pegas@@@2@@std@@@1@@Z 0044d1a0 f i engine:collision_checker.obj
 0001:0004c1f0       ?destroy@?$allocator@U_Node@?$_Tree_nod@V?$_Tmap_traits@PAVICollisionHull@Pegas@@PAV?$Cell@PAVICollisionHull@Pegas@@@2@U?$less@PAVICollisionHull@Pegas@@@std@@V?$allocator@U?$pair@QAVICollisionHull@Pegas@@PAV?$Cell@PAVICollisionHull@Pegas@@@2@@std@@@5@$0A@@std@@@std@@@std@@QAEXPAU_Node@?$_Tree_nod@V?$_Tmap_traits@PAVICollisionHull@Pegas@@PAV?$Cell@PAVICollisionHull@Pegas@@@2@U?$less@PAVICollisionHull@Pegas@@@std@@V?$allocator@U?$pair@QAVICollisionHull@Pegas@@PAV?$Cell@PAVICollisionHull@Pegas@@@2@@std@@@5@$0A@@std@@@2@@Z 0044d1f0 f i engine:collision_checker.obj
 0001:0004c220       ??0?$_Tree_nod@V?$_Tmap_traits@HV?$ptr@VICollisionHull@Pegas@@@Pegas@@U?$less@H@std@@V?$allocator@U?$pair@$$CBHV?$ptr@VICollisionHull@Pegas@@@Pegas@@@std@@@4@$0A@@std@@@std@@IAE@ABU?$less@H@1@V?$allocator@U?$pair@$$CBHV?$ptr@VICollisionHull@Pegas@@@Pegas@@@std@@@1@@Z 0044d220 f i engine:collision_checker.obj
 0001:0004c270       ?max_size@?$allocator@U?$pair@$$CBHV?$ptr@VICollisionHull@Pegas@@@Pegas@@@std@@@std@@QBEIXZ 0044d270 f i engine:collision_checker.obj
 0001:0004c2b0       ?allocate@?$allocator@U_Node@?$_Tree_nod@V?$_Tmap_traits@HV?$ptr@VICollisionHull@Pegas@@@Pegas@@U?$less@H@std@@V?$allocator@U?$pair@$$CBHV?$ptr@VICollisionHull@Pegas@@@Pegas@@@std@@@4@$0A@@std@@@std@@@std@@QAEPAU_Node@?$_Tree_nod@V?$_Tmap_traits@HV?$ptr@VICollisionHull@Pegas@@@Pegas@@U?$less@H@std@@V?$allocator@U?$pair@$$CBHV?$ptr@VICollisionHull@Pegas@@@Pegas@@@std@@@4@$0A@@std@@@2@I@Z 0044d2b0 f i engine:collision_checker.obj
 0001:0004c2e0       ?construct@?$allocator@PAU_Node@?$_Tree_nod@V?$_Tmap_traits@HV?$ptr@VICollisionHull@Pegas@@@Pegas@@U?$less@H@std@@V?$allocator@U?$pair@$$CBHV?$ptr@VICollisionHull@Pegas@@@Pegas@@@std@@@4@$0A@@std@@@std@@@std@@QAEXPAPAU_Node@?$_Tree_nod@V?$_Tmap_traits@HV?$ptr@VICollisionHull@Pegas@@@Pegas@@U?$less@H@std@@V?$allocator@U?$pair@$$CBHV?$ptr@VICollisionHull@Pegas@@@Pegas@@@std@@@4@$0A@@std@@@2@ABQAU342@@Z 0044d2e0 f i engine:collision_checker.obj
 0001:0004c310       ?_Left@?$_Tree@V?$_Tset_traits@PAVICollisionHull@Pegas@@U?$less@PAVICollisionHull@Pegas@@@std@@V?$allocator@PAVICollisionHull@Pegas@@@4@$0A@@std@@@std@@KAAAPAU_Node@?$_Tree_nod@V?$_Tset_traits@PAVICollisionHull@Pegas@@U?$less@PAVICollisionHull@Pegas@@@std@@V?$allocator@PAVICollisionHull@Pegas@@@4@$0A@@std@@@2@PAU342@@Z 0044d310 f i engine:collision_checker.obj
 0001:0004c330       ?_Inc@const_iterator@?$_Tree@V?$_Tset_traits@HU?$less@H@std@@V?$allocator@H@2@$0A@@std@@@std@@QAEXXZ 0044d330 f i engine:collision_checker.obj
 0001:0004c460       ?max_size@?$allocator@M@std@@QBEIXZ 0044d460 f i engine:collision_checker.obj
 0001:0004c4a0       ??0const_iterator@?$_Tree@V?$_Tmap_traits@PAVICollisionHull@Pegas@@PAV?$Cell@PAVICollisionHull@Pegas@@@2@U?$less@PAVICollisionHull@Pegas@@@std@@V?$allocator@U?$pair@QAVICollisionHull@Pegas@@PAV?$Cell@PAVICollisionHull@Pegas@@@2@@std@@@5@$0A@@std@@@std@@QAE@PAU_Node@?$_Tree_nod@V?$_Tmap_traits@PAVICollisionHull@Pegas@@PAV?$Cell@PAVICollisionHull@Pegas@@@2@U?$less@PAVICollisionHull@Pegas@@@std@@V?$allocator@U?$pair@QAVICollisionHull@Pegas@@PAV?$Cell@PAVICollisionHull@Pegas@@@2@@std@@@5@$0A@@std@@@2@PBV12@@Z 0044d4a0 f i engine:collision_checker.obj
 0001:0004c510       ??Econst_iterator@?$_Tree@V?$_Tmap_traits@PAVICollisionHull@Pegas@@PAV?$Cell@PAVICollisionHull@Pegas@@@2@U?$less@PAVICollisionHull@Pegas@@@std@@V?$allocator@U?$pair@QAVICollisionHull@Pegas@@PAV?$Cell@PAVICollisionHull@Pegas@@@2@@std@@@5@$0A@@std@@@std@@QAEAAV012@XZ 0044d510 f i engine:collision_checker.obj
 0001:0004c530       ?_Mynode@const_iterator@?$_Tree@V?$_Tmap_traits@PAVICollisionHull@Pegas@@PAV?$Cell@PAVICollisionHull@Pegas@@@2@U?$less@PAVICollisionHull@Pegas@@@std@@V?$allocator@U?$pair@QAVICollisionHull@Pegas@@PAV?$Cell@PAVICollisionHull@Pegas@@@2@@std@@@5@$0A@@std@@@std@@QBEPAU_Node@?$_Tree_nod@V?$_Tmap_traits@PAVICollisionHull@Pegas@@PAV?$Cell@PAVICollisionHull@Pegas@@@2@U?$less@PAVICollisionHull@Pegas@@@std@@V?$allocator@U?$pair@QAVICollisionHull@Pegas@@PAV?$Cell@PAVICollisionHull@Pegas@@@2@@std@@@5@$0A@@std@@@3@XZ 0044d530 f i engine:collision_checker.obj
 0001:0004c550       ??0_Node@?$_Tree_nod@V?$_Tmap_traits@HV?$ptr@VICollisionHull@Pegas@@@Pegas@@U?$less@H@std@@V?$allocator@U?$pair@$$CBHV?$ptr@VICollisionHull@Pegas@@@Pegas@@@std@@@4@$0A@@std@@@std@@QAE@PAU012@00ABU?$pair@$$CBHV?$ptr@VICollisionHull@Pegas@@@Pegas@@@2@D@Z 0044d550 f i engine:collision_checker.obj
 0001:0004c5b0       ??0?$_Bidit@U?$pair@QAVICollisionHull@Pegas@@PAV?$Cell@PAVICollisionHull@Pegas@@@2@@std@@HPBU12@ABU12@@std@@QAE@XZ 0044d5b0 f i engine:collision_checker.obj
 0001:0004c5d0       ??0?$pair@$$CBHV?$ptr@VICollisionHull@Pegas@@@Pegas@@@std@@QAE@ABU01@@Z 0044d5d0 f i engine:collision_checker.obj
 0001:0004c610       ??0?$_Iterator_with_base@Ubidirectional_iterator_tag@std@@U?$pair@QAVICollisionHull@Pegas@@PAV?$Cell@PAVICollisionHull@Pegas@@@2@@2@HPBU32@ABU32@V_Iterator_base@2@@std@@QAE@XZ 0044d610 f i engine:collision_checker.obj
 0001:0004c630       ??0?$_Tset_traits@HU?$less@H@std@@V?$allocator@H@2@$0A@@std@@QAE@U?$less@H@1@V?$allocator@H@1@@Z 0044d630 f i engine:collision_checker.obj
 0001:0004c660       ??0?$_Tree_nod@V?$_Tmap_traits@PAVICollisionHull@Pegas@@PAV?$Cell@PAVICollisionHull@Pegas@@@2@U?$less@PAVICollisionHull@Pegas@@@std@@V?$allocator@U?$pair@QAVICollisionHull@Pegas@@PAV?$Cell@PAVICollisionHull@Pegas@@@2@@std@@@5@$0A@@std@@@std@@IAE@ABU?$less@PAVICollisionHull@Pegas@@@1@V?$allocator@U?$pair@QAVICollisionHull@Pegas@@PAV?$Cell@PAVICollisionHull@Pegas@@@2@@std@@@1@@Z 0044d660 f i engine:collision_checker.obj
 0001:0004c6b0       ?allocate@?$allocator@U_Node@?$_Tree_nod@V?$_Tmap_traits@PAVICollisionHull@Pegas@@PAV?$Cell@PAVICollisionHull@Pegas@@@2@U?$less@PAVICollisionHull@Pegas@@@std@@V?$allocator@U?$pair@QAVICollisionHull@Pegas@@PAV?$Cell@PAVICollisionHull@Pegas@@@2@@std@@@5@$0A@@std@@@std@@@std@@QAEPAU_Node@?$_Tree_nod@V?$_Tmap_traits@PAVICollisionHull@Pegas@@PAV?$Cell@PAVICollisionHull@Pegas@@@2@U?$less@PAVICollisionHull@Pegas@@@std@@V?$allocator@U?$pair@QAVICollisionHull@Pegas@@PAV?$Cell@PAVICollisionHull@Pegas@@@2@@std@@@5@$0A@@std@@@2@I@Z 0044d6b0 f i engine:collision_checker.obj
 0001:0004c6e0       ?construct@?$allocator@PAU_Node@?$_Tree_nod@V?$_Tmap_traits@PAVICollisionHull@Pegas@@PAV?$Cell@PAVICollisionHull@Pegas@@@2@U?$less@PAVICollisionHull@Pegas@@@std@@V?$allocator@U?$pair@QAVICollisionHull@Pegas@@PAV?$Cell@PAVICollisionHull@Pegas@@@2@@std@@@5@$0A@@std@@@std@@@std@@QAEXPAPAU_Node@?$_Tree_nod@V?$_Tmap_traits@PAVICollisionHull@Pegas@@PAV?$Cell@PAVICollisionHull@Pegas@@@2@U?$less@PAVICollisionHull@Pegas@@@std@@V?$allocator@U?$pair@QAVICollisionHull@Pegas@@PAV?$Cell@PAVICollisionHull@Pegas@@@2@@std@@@5@$0A@@std@@@2@ABQAU342@@Z 0044d6e0 f i engine:collision_checker.obj
 0001:0004c710       ??0?$_Tmap_traits@HV?$ptr@VICollisionHull@Pegas@@@Pegas@@U?$less@H@std@@V?$allocator@U?$pair@$$CBHV?$ptr@VICollisionHull@Pegas@@@Pegas@@@std@@@4@$0A@@std@@QAE@U?$less@H@1@V?$allocator@U?$pair@$$CBHV?$ptr@VICollisionHull@Pegas@@@Pegas@@@std@@@1@@Z 0044d710 f i engine:collision_checker.obj
 0001:0004c740       ?_Inc@const_iterator@?$_Tree@V?$_Tmap_traits@PAVICollisionHull@Pegas@@PAV?$Cell@PAVICollisionHull@Pegas@@@2@U?$less@PAVICollisionHull@Pegas@@@std@@V?$allocator@U?$pair@QAVICollisionHull@Pegas@@PAV?$Cell@PAVICollisionHull@Pegas@@@2@@std@@@5@$0A@@std@@@std@@QAEXXZ 0044d740 f i engine:collision_checker.obj
 0001:0004c870       ??0?$_Tmap_traits@PAVICollisionHull@Pegas@@PAV?$Cell@PAVICollisionHull@Pegas@@@2@U?$less@PAVICollisionHull@Pegas@@@std@@V?$allocator@U?$pair@QAVICollisionHull@Pegas@@PAV?$Cell@PAVICollisionHull@Pegas@@@2@@std@@@5@$0A@@std@@QAE@U?$less@PAVICollisionHull@Pegas@@@1@V?$allocator@U?$pair@QAVICollisionHull@Pegas@@PAV?$Cell@PAVICollisionHull@Pegas@@@2@@std@@@1@@Z 0044d870 f i engine:collision_checker.obj
 0001:0004c8a0       ??0?$_Container_base_aux_alloc_empty@V?$allocator@U?$pair@$$CBHV?$ptr@VICollisionHull@Pegas@@@Pegas@@@std@@@std@@@std@@IAE@V?$allocator@U?$pair@$$CBHV?$ptr@VICollisionHull@Pegas@@@Pegas@@@std@@@1@@Z 0044d8a0 f i engine:collision_checker.obj
 0001:0004c8c0       ??0?$_Container_base_aux_alloc_empty@V?$allocator@U?$pair@QAVICollisionHull@Pegas@@PAV?$Cell@PAVICollisionHull@Pegas@@@2@@std@@@std@@@std@@IAE@V?$allocator@U?$pair@QAVICollisionHull@Pegas@@PAV?$Cell@PAVICollisionHull@Pegas@@@2@@std@@@1@@Z 0044d8c0 f i engine:collision_checker.obj
 0001:0004c8e0       ?create@?$CellGrid@PAVICollisionHull@Pegas@@@Pegas@@QAEXMMM@Z 0044d8e0 f i engine:collision_checker.obj
 0001:0004cb60       ?ceil@@YAMM@Z              0044db60 f i engine:collision_checker.obj
 0001:0004cb80       _ceilf                     0044db80 f i engine:collision_checker.obj
 0001:0004cbb0       ?destroy@?$CellGrid@PAVICollisionHull@Pegas@@@Pegas@@QAEXXZ 0044dbb0 f i engine:collision_checker.obj
 0001:0004cc50       ?placeToGrid@?$CellGrid@PAVICollisionHull@Pegas@@@Pegas@@QAEXABVVector3@2@ABQAVICollisionHull@2@@Z 0044dc50 f i engine:collision_checker.obj
 0001:0004ccb0       ?removeObject@?$CellGrid@PAVICollisionHull@Pegas@@@Pegas@@QAEXABQAVICollisionHull@2@@Z 0044dcb0 f i engine:collision_checker.obj
 0001:0004cd10       ?getCell@?$CellGrid@PAVICollisionHull@Pegas@@@Pegas@@QAEPAV?$Cell@PAVICollisionHull@Pegas@@@2@ABVVector3@2@@Z 0044dd10 f i engine:collision_checker.obj
 0001:0004cda0       ?floor@@YAMM@Z             0044dda0 f i engine:collision_checker.obj
 0001:0004cdc0       _floorf                    0044ddc0 f i engine:collision_checker.obj
 0001:0004cdf0       ?getSibling@?$Cell@PAVICollisionHull@Pegas@@@Pegas@@QAEPAV12@H@Z 0044ddf0 f i engine:collision_checker.obj
 0001:0004cf50       ?begin@?$Cell@PAVICollisionHull@Pegas@@@Pegas@@QAE?AViterator@?$_Tree@V?$_Tset_traits@PAVICollisionHull@Pegas@@U?$less@PAVICollisionHull@Pegas@@@std@@V?$allocator@PAVICollisionHull@Pegas@@@4@$0A@@std@@@std@@XZ 0044df50 f i engine:collision_checker.obj
 0001:0004cf90       ?end@?$Cell@PAVICollisionHull@Pegas@@@Pegas@@QAE?AViterator@?$_Tree@V?$_Tset_traits@PAVICollisionHull@Pegas@@U?$less@PAVICollisionHull@Pegas@@@std@@V?$allocator@PAVICollisionHull@Pegas@@@4@$0A@@std@@@std@@XZ 0044df90 f i engine:collision_checker.obj
 0001:0004cfd0       ??$max@H@std@@YAABHABH0@Z  0044dfd0 f i engine:collision_checker.obj
 0001:0004d020       ??$min@H@std@@YAABHABH0@Z  0044e020 f i engine:collision_checker.obj
 0001:0004d070       ??$?0V?$_Vector_const_iterator@VVector3@Pegas@@V?$allocator@VVector3@Pegas@@@std@@@std@@@?$vector@VVector3@Pegas@@V?$allocator@VVector3@Pegas@@@std@@@std@@QAE@V?$_Vector_const_iterator@VVector3@Pegas@@V?$allocator@VVector3@Pegas@@@std@@@1@0@Z 0044e070 f i engine:collision_checker.obj
 0001:0004d140       ??$_Distance@Viterator@?$_Tree@V?$_Tset_traits@HU?$less@H@std@@V?$allocator@H@2@$0A@@std@@@std@@I@std@@YAXViterator@?$_Tree@V?$_Tset_traits@HU?$less@H@std@@V?$allocator@H@2@$0A@@std@@@0@0AAI@Z 0044e140 f i engine:collision_checker.obj
 0001:0004d200       ??$_Distance@Vconst_iterator@?$_Tree@V?$_Tset_traits@HU?$less@H@std@@V?$allocator@H@2@$0A@@std@@@std@@I@std@@YAXVconst_iterator@?$_Tree@V?$_Tset_traits@HU?$less@H@std@@V?$allocator@H@2@$0A@@std@@@0@0AAI@Z 0044e200 f i engine:collision_checker.obj
 0001:0004d2c0       ??$_Distance@Viterator@?$_Tree@V?$_Tmap_traits@HV?$ptr@VICollisionHull@Pegas@@@Pegas@@U?$less@H@std@@V?$allocator@U?$pair@$$CBHV?$ptr@VICollisionHull@Pegas@@@Pegas@@@std@@@4@$0A@@std@@@std@@I@std@@YAXViterator@?$_Tree@V?$_Tmap_traits@HV?$ptr@VICollisionHull@Pegas@@@Pegas@@U?$less@H@std@@V?$allocator@U?$pair@$$CBHV?$ptr@VICollisionHull@Pegas@@@Pegas@@@std@@@4@$0A@@std@@@0@0AAI@Z 0044e2c0 f i engine:collision_checker.obj
 0001:0004d380       ??$_Distance@Vconst_iterator@?$_Tree@V?$_Tmap_traits@HV?$ptr@VICollisionHull@Pegas@@@Pegas@@U?$less@H@std@@V?$allocator@U?$pair@$$CBHV?$ptr@VICollisionHull@Pegas@@@Pegas@@@std@@@4@$0A@@std@@@std@@I@std@@YAXVconst_iterator@?$_Tree@V?$_Tmap_traits@HV?$ptr@VICollisionHull@Pegas@@@Pegas@@U?$less@H@std@@V?$allocator@U?$pair@$$CBHV?$ptr@VICollisionHull@Pegas@@@Pegas@@@std@@@4@$0A@@std@@@0@0AAI@Z 0044e380 f i engine:collision_checker.obj
 0001:0004d440       ??$_Ucopy@V?$_Vector_const_iterator@VVector3@Pegas@@V?$allocator@VVector3@Pegas@@@std@@@std@@@?$vector@VVector3@Pegas@@V?$allocator@VVector3@Pegas@@@std@@@std@@IAEPAVVector3@Pegas@@V?$_Vector_const_iterator@VVector3@Pegas@@V?$allocator@VVector3@Pegas@@@std@@@1@0PAV23@@Z 0044e440 f i engine:collision_checker.obj
 0001:0004d500       ??$_Destroy@PAU_Node@?$_Tree_nod@V?$_Tset_traits@HU?$less@H@std@@V?$allocator@H@2@$0A@@std@@@std@@@std@@YAXPAPAU_Node@?$_Tree_nod@V?$_Tset_traits@HU?$less@H@std@@V?$allocator@H@2@$0A@@std@@@0@@Z 0044e500 f i engine:collision_checker.obj
 0001:0004d510       ??$_Destroy@PAU_Node@?$_Tree_nod@V?$_Tmap_traits@PAVICollisionHull@Pegas@@PAV?$Cell@PAVICollisionHull@Pegas@@@2@U?$less@PAVICollisionHull@Pegas@@@std@@V?$allocator@U?$pair@QAVICollisionHull@Pegas@@PAV?$Cell@PAVICollisionHull@Pegas@@@2@@std@@@5@$0A@@std@@@std@@@std@@YAXPAPAU_Node@?$_Tree_nod@V?$_Tmap_traits@PAVICollisionHull@Pegas@@PAV?$Cell@PAVICollisionHull@Pegas@@@2@U?$less@PAVICollisionHull@Pegas@@@std@@V?$allocator@U?$pair@QAVICollisionHull@Pegas@@PAV?$Cell@PAVICollisionHull@Pegas@@@2@@std@@@5@$0A@@std@@@0@@Z 0044e510 f i engine:collision_checker.obj
 0001:0004d520       ??$_Destroy@PAU_Node@?$_Tree_nod@V?$_Tmap_traits@HV?$ptr@VICollisionHull@Pegas@@@Pegas@@U?$less@H@std@@V?$allocator@U?$pair@$$CBHV?$ptr@VICollisionHull@Pegas@@@Pegas@@@std@@@4@$0A@@std@@@std@@@std@@YAXPAPAU_Node@?$_Tree_nod@V?$_Tmap_traits@HV?$ptr@VICollisionHull@Pegas@@@Pegas@@U?$less@H@std@@V?$allocator@U?$pair@$$CBHV?$ptr@VICollisionHull@Pegas@@@Pegas@@@std@@@4@$0A@@std@@@0@@Z 0044e520 f i engine:collision_checker.obj
 0001:0004d530       ??$_Destroy_range@V?$allocator@M@std@@@std@@YAXPAM0AAV?$allocator@M@0@@Z 0044e530 f i engine:collision_checker.obj
 0001:0004d570       ??$unchecked_uninitialized_fill_n@PAMIMV?$allocator@M@std@@@stdext@@YAXPAMIABMAAV?$allocator@M@std@@@Z 0044e570 f i engine:collision_checker.obj
 0001:0004d5c0       ??$?0H@?$allocator@PAU_Node@?$_Tree_nod@V?$_Tset_traits@HU?$less@H@std@@V?$allocator@H@2@$0A@@std@@@std@@@std@@QAE@ABV?$allocator@H@1@@Z 0044e5c0 f i engine:collision_checker.obj
 0001:0004d5e0       ??$_Allocate@U_Node@?$_Tree_nod@V?$_Tset_traits@HU?$less@H@std@@V?$allocator@H@2@$0A@@std@@@std@@@std@@YAPAU_Node@?$_Tree_nod@V?$_Tset_traits@HU?$less@H@std@@V?$allocator@H@2@$0A@@std@@@0@IPAU120@@Z 0044e5e0 f i engine:collision_checker.obj
 0001:0004d640       ??$_Destroy@U_Node@?$_Tree_nod@V?$_Tset_traits@HU?$less@H@std@@V?$allocator@H@2@$0A@@std@@@std@@@std@@YAXPAU_Node@?$_Tree_nod@V?$_Tset_traits@HU?$less@H@std@@V?$allocator@H@2@$0A@@std@@@0@@Z 0044e640 f i engine:collision_checker.obj
 0001:0004d650       ??$?0U?$pair@$$CBHV?$ptr@VICollisionHull@Pegas@@@Pegas@@@std@@@?$allocator@PAU_Node@?$_Tree_nod@V?$_Tmap_traits@HV?$ptr@VICollisionHull@Pegas@@@Pegas@@U?$less@H@std@@V?$allocator@U?$pair@$$CBHV?$ptr@VICollisionHull@Pegas@@@Pegas@@@std@@@4@$0A@@std@@@std@@@std@@QAE@ABV?$allocator@U?$pair@$$CBHV?$ptr@VICollisionHull@Pegas@@@Pegas@@@std@@@1@@Z 0044e650 f i engine:collision_checker.obj
 0001:0004d670       ??$_Destroy@U_Node@?$_Tree_nod@V?$_Tmap_traits@HV?$ptr@VICollisionHull@Pegas@@@Pegas@@U?$less@H@std@@V?$allocator@U?$pair@$$CBHV?$ptr@VICollisionHull@Pegas@@@Pegas@@@std@@@4@$0A@@std@@@std@@@std@@YAXPAU_Node@?$_Tree_nod@V?$_Tmap_traits@HV?$ptr@VICollisionHull@Pegas@@@Pegas@@U?$less@H@std@@V?$allocator@U?$pair@$$CBHV?$ptr@VICollisionHull@Pegas@@@Pegas@@@std@@@4@$0A@@std@@@0@@Z 0044e670 f i engine:collision_checker.obj
 0001:0004d690       ??$_Allocate@M@std@@YAPAMIPAM@Z 0044e690 f i engine:collision_checker.obj
 0001:0004d6f0       ??$?0H@?$allocator@U_Node@?$_Tree_nod@V?$_Tset_traits@HU?$less@H@std@@V?$allocator@H@2@$0A@@std@@@std@@@std@@QAE@ABV?$allocator@H@1@@Z 0044e6f0 f i engine:collision_checker.obj
 0001:0004d710       ??$_Construct@PAU_Node@?$_Tree_nod@V?$_Tset_traits@HU?$less@H@std@@V?$allocator@H@2@$0A@@std@@@std@@PAU123@@std@@YAXPAPAU_Node@?$_Tree_nod@V?$_Tset_traits@HU?$less@H@std@@V?$allocator@H@2@$0A@@std@@@0@ABQAU120@@Z 0044e710 f i engine:collision_checker.obj
 0001:0004d760       ??$?0U?$pair@QAVICollisionHull@Pegas@@PAV?$Cell@PAVICollisionHull@Pegas@@@2@@std@@@?$allocator@PAU_Node@?$_Tree_nod@V?$_Tmap_traits@PAVICollisionHull@Pegas@@PAV?$Cell@PAVICollisionHull@Pegas@@@2@U?$less@PAVICollisionHull@Pegas@@@std@@V?$allocator@U?$pair@QAVICollisionHull@Pegas@@PAV?$Cell@PAVICollisionHull@Pegas@@@2@@std@@@5@$0A@@std@@@std@@@std@@QAE@ABV?$allocator@U?$pair@QAVICollisionHull@Pegas@@PAV?$Cell@PAVICollisionHull@Pegas@@@2@@std@@@1@@Z 0044e760 f i engine:collision_checker.obj
 0001:0004d780       ??$_Destroy@U_Node@?$_Tree_nod@V?$_Tmap_traits@PAVICollisionHull@Pegas@@PAV?$Cell@PAVICollisionHull@Pegas@@@2@U?$less@PAVICollisionHull@Pegas@@@std@@V?$allocator@U?$pair@QAVICollisionHull@Pegas@@PAV?$Cell@PAVICollisionHull@Pegas@@@2@@std@@@5@$0A@@std@@@std@@@std@@YAXPAU_Node@?$_Tree_nod@V?$_Tmap_traits@PAVICollisionHull@Pegas@@PAV?$Cell@PAVICollisionHull@Pegas@@@2@U?$less@PAVICollisionHull@Pegas@@@std@@V?$allocator@U?$pair@QAVICollisionHull@Pegas@@PAV?$Cell@PAVICollisionHull@Pegas@@@2@@std@@@5@$0A@@std@@@0@@Z 0044e780 f i engine:collision_checker.obj
 0001:0004d790       ??$?0U?$pair@$$CBHV?$ptr@VICollisionHull@Pegas@@@Pegas@@@std@@@?$allocator@U_Node@?$_Tree_nod@V?$_Tmap_traits@HV?$ptr@VICollisionHull@Pegas@@@Pegas@@U?$less@H@std@@V?$allocator@U?$pair@$$CBHV?$ptr@VICollisionHull@Pegas@@@Pegas@@@std@@@4@$0A@@std@@@std@@@std@@QAE@ABV?$allocator@U?$pair@$$CBHV?$ptr@VICollisionHull@Pegas@@@Pegas@@@std@@@1@@Z 0044e790 f i engine:collision_checker.obj
 0001:0004d7b0       ??$_Allocate@U_Node@?$_Tree_nod@V?$_Tmap_traits@HV?$ptr@VICollisionHull@Pegas@@@Pegas@@U?$less@H@std@@V?$allocator@U?$pair@$$CBHV?$ptr@VICollisionHull@Pegas@@@Pegas@@@std@@@4@$0A@@std@@@std@@@std@@YAPAU_Node@?$_Tree_nod@V?$_Tmap_traits@HV?$ptr@VICollisionHull@Pegas@@@Pegas@@U?$less@H@std@@V?$allocator@U?$pair@$$CBHV?$ptr@VICollisionHull@Pegas@@@Pegas@@@std@@@4@$0A@@std@@@0@IPAU120@@Z 0044e7b0 f i engine:collision_checker.obj
 0001:0004d810       ??$_Construct@PAU_Node@?$_Tree_nod@V?$_Tmap_traits@HV?$ptr@VICollisionHull@Pegas@@@Pegas@@U?$less@H@std@@V?$allocator@U?$pair@$$CBHV?$ptr@VICollisionHull@Pegas@@@Pegas@@@std@@@4@$0A@@std@@@std@@PAU123@@std@@YAXPAPAU_Node@?$_Tree_nod@V?$_Tmap_traits@HV?$ptr@VICollisionHull@Pegas@@@Pegas@@U?$less@H@std@@V?$allocator@U?$pair@$$CBHV?$ptr@VICollisionHull@Pegas@@@Pegas@@@std@@@4@$0A@@std@@@0@ABQAU120@@Z 0044e810 f i engine:collision_checker.obj
 0001:0004d860       ??$?0U?$pair@QAVICollisionHull@Pegas@@PAV?$Cell@PAVICollisionHull@Pegas@@@2@@std@@@?$allocator@U_Node@?$_Tree_nod@V?$_Tmap_traits@PAVICollisionHull@Pegas@@PAV?$Cell@PAVICollisionHull@Pegas@@@2@U?$less@PAVICollisionHull@Pegas@@@std@@V?$allocator@U?$pair@QAVICollisionHull@Pegas@@PAV?$Cell@PAVICollisionHull@Pegas@@@2@@std@@@5@$0A@@std@@@std@@@std@@QAE@ABV?$allocator@U?$pair@QAVICollisionHull@Pegas@@PAV?$Cell@PAVICollisionHull@Pegas@@@2@@std@@@1@@Z 0044e860 f i engine:collision_checker.obj
 0001:0004d880       ??$_Allocate@U_Node@?$_Tree_nod@V?$_Tmap_traits@PAVICollisionHull@Pegas@@PAV?$Cell@PAVICollisionHull@Pegas@@@2@U?$less@PAVICollisionHull@Pegas@@@std@@V?$allocator@U?$pair@QAVICollisionHull@Pegas@@PAV?$Cell@PAVICollisionHull@Pegas@@@2@@std@@@5@$0A@@std@@@std@@@std@@YAPAU_Node@?$_Tree_nod@V?$_Tmap_traits@PAVICollisionHull@Pegas@@PAV?$Cell@PAVICollisionHull@Pegas@@@2@U?$less@PAVICollisionHull@Pegas@@@std@@V?$allocator@U?$pair@QAVICollisionHull@Pegas@@PAV?$Cell@PAVICollisionHull@Pegas@@@2@@std@@@5@$0A@@std@@@0@IPAU120@@Z 0044e880 f i engine:collision_checker.obj
 0001:0004d8e0       ??$_Construct@PAU_Node@?$_Tree_nod@V?$_Tmap_traits@PAVICollisionHull@Pegas@@PAV?$Cell@PAVICollisionHull@Pegas@@@2@U?$less@PAVICollisionHull@Pegas@@@std@@V?$allocator@U?$pair@QAVICollisionHull@Pegas@@PAV?$Cell@PAVICollisionHull@Pegas@@@2@@std@@@5@$0A@@std@@@std@@PAU123@@std@@YAXPAPAU_Node@?$_Tree_nod@V?$_Tmap_traits@PAVICollisionHull@Pegas@@PAV?$Cell@PAVICollisionHull@Pegas@@@2@U?$less@PAVICollisionHull@Pegas@@@std@@V?$allocator@U?$pair@QAVICollisionHull@Pegas@@PAV?$Cell@PAVICollisionHull@Pegas@@@2@@std@@@5@$0A@@std@@@0@ABQAU120@@Z 0044e8e0 f i engine:collision_checker.obj
 0001:0004d930       ??_E?$Cell@PAVICollisionHull@Pegas@@@Pegas@@QAEPAXI@Z 0044e930 f i engine:collision_checker.obj
